ARM GAS  /tmp/cc0hdkbz.s 			page 1


   1              		.syntax unified
   2              		.cpu cortex-m3
   3              		.fpu softvfp
   4              		.eabi_attribute 20, 1
   5              		.eabi_attribute 21, 1
   6              		.eabi_attribute 23, 3
   7              		.eabi_attribute 24, 1
   8              		.eabi_attribute 25, 1
   9              		.eabi_attribute 26, 1
  10              		.eabi_attribute 30, 2
  11              		.eabi_attribute 34, 1
  12              		.eabi_attribute 18, 4
  13              		.thumb
  14              		.file	"chheap.c"
  15              		.text
  16              	.Ltext0:
  17              		.cfi_sections	.debug_frame
  18              		.section	.text._heap_init,"ax",%progbits
  19              		.align	2
  20              		.p2align 4,,15
  21              		.global	_heap_init
  22              		.thumb
  23              		.thumb_func
  24              		.type	_heap_init, %function
  25              	_heap_init:
  26              	.LFB182:
  27              		.file 1 "../../../resources/chibios/ChibiOS_16.1.8/os/rt/src/chheap.c"
  28              		.loc 1 91 0
  29              		.cfi_startproc
  30              		@ args = 0, pretend = 0, frame = 0
  31              		@ frame_needed = 0, uses_anonymous_args = 0
  32              		@ link register save eliminated.
  33              		.loc 1 93 0
  34 0000 40F20003 		movw	r3, #:lower16:.LANCHOR0
  35 0004 C0F20003 		movt	r3, #:upper16:.LANCHOR0
  36 0008 40F20002 		movw	r2, #:lower16:chCoreAlloc
  37              		.loc 1 94 0
  38 000c 0021     		movs	r1, #0
  39              		.loc 1 93 0
  40 000e C0F20002 		movt	r2, #:upper16:chCoreAlloc
  41              		.loc 1 97 0
  42 0012 03F11000 		add	r0, r3, #16
  43              		.loc 1 93 0
  44 0016 1A60     		str	r2, [r3, #0]
  45              		.loc 1 94 0
  46 0018 9960     		str	r1, [r3, #8]
  47              		.loc 1 95 0
  48 001a D960     		str	r1, [r3, #12]
  49              		.loc 1 101 0
  50              		.loc 1 97 0
  51 001c FFF7FEBF 		b	chMtxObjectInit
  52              		.cfi_endproc
  53              	.LFE182:
  54              		.size	_heap_init, .-_heap_init
  55              		.section	.text.chHeapObjectInit,"ax",%progbits
  56              		.align	2
  57              		.p2align 4,,15
ARM GAS  /tmp/cc0hdkbz.s 			page 2


  58              		.global	chHeapObjectInit
  59              		.thumb
  60              		.thumb_func
  61              		.type	chHeapObjectInit, %function
  62              	chHeapObjectInit:
  63              	.LFB183:
  64              		.loc 1 114 0
  65              		.cfi_startproc
  66              		@ args = 0, pretend = 0, frame = 0
  67              		@ frame_needed = 0, uses_anonymous_args = 0
  68              		@ link register save eliminated.
  69              	.LVL0:
  70              		.loc 1 119 0
  71 0000 0023     		movs	r3, #0
  72 0002 0360     		str	r3, [r0, #0]
  73              		.loc 1 120 0
  74 0004 8160     		str	r1, [r0, #8]
  75              		.loc 1 121 0
  76 0006 C360     		str	r3, [r0, #12]
  77              		.loc 1 123 0
  78 0008 083A     		subs	r2, r2, #8
  79              	.LVL1:
  80              		.loc 1 125 0
  81 000a 1030     		adds	r0, r0, #16
  82              	.LVL2:
  83              		.loc 1 122 0
  84 000c 0B60     		str	r3, [r1, #0]
  85              		.loc 1 123 0
  86 000e 4A60     		str	r2, [r1, #4]
  87              		.loc 1 129 0
  88              		.loc 1 125 0
  89 0010 FFF7FEBF 		b	chMtxObjectInit
  90              	.LVL3:
  91              	.LVL4:
  92              	.LVL5:
  93              	.LVL6:
  94              		.cfi_endproc
  95              	.LFE183:
  96              		.size	chHeapObjectInit, .-chHeapObjectInit
  97              		.section	.text.chHeapAlloc,"ax",%progbits
  98              		.align	2
  99              		.p2align 4,,15
 100              		.global	chHeapAlloc
 101              		.thumb
 102              		.thumb_func
 103              		.type	chHeapAlloc, %function
 104              	chHeapAlloc:
 105              	.LFB184:
 106              		.loc 1 147 0
 107              		.cfi_startproc
 108              		@ args = 0, pretend = 0, frame = 0
 109              		@ frame_needed = 0, uses_anonymous_args = 0
 110              	.LVL7:
 111 0000 F8B5     		push	{r3, r4, r5, r6, r7, lr}
 112              	.LCFI0:
 113              		.cfi_def_cfa_offset 24
 114              		.cfi_offset 14, -4
ARM GAS  /tmp/cc0hdkbz.s 			page 3


 115              		.cfi_offset 7, -8
 116              		.cfi_offset 6, -12
 117              		.cfi_offset 5, -16
 118              		.cfi_offset 4, -20
 119              		.cfi_offset 3, -24
 120              		.loc 1 151 0
 121 0002 40F20004 		movw	r4, #:lower16:.LANCHOR0
 122 0006 C0F20004 		movt	r4, #:upper16:.LANCHOR0
 123 000a 0028     		cmp	r0, #0
 124 000c 18BF     		it	ne
 125 000e 0446     		movne	r4, r0
 126              		.loc 1 157 0
 127 0010 04F11005 		add	r5, r4, #16
 128              		.loc 1 154 0
 129 0014 0731     		adds	r1, r1, #7
 130              	.LVL8:
 131              		.loc 1 157 0
 132 0016 2846     		mov	r0, r5
 133              	.LVL9:
 134              		.loc 1 154 0
 135 0018 21F00707 		bic	r7, r1, #7
 136              	.LVL10:
 137              		.loc 1 155 0
 138 001c 04F10806 		add	r6, r4, #8
 139              	.LVL11:
 140              		.loc 1 157 0
 141 0020 FFF7FEFF 		bl	chMtxLock
 142              		.loc 1 158 0
 143 0024 00E0     		b	.L5
 144              	.LVL12:
 145              	.L11:
 146              		.loc 1 160 0
 147 0026 1E46     		mov	r6, r3
 148              	.LVL13:
 149              	.L5:
 150              		.loc 1 158 0 discriminator 1
 151 0028 3368     		ldr	r3, [r6, #0]
 152 002a 1BB3     		cbz	r3, .L14
 153              	.LVL14:
 154              		.loc 1 160 0
 155 002c 5A68     		ldr	r2, [r3, #4]
 156 002e 9742     		cmp	r7, r2
 157 0030 F9D8     		bhi	.L11
 158              		.loc 1 161 0
 159 0032 07F10801 		add	r1, r7, #8
 160 0036 8A42     		cmp	r2, r1
 161 0038 19D3     		bcc	.L15
 162              		.loc 1 173 0
 163 003a 4FF6F87E 		movw	lr, #65528
 164 003e CFF6FF7E 		movt	lr, 65535
 165              		.loc 1 172 0
 166 0042 D3F800C0 		ldr	ip, [r3, #0]
 167              		.loc 1 173 0
 168 0046 C7EB0E00 		rsb	r0, r7, lr
 169 004a 8018     		adds	r0, r0, r2
 170              		.loc 1 170 0
 171 004c 03EB010E 		add	lr, r3, r1
ARM GAS  /tmp/cc0hdkbz.s 			page 4


 172              	.LVL15:
 173              		.loc 1 172 0
 174 0050 43F801C0 		str	ip, [r3, r1]
 175              		.loc 1 173 0
 176 0054 CEF80400 		str	r0, [lr, #4]
 177              		.loc 1 174 0
 178 0058 C6F800E0 		str	lr, [r6, #0]
 179              		.loc 1 175 0
 180 005c 5F60     		str	r7, [r3, #4]
 181              	.LVL16:
 182              	.L7:
 183              		.loc 1 177 0
 184 005e 1E46     		mov	r6, r3
 185              	.LVL17:
 186 0060 46F8084B 		str	r4, [r6], #8
 187              		.loc 1 178 0
 188 0064 2846     		mov	r0, r5
 189 0066 FFF7FEFF 		bl	chMtxUnlock
 190              	.LVL18:
 191              	.L8:
 192              		.loc 1 204 0
 193 006a 3046     		mov	r0, r6
 194 006c F8BD     		pop	{r3, r4, r5, r6, r7, pc}
 195              	.LVL19:
 196              	.L15:
 197              		.loc 1 165 0
 198 006e 1A68     		ldr	r2, [r3, #0]
 199 0070 3260     		str	r2, [r6, #0]
 200 0072 F4E7     		b	.L7
 201              	.LVL20:
 202              	.L14:
 203              		.loc 1 186 0
 204 0074 2846     		mov	r0, r5
 205 0076 FFF7FEFF 		bl	chMtxUnlock
 206              		.loc 1 190 0
 207 007a 2668     		ldr	r6, [r4, #0]
 208              	.LVL21:
 209 007c 002E     		cmp	r6, #0
 210 007e F4D0     		beq	.L8
 211              		.loc 1 191 0
 212 0080 07F10800 		add	r0, r7, #8
 213 0084 B047     		blx	r6
 214              	.LVL22:
 215              		.loc 1 192 0
 216 0086 0646     		mov	r6, r0
 217 0088 0028     		cmp	r0, #0
 218 008a EED0     		beq	.L8
 219              		.loc 1 198 0
 220 008c 00F10806 		add	r6, r0, #8
 221              		.loc 1 194 0
 222 0090 80E89000 		stmia	r0, {r4, r7}
 223              	.LVL23:
 224              		.loc 1 204 0
 225 0094 3046     		mov	r0, r6
 226 0096 F8BD     		pop	{r3, r4, r5, r6, r7, pc}
 227              		.cfi_endproc
 228              	.LFE184:
ARM GAS  /tmp/cc0hdkbz.s 			page 5


 229              		.size	chHeapAlloc, .-chHeapAlloc
 230 0098 AFF30080 		.section	.text.chHeapFree,"ax",%progbits
 230      AFF30080 
 231              		.align	2
 232              		.p2align 4,,15
 233              		.global	chHeapFree
 234              		.thumb
 235              		.thumb_func
 236              		.type	chHeapFree, %function
 237              	chHeapFree:
 238              	.LFB185:
 239              		.loc 1 213 0
 240              		.cfi_startproc
 241              		@ args = 0, pretend = 0, frame = 0
 242              		@ frame_needed = 0, uses_anonymous_args = 0
 243              	.LVL24:
 244 0000 F8B5     		push	{r3, r4, r5, r6, r7, lr}
 245              	.LCFI1:
 246              		.cfi_def_cfa_offset 24
 247              		.cfi_offset 14, -4
 248              		.cfi_offset 7, -8
 249              		.cfi_offset 6, -12
 250              		.cfi_offset 5, -16
 251              		.cfi_offset 4, -20
 252              		.cfi_offset 3, -24
 253              		.loc 1 222 0
 254 0002 50F8085C 		ldr	r5, [r0, #-8]
 255              		.loc 1 213 0
 256 0006 0646     		mov	r6, r0
 257              		.loc 1 225 0
 258 0008 05F11007 		add	r7, r5, #16
 259              		.loc 1 220 0
 260 000c A0F10804 		sub	r4, r0, #8
 261              	.LVL25:
 262              		.loc 1 223 0
 263 0010 0835     		adds	r5, r5, #8
 264              	.LVL26:
 265              		.loc 1 225 0
 266 0012 3846     		mov	r0, r7
 267              	.LVL27:
 268 0014 FFF7FEFF 		bl	chMtxLock
 269              	.LVL28:
 270              		.loc 1 223 0
 271 0018 2B46     		mov	r3, r5
 272              	.LVL29:
 273              	.L24:
 274              		.loc 1 229 0
 275 001a 591B     		subs	r1, r3, r5
 276 001c 4842     		rsbs	r0, r1, #0
 277 001e 40EB0102 		adc	r2, r0, r1
 278 0022 9C42     		cmp	r4, r3
 279 0024 88BF     		it	hi
 280 0026 42F00102 		orrhi	r2, r2, #1
 281 002a 72B1     		cbz	r2, .L17
 282              	.L25:
 283              		.loc 1 230 0 discriminator 1
 284 002c 1A68     		ldr	r2, [r3, #0]
ARM GAS  /tmp/cc0hdkbz.s 			page 6


 285              		.loc 1 229 0 discriminator 1
 286 002e 72B1     		cbz	r2, .L18
 287              		.loc 1 230 0
 288 0030 9442     		cmp	r4, r2
 289 0032 0CD3     		bcc	.L18
 290 0034 1346     		mov	r3, r2
 291              	.LVL30:
 292              		.loc 1 229 0
 293 0036 591B     		subs	r1, r3, r5
 294 0038 4842     		rsbs	r0, r1, #0
 295 003a 40EB0102 		adc	r2, r0, r1
 296              	.LVL31:
 297 003e 9C42     		cmp	r4, r3
 298 0040 88BF     		it	hi
 299 0042 42F00102 		orrhi	r2, r2, #1
 300 0046 002A     		cmp	r2, #0
 301 0048 F0D1     		bne	.L25
 302              	.L17:
 303              		.loc 1 243 0
 304 004a 1B68     		ldr	r3, [r3, #0]
 305              	.LVL32:
 306 004c E5E7     		b	.L24
 307              	.LVL33:
 308              	.L18:
 309              		.loc 1 235 0
 310 004e 56F8041C 		ldr	r1, [r6, #-4]
 311              		.loc 1 232 0
 312 0052 46F8082C 		str	r2, [r6, #-8]
 313              		.loc 1 233 0
 314 0056 1C60     		str	r4, [r3, #0]
 315              		.loc 1 235 0
 316 0058 01F10802 		add	r2, r1, #8
 317 005c 56F8085C 		ldr	r5, [r6, #-8]
 318 0060 A018     		adds	r0, r4, r2
 319 0062 A842     		cmp	r0, r5
 320 0064 0BD0     		beq	.L26
 321              		.loc 1 240 0
 322 0066 5A68     		ldr	r2, [r3, #4]
 323 0068 02F1080E 		add	lr, r2, #8
 324 006c 03EB0E0C 		add	ip, r3, lr
 325 0070 6445     		cmp	r4, ip
 326 0072 13D0     		beq	.L27
 327              	.L21:
 328              		.loc 1 249 0
 329 0074 3846     		mov	r0, r7
 330              		.loc 1 252 0
 331 0076 BDE8F840 		pop	{r3, r4, r5, r6, r7, lr}
 332              		.loc 1 249 0
 333 007a FFF7FEBF 		b	chMtxUnlock
 334              	.LVL34:
 335              	.L26:
 336              		.loc 1 237 0
 337 007e 4068     		ldr	r0, [r0, #4]
 338              		.loc 1 238 0
 339 0080 A258     		ldr	r2, [r4, r2]
 340              		.loc 1 237 0
 341 0082 0818     		adds	r0, r1, r0
ARM GAS  /tmp/cc0hdkbz.s 			page 7


 342 0084 0830     		adds	r0, r0, #8
 343 0086 46F8040C 		str	r0, [r6, #-4]
 344              		.loc 1 238 0
 345 008a 46F8082C 		str	r2, [r6, #-8]
 346              		.loc 1 240 0
 347 008e 5A68     		ldr	r2, [r3, #4]
 348 0090 02F1080E 		add	lr, r2, #8
 349 0094 03EB0E0C 		add	ip, r3, lr
 350 0098 6445     		cmp	r4, ip
 351 009a EBD1     		bne	.L21
 352              	.L27:
 353              		.loc 1 242 0
 354 009c 56F8040C 		ldr	r0, [r6, #-4]
 355              		.loc 1 243 0
 356 00a0 56F8081C 		ldr	r1, [r6, #-8]
 357              		.loc 1 242 0
 358 00a4 1218     		adds	r2, r2, r0
 359 00a6 0832     		adds	r2, r2, #8
 360              		.loc 1 243 0
 361 00a8 83E80600 		stmia	r3, {r1, r2}
 362 00ac E2E7     		b	.L21
 363              		.cfi_endproc
 364              	.LFE185:
 365              		.size	chHeapFree, .-chHeapFree
 366 00ae 00BF     		.section	.text.chHeapStatus,"ax",%progbits
 367              		.align	2
 368              		.p2align 4,,15
 369              		.global	chHeapStatus
 370              		.thumb
 371              		.thumb_func
 372              		.type	chHeapStatus, %function
 373              	chHeapStatus:
 374              	.LFB186:
 375              		.loc 1 267 0
 376              		.cfi_startproc
 377              		@ args = 0, pretend = 0, frame = 0
 378              		@ frame_needed = 0, uses_anonymous_args = 0
 379              	.LVL35:
 380 0000 70B5     		push	{r4, r5, r6, lr}
 381              	.LCFI2:
 382              		.cfi_def_cfa_offset 16
 383              		.cfi_offset 14, -4
 384              		.cfi_offset 6, -8
 385              		.cfi_offset 5, -12
 386              		.cfi_offset 4, -16
 387              		.loc 1 272 0
 388 0002 40F20005 		movw	r5, #:lower16:.LANCHOR0
 389 0006 C0F20005 		movt	r5, #:upper16:.LANCHOR0
 390 000a 0028     		cmp	r0, #0
 391 000c 18BF     		it	ne
 392 000e 0546     		movne	r5, r0
 393              		.loc 1 275 0
 394 0010 05F11004 		add	r4, r5, #16
 395 0014 2046     		mov	r0, r4
 396              	.LVL36:
 397              		.loc 1 267 0
 398 0016 0E46     		mov	r6, r1
ARM GAS  /tmp/cc0hdkbz.s 			page 8


 399              		.loc 1 275 0
 400 0018 FFF7FEFF 		bl	chMtxLock
 401              	.LVL37:
 402              		.loc 1 279 0
 403 001c AB68     		ldr	r3, [r5, #8]
 404              		.loc 1 276 0
 405 001e 1A46     		mov	r2, r3
 406              		.loc 1 277 0
 407 0020 1D46     		mov	r5, r3
 408              		.loc 1 279 0
 409 0022 3BB1     		cbz	r3, .L30
 410 0024 0022     		movs	r2, #0
 411 0026 1546     		mov	r5, r2
 412              	.LVL38:
 413              	.L31:
 414              		.loc 1 280 0
 415 0028 5968     		ldr	r1, [r3, #4]
 416              		.loc 1 279 0
 417 002a 1B68     		ldr	r3, [r3, #0]
 418              		.loc 1 280 0
 419 002c 5218     		adds	r2, r2, r1
 420              	.LVL39:
 421              		.loc 1 281 0
 422 002e 0135     		adds	r5, r5, #1
 423              	.LVL40:
 424              		.loc 1 279 0
 425 0030 002B     		cmp	r3, #0
 426 0032 F9D1     		bne	.L31
 427              	.LVL41:
 428              	.L30:
 429              		.loc 1 284 0
 430 0034 06B1     		cbz	r6, .L32
 431              		.loc 1 285 0
 432 0036 3260     		str	r2, [r6, #0]
 433              	.L32:
 434              		.loc 1 287 0
 435 0038 2046     		mov	r0, r4
 436 003a FFF7FEFF 		bl	chMtxUnlock
 437              		.loc 1 290 0
 438 003e 2846     		mov	r0, r5
 439 0040 70BD     		pop	{r4, r5, r6, pc}
 440              		.cfi_endproc
 441              	.LFE186:
 442              		.size	chHeapStatus, .-chHeapStatus
 443 0042 00BFAFF3 		.section	.bss.default_heap,"aw",%nobits
 443      0080AFF3 
 443      0080AFF3 
 443      0080
 444              		.align	3
 445              		.set	.LANCHOR0,. + 0
 446              		.type	default_heap, %object
 447              		.size	default_heap, 32
 448              	default_heap:
 449 0000 00000000 		.space	32
 449      00000000 
 449      00000000 
 449      00000000 
ARM GAS  /tmp/cc0hdkbz.s 			page 9


 449      00000000 
 450              		.text
 451              	.Letext0:
 452              		.file 2 "/home/madog/programs/CodeSourcery/Sourcery_CodeBench_Lite_for_ARM_EABI/bin/../lib/gcc/arm
 453              		.file 3 "/home/madog/programs/CodeSourcery/Sourcery_CodeBench_Lite_for_ARM_EABI/bin/../lib/gcc/arm
 454              		.file 4 "../../../resources/chibios/ChibiOS_16.1.8/os/rt/ports/ARMCMx/compilers/GCC/chtypes.h"
 455              		.file 5 "../../../resources/chibios/ChibiOS_16.1.8/os/rt/include/chsystypes.h"
 456              		.file 6 "../../../resources/chibios/ChibiOS_16.1.8/os/rt/include/chschd.h"
 457              		.file 7 "../../../resources/chibios/ChibiOS_16.1.8/os/rt/ports/ARMCMx/chcore.h"
 458              		.file 8 "../../../resources/chibios/ChibiOS_16.1.8/os/rt/ports/ARMCMx/chcore_v7m.h"
 459              		.file 9 "../../../resources/chibios/ChibiOS_16.1.8/os/rt/include/chtm.h"
 460              		.file 10 "../../../resources/chibios/ChibiOS_16.1.8/os/rt/include/chsem.h"
 461              		.file 11 "../../../resources/chibios/ChibiOS_16.1.8/os/rt/include/chmtx.h"
 462              		.file 12 "../../../resources/chibios/ChibiOS_16.1.8/os/rt/include/chmemcore.h"
 463              		.file 13 "../../../resources/chibios/ChibiOS_16.1.8/os/rt/include/chheap.h"
 464              		.file 14 "../../../resources/chibios/ChibiOS_16.1.8/os/ext/CMSIS/include/core_cm3.h"