ARM GAS  /tmp/cca9OIta.s 			page 1


   1              		.syntax unified
   2              		.cpu cortex-m3
   3              		.fpu softvfp
   4              		.eabi_attribute 20, 1
   5              		.eabi_attribute 21, 1
   6              		.eabi_attribute 23, 3
   7              		.eabi_attribute 24, 1
   8              		.eabi_attribute 25, 1
   9              		.eabi_attribute 26, 1
  10              		.eabi_attribute 30, 2
  11              		.eabi_attribute 34, 1
  12              		.eabi_attribute 18, 4
  13              		.thumb
  14              		.file	"chmboxes.c"
  15              		.text
  16              	.Ltext0:
  17              		.cfi_sections	.debug_frame
  18              		.section	.text.chMBObjectInit,"ax",%progbits
  19              		.align	2
  20              		.p2align 4,,15
  21              		.global	chMBObjectInit
  22              		.thumb
  23              		.thumb_func
  24              		.type	chMBObjectInit, %function
  25              	chMBObjectInit:
  26              	.LFB182:
  27              		.file 1 "../../../resources/chibios/ChibiOS_16.1.8/os/rt/src/chmboxes.c"
  28              		.loc 1 86 0
  29              		.cfi_startproc
  30              		@ args = 0, pretend = 0, frame = 0
  31              		@ frame_needed = 0, uses_anonymous_args = 0
  32              		@ link register save eliminated.
  33              	.LVL0:
  34 0000 30B4     		push	{r4, r5}
  35              	.LCFI0:
  36              		.cfi_def_cfa_offset 8
  37              		.cfi_offset 5, -4
  38              		.cfi_offset 4, -8
  39              		.loc 1 97 0
  40 0002 00F12003 		add	r3, r0, #32
  41              		.loc 1 94 0
  42 0006 0025     		movs	r5, #0
  43              		.loc 1 96 0
  44 0008 00F11804 		add	r4, r0, #24
  45              	.LVL1:
  46              		.loc 1 93 0
  47 000c 01EB8202 		add	r2, r1, r2, lsl #2
  48              	.LVL2:
  49              		.loc 1 90 0
  50 0010 0160     		str	r1, [r0, #0]
  51              		.loc 1 91 0
  52 0012 C160     		str	r1, [r0, #12]
  53              		.loc 1 92 0
  54 0014 8160     		str	r1, [r0, #8]
  55              		.loc 1 93 0
  56 0016 4260     		str	r2, [r0, #4]
  57              		.loc 1 94 0
ARM GAS  /tmp/cca9OIta.s 			page 2


  58 0018 0561     		str	r5, [r0, #16]
  59              		.loc 1 95 0
  60 001a 0575     		strb	r5, [r0, #20]
  61              	.LBB96:
  62              	.LBB97:
  63              	.LBB98:
  64              		.file 2 "../../../resources/chibios/ChibiOS_16.1.8/os/rt/include/chschd.h"
  65              		.loc 2 604 0
  66 001c 8461     		str	r4, [r0, #24]
  67              		.loc 2 605 0
  68 001e C461     		str	r4, [r0, #28]
  69              	.LBE98:
  70              	.LBE97:
  71              	.LBE96:
  72              	.LBB99:
  73              	.LBB100:
  74              	.LBB101:
  75              		.loc 2 604 0
  76 0020 0362     		str	r3, [r0, #32]
  77              		.loc 2 605 0
  78 0022 4362     		str	r3, [r0, #36]
  79              	.LBE101:
  80              	.LBE100:
  81              	.LBE99:
  82              		.loc 1 98 0
  83 0024 30BC     		pop	{r4, r5}
  84 0026 7047     		bx	lr
  85              		.cfi_endproc
  86              	.LFE182:
  87              		.size	chMBObjectInit, .-chMBObjectInit
  88 0028 AFF30080 		.section	.text.chMBResetI,"ax",%progbits
  88      AFF30080 
  89              		.align	2
  90              		.p2align 4,,15
  91              		.global	chMBResetI
  92              		.thumb
  93              		.thumb_func
  94              		.type	chMBResetI, %function
  95              	chMBResetI:
  96              	.LFB184:
  97              		.loc 1 132 0
  98              		.cfi_startproc
  99              		@ args = 0, pretend = 0, frame = 0
 100              		@ frame_needed = 0, uses_anonymous_args = 0
 101              	.LVL3:
 102              		.loc 1 137 0
 103 0000 0368     		ldr	r3, [r0, #0]
 104              		.loc 1 132 0
 105 0002 10B5     		push	{r4, lr}
 106              	.LCFI1:
 107              		.cfi_def_cfa_offset 8
 108              		.cfi_offset 14, -4
 109              		.cfi_offset 4, -8
 110              		.loc 1 132 0
 111 0004 0446     		mov	r4, r0
 112              		.loc 1 137 0
 113 0006 A360     		str	r3, [r4, #8]
ARM GAS  /tmp/cca9OIta.s 			page 3


 114              		.loc 1 138 0
 115 0008 E360     		str	r3, [r4, #12]
 116              		.loc 1 139 0
 117 000a 0022     		movs	r2, #0
 118              		.loc 1 140 0
 119 000c 0123     		movs	r3, #1
 120              		.loc 1 141 0
 121 000e 1830     		adds	r0, r0, #24
 122              	.LVL4:
 123 0010 6FF00101 		mvn	r1, #1
 124              		.loc 1 139 0
 125 0014 2261     		str	r2, [r4, #16]
 126              		.loc 1 140 0
 127 0016 2375     		strb	r3, [r4, #20]
 128              		.loc 1 141 0
 129 0018 FFF7FEFF 		bl	chThdDequeueAllI
 130              		.loc 1 142 0
 131 001c 04F12000 		add	r0, r4, #32
 132 0020 6FF00101 		mvn	r1, #1
 133              		.loc 1 143 0
 134 0024 BDE81040 		pop	{r4, lr}
 135              		.loc 1 142 0
 136 0028 FFF7FEBF 		b	chThdDequeueAllI
 137              		.cfi_endproc
 138              	.LFE184:
 139              		.size	chMBResetI, .-chMBResetI
 140 002c AFF30080 		.section	.text.chMBReset,"ax",%progbits
 141              		.align	2
 142              		.p2align 4,,15
 143              		.global	chMBReset
 144              		.thumb
 145              		.thumb_func
 146              		.type	chMBReset, %function
 147              	chMBReset:
 148              	.LFB183:
 149              		.loc 1 112 0
 150              		.cfi_startproc
 151              		@ args = 0, pretend = 0, frame = 0
 152              		@ frame_needed = 0, uses_anonymous_args = 0
 153              	.LVL5:
 154 0000 08B5     		push	{r3, lr}
 155              	.LCFI2:
 156              		.cfi_def_cfa_offset 8
 157              		.cfi_offset 14, -4
 158              		.cfi_offset 3, -8
 159              	.LBB102:
 160              	.LBB103:
 161              	.LBB104:
 162              	.LBB105:
 163              		.file 3 "../../../resources/chibios/ChibiOS_16.1.8/os/ext/CMSIS/include/core_cmFunc.h"
 164              		.loc 3 548 0
 165 0002 2021     		movs	r1, #32
 166              	@ 548 "../../../resources/chibios/ChibiOS_16.1.8/os/ext/CMSIS/include/core_cmFunc.h" 1
 167 0004 81F31188 		MSR basepri, r1
 168              	@ 0 "" 2
 169              		.thumb
 170              	.LBE105:
ARM GAS  /tmp/cca9OIta.s 			page 4


 171              	.LBE104:
 172              	.LBE103:
 173              	.LBE102:
 174              		.loc 1 115 0
 175 0008 FFF7FEFF 		bl	chMBResetI
 176              	.LVL6:
 177              		.loc 1 116 0
 178 000c FFF7FEFF 		bl	chSchRescheduleS
 179              	.LVL7:
 180              	.LBB106:
 181              	.LBB107:
 182              	.LBB108:
 183              	.LBB109:
 184              	.LBB110:
 185              		.loc 3 548 0
 186 0010 0023     		movs	r3, #0
 187              	@ 548 "../../../resources/chibios/ChibiOS_16.1.8/os/ext/CMSIS/include/core_cmFunc.h" 1
 188 0012 83F31188 		MSR basepri, r3
 189              	@ 0 "" 2
 190              		.thumb
 191              	.LBE110:
 192              	.LBE109:
 193              	.LBE108:
 194              	.LBE107:
 195              	.LBE106:
 196              		.loc 1 118 0
 197 0016 08BD     		pop	{r3, pc}
 198              		.cfi_endproc
 199              	.LFE183:
 200              		.size	chMBReset, .-chMBReset
 201 0018 AFF30080 		.section	.text.chMBPostS,"ax",%progbits
 201      AFF30080 
 202              		.align	2
 203              		.p2align 4,,15
 204              		.global	chMBPostS
 205              		.thumb
 206              		.thumb_func
 207              		.type	chMBPostS, %function
 208              	chMBPostS:
 209              	.LFB186:
 210              		.loc 1 193 0
 211              		.cfi_startproc
 212              		@ args = 0, pretend = 0, frame = 0
 213              		@ frame_needed = 0, uses_anonymous_args = 0
 214              	.LVL8:
 215 0000 2DE9F041 		push	{r4, r5, r6, r7, r8, lr}
 216              	.LCFI3:
 217              		.cfi_def_cfa_offset 24
 218              		.cfi_offset 14, -4
 219              		.cfi_offset 8, -8
 220              		.cfi_offset 7, -12
 221              		.cfi_offset 6, -16
 222              		.cfi_offset 5, -20
 223              		.cfi_offset 4, -24
 224              		.loc 1 193 0
 225 0004 0446     		mov	r4, r0
 226 0006 0D46     		mov	r5, r1
ARM GAS  /tmp/cca9OIta.s 			page 5


 227 0008 9046     		mov	r8, r2
 228              		.loc 1 221 0
 229 000a 00F11807 		add	r7, r0, #24
 230              	.LVL9:
 231              	.L8:
 232              		.loc 1 201 0
 233 000e 267D     		ldrb	r6, [r4, #20]	@ zero_extendqisi2
 234              		.loc 1 221 0
 235 0010 3846     		mov	r0, r7
 236 0012 4146     		mov	r1, r8
 237              		.loc 1 201 0
 238 0014 86B9     		cbnz	r6, .L9
 239              	.LVL10:
 240              	.LBB111:
 241              		.loc 1 518 0
 242 0016 2368     		ldr	r3, [r4, #0]
 243 0018 6268     		ldr	r2, [r4, #4]
 244              	.LBB112:
 245              		.file 4 "../../../resources/chibios/ChibiOS_16.1.8/os/rt/include/chmboxes.h"
 246              		.loc 4 172 0
 247 001a D4F810E0 		ldr	lr, [r4, #16]
 248              	.LBB113:
 249              	.LBB114:
 250              		.loc 4 140 0
 251 001e C3EB020C 		rsb	ip, r3, r2
 252              	.LBE114:
 253              	.LBE113:
 254              		.loc 4 172 0
 255 0022 CEEBAC0E 		rsb	lr, lr, ip, asr #2
 256              	.LBE112:
 257              	.LBE111:
 258              		.loc 1 206 0
 259 0026 BEF1000F 		cmp	lr, #0
 260 002a 09DC     		bgt	.L12
 261              		.loc 1 221 0
 262 002c FFF7FEFF 		bl	chThdEnqueueTimeoutS
 263              	.LVL11:
 264              		.loc 1 222 0
 265 0030 0028     		cmp	r0, #0
 266 0032 ECD0     		beq	.L8
 267 0034 BDE8F081 		pop	{r4, r5, r6, r7, r8, pc}
 268              	.LVL12:
 269              	.L9:
 270              		.loc 1 202 0
 271 0038 6FF00100 		mvn	r0, #1
 272              		.loc 1 225 0
 273 003c BDE8F081 		pop	{r4, r5, r6, r7, r8, pc}
 274              	.LVL13:
 275              	.L12:
 276              		.loc 1 207 0
 277 0040 A168     		ldr	r1, [r4, #8]
 278              		.loc 1 214 0
 279 0042 04F12000 		add	r0, r4, #32
 280              		.loc 1 207 0
 281 0046 41F8045B 		str	r5, [r1], #4
 282              		.loc 1 211 0
 283 004a 2569     		ldr	r5, [r4, #16]
ARM GAS  /tmp/cca9OIta.s 			page 6


 284              	.LVL14:
 285              		.loc 1 209 0
 286 004c 9142     		cmp	r1, r2
 287 004e 38BF     		it	cc
 288 0050 0B46     		movcc	r3, r1
 289              		.loc 1 211 0
 290 0052 0135     		adds	r5, r5, #1
 291              		.loc 1 214 0
 292 0054 3146     		mov	r1, r6
 293              		.loc 1 209 0
 294 0056 A360     		str	r3, [r4, #8]
 295              		.loc 1 211 0
 296 0058 2561     		str	r5, [r4, #16]
 297              		.loc 1 214 0
 298 005a FFF7FEFF 		bl	chThdDequeueNextI
 299              	.LVL15:
 300              		.loc 1 215 0
 301 005e FFF7FEFF 		bl	chSchRescheduleS
 302              		.loc 1 217 0
 303 0062 3046     		mov	r0, r6
 304 0064 BDE8F081 		pop	{r4, r5, r6, r7, r8, pc}
 305              		.cfi_endproc
 306              	.LFE186:
 307              		.size	chMBPostS, .-chMBPostS
 308 0068 AFF30080 		.section	.text.chMBPost,"ax",%progbits
 308      AFF30080 
 309              		.align	2
 310              		.p2align 4,,15
 311              		.global	chMBPost
 312              		.thumb
 313              		.thumb_func
 314              		.type	chMBPost, %function
 315              	chMBPost:
 316              	.LFB185:
 317              		.loc 1 164 0
 318              		.cfi_startproc
 319              		@ args = 0, pretend = 0, frame = 0
 320              		@ frame_needed = 0, uses_anonymous_args = 0
 321              	.LVL16:
 322 0000 08B5     		push	{r3, lr}
 323              	.LCFI4:
 324              		.cfi_def_cfa_offset 8
 325              		.cfi_offset 14, -4
 326              		.cfi_offset 3, -8
 327              	.LBB115:
 328              	.LBB116:
 329              	.LBB117:
 330              	.LBB118:
 331              		.loc 3 548 0
 332 0002 2023     		movs	r3, #32
 333              	@ 548 "../../../resources/chibios/ChibiOS_16.1.8/os/ext/CMSIS/include/core_cmFunc.h" 1
 334 0004 83F31188 		MSR basepri, r3
 335              	@ 0 "" 2
 336              		.thumb
 337              	.LBE118:
 338              	.LBE117:
 339              	.LBE116:
ARM GAS  /tmp/cca9OIta.s 			page 7


 340              	.LBE115:
 341              		.loc 1 168 0
 342 0008 FFF7FEFF 		bl	chMBPostS
 343              	.LVL17:
 344              	.LBB119:
 345              	.LBB120:
 346              	.LBB121:
 347              	.LBB122:
 348              	.LBB123:
 349              		.loc 3 548 0
 350 000c 0023     		movs	r3, #0
 351              	@ 548 "../../../resources/chibios/ChibiOS_16.1.8/os/ext/CMSIS/include/core_cmFunc.h" 1
 352 000e 83F31188 		MSR basepri, r3
 353              	@ 0 "" 2
 354              		.thumb
 355              	.LBE123:
 356              	.LBE122:
 357              	.LBE121:
 358              	.LBE120:
 359              	.LBE119:
 360              		.loc 1 172 0
 361 0012 08BD     		pop	{r3, pc}
 362              		.cfi_endproc
 363              	.LFE185:
 364              		.size	chMBPost, .-chMBPost
 365 0014 AFF30080 		.section	.text.chMBPostI,"ax",%progbits
 365      AFF30080 
 365      AFF30080 
 366              		.align	2
 367              		.p2align 4,,15
 368              		.global	chMBPostI
 369              		.thumb
 370              		.thumb_func
 371              		.type	chMBPostI, %function
 372              	chMBPostI:
 373              	.LFB187:
 374              		.loc 1 242 0
 375              		.cfi_startproc
 376              		@ args = 0, pretend = 0, frame = 0
 377              		@ frame_needed = 0, uses_anonymous_args = 0
 378              	.LVL18:
 379 0000 70B5     		push	{r4, r5, r6, lr}
 380              	.LCFI5:
 381              		.cfi_def_cfa_offset 16
 382              		.cfi_offset 14, -4
 383              		.cfi_offset 6, -8
 384              		.cfi_offset 5, -12
 385              		.cfi_offset 4, -16
 386              		.loc 1 248 0
 387 0002 047D     		ldrb	r4, [r0, #20]	@ zero_extendqisi2
 388              		.loc 1 242 0
 389 0004 0346     		mov	r3, r0
 390              		.loc 1 248 0
 391 0006 C4B9     		cbnz	r4, .L17
 392              	.LVL19:
 393              	.LBB124:
 394              		.loc 1 518 0
ARM GAS  /tmp/cca9OIta.s 			page 8


 395 0008 90E82400 		ldmia	r0, {r2, r5}
 396              	.LBB125:
 397              		.loc 4 172 0
 398 000c 0069     		ldr	r0, [r0, #16]
 399              	.LVL20:
 400              	.LBB126:
 401              	.LBB127:
 402              		.loc 4 140 0
 403 000e AE1A     		subs	r6, r5, r2
 404              	.LBE127:
 405              	.LBE126:
 406              		.loc 4 172 0
 407 0010 C0EBA600 		rsb	r0, r0, r6, asr #2
 408              	.LBE125:
 409              	.LBE124:
 410              		.loc 1 253 0
 411 0014 0028     		cmp	r0, #0
 412 0016 13DD     		ble	.L18
 413              		.loc 1 254 0
 414 0018 9E68     		ldr	r6, [r3, #8]
 415              		.loc 1 261 0
 416 001a 03F12000 		add	r0, r3, #32
 417              		.loc 1 254 0
 418 001e 46F8041B 		str	r1, [r6], #4
 419              		.loc 1 258 0
 420 0022 1969     		ldr	r1, [r3, #16]
 421              	.LVL21:
 422              		.loc 1 256 0
 423 0024 AE42     		cmp	r6, r5
 424 0026 28BF     		it	cs
 425 0028 1646     		movcs	r6, r2
 426              		.loc 1 258 0
 427 002a 0131     		adds	r1, r1, #1
 428 002c 1961     		str	r1, [r3, #16]
 429              		.loc 1 256 0
 430 002e 9E60     		str	r6, [r3, #8]
 431              		.loc 1 261 0
 432 0030 2146     		mov	r1, r4
 433 0032 FFF7FEFF 		bl	chThdDequeueNextI
 434              	.LVL22:
 435              		.loc 1 263 0
 436 0036 2046     		mov	r0, r4
 437 0038 70BD     		pop	{r4, r5, r6, pc}
 438              	.LVL23:
 439              	.L17:
 440              		.loc 1 249 0
 441 003a 6FF00100 		mvn	r0, #1
 442              	.LVL24:
 443 003e 70BD     		pop	{r4, r5, r6, pc}
 444              	.LVL25:
 445              	.L18:
 446              		.loc 1 267 0
 447 0040 4FF0FF30 		mov	r0, #-1
 448              		.loc 1 268 0
 449 0044 70BD     		pop	{r4, r5, r6, pc}
 450              		.cfi_endproc
 451              	.LFE187:
ARM GAS  /tmp/cca9OIta.s 			page 9


 452              		.size	chMBPostI, .-chMBPostI
 453 0046 00BFAFF3 		.section	.text.chMBPostAheadS,"ax",%progbits
 453      0080AFF3 
 453      0080
 454              		.align	2
 455              		.p2align 4,,15
 456              		.global	chMBPostAheadS
 457              		.thumb
 458              		.thumb_func
 459              		.type	chMBPostAheadS, %function
 460              	chMBPostAheadS:
 461              	.LFB189:
 462              		.loc 1 318 0
 463              		.cfi_startproc
 464              		@ args = 0, pretend = 0, frame = 0
 465              		@ frame_needed = 0, uses_anonymous_args = 0
 466              	.LVL26:
 467 0000 F8B5     		push	{r3, r4, r5, r6, r7, lr}
 468              	.LCFI6:
 469              		.cfi_def_cfa_offset 24
 470              		.cfi_offset 14, -4
 471              		.cfi_offset 7, -8
 472              		.cfi_offset 6, -12
 473              		.cfi_offset 5, -16
 474              		.cfi_offset 4, -20
 475              		.cfi_offset 3, -24
 476              		.loc 1 318 0
 477 0002 0446     		mov	r4, r0
 478 0004 0D46     		mov	r5, r1
 479 0006 1746     		mov	r7, r2
 480              		.loc 1 346 0
 481 0008 00F11806 		add	r6, r0, #24
 482              	.LVL27:
 483              	.L23:
 484              		.loc 1 326 0
 485 000c 237D     		ldrb	r3, [r4, #20]	@ zero_extendqisi2
 486              		.loc 1 346 0
 487 000e 3046     		mov	r0, r6
 488 0010 3946     		mov	r1, r7
 489              		.loc 1 326 0
 490 0012 7BB9     		cbnz	r3, .L24
 491              	.LVL28:
 492              	.LBB128:
 493              		.loc 1 518 0
 494 0014 2368     		ldr	r3, [r4, #0]
 495 0016 6268     		ldr	r2, [r4, #4]
 496              	.LBB129:
 497              		.loc 4 172 0
 498 0018 D4F810E0 		ldr	lr, [r4, #16]
 499              	.LBB130:
 500              	.LBB131:
 501              		.loc 4 140 0
 502 001c C3EB020C 		rsb	ip, r3, r2
 503              	.LBE131:
 504              	.LBE130:
 505              		.loc 4 172 0
 506 0020 CEEBAC0E 		rsb	lr, lr, ip, asr #2
ARM GAS  /tmp/cca9OIta.s 			page 10


 507              	.LBE129:
 508              	.LBE128:
 509              		.loc 1 331 0
 510 0024 BEF1000F 		cmp	lr, #0
 511 0028 07DC     		bgt	.L26
 512              		.loc 1 346 0
 513 002a FFF7FEFF 		bl	chThdEnqueueTimeoutS
 514              	.LVL29:
 515              		.loc 1 347 0
 516 002e 0028     		cmp	r0, #0
 517 0030 ECD0     		beq	.L23
 518 0032 F8BD     		pop	{r3, r4, r5, r6, r7, pc}
 519              	.LVL30:
 520              	.L24:
 521              		.loc 1 327 0
 522 0034 6FF00100 		mvn	r0, #1
 523              		.loc 1 350 0
 524 0038 F8BD     		pop	{r3, r4, r5, r6, r7, pc}
 525              	.LVL31:
 526              	.L26:
 527              		.loc 1 332 0
 528 003a E168     		ldr	r1, [r4, #12]
 529 003c 0439     		subs	r1, r1, #4
 530 003e 9942     		cmp	r1, r3
 531 0040 E160     		str	r1, [r4, #12]
 532 0042 01D2     		bcs	.L22
 533              		.loc 1 333 0
 534 0044 111F     		subs	r1, r2, #4
 535 0046 E160     		str	r1, [r4, #12]
 536              	.L22:
 537              		.loc 1 335 0
 538 0048 0D60     		str	r5, [r1, #0]
 539              		.loc 1 336 0
 540 004a 2369     		ldr	r3, [r4, #16]
 541              		.loc 1 339 0
 542 004c 04F12000 		add	r0, r4, #32
 543              		.loc 1 336 0
 544 0050 5A1C     		adds	r2, r3, #1
 545              		.loc 1 339 0
 546 0052 0021     		movs	r1, #0
 547              		.loc 1 336 0
 548 0054 2261     		str	r2, [r4, #16]
 549              		.loc 1 339 0
 550 0056 FFF7FEFF 		bl	chThdDequeueNextI
 551              		.loc 1 340 0
 552 005a FFF7FEFF 		bl	chSchRescheduleS
 553              		.loc 1 342 0
 554 005e 0020     		movs	r0, #0
 555 0060 F8BD     		pop	{r3, r4, r5, r6, r7, pc}
 556              		.cfi_endproc
 557              	.LFE189:
 558              		.size	chMBPostAheadS, .-chMBPostAheadS
 559 0062 00BFAFF3 		.section	.text.chMBPostAhead,"ax",%progbits
 559      0080AFF3 
 559      0080AFF3 
 559      0080
 560              		.align	2
ARM GAS  /tmp/cca9OIta.s 			page 11


 561              		.p2align 4,,15
 562              		.global	chMBPostAhead
 563              		.thumb
 564              		.thumb_func
 565              		.type	chMBPostAhead, %function
 566              	chMBPostAhead:
 567              	.LFB188:
 568              		.loc 1 289 0
 569              		.cfi_startproc
 570              		@ args = 0, pretend = 0, frame = 0
 571              		@ frame_needed = 0, uses_anonymous_args = 0
 572              	.LVL32:
 573 0000 08B5     		push	{r3, lr}
 574              	.LCFI7:
 575              		.cfi_def_cfa_offset 8
 576              		.cfi_offset 14, -4
 577              		.cfi_offset 3, -8
 578              	.LBB132:
 579              	.LBB133:
 580              	.LBB134:
 581              	.LBB135:
 582              		.loc 3 548 0
 583 0002 2023     		movs	r3, #32
 584              	@ 548 "../../../resources/chibios/ChibiOS_16.1.8/os/ext/CMSIS/include/core_cmFunc.h" 1
 585 0004 83F31188 		MSR basepri, r3
 586              	@ 0 "" 2
 587              		.thumb
 588              	.LBE135:
 589              	.LBE134:
 590              	.LBE133:
 591              	.LBE132:
 592              		.loc 1 293 0
 593 0008 FFF7FEFF 		bl	chMBPostAheadS
 594              	.LVL33:
 595              	.LBB136:
 596              	.LBB137:
 597              	.LBB138:
 598              	.LBB139:
 599              	.LBB140:
 600              		.loc 3 548 0
 601 000c 0023     		movs	r3, #0
 602              	@ 548 "../../../resources/chibios/ChibiOS_16.1.8/os/ext/CMSIS/include/core_cmFunc.h" 1
 603 000e 83F31188 		MSR basepri, r3
 604              	@ 0 "" 2
 605              		.thumb
 606              	.LBE140:
 607              	.LBE139:
 608              	.LBE138:
 609              	.LBE137:
 610              	.LBE136:
 611              		.loc 1 297 0
 612 0012 08BD     		pop	{r3, pc}
 613              		.cfi_endproc
 614              	.LFE188:
 615              		.size	chMBPostAhead, .-chMBPostAhead
 616 0014 AFF30080 		.section	.text.chMBPostAheadI,"ax",%progbits
 616      AFF30080 
ARM GAS  /tmp/cca9OIta.s 			page 12


 616      AFF30080 
 617              		.align	2
 618              		.p2align 4,,15
 619              		.global	chMBPostAheadI
 620              		.thumb
 621              		.thumb_func
 622              		.type	chMBPostAheadI, %function
 623              	chMBPostAheadI:
 624              	.LFB190:
 625              		.loc 1 367 0
 626              		.cfi_startproc
 627              		@ args = 0, pretend = 0, frame = 0
 628              		@ frame_needed = 0, uses_anonymous_args = 0
 629              	.LVL34:
 630              		.loc 1 373 0
 631 0000 027D     		ldrb	r2, [r0, #20]	@ zero_extendqisi2
 632              		.loc 1 367 0
 633 0002 38B5     		push	{r3, r4, r5, lr}
 634              	.LCFI8:
 635              		.cfi_def_cfa_offset 16
 636              		.cfi_offset 14, -4
 637              		.cfi_offset 5, -8
 638              		.cfi_offset 4, -12
 639              		.cfi_offset 3, -16
 640              		.loc 1 367 0
 641 0004 0346     		mov	r3, r0
 642              		.loc 1 373 0
 643 0006 CAB9     		cbnz	r2, .L31
 644              	.LVL35:
 645              	.LBB141:
 646              		.loc 1 518 0
 647 0008 0268     		ldr	r2, [r0, #0]
 648 000a 4068     		ldr	r0, [r0, #4]
 649              	.LVL36:
 650              	.LBB142:
 651              		.loc 4 172 0
 652 000c 1C69     		ldr	r4, [r3, #16]
 653              	.LBB143:
 654              	.LBB144:
 655              		.loc 4 140 0
 656 000e 851A     		subs	r5, r0, r2
 657              	.LBE144:
 658              	.LBE143:
 659              		.loc 4 172 0
 660 0010 C4EBA504 		rsb	r4, r4, r5, asr #2
 661              	.LBE142:
 662              	.LBE141:
 663              		.loc 1 378 0
 664 0014 002C     		cmp	r4, #0
 665 0016 14DD     		ble	.L32
 666              		.loc 1 379 0
 667 0018 DC68     		ldr	r4, [r3, #12]
 668 001a 043C     		subs	r4, r4, #4
 669 001c 9442     		cmp	r4, r2
 670 001e DC60     		str	r4, [r3, #12]
 671 0020 01D2     		bcs	.L30
 672              		.loc 1 380 0
ARM GAS  /tmp/cca9OIta.s 			page 13


 673 0022 041F     		subs	r4, r0, #4
 674 0024 DC60     		str	r4, [r3, #12]
 675              	.L30:
 676              		.loc 1 382 0
 677 0026 2160     		str	r1, [r4, #0]
 678              		.loc 1 383 0
 679 0028 1A69     		ldr	r2, [r3, #16]
 680              		.loc 1 386 0
 681 002a 03F12000 		add	r0, r3, #32
 682              		.loc 1 383 0
 683 002e 511C     		adds	r1, r2, #1
 684              	.LVL37:
 685 0030 1961     		str	r1, [r3, #16]
 686              		.loc 1 386 0
 687 0032 0021     		movs	r1, #0
 688 0034 FFF7FEFF 		bl	chThdDequeueNextI
 689              	.LVL38:
 690              		.loc 1 388 0
 691 0038 0020     		movs	r0, #0
 692 003a 38BD     		pop	{r3, r4, r5, pc}
 693              	.LVL39:
 694              	.L31:
 695              		.loc 1 374 0
 696 003c 6FF00100 		mvn	r0, #1
 697              	.LVL40:
 698 0040 38BD     		pop	{r3, r4, r5, pc}
 699              	.LVL41:
 700              	.L32:
 701              		.loc 1 392 0
 702 0042 4FF0FF30 		mov	r0, #-1
 703              		.loc 1 393 0
 704 0046 38BD     		pop	{r3, r4, r5, pc}
 705              		.cfi_endproc
 706              	.LFE190:
 707              		.size	chMBPostAheadI, .-chMBPostAheadI
 708 0048 AFF30080 		.section	.text.chMBFetchS,"ax",%progbits
 708      AFF30080 
 709              		.align	2
 710              		.p2align 4,,15
 711              		.global	chMBFetchS
 712              		.thumb
 713              		.thumb_func
 714              		.type	chMBFetchS, %function
 715              	chMBFetchS:
 716              	.LFB192:
 717              		.loc 1 443 0
 718              		.cfi_startproc
 719              		@ args = 0, pretend = 0, frame = 0
 720              		@ frame_needed = 0, uses_anonymous_args = 0
 721              	.LVL42:
 722 0000 F8B5     		push	{r3, r4, r5, r6, r7, lr}
 723              	.LCFI9:
 724              		.cfi_def_cfa_offset 24
 725              		.cfi_offset 14, -4
 726              		.cfi_offset 7, -8
 727              		.cfi_offset 6, -12
 728              		.cfi_offset 5, -16
ARM GAS  /tmp/cca9OIta.s 			page 14


 729              		.cfi_offset 4, -20
 730              		.cfi_offset 3, -24
 731              		.loc 1 443 0
 732 0002 0446     		mov	r4, r0
 733 0004 0D46     		mov	r5, r1
 734 0006 1746     		mov	r7, r2
 735              		.loc 1 471 0
 736 0008 00F12006 		add	r6, r0, #32
 737              	.LVL43:
 738              	.L37:
 739              		.loc 1 451 0
 740 000c 237D     		ldrb	r3, [r4, #20]	@ zero_extendqisi2
 741              		.loc 1 471 0
 742 000e 3046     		mov	r0, r6
 743 0010 3946     		mov	r1, r7
 744              		.loc 1 451 0
 745 0012 3BB9     		cbnz	r3, .L38
 746              		.loc 1 456 0
 747 0014 2269     		ldr	r2, [r4, #16]
 748 0016 002A     		cmp	r2, #0
 749 0018 07DC     		bgt	.L40
 750              		.loc 1 471 0
 751 001a FFF7FEFF 		bl	chThdEnqueueTimeoutS
 752              	.LVL44:
 753              		.loc 1 472 0
 754 001e 0028     		cmp	r0, #0
 755 0020 F4D0     		beq	.L37
 756 0022 F8BD     		pop	{r3, r4, r5, r6, r7, pc}
 757              	.LVL45:
 758              	.L38:
 759              		.loc 1 452 0
 760 0024 6FF00100 		mvn	r0, #1
 761              		.loc 1 475 0
 762 0028 F8BD     		pop	{r3, r4, r5, r6, r7, pc}
 763              	.L40:
 764              		.loc 1 457 0
 765 002a E068     		ldr	r0, [r4, #12]
 766              		.loc 1 458 0
 767 002c 6268     		ldr	r2, [r4, #4]
 768              		.loc 1 457 0
 769 002e 50F8043B 		ldr	r3, [r0], #4
 770              		.loc 1 458 0
 771 0032 9042     		cmp	r0, r2
 772              		.loc 1 457 0
 773 0034 2B60     		str	r3, [r5, #0]
 774              		.loc 1 461 0
 775 0036 2169     		ldr	r1, [r4, #16]
 776              		.loc 1 457 0
 777 0038 E060     		str	r0, [r4, #12]
 778              		.loc 1 459 0
 779 003a 24BF     		itt	cs
 780 003c 2068     		ldrcs	r0, [r4, #0]
 781 003e E060     		strcs	r0, [r4, #12]
 782              		.loc 1 461 0
 783 0040 4B1E     		subs	r3, r1, #1
 784              		.loc 1 464 0
 785 0042 04F11800 		add	r0, r4, #24
ARM GAS  /tmp/cca9OIta.s 			page 15


 786 0046 0021     		movs	r1, #0
 787              		.loc 1 461 0
 788 0048 2361     		str	r3, [r4, #16]
 789              		.loc 1 464 0
 790 004a FFF7FEFF 		bl	chThdDequeueNextI
 791              		.loc 1 465 0
 792 004e FFF7FEFF 		bl	chSchRescheduleS
 793              		.loc 1 467 0
 794 0052 0020     		movs	r0, #0
 795 0054 F8BD     		pop	{r3, r4, r5, r6, r7, pc}
 796              		.cfi_endproc
 797              	.LFE192:
 798              		.size	chMBFetchS, .-chMBFetchS
 799 0056 00BFAFF3 		.section	.text.chMBFetch,"ax",%progbits
 799      0080AFF3 
 799      0080
 800              		.align	2
 801              		.p2align 4,,15
 802              		.global	chMBFetch
 803              		.thumb
 804              		.thumb_func
 805              		.type	chMBFetch, %function
 806              	chMBFetch:
 807              	.LFB191:
 808              		.loc 1 414 0
 809              		.cfi_startproc
 810              		@ args = 0, pretend = 0, frame = 0
 811              		@ frame_needed = 0, uses_anonymous_args = 0
 812              	.LVL46:
 813 0000 08B5     		push	{r3, lr}
 814              	.LCFI10:
 815              		.cfi_def_cfa_offset 8
 816              		.cfi_offset 14, -4
 817              		.cfi_offset 3, -8
 818              	.LBB145:
 819              	.LBB146:
 820              	.LBB147:
 821              	.LBB148:
 822              		.loc 3 548 0
 823 0002 2023     		movs	r3, #32
 824              	@ 548 "../../../resources/chibios/ChibiOS_16.1.8/os/ext/CMSIS/include/core_cmFunc.h" 1
 825 0004 83F31188 		MSR basepri, r3
 826              	@ 0 "" 2
 827              		.thumb
 828              	.LBE148:
 829              	.LBE147:
 830              	.LBE146:
 831              	.LBE145:
 832              		.loc 1 418 0
 833 0008 FFF7FEFF 		bl	chMBFetchS
 834              	.LVL47:
 835              	.LBB149:
 836              	.LBB150:
 837              	.LBB151:
 838              	.LBB152:
 839              	.LBB153:
 840              		.loc 3 548 0
ARM GAS  /tmp/cca9OIta.s 			page 16


 841 000c 0023     		movs	r3, #0
 842              	@ 548 "../../../resources/chibios/ChibiOS_16.1.8/os/ext/CMSIS/include/core_cmFunc.h" 1
 843 000e 83F31188 		MSR basepri, r3
 844              	@ 0 "" 2
 845              		.thumb
 846              	.LBE153:
 847              	.LBE152:
 848              	.LBE151:
 849              	.LBE150:
 850              	.LBE149:
 851              		.loc 1 422 0
 852 0012 08BD     		pop	{r3, pc}
 853              		.cfi_endproc
 854              	.LFE191:
 855              		.size	chMBFetch, .-chMBFetch
 856 0014 AFF30080 		.section	.text.chMBFetchI,"ax",%progbits
 856      AFF30080 
 856      AFF30080 
 857              		.align	2
 858              		.p2align 4,,15
 859              		.global	chMBFetchI
 860              		.thumb
 861              		.thumb_func
 862              		.type	chMBFetchI, %function
 863              	chMBFetchI:
 864              	.LFB193:
 865              		.loc 1 492 0
 866              		.cfi_startproc
 867              		@ args = 0, pretend = 0, frame = 0
 868              		@ frame_needed = 0, uses_anonymous_args = 0
 869              	.LVL48:
 870              		.loc 1 498 0
 871 0000 027D     		ldrb	r2, [r0, #20]	@ zero_extendqisi2
 872              		.loc 1 492 0
 873 0002 10B5     		push	{r4, lr}
 874              	.LCFI11:
 875              		.cfi_def_cfa_offset 8
 876              		.cfi_offset 14, -4
 877              		.cfi_offset 4, -8
 878              		.loc 1 492 0
 879 0004 0346     		mov	r3, r0
 880              		.loc 1 498 0
 881 0006 BAB9     		cbnz	r2, .L45
 882              		.loc 1 503 0
 883 0008 0269     		ldr	r2, [r0, #16]
 884 000a 002A     		cmp	r2, #0
 885 000c 17DD     		ble	.L46
 886              		.loc 1 504 0
 887 000e C268     		ldr	r2, [r0, #12]
 888              		.loc 1 505 0
 889 0010 4068     		ldr	r0, [r0, #4]
 890              	.LVL49:
 891              		.loc 1 504 0
 892 0012 52F8044B 		ldr	r4, [r2], #4
 893              		.loc 1 505 0
 894 0016 8242     		cmp	r2, r0
 895              		.loc 1 504 0
ARM GAS  /tmp/cca9OIta.s 			page 17


 896 0018 0C60     		str	r4, [r1, #0]
 897 001a DA60     		str	r2, [r3, #12]
 898              		.loc 1 506 0
 899 001c 28BF     		it	cs
 900 001e 1A68     		ldrcs	r2, [r3, #0]
 901              		.loc 1 511 0
 902 0020 03F11800 		add	r0, r3, #24
 903              		.loc 1 506 0
 904 0024 28BF     		it	cs
 905 0026 DA60     		strcs	r2, [r3, #12]
 906              		.loc 1 508 0
 907 0028 1A69     		ldr	r2, [r3, #16]
 908 002a 511E     		subs	r1, r2, #1
 909              	.LVL50:
 910 002c 1961     		str	r1, [r3, #16]
 911              		.loc 1 511 0
 912 002e 0021     		movs	r1, #0
 913 0030 FFF7FEFF 		bl	chThdDequeueNextI
 914              	.LVL51:
 915              		.loc 1 513 0
 916 0034 0020     		movs	r0, #0
 917 0036 10BD     		pop	{r4, pc}
 918              	.LVL52:
 919              	.L45:
 920              		.loc 1 499 0
 921 0038 6FF00100 		mvn	r0, #1
 922              	.LVL53:
 923 003c 10BD     		pop	{r4, pc}
 924              	.L46:
 925              		.loc 1 517 0
 926 003e 4FF0FF30 		mov	r0, #-1
 927              		.loc 1 518 0
 928 0042 10BD     		pop	{r4, pc}
 929              		.cfi_endproc
 930              	.LFE193:
 931              		.size	chMBFetchI, .-chMBFetchI
 932 0044 AFF30080 		.text
 932      AFF30080 
 932      AFF30080 
 933              	.Letext0:
 934              		.file 5 "/home/madog/programs/CodeSourcery/Sourcery_CodeBench_Lite_for_ARM_EABI/bin/../lib/gcc/arm
 935              		.file 6 "../../../resources/chibios/ChibiOS_16.1.8/os/rt/ports/ARMCMx/compilers/GCC/chtypes.h"
 936              		.file 7 "../../../resources/chibios/ChibiOS_16.1.8/os/rt/include/chsystypes.h"
 937              		.file 8 "../../../resources/chibios/ChibiOS_16.1.8/os/rt/ports/ARMCMx/chcore.h"
 938              		.file 9 "../../../resources/chibios/ChibiOS_16.1.8/os/rt/ports/ARMCMx/chcore_v7m.h"
 939              		.file 10 "../../../resources/chibios/ChibiOS_16.1.8/os/rt/include/chtm.h"
 940              		.file 11 "../../../resources/chibios/ChibiOS_16.1.8/os/rt/include/chsem.h"
 941              		.file 12 "../../../resources/chibios/ChibiOS_16.1.8/os/rt/include/chmtx.h"
 942              		.file 13 "../../../resources/chibios/ChibiOS_16.1.8/os/rt/include/chthreads.h"
 943              		.file 14 "../../../resources/chibios/ChibiOS_16.1.8/os/rt/include/chsys.h"
 944              		.file 15 "../../../resources/chibios/ChibiOS_16.1.8/os/ext/CMSIS/include/core_cm3.h"