ARM GAS  /tmp/cca9OIta.s 			page 1


   1              		.syntax unified
   2              		.cpu cortex-m3
   3              		.fpu softvfp
   4              		.eabi_attribute 20, 1
   5              		.eabi_attribute 21, 1
   6              		.eabi_attribute 23, 3
   7              		.eabi_attribute 24, 1
   8              		.eabi_attribute 25, 1
   9              		.eabi_attribute 26, 1
  10              		.eabi_attribute 30, 2
  11              		.eabi_attribute 34, 1
  12              		.eabi_attribute 18, 4
  13              		.thumb
  14              		.file	"chmboxes.c"
  15              		.text
  16              	.Ltext0:
  17              		.cfi_sections	.debug_frame
  18              		.section	.text.chMBObjectInit,"ax",%progbits
  19              		.align	2
  20              		.p2align 4,,15
  21              		.global	chMBObjectInit
  22              		.thumb
  23              		.thumb_func
  24              		.type	chMBObjectInit, %function
  25              	chMBObjectInit:
  26              	.LFB182:
  27              		.file 1 "../../../resources/chibios/ChibiOS_16.1.8/os/rt/src/chmboxes.c"
  28              		.loc 1 86 0
  29              		.cfi_startproc
  30              		@ args = 0, pretend = 0, frame = 0
  31              		@ frame_needed = 0, uses_anonymous_args = 0
  32              		@ link register save eliminated.
  33              	.LVL0:
  34 0000 30B4     		push	{r4, r5}
  35              	.LCFI0:
  36              		.cfi_def_cfa_offset 8
  37              		.cfi_offset 5, -4
  38              		.cfi_offset 4, -8
  39              		.loc 1 97 0
  40 0002 00F12003 		add	r3, r0, #32
  41              		.loc 1 94 0
  42 0006 0025     		movs	r5, #0
  43              		.loc 1 96 0
  44 0008 00F11804 		add	r4, r0, #24
  45              	.LVL1:
  46              		.loc 1 93 0
  47 000c 01EB8202 		add	r2, r1, r2, lsl #2
  48              	.LVL2:
  49              		.loc 1 90 0
  50 0010 0160     		str	r1, [r0, #0]
  51              		.loc 1 91 0
  52 0012 C160     		str	r1, [r0, #12]
  53              		.loc 1 92 0
  54 0014 8160     		str	r1, [r0, #8]
  55              		.loc 1 93 0
  56 0016 4260     		str	r2, [r0, #4]
  57              		.loc 1 94 0
ARM GAS  /tmp/cca9OIta.s 			page 2


  58 0018 0561     		str	r5, [r0, #16]
  59              		.loc 1 95 0
  60 001a 0575     		strb	r5, [r0, #20]
  61              	.LBB96:
  62              	.LBB97:
  63              	.LBB98:
  64              		.file 2 "../../../resources/chibios/ChibiOS_16.1.8/os/rt/include/chschd.h"
  65              		.loc 2 604 0
  66 001c 8461     		str	r4, [r0, #24]
  67              		.loc 2 605 0
  68 001e C461     		str	r4, [r0, #28]
  69              	.LBE98:
  70              	.LBE97:
  71              	.LBE96:
  72              	.LBB99:
  73              	.LBB100:
  74              	.LBB101:
  75              		.loc 2 604 0
  76 0020 0362     		str	r3, [r0, #32]
  77              		.loc 2 605 0
  78 0022 4362     		str	r3, [r0, #36]
  79              	.LBE101:
  80              	.LBE100:
  81              	.LBE99:
  82              		.loc 1 98 0
  83 0024 30BC     		pop	{r4, r5}
  84 0026 7047     		bx	lr
  85              		.cfi_endproc
  86              	.LFE182:
  87              		.size	chMBObjectInit, .-chMBObjectInit
  88 0028 AFF30080 		.section	.text.chMBResetI,"ax",%progbits
  88      AFF30080 
  89              		.align	2
  90              		.p2align 4,,15
  91              		.global	chMBResetI
  92              		.thumb
  93              		.thumb_func
  94              		.type	chMBResetI, %function
  95              	chMBResetI:
  96              	.LFB184:
  97              		.loc 1 132 0
  98              		.cfi_startproc
  99              		@ args = 0, pretend = 0, frame = 0
 100              		@ frame_needed = 0, uses_anonymous_args = 0
 101              	.LVL3:
 102              		.loc 1 137 0
 103 0000 0368     		ldr	r3, [r0, #0]
 104              		.loc 1 132 0
 105 0002 10B5     		push	{r4, lr}
 106              	.LCFI1:
 107              		.cfi_def_cfa_offset 8
 108              		.cfi_offset 14, -4
 109              		.cfi_offset 4, -8
 110              		.loc 1 132 0
 111 0004 0446     		mov	r4, r0
 112              		.loc 1 137 0
 113 0006 A360     		str	r3, [r4, #8]
ARM GAS  /tmp/cca9OIta.s 			page 3


 114              		.loc 1 138 0
 115 0008 E360     		str	r3, [r4, #12]
 116              		.loc 1 139 0
 117 000a 0022     		movs	r2, #0
 118              		.loc 1 140 0
 119 000c 0123     		movs	r3, #1
 120              		.loc 1 141 0
 121 000e 1830     		adds	r0, r0, #24
 122              	.LVL4:
 123 0010 6FF00101 		mvn	r1, #1
 124              		.loc 1 139 0
 125 0014 2261     		str	r2, [r4, #16]
 126              		.loc 1 140 0
 127 0016 2375     		strb	r3, [r4, #20]
 128              		.loc 1 141 0
 129 0018 FFF7FEFF 		bl	chThdDequeueAllI
 130              		.loc 1 142 0
 131 001c 04F12000 		add	r0, r4, #32
 132 0020 6FF00101 		mvn	r1, #1
 133              		.loc 1 143 0
 134 0024 BDE81040 		pop	{r4, lr}
 135              		.loc 1 142 0
 136 0028 FFF7FEBF 		b	chThdDequeueAllI
 137              		.cfi_endproc
 138              	.LFE184:
 139              		.size	chMBResetI, .-chMBResetI
 140 002c AFF30080 		.section	.text.chMBReset,"ax",%progbits
 141              		.align	2
 142              		.p2align 4,,15
 143              		.global	chMBReset
 144              		.thumb
 145              		.thumb_func
 146              		.type	chMBReset, %function
 147              	chMBReset:
 148              	.LFB183:
 149              		.loc 1 112 0
 150              		.cfi_startproc
 151              		@ args = 0, pretend = 0, frame = 0
 152              		@ frame_needed = 0, uses_anonymous_args = 0
 153              	.LVL5:
 154 0000 08B5     		push	{r3, lr}
 155              	.LCFI2:
 156              		.cfi_def_cfa_offset 8
 157              		.cfi_offset 14, -4
 158              		.cfi_offset 3, -8
 159              	.LBB102:
 160              	.LBB103:
 161              	.LBB104:
 162              	.LBB105:
 163              		.file 3 "../../../resources/chibios/ChibiOS_16.1.8/os/ext/CMSIS/include/core_cmFunc.h"
 164              		.loc 3 548 0
 165 0002 2021     		movs	r1, #32
 166              	@ 548 "../../../resources/chibios/ChibiOS_16.1.8/os/ext/CMSIS/include/core_cmFunc.h" 1
 167 0004 81F31188 		MSR basepri, r1
 168              	@ 0 "" 2
 169              		.thumb
 170              	.LBE105:
ARM GAS  /tmp/cca9OIta.s 			page 4


 171              	.LBE104:
 172              	.LBE103:
 173              	.LBE102:
 174              		.loc 1 115 0
 175 0008 FFF7FEFF 		bl	chMBResetI
 176              	.LVL6:
 177              		.loc 1 116 0
 178 000c FFF7FEFF 		bl	chSchRescheduleS
 179              	.LVL7:
 180              	.LBB106:
 181              	.LBB107:
 182              	.LBB108:
 183              	.LBB109:
 184              	.LBB110:
 185              		.loc 3 548 0
 186 0010 0023     		movs	r3, #0
 187              	@ 548 "../../../resources/chibios/ChibiOS_16.1.8/os/ext/CMSIS/include/core_cmFunc.h" 1
 188 0012 83F31188 		MSR basepri, r3
 189              	@ 0 "" 2
 190              		.thumb
 191              	.LBE110:
 192              	.LBE109:
 193              	.LBE108:
 194              	.LBE107:
 195              	.LBE106:
 196              		.loc 1 118 0
 197 0016 08BD     		pop	{r3, pc}
 198              		.cfi_endproc
 199              	.LFE183:
 200              		.size	chMBReset, .-chMBReset
 201 0018 AFF30080 		.section	.text.chMBPostS,"ax",%progbits
 201      AFF30080 
 202              		.align	2
 203              		.p2align 4,,15
 204              		.global	chMBPostS
 205              		.thumb
 206              		.thumb_func
 207              		.type	chMBPostS, %function
 208              	chMBPostS:
 209              	.LFB186:
 210              		.loc 1 193 0
 211              		.cfi_startproc
 212              		@ args = 0, pretend = 0, frame = 0
 213              		@ frame_needed = 0, uses_anonymous_args = 0
 214              	.LVL8:
 215 0000 2DE9F041 		push	{r4, r5, r6, r7, r8, lr}
 216              	.LCFI3:
 217              		.cfi_def_cfa_offset 24
 218              		.cfi_offset 14, -4
 219              		.cfi_offset 8, -8
 220              		.cfi_offset 7, -12
 221              		.cfi_offset 6, -16
 222              		.cfi_offset 5, -20
 223              		.cfi_offset 4, -24
 224              		.loc 1 193 0
 225 0004 0446     		mov	r4, r0
 226 0006 0D46     		mov	r5, r1
ARM GAS  /tmp/cca9OIta.s 			page 5


 227 0008 9046     		mov	r8, r2
 228              		.loc 1 221 0
 229 000a 00F11807 		add	r7, r0, #24
 230              	.LVL9:
 231              	.L8:
 232              		.loc 1 201 0
 233 000e 267D     		ldrb	r6, [r4, #20]	@ zero_extendqisi2
 234              		.loc 1 221 0
 235 0010 3846     		mov	r0, r7
 236 0012 4146     		mov	r1, r8
 237              		.loc 1 201 0
 238 0014 86B9     		cbnz	r6, .L9
 239              	.LVL10:
 240              	.LBB111:
 241              		.loc 1 518 0
 242 0016 2368     		ldr	r3, [r4, #0]
 243 0018 6268     		ldr	r2, [r4, #4]
 244              	.LBB112:
 245              		.file 4 "../../../resources/chibios/ChibiOS_16.1.8/os/rt/include/chmboxes.h"
 246              		.loc 4 172 0
 247 001a D4F810E0 		ldr	lr, [r4, #16]
 248              	.LBB113:
 249              	.LBB114:
 250              		.loc 4 140 0
 251 001e C3EB020C 		rsb	ip, r3, r2
 252              	.LBE114:
 253              	.LBE113:
 254              		.loc 4 172 0
 255 0022 CEEBAC0E 		rsb	lr, lr, ip, asr #2
 256              	.LBE112:
 257              	.LBE111:
 258              		.loc 1 206 0
 259 0026 BEF1000F 		cmp	lr, #0
 260 002a 09DC     		bgt	.L12
 261              		.loc 1 221 0
 262 002c FFF7FEFF 		bl	chThdEnqueueTimeoutS
 263              	.LVL11:
 264              		.loc 1 222 0
 265 0030 0028     		cmp	r0, #0
 266 0032 ECD0     		beq	.L8
 267 0034 BDE8F081 		pop	{r4, r5, r6, r7, r8, pc}
 268              	.LVL12:
 269              	.L9:
 270              		.loc 1 202 0
 271 0038 6FF00100 		mvn	r0, #1
 272              		.loc 1 225 0
 273 003c BDE8F081 		pop	{r4, r5, r6, r7, r8, pc}
 274              	.LVL13:
 275              	.L12:
 276              		.loc 1 207 0
 277 0040 A168     		ldr	r1, [r4, #8]
 278              		.loc 1 214 0
 279 0042 04F12000 		add	r0, r4, #32
 280              		.loc 1 207 0
 281 0046 41F8045B 		str	r5, [r1], #4
 282              		.loc 1 211 0
 283 004a 2569     		ldr	r5, [r4, #16]
ARM GAS  /tmp/cca9OIta.s 			page 6


 284              	.LVL14:
 285              		.loc 1 209 0
 286 004c 9142     		cmp	r1, r2
 287 004e 38BF     		it	cc
 288 0050 0B46     		movcc	r3, r1
 289              		.loc 1 211 0
 290 0052 0135     		adds	r5, r5, #1
 291              		.loc 1 214 0
 292 0054 3146     		mov	r1, r6
 293              		.loc 1 209 0
 294 0056 A360     		str	r3, [r4, #8]
 295              		.loc 1 211 0
 296 0058 2561     		str	r5, [r4, #16]
 297              		.loc 1 214 0
 298 005a FFF7FEFF 		bl	chThdDequeueNextI
 299              	.LVL15:
 300              		.loc 1 215 0
 301 005e FFF7FEFF 		bl	chSchRescheduleS
 302              		.loc 1 217 0
 303 0062 3046     		mov	r0, r6
 304 0064 BDE8F081 		pop	{r4, r5, r6, r7, r8, pc}
 305              		.cfi_endproc
 306              	.LFE186:
 307              		.size	chMBPostS, .-chMBPostS
 308 0068 AFF30080 		.section	.text.chMBPost,"ax",%progbits
 308      AFF30080 
 309              		.align	2
 310              		.p2align 4,,15
 311              		.global	chMBPost
 312              		.thumb
 313              		.thumb_func
 314              		.type	chMBPost, %function
 315              	chMBPost:
 316              	.LFB185:
 317              		.loc 1 164 0
 318              		.cfi_startproc
 319              		@ args = 0, pretend = 0, frame = 0
 320              		@ frame_needed = 0, uses_anonymous_args = 0
 321              	.LVL16:
 322 0000 08B5     		push	{r3, lr}
 323              	.LCFI4:
 324              		.cfi_def_cfa_offset 8
 325              		.cfi_offset 14, -4
 326              		.cfi_offset 3, -8
 327              	.LBB115:
 328              	.LBB116:
 329              	.LBB117:
 330              	.LBB118:
 331              		.loc 3 548 0
 332 0002 2023     		movs	r3, #32
 333              	@ 548 "../../../resources/chibios/ChibiOS_16.1.8/os/ext/CMSIS/include/core_cmFunc.h" 1
 334 0004 83F31188 		MSR basepri, r3
 335              	@ 0 "" 2
 336              		.thumb
 337              	.LBE118:
 338              	.LBE117:
 339              	.LBE116:
ARM GAS  /tmp/cca9OIta.s 			page 7


 340              	.LBE115:
 341              		.loc 1 168 0
 342 0008 FFF7FEFF 		bl	chMBPostS
 343              	.LVL17:
 344              	.LBB119:
 345              	.LBB120:
 346              	.LBB121:
 347              	.LBB122:
 348              	.LBB123:
 349              		.loc 3 548 0
 350 000c 0023     		movs	r3, #0
 351              	@ 548 "../../../resources/chibios/ChibiOS_16.1.8/os/ext/CMSIS/include/core_cmFunc.h" 1
 352 000e 83F31188 		MSR basepri, r3
 353              	@ 0 "" 2
 354              		.thumb
 355              	.LBE123:
 356              	.LBE122:
 357              	.LBE121:
 358              	.LBE120:
 359              	.LBE119:
 360              		.loc 1 172 0
 361 0012 08BD     		pop	{r3, pc}
 362              		.cfi_endproc
 363              	.LFE185:
 364              		.size	chMBPost, .-chMBPost
 365 0014 AFF30080 		.section	.text.chMBPostI,"ax",%progbits
 365      AFF30080 
 365      AFF30080 
 366              		.align	2
 367              		.p2align 4,,15
 368              		.global	chMBPostI
 369              		.thumb
 370              		.thumb_func
 371              		.type	chMBPostI, %function
 372              	chMBPostI:
 373              	.LFB187:
 374              		.loc 1 242 0
 375              		.cfi_startproc
 376              		@ args = 0, pretend = 0, frame = 0
 377              		@ frame_needed = 0, uses_anonymous_args = 0
 378              	.LVL18:
 379 0000 70B5     		push	{r4, r5, r6, lr}
 380              	.LCFI5:
 381              		.cfi_def_cfa_offset 16
 382              		.cfi_offset 14, -4
 383              		.cfi_offset 6, -8
 384              		.cfi_offset 5, -12
 385              		.cfi_offset 4, -16
 386              		.loc 1 248 0
 387 0002 047D     		ldrb	r4, [r0, #20]	@ zero_extendqisi2
 388              		.loc 1 242 0
 389 0004 0346     		mov	r3, r0
 390              		.loc 1 248 0
 391 0006 C4B9     		cbnz	r4, .L17
 392              	.LVL19:
 393              	.LBB124:
 394              		.loc 1 518 0
ARM GAS  /tmp/cca9OIta.s 			page 8


 395 0008 90E82400 		ldmia	r0, {r2, r5}
 396              	.LBB125:
 397              		.loc 4 172 0
 398 000c 0069     		ldr	r0, [r0, #16]
 399              	.LVL20:
 400              	.LBB126:
 401              	.LBB127:
 402              		.loc 4 140 0
 403 000e AE1A     		subs	r6, r5, r2
 404              	.LBE127:
 405              	.LBE126:
 406              		.loc 4 172 0
 407 0010 C0EBA600 		rsb	r0, r0, r6, asr #2
 408              	.LBE125:
 409              	.LBE124:
 410              		.loc 1 253 0
 411 0014 0028     		cmp	r0, #0
 412 0016 13DD     		ble	.L18
 413              		.loc 1 254 0
 414 0018 9E68     		ldr	r6, [r3, #8]
 415              		.loc 1 261 0
 416 001a 03F12000 		add	r0, r3, #32
 417              		.loc 1 254 0
 418 001e 46F8041B 		str	r1, [r6], #4
 419              		.loc 1 258 0
 420 0022 1969     		ldr	r1, [r3, #16]
 421              	.LVL21:
 422              		.loc 1 256 0
 423 0024 AE42     		cmp	r6, r5
 424 0026 28BF     		it	cs
 425 0028 1646     		movcs	r6, r2
 426              		.loc 1 258 0
 427 002a 0131     		adds	r1, r1, #1
 428 002c 1961     		str	r1, [r3, #16]
 429              		.loc 1 256 0
 430 002e 9E60     		str	r6, [r3, #8]
 431              		.loc 1 261 0
 432 0030 2146     		mov	r1, r4
 433 0032 FFF7FEFF 		bl	chThdDequeueNextI
 434              	.LVL22:
 435              		.loc 1 263 0
 436 0036 2046     		mov	r0, r4
 437 0038 70BD     		pop	{r4, r5, r6, pc}
 438              	.LVL23:
 439              	.L17:
 440              		.loc 1 249 0
 441 003a 6FF00100 		mvn	r0, #1
 442              	.LVL24:
 443 003e 70BD     		pop	{r4, r5, r6, pc}
 444              	.LVL25:
 445              	.L18:
 446              		.loc 1 267 0
 447 0040 4FF0FF30 		mov	r0, #-1
 448              		.loc 1 268 0
 449 0044 70BD     		pop	{r4, r5, r6, pc}
 450              		.cfi_endproc
 451              	.LFE187:
ARM GAS  /tmp/cca9OIta.s 			page 9


 452              		.size	chMBPostI, .-chMBPostI
 453 0046 00BFAFF3 		.section	.text.chMBPostAheadS,"ax",%progbits
 453      0080AFF3 
 453      0080
 454              		.align	2
 455              		.p2align 4,,15
 456              		.global	chMBPostAheadS
 457              		.thumb
 458              		.thumb_func
 459              		.type	chMBPostAheadS, %function
 460              	chMBPostAheadS:
 461              	.LFB189:
 462              		.loc 1 318 0
 463              		.cfi_startproc
 464              		@ args = 0, pretend = 0, frame = 0
 465              		@ frame_needed = 0, uses_anonymous_args = 0
 466              	.LVL26:
 467 0000 F8B5     		push	{r3, r4, r5, r6, r7, lr}
 468              	.LCFI6:
 469              		.cfi_def_cfa_offset 24
 470              		.cfi_offset 14, -4
 471              		.cfi_offset 7, -8
 472              		.cfi_offset 6, -12
 473              		.cfi_offset 5, -16
 474              		.cfi_offset 4, -20
 475              		.cfi_offset 3, -24
 476              		.loc 1 318 0
 477 0002 0446     		mov	r4, r0
 478 0004 0D46     		mov	r5, r1
 479 0006 1746     		mov	r7, r2
 480              		.loc 1 346 0
 481 0008 00F11806 		add	r6, r0, #24
 482              	.LVL27:
 483              	.L23:
 484              		.loc 1 326 0
 485 000c 237D     		ldrb	r3, [r4, #20]	@ zero_extendqisi2
 486              		.loc 1 346 0
 487 000e 3046     		mov	r0, r6
 488 0010 3946     		mov	r1, r7
 489              		.loc 1 326 0
 490 0012 7BB9     		cbnz	r3, .L24
 491              	.LVL28:
 492              	.LBB128:
 493              		.loc 1 518 0
 494 0014 2368     		ldr	r3, [r4, #0]
 495 0016 6268     		ldr	r2, [r4, #4]
 496              	.LBB129:
 497              		.loc 4 172 0
 498 0018 D4F810E0 		ldr	lr, [r4, #16]
 499              	.LBB130:
 500              	.LBB131:
 501              		.loc 4 140 0
 502 001c C3EB020C 		rsb	ip, r3, r2
 503              	.LBE131:
 504              	.LBE130:
 505              		.loc 4 172 0
 506 0020 CEEBAC0E 		rsb	lr, lr, ip, asr #2
ARM GAS  /tmp/cca9OIta.s 			page 10


 507              	.LBE129:
 508              	.LBE128:
 509              		.loc 1 331 0
 510 0024 BEF1000F 		cmp	lr, #0
 511 0028 07DC     		bgt	.L26
 512              		.loc 1 346 0
 513 002a FFF7FEFF 		bl	chThdEnqueueTimeoutS
 514              	.LVL29:
 515              		.loc 1 347 0
 516 002e 0028     		cmp	r0, #0
 517 0030 ECD0     		beq	.L23
 518 0032 F8BD     		pop	{r3, r4, r5, r6, r7, pc}
 519              	.LVL30:
 520              	.L24:
 521              		.loc 1 327 0
 522 0034 6FF00100 		mvn	r0, #1
 523              		.loc 1 350 0
 524 0038 F8BD     		pop	{r3, r4, r5, r6, r7, pc}
 525              	.LVL31:
 526              	.L26:
 527              		.loc 1 332 0
 528 003a E168     		ldr	r1, [r4, #12]
 529 003c 0439     		subs	r1, r1, #4
 530 003e 9942     		cmp	r1, r3
 531 0040 E160     		str	r1, [r4, #12]
 532 0042 01D2     		bcs	.L22
 533              		.loc 1 333 0
 534 0044 111F     		subs	r1, r2, #4
 535 0046 E160     		str	r1, [r4, #12]
 536              	.L22:
 537              		.loc 1 335 0
 538 0048 0D60     		str	r5, [r1, #0]
 539              		.loc 1 336 0
 540 004a 2369     		ldr	r3, [r4, #16]
 541              		.loc 1 339 0
 542 004c 04F12000 		add	r0, r4, #32
 543              		.loc 1 336 0
 544 0050 5A1C     		adds	r2, r3, #1
 545              		.loc 1 339 0
 546 0052 0021     		movs	r1, #0
 547              		.loc 1 336 0
 548 0054 2261     		str	r2, [r4, #16]
 549              		.loc 1 339 0
 550 0056 FFF7FEFF 		bl	chThdDequeueNextI
 551              		.loc 1 340 0
 552 005a FFF7FEFF 		bl	chSchRescheduleS
 553              		.loc 1 342 0
 554 005e 0020     		movs	r0, #0
 555 0060 F8BD     		pop	{r3, r4, r5, r6, r7, pc}
 556              		.cfi_endproc
 557              	.LFE189:
 558              		.size	chMBPostAheadS, .-chMBPostAheadS
 559 0062 00BFAFF3 		.section	.text.chMBPostAhead,"ax",%progbits
 559      0080AFF3 
 559      0080AFF3 
 559      0080
 560              		.align	2
ARM GAS  /tmp/cca9OIta.s 			page 11


 561              		.p2align 4,,15
 562              		.global	chMBPostAhead
 563              		.thumb
 564              		.thumb_func
 565              		.type	chMBPostAhead, %function
 566              	chMBPostAhead:
 567              	.LFB188:
 568              		.loc 1 289 0
 569              		.cfi_startproc
 570              		@ args = 0, pretend = 0, frame = 0
 571              		@ frame_needed = 0, uses_anonymous_args = 0
 572              	.LVL32:
 573 0000 08B5     		push	{r3, lr}
 574              	.LCFI7:
 575              		.cfi_def_cfa_offset 8
 576              		.cfi_offset 14, -4
 577              		.cfi_offset 3, -8
 578              	.LBB132:
 579              	.LBB133:
 580              	.LBB134:
 581              	.LBB135:
 582              		.loc 3 548 0
 583 0002 2023     		movs	r3, #32
 584              	@ 548 "../../../resources/chibios/ChibiOS_16.1.8/os/ext/CMSIS/include/core_cmFunc.h" 1
 585 0004 83F31188 		MSR basepri, r3
 586              	@ 0 "" 2
 587              		.thumb
 588              	.LBE135:
 589              	.LBE134:
 590              	.LBE133:
 591              	.LBE132:
 592              		.loc 1 293 0
 593 0008 FFF7FEFF 		bl	chMBPostAheadS
 594              	.LVL33:
 595              	.LBB136:
 596              	.LBB137:
 597              	.LBB138:
 598              	.LBB139:
 599              	.LBB140:
 600              		.loc 3 548 0
 601 000c 0023     		movs	r3, #0
 602              	@ 548 "../../../resources/chibios/ChibiOS_16.1.8/os/ext/CMSIS/include/core_cmFunc.h" 1
 603 000e 83F31188 		MSR basepri, r3
 604              	@ 0 "" 2
 605              		.thumb
 606              	.LBE140:
 607              	.LBE139:
 608              	.LBE138:
 609              	.LBE137:
 610              	.LBE136:
 611              		.loc 1 297 0
 612 0012 08BD     		pop	{r3, pc}
 613              		.cfi_endproc
 614              	.LFE188:
 615              		.size	chMBPostAhead, .-chMBPostAhead
 616 0014 AFF30080 		.section	.text.chMBPostAheadI,"ax",%progbits
 616      AFF30080 
ARM GAS  /tmp/cca9OIta.s 			page 12


 616      AFF30080 
 617              		.align	2
 618              		.p2align 4,,15
 619              		.global	chMBPostAheadI
 620              		.thumb
 621              		.thumb_func
 622              		.type	chMBPostAheadI, %function
 623              	chMBPostAheadI:
 624              	.LFB190:
 625              		.loc 1 367 0
 626              		.cfi_startproc
 627              		@ args = 0, pretend = 0, frame = 0
 628              		@ frame_needed = 0, uses_anonymous_args = 0
 629              	.LVL34:
 630              		.loc 1 373 0
 631 0000 027D     		ldrb	r2, [r0, #20]	@ zero_extendqisi2
 632              		.loc 1 367 0
 633 0002 38B5     		push	{r3, r4, r5, lr}
 634              	.LCFI8:
 635              		.cfi_def_cfa_offset 16
 636              		.cfi_offset 14, -4
 637              		.cfi_offset 5, -8
 638              		.cfi_offset 4, -12
 639              		.cfi_offset 3, -16
 640              		.loc 1 367 0
 641 0004 0346     		mov	r3, r0
 642              		.loc 1 373 0
 643 0006 CAB9     		cbnz	r2, .L31
 644              	.LVL35:
 645              	.LBB141:
 646              		.loc 1 518 0
 647 0008 0268     		ldr	r2, [r0, #0]
 648 000a 4068     		ldr	r0, [r0, #4]
 649              	.LVL36:
 650              	.LBB142:
 651              		.loc 4 172 0
 652 000c 1C69     		ldr	r4, [r3, #16]
 653              	.LBB143:
 654              	.LBB144:
 655              		.loc 4 140 0
 656 000e 851A     		subs	r5, r0, r2
 657              	.LBE144:
 658              	.LBE143:
 659              		.loc 4 172 0
 660 0010 C4EBA504 		rsb	r4, r4, r5, asr #2
 661              	.LBE142:
 662              	.LBE141:
 663              		.loc 1 378 0
 664 0014 002C     		cmp	r4, #0
 665 0016 14DD     		ble	.L32
 666              		.loc 1 379 0
 667 0018 DC68     		ldr	r4, [r3, #12]
 668 001a 043C     		subs	r4, r4, #4
 669 001c 9442     		cmp	r4, r2
 670 001e DC60     		str	r4, [r3, #12]
 671 0020 01D2     		bcs	.L30
 672              		.loc 1 380 0
ARM GAS  /tmp/cca9OIta.s 			page 13


 673 0022 041F     		subs	r4, r0, #4
 674 0024 DC60     		str	r4, [r3, #12]
 675              	.L30:
 676              		.loc 1 382 0
 677 0026 2160     		str	r1, [r4, #0]
 678              		.loc 1 383 0
 679 0028 1A69     		ldr	r2, [r3, #16]
 680              		.loc 1 386 0
 681 002a 03F12000 		add	r0, r3, #32
 682              		.loc 1 383 0
 683 002e 511C     		adds	r1, r2, #1
 684              	.LVL37:
 685 0030 1961     		str	r1, [r3, #16]
 686              		.loc 1 386 0
 687 0032 0021     		movs	r1, #0
 688 0034 FFF7FEFF 		bl	chThdDequeueNextI
 689              	.LVL38:
 690              		.loc 1 388 0
 691 0038 0020     		movs	r0, #0
 692 003a 38BD     		pop	{r3, r4, r5, pc}
 693              	.LVL39:
 694              	.L31:
 695              		.loc 1 374 0
 696 003c 6FF00100 		mvn	r0, #1
 697              	.LVL40:
 698 0040 38BD     		pop	{r3, r4, r5, pc}
 699              	.LVL41:
 700              	.L32:
 701              		.loc 1 392 0
 702 0042 4FF0FF30 		mov	r0, #-1
 703              		.loc 1 393 0
 704 0046 38BD     		pop	{r3, r4, r5, pc}
 705              		.cfi_endproc
 706              	.LFE190:
 707              		.size	chMBPostAheadI, .-chMBPostAheadI
 708 0048 AFF30080 		.section	.text.chMBFetchS,"ax",%progbits
 708      AFF30080 
 709              		.align	2
 710              		.p2align 4,,15
 711              		.global	chMBFetchS
 712              		.thumb
 713              		.thumb_func
 714              		.type	chMBFetchS, %function
 715              	chMBFetchS:
 716              	.LFB192:
 717              		.loc 1 443 0
 718              		.cfi_startproc
 719              		@ args = 0, pretend = 0, frame = 0
 720              		@ frame_needed = 0, uses_anonymous_args = 0
 721              	.LVL42:
 722 0000 F8B5     		push	{r3, r4, r5, r6, r7, lr}
 723              	.LCFI9:
 724              		.cfi_def_cfa_offset 24
 725              		.cfi_offset 14, -4
 726              		.cfi_offset 7, -8
 727              		.cfi_offset 6, -12
 728              		.cfi_offset 5, -16
ARM GAS  /tmp/cca9OIta.s 			page 14


 729              		.cfi_offset 4, -20
 730              		.cfi_offset 3, -24
 731              		.loc 1 443 0
 732 0002 0446     		mov	r4, r0
 733 0004 0D46     		mov	r5, r1
 734 0006 1746     		mov	r7, r2
 735              		.loc 1 471 0
 736 0008 00F12006 		add	r6, r0, #32
 737              	.LVL43:
 738              	.L37:
 739              		.loc 1 451 0
 740 000c 237D     		ldrb	r3, [r4, #20]	@ zero_extendqisi2
 741              		.loc 1 471 0
 742 000e 3046     		mov	r0, r6
 743 0010 3946     		mov	r1, r7
 744              		.loc 1 451 0
 745 0012 3BB9     		cbnz	r3, .L38
 746              		.loc 1 456 0
 747 0014 2269     		ldr	r2, [r4, #16]
 748 0016 002A     		cmp	r2, #0
 749 0018 07DC     		bgt	.L40
 750              		.loc 1 471 0
 751 001a FFF7FEFF 		bl	chThdEnqueueTimeoutS
 752              	.LVL44:
 753              		.loc 1 472 0
 754 001e 0028     		cmp	r0, #0
 755 0020 F4D0     		beq	.L37
 756 0022 F8BD     		pop	{r3, r4, r5, r6, r7, pc}
 757              	.LVL45:
 758              	.L38:
 759              		.loc 1 452 0
 760 0024 6FF00100 		mvn	r0, #1
 761              		.loc 1 475 0
 762 0028 F8BD     		pop	{r3, r4, r5, r6, r7, pc}
 763              	.L40:
 764              		.loc 1 457 0
 765 002a E068     		ldr	r0, [r4, #12]
 766              		.loc 1 458 0
 767 002c 6268     		ldr	r2, [r4, #4]
 768              		.loc 1 457 0
 769 002e 50F8043B 		ldr	r3, [r0], #4
 770              		.loc 1 458 0
 771 0032 9042     		cmp	r0, r2
 772              		.loc 1 457 0
 773 0034 2B60     		str	r3, [r5, #0]
 774              		.loc 1 461 0
 775 0036 2169     		ldr	r1, [r4, #16]
 776              		.loc 1 457 0
 777 0038 E060     		str	r0, [r4, #12]
 778              		.loc 1 459 0
 779 003a 24BF     		itt	cs
 780 003c 2068     		ldrcs	r0, [r4, #0]
 781 003e E060     		strcs	r0, [r4, #12]
 782              		.loc 1 461 0
 783 0040 4B1E     		subs	r3, r1, #1
 784              		.loc 1 464 0
 785 0042 04F11800 		add	r0, r4, #24
ARM GAS  /tmp/cca9OIta.s 			page 15


 786 0046 0021     		movs	r1, #0
 787              		.loc 1 461 0
 788 0048 2361     		str	r3, [r4, #16]
 789              		.loc 1 464 0
 790 004a FFF7FEFF 		bl	chThdDequeueNextI
 791              		.loc 1 465 0
 792 004e FFF7FEFF 		bl	chSchRescheduleS
 793              		.loc 1 467 0
 794 0052 0020     		movs	r0, #0
 795 0054 F8BD     		pop	{r3, r4, r5, r6, r7, pc}
 796              		.cfi_endproc
 797              	.LFE192:
 798              		.size	chMBFetchS, .-chMBFetchS
 799 0056 00BFAFF3 		.section	.text.chMBFetch,"ax",%progbits
 799      0080AFF3 
 799      0080
 800              		.align	2
 801              		.p2align 4,,15
 802              		.global	chMBFetch
 803              		.thumb
 804              		.thumb_func
 805              		.type	chMBFetch, %function
 806              	chMBFetch:
 807              	.LFB191:
 808              		.loc 1 414 0
 809              		.cfi_startproc
 810              		@ args = 0, pretend = 0, frame = 0
 811              		@ frame_needed = 0, uses_anonymous_args = 0
 812              	.LVL46:
 813 0000 08B5     		push	{r3, lr}
 814              	.LCFI10:
 815              		.cfi_def_cfa_offset 8
 816              		.cfi_offset 14, -4
 817              		.cfi_offset 3, -8
 818              	.LBB145:
 819              	.LBB146:
 820              	.LBB147:
 821              	.LBB148:
 822              		.loc 3 548 0
 823 0002 2023     		movs	r3, #32
 824              	@ 548 "../../../resources/chibios/ChibiOS_16.1.8/os/ext/CMSIS/include/core_cmFunc.h" 1
 825 0004 83F31188 		MSR basepri, r3
 826              	@ 0 "" 2
 827              		.thumb
 828              	.LBE148:
 829              	.LBE147:
 830              	.LBE146:
 831              	.LBE145:
 832              		.loc 1 418 0
 833 0008 FFF7FEFF 		bl	chMBFetchS
 834              	.LVL47:
 835              	.LBB149:
 836              	.LBB150:
 837              	.LBB151:
 838              	.LBB152:
 839              	.LBB153:
 840              		.loc 3 548 0
ARM GAS  /tmp/cca9OIta.s 			page 16


 841 000c 0023     		movs	r3, #0
 842              	@ 548 "../../../resources/chibios/ChibiOS_16.1.8/os/ext/CMSIS/include/core_cmFunc.h" 1
 843 000e 83F31188 		MSR basepri, r3
 844              	@ 0 "" 2
 845              		.thumb
 846              	.LBE153:
 847              	.LBE152:
 848              	.LBE151:
 849              	.LBE150:
 850              	.LBE149:
 851              		.loc 1 422 0
 852 0012 08BD     		pop	{r3, pc}
 853              		.cfi_endproc
 854              	.LFE191:
 855              		.size	chMBFetch, .-chMBFetch
 856 0014 AFF30080 		.section	.text.chMBFetchI,"ax",%progbits
 856      AFF30080 
 856      AFF30080 
 857              		.align	2
 858              		.p2align 4,,15
 859              		.global	chMBFetchI
 860              		.thumb
 861              		.thumb_func
 862              		.type	chMBFetchI, %function
 863              	chMBFetchI:
 864              	.LFB193:
 865              		.loc 1 492 0
 866              		.cfi_startproc
 867              		@ args = 0, pretend = 0, frame = 0
 868              		@ frame_needed = 0, uses_anonymous_args = 0
 869              	.LVL48:
 870              		.loc 1 498 0
 871 0000 027D     		ldrb	r2, [r0, #20]	@ zero_extendqisi2
 872              		.loc 1 492 0
 873 0002 10B5     		push	{r4, lr}
 874              	.LCFI11:
 875              		.cfi_def_cfa_offset 8
 876              		.cfi_offset 14, -4
 877              		.cfi_offset 4, -8
 878              		.loc 1 492 0
 879 0004 0346     		mov	r3, r0
 880              		.loc 1 498 0
 881 0006 BAB9     		cbnz	r2, .L45
 882              		.loc 1 503 0
 883 0008 0269     		ldr	r2, [r0, #16]
 884 000a 002A     		cmp	r2, #0
 885 000c 17DD     		ble	.L46
 886              		.loc 1 504 0
 887 000e C268     		ldr	r2, [r0, #12]
 888              		.loc 1 505 0
 889 0010 4068     		ldr	r0, [r0, #4]
 890              	.LVL49:
 891              		.loc 1 504 0
 892 0012 52F8044B 		ldr	r4, [r2], #4
 893              		.loc 1 505 0
 894 0016 8242     		cmp	r2, r0
 895              		.loc 1 504 0
ARM GAS  /tmp/cca9OIta.s 			page 17


 896 0018 0C60     		str	r4, [r1, #0]
 897 001a DA60     		str	r2, [r3, #12]
 898              		.loc 1 506 0
 899 001c 28BF     		it	cs
 900 001e 1A68     		ldrcs	r2, [r3, #0]
 901              		.loc 1 511 0
 902 0020 03F11800 		add	r0, r3, #24
 903              		.loc 1 506 0
 904 0024 28BF     		it	cs
 905 0026 DA60     		strcs	r2, [r3, #12]
 906              		.loc 1 508 0
 907 0028 1A69     		ldr	r2, [r3, #16]
 908 002a 511E     		subs	r1, r2, #1
 909              	.LVL50:
 910 002c 1961     		str	r1, [r3, #16]
 911              		.loc 1 511 0
 912 002e 0021     		movs	r1, #0
 913 0030 FFF7FEFF 		bl	chThdDequeueNextI
 914              	.LVL51:
 915              		.loc 1 513 0
 916 0034 0020     		movs	r0, #0
 917 0036 10BD     		pop	{r4, pc}
 918              	.LVL52:
 919              	.L45:
 920              		.loc 1 499 0
 921 0038 6FF00100 		mvn	r0, #1
 922              	.LVL53:
 923 003c 10BD     		pop	{r4, pc}
 924              	.L46:
 925              		.loc 1 517 0
 926 003e 4FF0FF30 		mov	r0, #-1
 927              		.loc 1 518 0
 928 0042 10BD     		pop	{r4, pc}
 929              		.cfi_endproc
 930              	.LFE193:
 931              		.size	chMBFetchI, .-chMBFetchI
 932 0044 AFF30080 		.text
 932      AFF30080 
 932      AFF30080 
 933              	.Letext0:
 934              		.file 5 "/home/madog/programs/CodeSourcery/Sourcery_CodeBench_Lite_for_ARM_EABI/bin/../lib/gcc/arm
 935              		.file 6 "../../../resources/chibios/ChibiOS_16.1.8/os/rt/ports/ARMCMx/compilers/GCC/chtypes.h"
 936              		.file 7 "../../../resources/chibios/ChibiOS_16.1.8/os/rt/include/chsystypes.h"
 937              		.file 8 "../../../resources/chibios/ChibiOS_16.1.8/os/rt/ports/ARMCMx/chcore.h"
 938              		.file 9 "../../../resources/chibios/ChibiOS_16.1.8/os/rt/ports/ARMCMx/chcore_v7m.h"
 939              		.file 10 "../../../resources/chibios/ChibiOS_16.1.8/os/rt/include/chtm.h"
 940              		.file 11 "../../../resources/chibios/ChibiOS_16.1.8/os/rt/include/chsem.h"
 941              		.file 12 "../../../resources/chibios/ChibiOS_16.1.8/os/rt/include/chmtx.h"
 942              		.file 13 "../../../resources/chibios/ChibiOS_16.1.8/os/rt/include/chthreads.h"
 943              		.file 14 "../../../resources/chibios/ChibiOS_16.1.8/os/rt/include/chsys.h"
 944              		.file 15 "../../../resources/chibios/ChibiOS_16.1.8/os/ext/CMSIS/include/core_cm3.h"
 945              		.section	.debug_info,"",%progbits
 946              	.Ldebug_info0:
 947 0000 690F0000 		.4byte	0xf69
 948 0004 0200     		.2byte	0x2
 949 0006 00000000 		.4byte	.Ldebug_abbrev0
 950 000a 04       		.byte	0x4
ARM GAS  /tmp/cca9OIta.s 			page 18


 951 000b 01       		.uleb128 0x1
 952 000c FA040000 		.4byte	.LASF134
 953 0010 01       		.byte	0x1
 954 0011 31000000 		.4byte	.LASF135
 955 0015 5B030000 		.4byte	.LASF136
 956 0019 00000000 		.4byte	0
 957 001d 00000000 		.4byte	0
 958 0021 00000000 		.4byte	.Ldebug_ranges0+0
 959 0025 00000000 		.4byte	.Ldebug_line0
 960 0029 02       		.uleb128 0x2
 961 002a 04       		.byte	0x4
 962 002b 05       		.byte	0x5
 963 002c 696E7400 		.ascii	"int\000"
 964 0030 03       		.uleb128 0x3
 965 0031 04       		.byte	0x4
 966 0032 07       		.byte	0x7
 967 0033 BB000000 		.4byte	.LASF0
 968 0037 03       		.uleb128 0x3
 969 0038 01       		.byte	0x1
 970 0039 06       		.byte	0x6
 971 003a 81050000 		.4byte	.LASF1
 972 003e 04       		.uleb128 0x4
 973 003f D5020000 		.4byte	.LASF4
 974 0043 05       		.byte	0x5
 975 0044 2A       		.byte	0x2a
 976 0045 49000000 		.4byte	0x49
 977 0049 03       		.uleb128 0x3
 978 004a 01       		.byte	0x1
 979 004b 08       		.byte	0x8
 980 004c 19050000 		.4byte	.LASF2
 981 0050 03       		.uleb128 0x3
 982 0051 02       		.byte	0x2
 983 0052 05       		.byte	0x5
 984 0053 1A040000 		.4byte	.LASF3
 985 0057 04       		.uleb128 0x4
 986 0058 FE030000 		.4byte	.LASF5
 987 005c 05       		.byte	0x5
 988 005d 36       		.byte	0x36
 989 005e 62000000 		.4byte	0x62
 990 0062 03       		.uleb128 0x3
 991 0063 02       		.byte	0x2
 992 0064 07       		.byte	0x7
 993 0065 8D050000 		.4byte	.LASF6
 994 0069 04       		.uleb128 0x4
 995 006a EB040000 		.4byte	.LASF7
 996 006e 05       		.byte	0x5
 997 006f 4F       		.byte	0x4f
 998 0070 74000000 		.4byte	0x74
 999 0074 03       		.uleb128 0x3
 1000 0075 04       		.byte	0x4
 1001 0076 05       		.byte	0x5
 1002 0077 4A040000 		.4byte	.LASF8
 1003 007b 04       		.uleb128 0x4
 1004 007c 8A010000 		.4byte	.LASF9
 1005 0080 05       		.byte	0x5
 1006 0081 50       		.byte	0x50
 1007 0082 86000000 		.4byte	0x86
ARM GAS  /tmp/cca9OIta.s 			page 19


 1008 0086 03       		.uleb128 0x3
 1009 0087 04       		.byte	0x4
 1010 0088 07       		.byte	0x7
 1011 0089 C2040000 		.4byte	.LASF10
 1012 008d 03       		.uleb128 0x3
 1013 008e 08       		.byte	0x8
 1014 008f 05       		.byte	0x5
 1015 0090 08030000 		.4byte	.LASF11
 1016 0094 04       		.uleb128 0x4
 1017 0095 97040000 		.4byte	.LASF12
 1018 0099 05       		.byte	0x5
 1019 009a 78       		.byte	0x78
 1020 009b 9F000000 		.4byte	0x9f
 1021 009f 03       		.uleb128 0x3
 1022 00a0 08       		.byte	0x8
 1023 00a1 07       		.byte	0x7
 1024 00a2 D3010000 		.4byte	.LASF13
 1025 00a6 04       		.uleb128 0x4
 1026 00a7 07040000 		.4byte	.LASF14
 1027 00ab 06       		.byte	0x6
 1028 00ac 39       		.byte	0x39
 1029 00ad 7B000000 		.4byte	0x7b
 1030 00b1 04       		.uleb128 0x4
 1031 00b2 D3030000 		.4byte	.LASF15
 1032 00b6 06       		.byte	0x6
 1033 00b7 3C       		.byte	0x3c
 1034 00b8 3E000000 		.4byte	0x3e
 1035 00bc 04       		.uleb128 0x4
 1036 00bd BC020000 		.4byte	.LASF16
 1037 00c1 06       		.byte	0x6
 1038 00c2 3D       		.byte	0x3d
 1039 00c3 3E000000 		.4byte	0x3e
 1040 00c7 04       		.uleb128 0x4
 1041 00c8 BA040000 		.4byte	.LASF17
 1042 00cc 06       		.byte	0x6
 1043 00cd 3E       		.byte	0x3e
 1044 00ce 3E000000 		.4byte	0x3e
 1045 00d2 04       		.uleb128 0x4
 1046 00d3 BA010000 		.4byte	.LASF18
 1047 00d7 06       		.byte	0x6
 1048 00d8 40       		.byte	0x40
 1049 00d9 7B000000 		.4byte	0x7b
 1050 00dd 04       		.uleb128 0x4
 1051 00de 35030000 		.4byte	.LASF19
 1052 00e2 06       		.byte	0x6
 1053 00e3 41       		.byte	0x41
 1054 00e4 69000000 		.4byte	0x69
 1055 00e8 04       		.uleb128 0x4
 1056 00e9 93010000 		.4byte	.LASF20
 1057 00ed 06       		.byte	0x6
 1058 00ee 43       		.byte	0x43
 1059 00ef 7B000000 		.4byte	0x7b
 1060 00f3 04       		.uleb128 0x4
 1061 00f4 EA010000 		.4byte	.LASF21
 1062 00f8 06       		.byte	0x6
 1063 00f9 45       		.byte	0x45
 1064 00fa 69000000 		.4byte	0x69
ARM GAS  /tmp/cca9OIta.s 			page 20


 1065 00fe 04       		.uleb128 0x4
 1066 00ff 96000000 		.4byte	.LASF22
 1067 0103 07       		.byte	0x7
 1068 0104 35       		.byte	0x35
 1069 0105 57000000 		.4byte	0x57
 1070 0109 04       		.uleb128 0x4
 1071 010a 21020000 		.4byte	.LASF23
 1072 010e 07       		.byte	0x7
 1073 010f 3F       		.byte	0x3f
 1074 0110 14010000 		.4byte	0x114
 1075 0114 05       		.uleb128 0x5
 1076 0115 EF020000 		.4byte	.LASF43
 1077 0119 44       		.byte	0x44
 1078 011a 02       		.byte	0x2
 1079 011b C2       		.byte	0xc2
 1080 011c 25020000 		.4byte	0x225
 1081 0120 06       		.uleb128 0x6
 1082 0121 90040000 		.4byte	.LASF24
 1083 0125 02       		.byte	0x2
 1084 0126 C3       		.byte	0xc3
 1085 0127 30020000 		.4byte	0x230
 1086 012b 02       		.byte	0x2
 1087 012c 23       		.byte	0x23
 1088 012d 00       		.uleb128 0
 1089 012e 06       		.uleb128 0x6
 1090 012f B3040000 		.4byte	.LASF25
 1091 0133 02       		.byte	0x2
 1092 0134 C5       		.byte	0xc5
 1093 0135 30020000 		.4byte	0x230
 1094 0139 02       		.byte	0x2
 1095 013a 23       		.byte	0x23
 1096 013b 04       		.uleb128 0x4
 1097 013c 06       		.uleb128 0x6
 1098 013d 8F000000 		.4byte	.LASF26
 1099 0141 02       		.byte	0x2
 1100 0142 C7       		.byte	0xc7
 1101 0143 D2000000 		.4byte	0xd2
 1102 0147 02       		.byte	0x2
 1103 0148 23       		.byte	0x23
 1104 0149 08       		.uleb128 0x8
 1105 014a 06       		.uleb128 0x6
 1106 014b A0040000 		.4byte	.LASF27
 1107 014f 02       		.byte	0x2
 1108 0150 C8       		.byte	0xc8
 1109 0151 8C040000 		.4byte	0x48c
 1110 0155 02       		.byte	0x2
 1111 0156 23       		.byte	0x23
 1112 0157 0C       		.uleb128 0xc
 1113 0158 06       		.uleb128 0x6
 1114 0159 FC010000 		.4byte	.LASF28
 1115 015d 02       		.byte	0x2
 1116 015e CA       		.byte	0xca
 1117 015f 30020000 		.4byte	0x230
 1118 0163 02       		.byte	0x2
 1119 0164 23       		.byte	0x23
 1120 0165 10       		.uleb128 0x10
 1121 0166 06       		.uleb128 0x6
ARM GAS  /tmp/cca9OIta.s 			page 21


 1122 0167 C5020000 		.4byte	.LASF29
 1123 016b 02       		.byte	0x2
 1124 016c CB       		.byte	0xcb
 1125 016d 30020000 		.4byte	0x230
 1126 0171 02       		.byte	0x2
 1127 0172 23       		.byte	0x23
 1128 0173 14       		.uleb128 0x14
 1129 0174 06       		.uleb128 0x6
 1130 0175 82020000 		.4byte	.LASF30
 1131 0179 02       		.byte	0x2
 1132 017a D2       		.byte	0xd2
 1133 017b 2B060000 		.4byte	0x62b
 1134 017f 02       		.byte	0x2
 1135 0180 23       		.byte	0x23
 1136 0181 18       		.uleb128 0x18
 1137 0182 06       		.uleb128 0x6
 1138 0183 CD020000 		.4byte	.LASF31
 1139 0187 02       		.byte	0x2
 1140 0188 DD       		.byte	0xdd
 1141 0189 BC000000 		.4byte	0xbc
 1142 018d 02       		.byte	0x2
 1143 018e 23       		.byte	0x23
 1144 018f 1C       		.uleb128 0x1c
 1145 0190 06       		.uleb128 0x6
 1146 0191 43030000 		.4byte	.LASF32
 1147 0195 02       		.byte	0x2
 1148 0196 E1       		.byte	0xe1
 1149 0197 B1000000 		.4byte	0xb1
 1150 019b 02       		.byte	0x2
 1151 019c 23       		.byte	0x23
 1152 019d 1D       		.uleb128 0x1d
 1153 019e 06       		.uleb128 0x6
 1154 019f 3D050000 		.4byte	.LASF33
 1155 01a3 02       		.byte	0x2
 1156 01a4 E6       		.byte	0xe6
 1157 01a5 C7000000 		.4byte	0xc7
 1158 01a9 02       		.byte	0x2
 1159 01aa 23       		.byte	0x23
 1160 01ab 1E       		.uleb128 0x1e
 1161 01ac 07       		.uleb128 0x7
 1162 01ad 705F7500 		.ascii	"p_u\000"
 1163 01b1 02       		.byte	0x2
 1164 01b2 3101     		.2byte	0x131
 1165 01b4 5C050000 		.4byte	0x55c
 1166 01b8 02       		.byte	0x2
 1167 01b9 23       		.byte	0x23
 1168 01ba 20       		.uleb128 0x20
 1169 01bb 08       		.uleb128 0x8
 1170 01bc 20000000 		.4byte	.LASF34
 1171 01c0 02       		.byte	0x2
 1172 01c1 3601     		.2byte	0x136
 1173 01c3 36020000 		.4byte	0x236
 1174 01c7 02       		.byte	0x2
 1175 01c8 23       		.byte	0x23
 1176 01c9 24       		.uleb128 0x24
 1177 01ca 08       		.uleb128 0x8
 1178 01cb B0000000 		.4byte	.LASF35
ARM GAS  /tmp/cca9OIta.s 			page 22


 1179 01cf 02       		.byte	0x2
 1180 01d0 3C01     		.2byte	0x13c
 1181 01d2 5C020000 		.4byte	0x25c
 1182 01d6 02       		.byte	0x2
 1183 01d7 23       		.byte	0x23
 1184 01d8 28       		.uleb128 0x28
 1185 01d9 08       		.uleb128 0x8
 1186 01da C3030000 		.4byte	.LASF36
 1187 01de 02       		.byte	0x2
 1188 01df 4001     		.2byte	0x140
 1189 01e1 DD000000 		.4byte	0xdd
 1190 01e5 02       		.byte	0x2
 1191 01e6 23       		.byte	0x23
 1192 01e7 30       		.uleb128 0x30
 1193 01e8 08       		.uleb128 0x8
 1194 01e9 37040000 		.4byte	.LASF37
 1195 01ed 02       		.byte	0x2
 1196 01ee 4601     		.2byte	0x146
 1197 01f0 E8000000 		.4byte	0xe8
 1198 01f4 02       		.byte	0x2
 1199 01f5 23       		.byte	0x23
 1200 01f6 34       		.uleb128 0x34
 1201 01f7 08       		.uleb128 0x8
 1202 01f8 E5020000 		.4byte	.LASF38
 1203 01fc 02       		.byte	0x2
 1204 01fd 4D01     		.2byte	0x14d
 1205 01ff 25060000 		.4byte	0x625
 1206 0203 02       		.byte	0x2
 1207 0204 23       		.byte	0x23
 1208 0205 38       		.uleb128 0x38
 1209 0206 08       		.uleb128 0x8
 1210 0207 0F040000 		.4byte	.LASF39
 1211 020b 02       		.byte	0x2
 1212 020c 5101     		.2byte	0x151
 1213 020e D2000000 		.4byte	0xd2
 1214 0212 02       		.byte	0x2
 1215 0213 23       		.byte	0x23
 1216 0214 3C       		.uleb128 0x3c
 1217 0215 08       		.uleb128 0x8
 1218 0216 DD020000 		.4byte	.LASF40
 1219 021a 02       		.byte	0x2
 1220 021b 5801     		.2byte	0x158
 1221 021d 20030000 		.4byte	0x320
 1222 0221 02       		.byte	0x2
 1223 0222 23       		.byte	0x23
 1224 0223 40       		.uleb128 0x40
 1225 0224 00       		.byte	0
 1226 0225 04       		.uleb128 0x4
 1227 0226 9D020000 		.4byte	.LASF41
 1228 022a 07       		.byte	0x7
 1229 022b 44       		.byte	0x44
 1230 022c 30020000 		.4byte	0x230
 1231 0230 09       		.uleb128 0x9
 1232 0231 04       		.byte	0x4
 1233 0232 09010000 		.4byte	0x109
 1234 0236 04       		.uleb128 0x4
 1235 0237 C8000000 		.4byte	.LASF42
ARM GAS  /tmp/cca9OIta.s 			page 23


 1236 023b 07       		.byte	0x7
 1237 023c 49       		.byte	0x49
 1238 023d 41020000 		.4byte	0x241
 1239 0241 05       		.uleb128 0x5
 1240 0242 00000000 		.4byte	.LASF44
 1241 0246 04       		.byte	0x4
 1242 0247 02       		.byte	0x2
 1243 0248 B0       		.byte	0xb0
 1244 0249 5C020000 		.4byte	0x25c
 1245 024d 06       		.uleb128 0x6
 1246 024e 90040000 		.4byte	.LASF24
 1247 0252 02       		.byte	0x2
 1248 0253 B1       		.byte	0xb1
 1249 0254 30020000 		.4byte	0x230
 1250 0258 02       		.byte	0x2
 1251 0259 23       		.byte	0x23
 1252 025a 00       		.uleb128 0
 1253 025b 00       		.byte	0
 1254 025c 04       		.uleb128 0x4
 1255 025d 10000000 		.4byte	.LASF45
 1256 0261 07       		.byte	0x7
 1257 0262 50       		.byte	0x50
 1258 0263 67020000 		.4byte	0x267
 1259 0267 05       		.uleb128 0x5
 1260 0268 31010000 		.4byte	.LASF46
 1261 026c 08       		.byte	0x8
 1262 026d 02       		.byte	0x2
 1263 026e B7       		.byte	0xb7
 1264 026f 90020000 		.4byte	0x290
 1265 0273 06       		.uleb128 0x6
 1266 0274 90040000 		.4byte	.LASF24
 1267 0278 02       		.byte	0x2
 1268 0279 B8       		.byte	0xb8
 1269 027a 30020000 		.4byte	0x230
 1270 027e 02       		.byte	0x2
 1271 027f 23       		.byte	0x23
 1272 0280 00       		.uleb128 0
 1273 0281 06       		.uleb128 0x6
 1274 0282 B3040000 		.4byte	.LASF25
 1275 0286 02       		.byte	0x2
 1276 0287 B9       		.byte	0xb9
 1277 0288 30020000 		.4byte	0x230
 1278 028c 02       		.byte	0x2
 1279 028d 23       		.byte	0x23
 1280 028e 04       		.uleb128 0x4
 1281 028f 00       		.byte	0
 1282 0290 04       		.uleb128 0x4
 1283 0291 DE040000 		.4byte	.LASF47
 1284 0295 07       		.byte	0x7
 1285 0296 57       		.byte	0x57
 1286 0297 9B020000 		.4byte	0x29b
 1287 029b 0A       		.uleb128 0xa
 1288 029c EF000000 		.4byte	.LASF48
 1289 02a0 1C       		.byte	0x1c
 1290 02a1 02       		.byte	0x2
 1291 02a2 9001     		.2byte	0x190
 1292 02a4 03030000 		.4byte	0x303
ARM GAS  /tmp/cca9OIta.s 			page 24


 1293 02a8 08       		.uleb128 0x8
 1294 02a9 25030000 		.4byte	.LASF49
 1295 02ad 02       		.byte	0x2
 1296 02ae 9101     		.2byte	0x191
 1297 02b0 5C020000 		.4byte	0x25c
 1298 02b4 02       		.byte	0x2
 1299 02b5 23       		.byte	0x23
 1300 02b6 00       		.uleb128 0
 1301 02b7 08       		.uleb128 0x8
 1302 02b8 9F010000 		.4byte	.LASF50
 1303 02bc 02       		.byte	0x2
 1304 02bd 9201     		.2byte	0x192
 1305 02bf D2000000 		.4byte	0xd2
 1306 02c3 02       		.byte	0x2
 1307 02c4 23       		.byte	0x23
 1308 02c5 08       		.uleb128 0x8
 1309 02c6 08       		.uleb128 0x8
 1310 02c7 A0050000 		.4byte	.LASF51
 1311 02cb 02       		.byte	0x2
 1312 02cc 9401     		.2byte	0x194
 1313 02ce 8C040000 		.4byte	0x48c
 1314 02d2 02       		.byte	0x2
 1315 02d3 23       		.byte	0x23
 1316 02d4 0C       		.uleb128 0xc
 1317 02d5 08       		.uleb128 0x8
 1318 02d6 2D030000 		.4byte	.LASF52
 1319 02da 02       		.byte	0x2
 1320 02db 9701     		.2byte	0x197
 1321 02dd 30020000 		.4byte	0x230
 1322 02e1 02       		.byte	0x2
 1323 02e2 23       		.byte	0x23
 1324 02e3 10       		.uleb128 0x10
 1325 02e4 08       		.uleb128 0x8
 1326 02e5 9C030000 		.4byte	.LASF53
 1327 02e9 02       		.byte	0x2
 1328 02ea 9801     		.2byte	0x198
 1329 02ec 30020000 		.4byte	0x230
 1330 02f0 02       		.byte	0x2
 1331 02f1 23       		.byte	0x23
 1332 02f2 14       		.uleb128 0x14
 1333 02f3 08       		.uleb128 0x8
 1334 02f4 2D040000 		.4byte	.LASF54
 1335 02f8 02       		.byte	0x2
 1336 02f9 9B01     		.2byte	0x19b
 1337 02fb 30020000 		.4byte	0x230
 1338 02ff 02       		.byte	0x2
 1339 0300 23       		.byte	0x23
 1340 0301 18       		.uleb128 0x18
 1341 0302 00       		.byte	0
 1342 0303 04       		.uleb128 0x4
 1343 0304 54010000 		.4byte	.LASF55
 1344 0308 07       		.byte	0x7
 1345 0309 5C       		.byte	0x5c
 1346 030a 0E030000 		.4byte	0x30e
 1347 030e 09       		.uleb128 0x9
 1348 030f 04       		.byte	0x4
 1349 0310 14030000 		.4byte	0x314
ARM GAS  /tmp/cca9OIta.s 			page 25


 1350 0314 0B       		.uleb128 0xb
 1351 0315 01       		.byte	0x1
 1352 0316 20030000 		.4byte	0x320
 1353 031a 0C       		.uleb128 0xc
 1354 031b 20030000 		.4byte	0x320
 1355 031f 00       		.byte	0
 1356 0320 0D       		.uleb128 0xd
 1357 0321 04       		.byte	0x4
 1358 0322 04       		.uleb128 0x4
 1359 0323 4B030000 		.4byte	.LASF56
 1360 0327 07       		.byte	0x7
 1361 0328 61       		.byte	0x61
 1362 0329 2D030000 		.4byte	0x32d
 1363 032d 0A       		.uleb128 0xa
 1364 032e C2010000 		.4byte	.LASF57
 1365 0332 14       		.byte	0x14
 1366 0333 02       		.byte	0x2
 1367 0334 6B01     		.2byte	0x16b
 1368 0336 86030000 		.4byte	0x386
 1369 033a 08       		.uleb128 0x8
 1370 033b 60050000 		.4byte	.LASF58
 1371 033f 02       		.byte	0x2
 1372 0340 6C01     		.2byte	0x16c
 1373 0342 3D060000 		.4byte	0x63d
 1374 0346 02       		.byte	0x2
 1375 0347 23       		.byte	0x23
 1376 0348 00       		.uleb128 0
 1377 0349 08       		.uleb128 0x8
 1378 034a E5050000 		.4byte	.LASF59
 1379 034e 02       		.byte	0x2
 1380 034f 6D01     		.2byte	0x16d
 1381 0351 3D060000 		.4byte	0x63d
 1382 0355 02       		.byte	0x2
 1383 0356 23       		.byte	0x23
 1384 0357 04       		.uleb128 0x4
 1385 0358 08       		.uleb128 0x8
 1386 0359 94020000 		.4byte	.LASF60
 1387 035d 02       		.byte	0x2
 1388 035e 6E01     		.2byte	0x16e
 1389 0360 FE000000 		.4byte	0xfe
 1390 0364 02       		.byte	0x2
 1391 0365 23       		.byte	0x23
 1392 0366 08       		.uleb128 0x8
 1393 0367 08       		.uleb128 0x8
 1394 0368 D1050000 		.4byte	.LASF61
 1395 036c 02       		.byte	0x2
 1396 036d 6F01     		.2byte	0x16f
 1397 036f 03030000 		.4byte	0x303
 1398 0373 02       		.byte	0x2
 1399 0374 23       		.byte	0x23
 1400 0375 0C       		.uleb128 0xc
 1401 0376 08       		.uleb128 0x8
 1402 0377 A6010000 		.4byte	.LASF62
 1403 037b 02       		.byte	0x2
 1404 037c 7101     		.2byte	0x171
 1405 037e 20030000 		.4byte	0x320
 1406 0382 02       		.byte	0x2
ARM GAS  /tmp/cca9OIta.s 			page 26


 1407 0383 23       		.byte	0x23
 1408 0384 10       		.uleb128 0x10
 1409 0385 00       		.byte	0
 1410 0386 04       		.uleb128 0x4
 1411 0387 27050000 		.4byte	.LASF63
 1412 038b 07       		.byte	0x7
 1413 038c 66       		.byte	0x66
 1414 038d 91030000 		.4byte	0x391
 1415 0391 0A       		.uleb128 0xa
 1416 0392 0A020000 		.4byte	.LASF64
 1417 0396 0C       		.byte	0xc
 1418 0397 02       		.byte	0x2
 1419 0398 7B01     		.2byte	0x17b
 1420 039a DB030000 		.4byte	0x3db
 1421 039e 08       		.uleb128 0x8
 1422 039f 60050000 		.4byte	.LASF58
 1423 03a3 02       		.byte	0x2
 1424 03a4 7C01     		.2byte	0x17c
 1425 03a6 3D060000 		.4byte	0x63d
 1426 03aa 02       		.byte	0x2
 1427 03ab 23       		.byte	0x23
 1428 03ac 00       		.uleb128 0
 1429 03ad 08       		.uleb128 0x8
 1430 03ae E5050000 		.4byte	.LASF59
 1431 03b2 02       		.byte	0x2
 1432 03b3 7E01     		.2byte	0x17e
 1433 03b5 3D060000 		.4byte	0x63d
 1434 03b9 02       		.byte	0x2
 1435 03ba 23       		.byte	0x23
 1436 03bb 04       		.uleb128 0x4
 1437 03bc 08       		.uleb128 0x8
 1438 03bd 94020000 		.4byte	.LASF60
 1439 03c1 02       		.byte	0x2
 1440 03c2 8001     		.2byte	0x180
 1441 03c4 FE000000 		.4byte	0xfe
 1442 03c8 02       		.byte	0x2
 1443 03c9 23       		.byte	0x23
 1444 03ca 08       		.uleb128 0x8
 1445 03cb 08       		.uleb128 0x8
 1446 03cc B0020000 		.4byte	.LASF65
 1447 03d0 02       		.byte	0x2
 1448 03d1 8801     		.2byte	0x188
 1449 03d3 FE000000 		.4byte	0xfe
 1450 03d7 02       		.byte	0x2
 1451 03d8 23       		.byte	0x23
 1452 03d9 0A       		.uleb128 0xa
 1453 03da 00       		.byte	0
 1454 03db 04       		.uleb128 0x4
 1455 03dc F9020000 		.4byte	.LASF66
 1456 03e0 07       		.byte	0x7
 1457 03e1 6B       		.byte	0x6b
 1458 03e2 E6030000 		.4byte	0x3e6
 1459 03e6 0A       		.uleb128 0xa
 1460 03e7 63010000 		.4byte	.LASF67
 1461 03eb 04       		.byte	0x4
 1462 03ec 02       		.byte	0x2
 1463 03ed A201     		.2byte	0x1a2
ARM GAS  /tmp/cca9OIta.s 			page 27


 1464 03ef 03040000 		.4byte	0x403
 1465 03f3 08       		.uleb128 0x8
 1466 03f4 A4030000 		.4byte	.LASF68
 1467 03f8 02       		.byte	0x2
 1468 03f9 AA01     		.2byte	0x1aa
 1469 03fb 43060000 		.4byte	0x643
 1470 03ff 02       		.byte	0x2
 1471 0400 23       		.byte	0x23
 1472 0401 00       		.uleb128 0
 1473 0402 00       		.byte	0
 1474 0403 04       		.uleb128 0x4
 1475 0404 68050000 		.4byte	.LASF69
 1476 0408 07       		.byte	0x7
 1477 0409 70       		.byte	0x70
 1478 040a 0E040000 		.4byte	0x40e
 1479 040e 0E       		.uleb128 0xe
 1480 040f 6C040000 		.4byte	.LASF70
 1481 0413 5001     		.2byte	0x150
 1482 0415 02       		.byte	0x2
 1483 0416 C201     		.2byte	0x1c2
 1484 0418 76040000 		.4byte	0x476
 1485 041c 08       		.uleb128 0x8
 1486 041d A6040000 		.4byte	.LASF71
 1487 0421 02       		.byte	0x2
 1488 0422 C601     		.2byte	0x1c6
 1489 0424 90020000 		.4byte	0x290
 1490 0428 02       		.byte	0x2
 1491 0429 23       		.byte	0x23
 1492 042a 00       		.uleb128 0
 1493 042b 08       		.uleb128 0x8
 1494 042c E8000000 		.4byte	.LASF72
 1495 0430 02       		.byte	0x2
 1496 0431 CA01     		.2byte	0x1ca
 1497 0433 86030000 		.4byte	0x386
 1498 0437 02       		.byte	0x2
 1499 0438 23       		.byte	0x23
 1500 0439 1C       		.uleb128 0x1c
 1501 043a 07       		.uleb128 0x7
 1502 043b 64626700 		.ascii	"dbg\000"
 1503 043f 02       		.byte	0x2
 1504 0440 CE01     		.2byte	0x1ce
 1505 0442 DB030000 		.4byte	0x3db
 1506 0446 02       		.byte	0x2
 1507 0447 23       		.byte	0x23
 1508 0448 28       		.uleb128 0x28
 1509 0449 08       		.uleb128 0x8
 1510 044a DB030000 		.4byte	.LASF73
 1511 044e 02       		.byte	0x2
 1512 044f D201     		.2byte	0x1d2
 1513 0451 09010000 		.4byte	0x109
 1514 0455 02       		.byte	0x2
 1515 0456 23       		.byte	0x23
 1516 0457 2C       		.uleb128 0x2c
 1517 0458 07       		.uleb128 0x7
 1518 0459 746D00   		.ascii	"tm\000"
 1519 045c 02       		.byte	0x2
 1520 045d D701     		.2byte	0x1d7
ARM GAS  /tmp/cca9OIta.s 			page 28


 1521 045f 51050000 		.4byte	0x551
 1522 0463 02       		.byte	0x2
 1523 0464 23       		.byte	0x23
 1524 0465 70       		.uleb128 0x70
 1525 0466 08       		.uleb128 0x8
 1526 0467 06010000 		.4byte	.LASF74
 1527 046b 02       		.byte	0x2
 1528 046c E301     		.2byte	0x1e3
 1529 046e 48060000 		.4byte	0x648
 1530 0472 02       		.byte	0x2
 1531 0473 23       		.byte	0x23
 1532 0474 78       		.uleb128 0x78
 1533 0475 00       		.byte	0
 1534 0476 04       		.uleb128 0x4
 1535 0477 86000000 		.4byte	.LASF75
 1536 047b 08       		.byte	0x8
 1537 047c 65       		.byte	0x65
 1538 047d 20030000 		.4byte	0x320
 1539 0481 04       		.uleb128 0x4
 1540 0482 A6050000 		.4byte	.LASF76
 1541 0486 08       		.byte	0x8
 1542 0487 6D       		.byte	0x6d
 1543 0488 94000000 		.4byte	0x94
 1544 048c 05       		.uleb128 0x5
 1545 048d 3B030000 		.4byte	.LASF77
 1546 0491 04       		.byte	0x4
 1547 0492 08       		.byte	0x8
 1548 0493 89       		.byte	0x89
 1549 0494 A7040000 		.4byte	0x4a7
 1550 0498 0F       		.uleb128 0xf
 1551 0499 72313300 		.ascii	"r13\000"
 1552 049d 08       		.byte	0x8
 1553 049e 8A       		.byte	0x8a
 1554 049f 34050000 		.4byte	0x534
 1555 04a3 02       		.byte	0x2
 1556 04a4 23       		.byte	0x23
 1557 04a5 00       		.uleb128 0
 1558 04a6 00       		.byte	0
 1559 04a7 05       		.uleb128 0x5
 1560 04a8 53040000 		.4byte	.LASF78
 1561 04ac 24       		.byte	0x24
 1562 04ad 09       		.byte	0x9
 1563 04ae FD       		.byte	0xfd
 1564 04af 34050000 		.4byte	0x534
 1565 04b3 07       		.uleb128 0x7
 1566 04b4 723400   		.ascii	"r4\000"
 1567 04b7 09       		.byte	0x9
 1568 04b8 1001     		.2byte	0x110
 1569 04ba 76040000 		.4byte	0x476
 1570 04be 02       		.byte	0x2
 1571 04bf 23       		.byte	0x23
 1572 04c0 00       		.uleb128 0
 1573 04c1 07       		.uleb128 0x7
 1574 04c2 723500   		.ascii	"r5\000"
 1575 04c5 09       		.byte	0x9
 1576 04c6 1101     		.2byte	0x111
 1577 04c8 76040000 		.4byte	0x476
ARM GAS  /tmp/cca9OIta.s 			page 29


 1578 04cc 02       		.byte	0x2
 1579 04cd 23       		.byte	0x23
 1580 04ce 04       		.uleb128 0x4
 1581 04cf 07       		.uleb128 0x7
 1582 04d0 723600   		.ascii	"r6\000"
 1583 04d3 09       		.byte	0x9
 1584 04d4 1201     		.2byte	0x112
 1585 04d6 76040000 		.4byte	0x476
 1586 04da 02       		.byte	0x2
 1587 04db 23       		.byte	0x23
 1588 04dc 08       		.uleb128 0x8
 1589 04dd 07       		.uleb128 0x7
 1590 04de 723700   		.ascii	"r7\000"
 1591 04e1 09       		.byte	0x9
 1592 04e2 1301     		.2byte	0x113
 1593 04e4 76040000 		.4byte	0x476
 1594 04e8 02       		.byte	0x2
 1595 04e9 23       		.byte	0x23
 1596 04ea 0C       		.uleb128 0xc
 1597 04eb 07       		.uleb128 0x7
 1598 04ec 723800   		.ascii	"r8\000"
 1599 04ef 09       		.byte	0x9
 1600 04f0 1401     		.2byte	0x114
 1601 04f2 76040000 		.4byte	0x476
 1602 04f6 02       		.byte	0x2
 1603 04f7 23       		.byte	0x23
 1604 04f8 10       		.uleb128 0x10
 1605 04f9 07       		.uleb128 0x7
 1606 04fa 723900   		.ascii	"r9\000"
 1607 04fd 09       		.byte	0x9
 1608 04fe 1501     		.2byte	0x115
 1609 0500 76040000 		.4byte	0x476
 1610 0504 02       		.byte	0x2
 1611 0505 23       		.byte	0x23
 1612 0506 14       		.uleb128 0x14
 1613 0507 07       		.uleb128 0x7
 1614 0508 72313000 		.ascii	"r10\000"
 1615 050c 09       		.byte	0x9
 1616 050d 1601     		.2byte	0x116
 1617 050f 76040000 		.4byte	0x476
 1618 0513 02       		.byte	0x2
 1619 0514 23       		.byte	0x23
 1620 0515 18       		.uleb128 0x18
 1621 0516 07       		.uleb128 0x7
 1622 0517 72313100 		.ascii	"r11\000"
 1623 051b 09       		.byte	0x9
 1624 051c 1701     		.2byte	0x117
 1625 051e 76040000 		.4byte	0x476
 1626 0522 02       		.byte	0x2
 1627 0523 23       		.byte	0x23
 1628 0524 1C       		.uleb128 0x1c
 1629 0525 07       		.uleb128 0x7
 1630 0526 6C7200   		.ascii	"lr\000"
 1631 0529 09       		.byte	0x9
 1632 052a 1801     		.2byte	0x118
 1633 052c 76040000 		.4byte	0x476
 1634 0530 02       		.byte	0x2
ARM GAS  /tmp/cca9OIta.s 			page 30


 1635 0531 23       		.byte	0x23
 1636 0532 20       		.uleb128 0x20
 1637 0533 00       		.byte	0
 1638 0534 09       		.uleb128 0x9
 1639 0535 04       		.byte	0x4
 1640 0536 A7040000 		.4byte	0x4a7
 1641 053a 10       		.uleb128 0x10
 1642 053b 04       		.byte	0x4
 1643 053c 0A       		.byte	0xa
 1644 053d 38       		.byte	0x38
 1645 053e 51050000 		.4byte	0x551
 1646 0542 06       		.uleb128 0x6
 1647 0543 31020000 		.4byte	.LASF79
 1648 0547 0A       		.byte	0xa
 1649 0548 3C       		.byte	0x3c
 1650 0549 A6000000 		.4byte	0xa6
 1651 054d 02       		.byte	0x2
 1652 054e 23       		.byte	0x23
 1653 054f 00       		.uleb128 0
 1654 0550 00       		.byte	0
 1655 0551 04       		.uleb128 0x4
 1656 0552 70000000 		.4byte	.LASF80
 1657 0556 0A       		.byte	0xa
 1658 0557 3D       		.byte	0x3d
 1659 0558 3A050000 		.4byte	0x53a
 1660 055c 11       		.uleb128 0x11
 1661 055d 04       		.byte	0x4
 1662 055e 02       		.byte	0x2
 1663 055f FA       		.byte	0xfa
 1664 0560 B9050000 		.4byte	0x5b9
 1665 0564 12       		.uleb128 0x12
 1666 0565 2A020000 		.4byte	.LASF81
 1667 0569 02       		.byte	0x2
 1668 056a 0101     		.2byte	0x101
 1669 056c DD000000 		.4byte	0xdd
 1670 0570 12       		.uleb128 0x12
 1671 0571 ED050000 		.4byte	.LASF82
 1672 0575 02       		.byte	0x2
 1673 0576 0801     		.2byte	0x108
 1674 0578 DD000000 		.4byte	0xdd
 1675 057c 12       		.uleb128 0x12
 1676 057d D7000000 		.4byte	.LASF83
 1677 0581 02       		.byte	0x2
 1678 0582 0F01     		.2byte	0x10f
 1679 0584 20030000 		.4byte	0x320
 1680 0588 12       		.uleb128 0x12
 1681 0589 74050000 		.4byte	.LASF84
 1682 058d 02       		.byte	0x2
 1683 058e 1601     		.2byte	0x116
 1684 0590 B9050000 		.4byte	0x5b9
 1685 0594 12       		.uleb128 0x12
 1686 0595 F3040000 		.4byte	.LASF85
 1687 0599 02       		.byte	0x2
 1688 059a 1E01     		.2byte	0x11e
 1689 059c E8050000 		.4byte	0x5e8
 1690 05a0 12       		.uleb128 0x12
 1691 05a1 2A000000 		.4byte	.LASF86
ARM GAS  /tmp/cca9OIta.s 			page 31


 1692 05a5 02       		.byte	0x2
 1693 05a6 2701     		.2byte	0x127
 1694 05a8 25060000 		.4byte	0x625
 1695 05ac 12       		.uleb128 0x12
 1696 05ad 2A010000 		.4byte	.LASF87
 1697 05b1 02       		.byte	0x2
 1698 05b2 2F01     		.2byte	0x12f
 1699 05b4 E8000000 		.4byte	0xe8
 1700 05b8 00       		.byte	0
 1701 05b9 09       		.uleb128 0x9
 1702 05ba 04       		.byte	0x4
 1703 05bb 25020000 		.4byte	0x225
 1704 05bf 05       		.uleb128 0x5
 1705 05c0 AD010000 		.4byte	.LASF88
 1706 05c4 0C       		.byte	0xc
 1707 05c5 0B       		.byte	0xb
 1708 05c6 34       		.byte	0x34
 1709 05c7 E8050000 		.4byte	0x5e8
 1710 05cb 06       		.uleb128 0x6
 1711 05cc A8000000 		.4byte	.LASF89
 1712 05d0 0B       		.byte	0xb
 1713 05d1 35       		.byte	0x35
 1714 05d2 5C020000 		.4byte	0x25c
 1715 05d6 02       		.byte	0x2
 1716 05d7 23       		.byte	0x23
 1717 05d8 00       		.uleb128 0
 1718 05d9 06       		.uleb128 0x6
 1719 05da 5D010000 		.4byte	.LASF90
 1720 05de 0B       		.byte	0xb
 1721 05df 37       		.byte	0x37
 1722 05e0 F3000000 		.4byte	0xf3
 1723 05e4 02       		.byte	0x2
 1724 05e5 23       		.byte	0x23
 1725 05e6 08       		.uleb128 0x8
 1726 05e7 00       		.byte	0
 1727 05e8 09       		.uleb128 0x9
 1728 05e9 04       		.byte	0x4
 1729 05ea BF050000 		.4byte	0x5bf
 1730 05ee 05       		.uleb128 0x5
 1731 05ef 6F020000 		.4byte	.LASF91
 1732 05f3 10       		.byte	0x10
 1733 05f4 0C       		.byte	0xc
 1734 05f5 39       		.byte	0x39
 1735 05f6 25060000 		.4byte	0x625
 1736 05fa 06       		.uleb128 0x6
 1737 05fb 42040000 		.4byte	.LASF92
 1738 05ff 0C       		.byte	0xc
 1739 0600 3A       		.byte	0x3a
 1740 0601 5C020000 		.4byte	0x25c
 1741 0605 02       		.byte	0x2
 1742 0606 23       		.byte	0x23
 1743 0607 00       		.uleb128 0
 1744 0608 06       		.uleb128 0x6
 1745 0609 A0000000 		.4byte	.LASF93
 1746 060d 0C       		.byte	0xc
 1747 060e 3C       		.byte	0x3c
 1748 060f 30020000 		.4byte	0x230
ARM GAS  /tmp/cca9OIta.s 			page 32


 1749 0613 02       		.byte	0x2
 1750 0614 23       		.byte	0x23
 1751 0615 08       		.uleb128 0x8
 1752 0616 06       		.uleb128 0x6
 1753 0617 7A050000 		.4byte	.LASF94
 1754 061b 0C       		.byte	0xc
 1755 061c 3E       		.byte	0x3e
 1756 061d 63060000 		.4byte	0x663
 1757 0621 02       		.byte	0x2
 1758 0622 23       		.byte	0x23
 1759 0623 0C       		.uleb128 0xc
 1760 0624 00       		.byte	0
 1761 0625 09       		.uleb128 0x9
 1762 0626 04       		.byte	0x4
 1763 0627 EE050000 		.4byte	0x5ee
 1764 062b 09       		.uleb128 0x9
 1765 062c 04       		.byte	0x4
 1766 062d 31060000 		.4byte	0x631
 1767 0631 13       		.uleb128 0x13
 1768 0632 36060000 		.4byte	0x636
 1769 0636 03       		.uleb128 0x3
 1770 0637 01       		.byte	0x1
 1771 0638 08       		.byte	0x8
 1772 0639 81000000 		.4byte	.LASF95
 1773 063d 09       		.uleb128 0x9
 1774 063e 04       		.byte	0x4
 1775 063f 22030000 		.4byte	0x322
 1776 0643 14       		.uleb128 0x14
 1777 0644 2B060000 		.4byte	0x62b
 1778 0648 15       		.uleb128 0x15
 1779 0649 81040000 		.4byte	0x481
 1780 064d 58060000 		.4byte	0x658
 1781 0651 16       		.uleb128 0x16
 1782 0652 30000000 		.4byte	0x30
 1783 0656 1A       		.byte	0x1a
 1784 0657 00       		.byte	0
 1785 0658 04       		.uleb128 0x4
 1786 0659 06050000 		.4byte	.LASF96
 1787 065d 0C       		.byte	0xc
 1788 065e 34       		.byte	0x34
 1789 065f EE050000 		.4byte	0x5ee
 1790 0663 09       		.uleb128 0x9
 1791 0664 04       		.byte	0x4
 1792 0665 58060000 		.4byte	0x658
 1793 0669 10       		.uleb128 0x10
 1794 066a 28       		.byte	0x28
 1795 066b 04       		.byte	0x4
 1796 066c 34       		.byte	0x34
 1797 066d E2060000 		.4byte	0x6e2
 1798 0671 06       		.uleb128 0x6
 1799 0672 D4040000 		.4byte	.LASF97
 1800 0676 04       		.byte	0x4
 1801 0677 35       		.byte	0x35
 1802 0678 E2060000 		.4byte	0x6e2
 1803 067c 02       		.byte	0x2
 1804 067d 23       		.byte	0x23
 1805 067e 00       		.uleb128 0
ARM GAS  /tmp/cca9OIta.s 			page 33


 1806 067f 06       		.uleb128 0x6
 1807 0680 95030000 		.4byte	.LASF98
 1808 0684 04       		.byte	0x4
 1809 0685 37       		.byte	0x37
 1810 0686 E2060000 		.4byte	0x6e2
 1811 068a 02       		.byte	0x2
 1812 068b 23       		.byte	0x23
 1813 068c 04       		.uleb128 0x4
 1814 068d 06       		.uleb128 0x6
 1815 068e 24040000 		.4byte	.LASF99
 1816 0692 04       		.byte	0x4
 1817 0693 39       		.byte	0x39
 1818 0694 E2060000 		.4byte	0x6e2
 1819 0698 02       		.byte	0x2
 1820 0699 23       		.byte	0x23
 1821 069a 08       		.uleb128 0x8
 1822 069b 06       		.uleb128 0x6
 1823 069c 3E020000 		.4byte	.LASF100
 1824 06a0 04       		.byte	0x4
 1825 06a1 3A       		.byte	0x3a
 1826 06a2 E2060000 		.4byte	0x6e2
 1827 06a6 02       		.byte	0x2
 1828 06a7 23       		.byte	0x23
 1829 06a8 0C       		.uleb128 0xc
 1830 06a9 06       		.uleb128 0x6
 1831 06aa AC040000 		.4byte	.LASF101
 1832 06ae 04       		.byte	0x4
 1833 06af 3B       		.byte	0x3b
 1834 06b0 F3000000 		.4byte	0xf3
 1835 06b4 02       		.byte	0x2
 1836 06b5 23       		.byte	0x23
 1837 06b6 10       		.uleb128 0x10
 1838 06b7 06       		.uleb128 0x6
 1839 06b8 FD000000 		.4byte	.LASF102
 1840 06bc 04       		.byte	0x4
 1841 06bd 3C       		.byte	0x3c
 1842 06be E8060000 		.4byte	0x6e8
 1843 06c2 02       		.byte	0x2
 1844 06c3 23       		.byte	0x23
 1845 06c4 14       		.uleb128 0x14
 1846 06c5 06       		.uleb128 0x6
 1847 06c6 8A040000 		.4byte	.LASF103
 1848 06ca 04       		.byte	0x4
 1849 06cb 3D       		.byte	0x3d
 1850 06cc 5C020000 		.4byte	0x25c
 1851 06d0 02       		.byte	0x2
 1852 06d1 23       		.byte	0x23
 1853 06d2 18       		.uleb128 0x18
 1854 06d3 06       		.uleb128 0x6
 1855 06d4 76040000 		.4byte	.LASF104
 1856 06d8 04       		.byte	0x4
 1857 06d9 3E       		.byte	0x3e
 1858 06da 5C020000 		.4byte	0x25c
 1859 06de 02       		.byte	0x2
 1860 06df 23       		.byte	0x23
 1861 06e0 20       		.uleb128 0x20
 1862 06e1 00       		.byte	0
ARM GAS  /tmp/cca9OIta.s 			page 34


 1863 06e2 09       		.uleb128 0x9
 1864 06e3 04       		.byte	0x4
 1865 06e4 DD000000 		.4byte	0xdd
 1866 06e8 03       		.uleb128 0x3
 1867 06e9 01       		.byte	0x1
 1868 06ea 02       		.byte	0x2
 1869 06eb 38020000 		.4byte	.LASF105
 1870 06ef 04       		.uleb128 0x4
 1871 06f0 56020000 		.4byte	.LASF106
 1872 06f4 04       		.byte	0x4
 1873 06f5 3F       		.byte	0x3f
 1874 06f6 69060000 		.4byte	0x669
 1875 06fa 17       		.uleb128 0x17
 1876 06fb 7C040000 		.4byte	.LASF109
 1877 06ff 03       		.byte	0x3
 1878 0700 2202     		.2byte	0x222
 1879 0702 01       		.byte	0x1
 1880 0703 03       		.byte	0x3
 1881 0704 15070000 		.4byte	0x715
 1882 0708 18       		.uleb128 0x18
 1883 0709 04020000 		.4byte	.LASF111
 1884 070d 03       		.byte	0x3
 1885 070e 2202     		.2byte	0x222
 1886 0710 7B000000 		.4byte	0x7b
 1887 0714 00       		.byte	0
 1888 0715 19       		.uleb128 0x19
 1889 0716 DE000000 		.4byte	.LASF107
 1890 071a 09       		.byte	0x9
 1891 071b C801     		.2byte	0x1c8
 1892 071d 01       		.byte	0x1
 1893 071e 03       		.byte	0x3
 1894 071f 19       		.uleb128 0x19
 1895 0720 D9050000 		.4byte	.LASF108
 1896 0724 09       		.byte	0x9
 1897 0725 E001     		.2byte	0x1e0
 1898 0727 01       		.byte	0x1
 1899 0728 03       		.byte	0x3
 1900 0729 17       		.uleb128 0x17
 1901 072a 0E050000 		.4byte	.LASF110
 1902 072e 02       		.byte	0x2
 1903 072f 5A02     		.2byte	0x25a
 1904 0731 01       		.byte	0x1
 1905 0732 03       		.byte	0x3
 1906 0733 44070000 		.4byte	0x744
 1907 0737 1A       		.uleb128 0x1a
 1908 0738 74717000 		.ascii	"tqp\000"
 1909 073c 02       		.byte	0x2
 1910 073d 5A02     		.2byte	0x25a
 1911 073f 44070000 		.4byte	0x744
 1912 0743 00       		.byte	0
 1913 0744 09       		.uleb128 0x9
 1914 0745 04       		.byte	0x4
 1915 0746 5C020000 		.4byte	0x25c
 1916 074a 1B       		.uleb128 0x1b
 1917 074b 73010000 		.4byte	.LASF112
 1918 074f 04       		.byte	0x4
 1919 0750 88       		.byte	0x88
ARM GAS  /tmp/cca9OIta.s 			page 35


 1920 0751 01       		.byte	0x1
 1921 0752 F3000000 		.4byte	0xf3
 1922 0756 03       		.byte	0x3
 1923 0757 67070000 		.4byte	0x767
 1924 075b 1C       		.uleb128 0x1c
 1925 075c 6D627000 		.ascii	"mbp\000"
 1926 0760 04       		.byte	0x4
 1927 0761 88       		.byte	0x88
 1928 0762 67070000 		.4byte	0x767
 1929 0766 00       		.byte	0
 1930 0767 09       		.uleb128 0x9
 1931 0768 04       		.byte	0x4
 1932 0769 EF060000 		.4byte	0x6ef
 1933 076d 1B       		.uleb128 0x1b
 1934 076e 42010000 		.4byte	.LASF113
 1935 0772 04       		.byte	0x4
 1936 0773 99       		.byte	0x99
 1937 0774 01       		.byte	0x1
 1938 0775 F3000000 		.4byte	0xf3
 1939 0779 03       		.byte	0x3
 1940 077a 8A070000 		.4byte	0x78a
 1941 077e 1C       		.uleb128 0x1c
 1942 077f 6D627000 		.ascii	"mbp\000"
 1943 0783 04       		.byte	0x4
 1944 0784 99       		.byte	0x99
 1945 0785 67070000 		.4byte	0x767
 1946 0789 00       		.byte	0
 1947 078a 17       		.uleb128 0x17
 1948 078b 15010000 		.4byte	.LASF114
 1949 078f 0D       		.byte	0xd
 1950 0790 1601     		.2byte	0x116
 1951 0792 01       		.byte	0x1
 1952 0793 03       		.byte	0x3
 1953 0794 A5070000 		.4byte	0x7a5
 1954 0798 1A       		.uleb128 0x1a
 1955 0799 74717000 		.ascii	"tqp\000"
 1956 079d 0D       		.byte	0xd
 1957 079e 1601     		.2byte	0x116
 1958 07a0 44070000 		.4byte	0x744
 1959 07a4 00       		.byte	0
 1960 07a5 19       		.uleb128 0x19
 1961 07a6 78020000 		.4byte	.LASF115
 1962 07aa 0E       		.byte	0xe
 1963 07ab 5A01     		.2byte	0x15a
 1964 07ad 01       		.byte	0x1
 1965 07ae 03       		.byte	0x3
 1966 07af 17       		.uleb128 0x17
 1967 07b0 F0010000 		.4byte	.LASF116
 1968 07b4 0E       		.byte	0xe
 1969 07b5 6601     		.2byte	0x166
 1970 07b7 01       		.byte	0x1
 1971 07b8 03       		.byte	0x3
 1972 07b9 CC070000 		.4byte	0x7cc
 1973 07bd 1D       		.uleb128 0x1d
 1974 07be C3050000 		.4byte	.LASF120
 1975 07c2 DC070000 		.4byte	0x7dc
 1976 07c6 01       		.byte	0x1
ARM GAS  /tmp/cca9OIta.s 			page 36


 1977 07c7 F0010000 		.4byte	.LASF116
 1978 07cb 00       		.byte	0
 1979 07cc 15       		.uleb128 0x15
 1980 07cd 36060000 		.4byte	0x636
 1981 07d1 DC070000 		.4byte	0x7dc
 1982 07d5 16       		.uleb128 0x16
 1983 07d6 30000000 		.4byte	0x30
 1984 07da 0B       		.byte	0xb
 1985 07db 00       		.byte	0
 1986 07dc 13       		.uleb128 0x13
 1987 07dd CC070000 		.4byte	0x7cc
 1988 07e1 1B       		.uleb128 0x1b
 1989 07e2 B1050000 		.4byte	.LASF117
 1990 07e6 04       		.byte	0x4
 1991 07e7 A8       		.byte	0xa8
 1992 07e8 01       		.byte	0x1
 1993 07e9 F3000000 		.4byte	0xf3
 1994 07ed 03       		.byte	0x3
 1995 07ee FE070000 		.4byte	0x7fe
 1996 07f2 1C       		.uleb128 0x1c
 1997 07f3 6D627000 		.ascii	"mbp\000"
 1998 07f7 04       		.byte	0x4
 1999 07f8 A8       		.byte	0xa8
 2000 07f9 67070000 		.4byte	0x767
 2001 07fd 00       		.byte	0
 2002 07fe 1E       		.uleb128 0x1e
 2003 07ff 01       		.byte	0x1
 2004 0800 16030000 		.4byte	.LASF118
 2005 0804 01       		.byte	0x1
 2006 0805 56       		.byte	0x56
 2007 0806 01       		.byte	0x1
 2008 0807 00000000 		.4byte	.LFB182
 2009 080b 28000000 		.4byte	.LFE182
 2010 080f 00000000 		.4byte	.LLST0
 2011 0813 AB080000 		.4byte	0x8ab
 2012 0817 1F       		.uleb128 0x1f
 2013 0818 6D627000 		.ascii	"mbp\000"
 2014 081c 01       		.byte	0x1
 2015 081d 56       		.byte	0x56
 2016 081e 67070000 		.4byte	0x767
 2017 0822 01       		.byte	0x1
 2018 0823 50       		.byte	0x50
 2019 0824 1F       		.uleb128 0x1f
 2020 0825 62756600 		.ascii	"buf\000"
 2021 0829 01       		.byte	0x1
 2022 082a 56       		.byte	0x56
 2023 082b E2060000 		.4byte	0x6e2
 2024 082f 01       		.byte	0x1
 2025 0830 51       		.byte	0x51
 2026 0831 20       		.uleb128 0x20
 2027 0832 6E00     		.ascii	"n\000"
 2028 0834 01       		.byte	0x1
 2029 0835 56       		.byte	0x56
 2030 0836 F3000000 		.4byte	0xf3
 2031 083a 20000000 		.4byte	.LLST1
 2032 083e 21       		.uleb128 0x21
 2033 083f C3050000 		.4byte	.LASF120
ARM GAS  /tmp/cca9OIta.s 			page 37


 2034 0843 BB080000 		.4byte	0x8bb
 2035 0847 01       		.byte	0x1
 2036 0848 22       		.uleb128 0x22
 2037 0849 8A070000 		.4byte	0x78a
 2038 084d 1C000000 		.4byte	.LBB96
 2039 0851 20000000 		.4byte	.LBE96
 2040 0855 01       		.byte	0x1
 2041 0856 60       		.byte	0x60
 2042 0857 7B080000 		.4byte	0x87b
 2043 085b 23       		.uleb128 0x23
 2044 085c 98070000 		.4byte	0x798
 2045 0860 01       		.byte	0x1
 2046 0861 54       		.byte	0x54
 2047 0862 24       		.uleb128 0x24
 2048 0863 29070000 		.4byte	0x729
 2049 0867 1C000000 		.4byte	.LBB97
 2050 086b 20000000 		.4byte	.LBE97
 2051 086f 0D       		.byte	0xd
 2052 0870 1801     		.2byte	0x118
 2053 0872 23       		.uleb128 0x23
 2054 0873 37070000 		.4byte	0x737
 2055 0877 01       		.byte	0x1
 2056 0878 53       		.byte	0x53
 2057 0879 00       		.byte	0
 2058 087a 00       		.byte	0
 2059 087b 25       		.uleb128 0x25
 2060 087c 8A070000 		.4byte	0x78a
 2061 0880 20000000 		.4byte	.LBB99
 2062 0884 24000000 		.4byte	.LBE99
 2063 0888 01       		.byte	0x1
 2064 0889 61       		.byte	0x61
 2065 088a 23       		.uleb128 0x23
 2066 088b 98070000 		.4byte	0x798
 2067 088f 01       		.byte	0x1
 2068 0890 53       		.byte	0x53
 2069 0891 24       		.uleb128 0x24
 2070 0892 29070000 		.4byte	0x729
 2071 0896 20000000 		.4byte	.LBB100
 2072 089a 24000000 		.4byte	.LBE100
 2073 089e 0D       		.byte	0xd
 2074 089f 1801     		.2byte	0x118
 2075 08a1 23       		.uleb128 0x23
 2076 08a2 37070000 		.4byte	0x737
 2077 08a6 01       		.byte	0x1
 2078 08a7 53       		.byte	0x53
 2079 08a8 00       		.byte	0
 2080 08a9 00       		.byte	0
 2081 08aa 00       		.byte	0
 2082 08ab 15       		.uleb128 0x15
 2083 08ac 36060000 		.4byte	0x636
 2084 08b0 BB080000 		.4byte	0x8bb
 2085 08b4 16       		.uleb128 0x16
 2086 08b5 30000000 		.4byte	0x30
 2087 08b9 0E       		.byte	0xe
 2088 08ba 00       		.byte	0
 2089 08bb 13       		.uleb128 0x13
 2090 08bc AB080000 		.4byte	0x8ab
ARM GAS  /tmp/cca9OIta.s 			page 38


 2091 08c0 1E       		.uleb128 0x1e
 2092 08c1 01       		.byte	0x1
 2093 08c2 4C050000 		.4byte	.LASF119
 2094 08c6 01       		.byte	0x1
 2095 08c7 84       		.byte	0x84
 2096 08c8 01       		.byte	0x1
 2097 08c9 00000000 		.4byte	.LFB184
 2098 08cd 2C000000 		.4byte	.LFE184
 2099 08d1 33000000 		.4byte	.LLST2
 2100 08d5 F3080000 		.4byte	0x8f3
 2101 08d9 20       		.uleb128 0x20
 2102 08da 6D627000 		.ascii	"mbp\000"
 2103 08de 01       		.byte	0x1
 2104 08df 84       		.byte	0x84
 2105 08e0 67070000 		.4byte	0x767
 2106 08e4 53000000 		.4byte	.LLST3
 2107 08e8 21       		.uleb128 0x21
 2108 08e9 C3050000 		.4byte	.LASF120
 2109 08ed 03090000 		.4byte	0x903
 2110 08f1 01       		.byte	0x1
 2111 08f2 00       		.byte	0
 2112 08f3 15       		.uleb128 0x15
 2113 08f4 36060000 		.4byte	0x636
 2114 08f8 03090000 		.4byte	0x903
 2115 08fc 16       		.uleb128 0x16
 2116 08fd 30000000 		.4byte	0x30
 2117 0901 0A       		.byte	0xa
 2118 0902 00       		.byte	0
 2119 0903 13       		.uleb128 0x13
 2120 0904 F3080000 		.4byte	0x8f3
 2121 0908 1E       		.uleb128 0x1e
 2122 0909 01       		.byte	0x1
 2123 090a 80010000 		.4byte	.LASF121
 2124 090e 01       		.byte	0x1
 2125 090f 70       		.byte	0x70
 2126 0910 01       		.byte	0x1
 2127 0911 00000000 		.4byte	.LFB183
 2128 0915 18000000 		.4byte	.LFE183
 2129 0919 71000000 		.4byte	.LLST4
 2130 091d B4090000 		.4byte	0x9b4
 2131 0921 20       		.uleb128 0x20
 2132 0922 6D627000 		.ascii	"mbp\000"
 2133 0926 01       		.byte	0x1
 2134 0927 70       		.byte	0x70
 2135 0928 67070000 		.4byte	0x767
 2136 092c 91000000 		.4byte	.LLST5
 2137 0930 22       		.uleb128 0x22
 2138 0931 A5070000 		.4byte	0x7a5
 2139 0935 02000000 		.4byte	.LBB102
 2140 0939 08000000 		.4byte	.LBE102
 2141 093d 01       		.byte	0x1
 2142 093e 72       		.byte	0x72
 2143 093f 6C090000 		.4byte	0x96c
 2144 0943 24       		.uleb128 0x24
 2145 0944 15070000 		.4byte	0x715
 2146 0948 02000000 		.4byte	.LBB103
 2147 094c 08000000 		.4byte	.LBE103
ARM GAS  /tmp/cca9OIta.s 			page 39


 2148 0950 0E       		.byte	0xe
 2149 0951 5C01     		.2byte	0x15c
 2150 0953 24       		.uleb128 0x24
 2151 0954 FA060000 		.4byte	0x6fa
 2152 0958 02000000 		.4byte	.LBB104
 2153 095c 08000000 		.4byte	.LBE104
 2154 0960 09       		.byte	0x9
 2155 0961 D001     		.2byte	0x1d0
 2156 0963 26       		.uleb128 0x26
 2157 0964 08070000 		.4byte	0x708
 2158 0968 20       		.byte	0x20
 2159 0969 00       		.byte	0
 2160 096a 00       		.byte	0
 2161 096b 00       		.byte	0
 2162 096c 25       		.uleb128 0x25
 2163 096d AF070000 		.4byte	0x7af
 2164 0971 10000000 		.4byte	.LBB106
 2165 0975 16000000 		.4byte	.LBE106
 2166 0979 01       		.byte	0x1
 2167 097a 75       		.byte	0x75
 2168 097b 27       		.uleb128 0x27
 2169 097c 10000000 		.4byte	.LBB107
 2170 0980 16000000 		.4byte	.LBE107
 2171 0984 28       		.uleb128 0x28
 2172 0985 BD070000 		.4byte	0x7bd
 2173 0989 24       		.uleb128 0x24
 2174 098a 1F070000 		.4byte	0x71f
 2175 098e 10000000 		.4byte	.LBB108
 2176 0992 16000000 		.4byte	.LBE108
 2177 0996 0E       		.byte	0xe
 2178 0997 7301     		.2byte	0x173
 2179 0999 24       		.uleb128 0x24
 2180 099a FA060000 		.4byte	0x6fa
 2181 099e 10000000 		.4byte	.LBB109
 2182 09a2 16000000 		.4byte	.LBE109
 2183 09a6 09       		.byte	0x9
 2184 09a7 E301     		.2byte	0x1e3
 2185 09a9 26       		.uleb128 0x26
 2186 09aa 08070000 		.4byte	0x708
 2187 09ae 00       		.byte	0
 2188 09af 00       		.byte	0
 2189 09b0 00       		.byte	0
 2190 09b1 00       		.byte	0
 2191 09b2 00       		.byte	0
 2192 09b3 00       		.byte	0
 2193 09b4 29       		.uleb128 0x29
 2194 09b5 01       		.byte	0x1
 2195 09b6 C9030000 		.4byte	.LASF123
 2196 09ba 01       		.byte	0x1
 2197 09bb C1       		.byte	0xc1
 2198 09bc 01       		.byte	0x1
 2199 09bd DD000000 		.4byte	0xdd
 2200 09c1 00000000 		.4byte	.LFB186
 2201 09c5 68000000 		.4byte	.LFE186
 2202 09c9 A4000000 		.4byte	.LLST6
 2203 09cd 400A0000 		.4byte	0xa40
 2204 09d1 20       		.uleb128 0x20
ARM GAS  /tmp/cca9OIta.s 			page 40


 2205 09d2 6D627000 		.ascii	"mbp\000"
 2206 09d6 01       		.byte	0x1
 2207 09d7 C1       		.byte	0xc1
 2208 09d8 67070000 		.4byte	0x767
 2209 09dc C4000000 		.4byte	.LLST7
 2210 09e0 20       		.uleb128 0x20
 2211 09e1 6D736700 		.ascii	"msg\000"
 2212 09e5 01       		.byte	0x1
 2213 09e6 C1       		.byte	0xc1
 2214 09e7 DD000000 		.4byte	0xdd
 2215 09eb E2000000 		.4byte	.LLST8
 2216 09ef 2A       		.uleb128 0x2a
 2217 09f0 44050000 		.4byte	.LASF122
 2218 09f4 01       		.byte	0x1
 2219 09f5 C1       		.byte	0xc1
 2220 09f6 FE000000 		.4byte	0xfe
 2221 09fa 0D010000 		.4byte	.LLST9
 2222 09fe 2B       		.uleb128 0x2b
 2223 09ff 2A020000 		.4byte	.LASF81
 2224 0a03 01       		.byte	0x1
 2225 0a04 C2       		.byte	0xc2
 2226 0a05 DD000000 		.4byte	0xdd
 2227 0a09 20010000 		.4byte	.LLST10
 2228 0a0d 21       		.uleb128 0x21
 2229 0a0e C3050000 		.4byte	.LASF120
 2230 0a12 500A0000 		.4byte	0xa50
 2231 0a16 01       		.byte	0x1
 2232 0a17 25       		.uleb128 0x25
 2233 0a18 E1070000 		.4byte	0x7e1
 2234 0a1c 16000000 		.4byte	.LBB111
 2235 0a20 26000000 		.4byte	.LBE111
 2236 0a24 01       		.byte	0x1
 2237 0a25 CE       		.byte	0xce
 2238 0a26 2C       		.uleb128 0x2c
 2239 0a27 F2070000 		.4byte	0x7f2
 2240 0a2b 33010000 		.4byte	.LLST11
 2241 0a2f 2D       		.uleb128 0x2d
 2242 0a30 4A070000 		.4byte	0x74a
 2243 0a34 1E000000 		.4byte	.LBB113
 2244 0a38 22000000 		.4byte	.LBE113
 2245 0a3c 04       		.byte	0x4
 2246 0a3d AC       		.byte	0xac
 2247 0a3e 00       		.byte	0
 2248 0a3f 00       		.byte	0
 2249 0a40 15       		.uleb128 0x15
 2250 0a41 36060000 		.4byte	0x636
 2251 0a45 500A0000 		.4byte	0xa50
 2252 0a49 16       		.uleb128 0x16
 2253 0a4a 30000000 		.4byte	0x30
 2254 0a4e 09       		.byte	0x9
 2255 0a4f 00       		.byte	0
 2256 0a50 13       		.uleb128 0x13
 2257 0a51 400A0000 		.4byte	0xa40
 2258 0a55 29       		.uleb128 0x29
 2259 0a56 01       		.byte	0x1
 2260 0a57 57050000 		.4byte	.LASF124
 2261 0a5b 01       		.byte	0x1
ARM GAS  /tmp/cca9OIta.s 			page 41


 2262 0a5c A4       		.byte	0xa4
 2263 0a5d 01       		.byte	0x1
 2264 0a5e DD000000 		.4byte	0xdd
 2265 0a62 00000000 		.4byte	.LFB185
 2266 0a66 14000000 		.4byte	.LFE185
 2267 0a6a 51010000 		.4byte	.LLST12
 2268 0a6e 300B0000 		.4byte	0xb30
 2269 0a72 20       		.uleb128 0x20
 2270 0a73 6D627000 		.ascii	"mbp\000"
 2271 0a77 01       		.byte	0x1
 2272 0a78 A4       		.byte	0xa4
 2273 0a79 67070000 		.4byte	0x767
 2274 0a7d 71010000 		.4byte	.LLST13
 2275 0a81 20       		.uleb128 0x20
 2276 0a82 6D736700 		.ascii	"msg\000"
 2277 0a86 01       		.byte	0x1
 2278 0a87 A4       		.byte	0xa4
 2279 0a88 DD000000 		.4byte	0xdd
 2280 0a8c 84010000 		.4byte	.LLST14
 2281 0a90 2A       		.uleb128 0x2a
 2282 0a91 44050000 		.4byte	.LASF122
 2283 0a95 01       		.byte	0x1
 2284 0a96 A4       		.byte	0xa4
 2285 0a97 FE000000 		.4byte	0xfe
 2286 0a9b 97010000 		.4byte	.LLST15
 2287 0a9f 2E       		.uleb128 0x2e
 2288 0aa0 2A020000 		.4byte	.LASF81
 2289 0aa4 01       		.byte	0x1
 2290 0aa5 A5       		.byte	0xa5
 2291 0aa6 DD000000 		.4byte	0xdd
 2292 0aaa 01       		.byte	0x1
 2293 0aab 50       		.byte	0x50
 2294 0aac 22       		.uleb128 0x22
 2295 0aad A5070000 		.4byte	0x7a5
 2296 0ab1 02000000 		.4byte	.LBB115
 2297 0ab5 08000000 		.4byte	.LBE115
 2298 0ab9 01       		.byte	0x1
 2299 0aba A7       		.byte	0xa7
 2300 0abb E80A0000 		.4byte	0xae8
 2301 0abf 24       		.uleb128 0x24
 2302 0ac0 15070000 		.4byte	0x715
 2303 0ac4 02000000 		.4byte	.LBB116
 2304 0ac8 08000000 		.4byte	.LBE116
 2305 0acc 0E       		.byte	0xe
 2306 0acd 5C01     		.2byte	0x15c
 2307 0acf 24       		.uleb128 0x24
 2308 0ad0 FA060000 		.4byte	0x6fa
 2309 0ad4 02000000 		.4byte	.LBB117
 2310 0ad8 08000000 		.4byte	.LBE117
 2311 0adc 09       		.byte	0x9
 2312 0add D001     		.2byte	0x1d0
 2313 0adf 26       		.uleb128 0x26
 2314 0ae0 08070000 		.4byte	0x708
 2315 0ae4 20       		.byte	0x20
 2316 0ae5 00       		.byte	0
 2317 0ae6 00       		.byte	0
 2318 0ae7 00       		.byte	0
ARM GAS  /tmp/cca9OIta.s 			page 42


 2319 0ae8 25       		.uleb128 0x25
 2320 0ae9 AF070000 		.4byte	0x7af
 2321 0aed 0C000000 		.4byte	.LBB119
 2322 0af1 12000000 		.4byte	.LBE119
 2323 0af5 01       		.byte	0x1
 2324 0af6 A9       		.byte	0xa9
 2325 0af7 27       		.uleb128 0x27
 2326 0af8 0C000000 		.4byte	.LBB120
 2327 0afc 12000000 		.4byte	.LBE120
 2328 0b00 28       		.uleb128 0x28
 2329 0b01 BD070000 		.4byte	0x7bd
 2330 0b05 24       		.uleb128 0x24
 2331 0b06 1F070000 		.4byte	0x71f
 2332 0b0a 0C000000 		.4byte	.LBB121
 2333 0b0e 12000000 		.4byte	.LBE121
 2334 0b12 0E       		.byte	0xe
 2335 0b13 7301     		.2byte	0x173
 2336 0b15 24       		.uleb128 0x24
 2337 0b16 FA060000 		.4byte	0x6fa
 2338 0b1a 0C000000 		.4byte	.LBB122
 2339 0b1e 12000000 		.4byte	.LBE122
 2340 0b22 09       		.byte	0x9
 2341 0b23 E301     		.2byte	0x1e3
 2342 0b25 26       		.uleb128 0x26
 2343 0b26 08070000 		.4byte	0x708
 2344 0b2a 00       		.byte	0
 2345 0b2b 00       		.byte	0
 2346 0b2c 00       		.byte	0
 2347 0b2d 00       		.byte	0
 2348 0b2e 00       		.byte	0
 2349 0b2f 00       		.byte	0
 2350 0b30 29       		.uleb128 0x29
 2351 0b31 01       		.byte	0x1
 2352 0b32 AE030000 		.4byte	.LASF125
 2353 0b36 01       		.byte	0x1
 2354 0b37 F2       		.byte	0xf2
 2355 0b38 01       		.byte	0x1
 2356 0b39 DD000000 		.4byte	0xdd
 2357 0b3d 00000000 		.4byte	.LFB187
 2358 0b41 46000000 		.4byte	.LFE187
 2359 0b45 AA010000 		.4byte	.LLST16
 2360 0b49 9E0B0000 		.4byte	0xb9e
 2361 0b4d 20       		.uleb128 0x20
 2362 0b4e 6D627000 		.ascii	"mbp\000"
 2363 0b52 01       		.byte	0x1
 2364 0b53 F2       		.byte	0xf2
 2365 0b54 67070000 		.4byte	0x767
 2366 0b58 CA010000 		.4byte	.LLST17
 2367 0b5c 20       		.uleb128 0x20
 2368 0b5d 6D736700 		.ascii	"msg\000"
 2369 0b61 01       		.byte	0x1
 2370 0b62 F2       		.byte	0xf2
 2371 0b63 DD000000 		.4byte	0xdd
 2372 0b67 FE010000 		.4byte	.LLST18
 2373 0b6b 21       		.uleb128 0x21
 2374 0b6c C3050000 		.4byte	.LASF120
 2375 0b70 9E0B0000 		.4byte	0xb9e
ARM GAS  /tmp/cca9OIta.s 			page 43


 2376 0b74 01       		.byte	0x1
 2377 0b75 25       		.uleb128 0x25
 2378 0b76 E1070000 		.4byte	0x7e1
 2379 0b7a 08000000 		.4byte	.LBB124
 2380 0b7e 14000000 		.4byte	.LBE124
 2381 0b82 01       		.byte	0x1
 2382 0b83 FD       		.byte	0xfd
 2383 0b84 2C       		.uleb128 0x2c
 2384 0b85 F2070000 		.4byte	0x7f2
 2385 0b89 29020000 		.4byte	.LLST19
 2386 0b8d 2D       		.uleb128 0x2d
 2387 0b8e 4A070000 		.4byte	0x74a
 2388 0b92 0E000000 		.4byte	.LBB126
 2389 0b96 10000000 		.4byte	.LBE126
 2390 0b9a 04       		.byte	0x4
 2391 0b9b AC       		.byte	0xac
 2392 0b9c 00       		.byte	0
 2393 0b9d 00       		.byte	0
 2394 0b9e 13       		.uleb128 0x13
 2395 0b9f 400A0000 		.4byte	0xa40
 2396 0ba3 2F       		.uleb128 0x2f
 2397 0ba4 01       		.byte	0x1
 2398 0ba5 60020000 		.4byte	.LASF126
 2399 0ba9 01       		.byte	0x1
 2400 0baa 3E01     		.2byte	0x13e
 2401 0bac 01       		.byte	0x1
 2402 0bad DD000000 		.4byte	0xdd
 2403 0bb1 00000000 		.4byte	.LFB189
 2404 0bb5 62000000 		.4byte	.LFE189
 2405 0bb9 52020000 		.4byte	.LLST20
 2406 0bbd 350C0000 		.4byte	0xc35
 2407 0bc1 30       		.uleb128 0x30
 2408 0bc2 6D627000 		.ascii	"mbp\000"
 2409 0bc6 01       		.byte	0x1
 2410 0bc7 3E01     		.2byte	0x13e
 2411 0bc9 67070000 		.4byte	0x767
 2412 0bcd 72020000 		.4byte	.LLST21
 2413 0bd1 30       		.uleb128 0x30
 2414 0bd2 6D736700 		.ascii	"msg\000"
 2415 0bd6 01       		.byte	0x1
 2416 0bd7 3E01     		.2byte	0x13e
 2417 0bd9 DD000000 		.4byte	0xdd
 2418 0bdd 90020000 		.4byte	.LLST22
 2419 0be1 31       		.uleb128 0x31
 2420 0be2 44050000 		.4byte	.LASF122
 2421 0be6 01       		.byte	0x1
 2422 0be7 3E01     		.2byte	0x13e
 2423 0be9 FE000000 		.4byte	0xfe
 2424 0bed AE020000 		.4byte	.LLST23
 2425 0bf1 32       		.uleb128 0x32
 2426 0bf2 2A020000 		.4byte	.LASF81
 2427 0bf6 01       		.byte	0x1
 2428 0bf7 3F01     		.2byte	0x13f
 2429 0bf9 DD000000 		.4byte	0xdd
 2430 0bfd C1020000 		.4byte	.LLST24
 2431 0c01 21       		.uleb128 0x21
 2432 0c02 C3050000 		.4byte	.LASF120
ARM GAS  /tmp/cca9OIta.s 			page 44


 2433 0c06 350C0000 		.4byte	0xc35
 2434 0c0a 01       		.byte	0x1
 2435 0c0b 24       		.uleb128 0x24
 2436 0c0c E1070000 		.4byte	0x7e1
 2437 0c10 14000000 		.4byte	.LBB128
 2438 0c14 24000000 		.4byte	.LBE128
 2439 0c18 01       		.byte	0x1
 2440 0c19 4B01     		.2byte	0x14b
 2441 0c1b 2C       		.uleb128 0x2c
 2442 0c1c F2070000 		.4byte	0x7f2
 2443 0c20 D4020000 		.4byte	.LLST25
 2444 0c24 2D       		.uleb128 0x2d
 2445 0c25 4A070000 		.4byte	0x74a
 2446 0c29 1C000000 		.4byte	.LBB130
 2447 0c2d 20000000 		.4byte	.LBE130
 2448 0c31 04       		.byte	0x4
 2449 0c32 AC       		.byte	0xac
 2450 0c33 00       		.byte	0
 2451 0c34 00       		.byte	0
 2452 0c35 13       		.uleb128 0x13
 2453 0c36 AB080000 		.4byte	0x8ab
 2454 0c3a 2F       		.uleb128 0x2f
 2455 0c3b 01       		.byte	0x1
 2456 0c3c E6030000 		.4byte	.LASF127
 2457 0c40 01       		.byte	0x1
 2458 0c41 2101     		.2byte	0x121
 2459 0c43 01       		.byte	0x1
 2460 0c44 DD000000 		.4byte	0xdd
 2461 0c48 00000000 		.4byte	.LFB188
 2462 0c4c 14000000 		.4byte	.LFE188
 2463 0c50 F2020000 		.4byte	.LLST26
 2464 0c54 1C0D0000 		.4byte	0xd1c
 2465 0c58 30       		.uleb128 0x30
 2466 0c59 6D627000 		.ascii	"mbp\000"
 2467 0c5d 01       		.byte	0x1
 2468 0c5e 2101     		.2byte	0x121
 2469 0c60 67070000 		.4byte	0x767
 2470 0c64 12030000 		.4byte	.LLST27
 2471 0c68 30       		.uleb128 0x30
 2472 0c69 6D736700 		.ascii	"msg\000"
 2473 0c6d 01       		.byte	0x1
 2474 0c6e 2101     		.2byte	0x121
 2475 0c70 DD000000 		.4byte	0xdd
 2476 0c74 25030000 		.4byte	.LLST28
 2477 0c78 31       		.uleb128 0x31
 2478 0c79 44050000 		.4byte	.LASF122
 2479 0c7d 01       		.byte	0x1
 2480 0c7e 2101     		.2byte	0x121
 2481 0c80 FE000000 		.4byte	0xfe
 2482 0c84 38030000 		.4byte	.LLST29
 2483 0c88 33       		.uleb128 0x33
 2484 0c89 2A020000 		.4byte	.LASF81
 2485 0c8d 01       		.byte	0x1
 2486 0c8e 2201     		.2byte	0x122
 2487 0c90 DD000000 		.4byte	0xdd
 2488 0c94 01       		.byte	0x1
 2489 0c95 50       		.byte	0x50
ARM GAS  /tmp/cca9OIta.s 			page 45


 2490 0c96 34       		.uleb128 0x34
 2491 0c97 A5070000 		.4byte	0x7a5
 2492 0c9b 02000000 		.4byte	.LBB132
 2493 0c9f 08000000 		.4byte	.LBE132
 2494 0ca3 01       		.byte	0x1
 2495 0ca4 2401     		.2byte	0x124
 2496 0ca6 D30C0000 		.4byte	0xcd3
 2497 0caa 24       		.uleb128 0x24
 2498 0cab 15070000 		.4byte	0x715
 2499 0caf 02000000 		.4byte	.LBB133
 2500 0cb3 08000000 		.4byte	.LBE133
 2501 0cb7 0E       		.byte	0xe
 2502 0cb8 5C01     		.2byte	0x15c
 2503 0cba 24       		.uleb128 0x24
 2504 0cbb FA060000 		.4byte	0x6fa
 2505 0cbf 02000000 		.4byte	.LBB134
 2506 0cc3 08000000 		.4byte	.LBE134
 2507 0cc7 09       		.byte	0x9
 2508 0cc8 D001     		.2byte	0x1d0
 2509 0cca 26       		.uleb128 0x26
 2510 0ccb 08070000 		.4byte	0x708
 2511 0ccf 20       		.byte	0x20
 2512 0cd0 00       		.byte	0
 2513 0cd1 00       		.byte	0
 2514 0cd2 00       		.byte	0
 2515 0cd3 24       		.uleb128 0x24
 2516 0cd4 AF070000 		.4byte	0x7af
 2517 0cd8 0C000000 		.4byte	.LBB136
 2518 0cdc 12000000 		.4byte	.LBE136
 2519 0ce0 01       		.byte	0x1
 2520 0ce1 2601     		.2byte	0x126
 2521 0ce3 27       		.uleb128 0x27
 2522 0ce4 0C000000 		.4byte	.LBB137
 2523 0ce8 12000000 		.4byte	.LBE137
 2524 0cec 28       		.uleb128 0x28
 2525 0ced BD070000 		.4byte	0x7bd
 2526 0cf1 24       		.uleb128 0x24
 2527 0cf2 1F070000 		.4byte	0x71f
 2528 0cf6 0C000000 		.4byte	.LBB138
 2529 0cfa 12000000 		.4byte	.LBE138
 2530 0cfe 0E       		.byte	0xe
 2531 0cff 7301     		.2byte	0x173
 2532 0d01 24       		.uleb128 0x24
 2533 0d02 FA060000 		.4byte	0x6fa
 2534 0d06 0C000000 		.4byte	.LBB139
 2535 0d0a 12000000 		.4byte	.LBE139
 2536 0d0e 09       		.byte	0x9
 2537 0d0f E301     		.2byte	0x1e3
 2538 0d11 26       		.uleb128 0x26
 2539 0d12 08070000 		.4byte	0x708
 2540 0d16 00       		.byte	0
 2541 0d17 00       		.byte	0
 2542 0d18 00       		.byte	0
 2543 0d19 00       		.byte	0
 2544 0d1a 00       		.byte	0
 2545 0d1b 00       		.byte	0
 2546 0d1c 2F       		.uleb128 0x2f
ARM GAS  /tmp/cca9OIta.s 			page 46


 2547 0d1d 01       		.byte	0x1
 2548 0d1e 47020000 		.4byte	.LASF128
 2549 0d22 01       		.byte	0x1
 2550 0d23 6F01     		.2byte	0x16f
 2551 0d25 01       		.byte	0x1
 2552 0d26 DD000000 		.4byte	0xdd
 2553 0d2a 00000000 		.4byte	.LFB190
 2554 0d2e 48000000 		.4byte	.LFE190
 2555 0d32 4B030000 		.4byte	.LLST30
 2556 0d36 8E0D0000 		.4byte	0xd8e
 2557 0d3a 30       		.uleb128 0x30
 2558 0d3b 6D627000 		.ascii	"mbp\000"
 2559 0d3f 01       		.byte	0x1
 2560 0d40 6F01     		.2byte	0x16f
 2561 0d42 67070000 		.4byte	0x767
 2562 0d46 6B030000 		.4byte	.LLST31
 2563 0d4a 30       		.uleb128 0x30
 2564 0d4b 6D736700 		.ascii	"msg\000"
 2565 0d4f 01       		.byte	0x1
 2566 0d50 6F01     		.2byte	0x16f
 2567 0d52 DD000000 		.4byte	0xdd
 2568 0d56 9F030000 		.4byte	.LLST32
 2569 0d5a 21       		.uleb128 0x21
 2570 0d5b C3050000 		.4byte	.LASF120
 2571 0d5f 8E0D0000 		.4byte	0xd8e
 2572 0d63 01       		.byte	0x1
 2573 0d64 24       		.uleb128 0x24
 2574 0d65 E1070000 		.4byte	0x7e1
 2575 0d69 08000000 		.4byte	.LBB141
 2576 0d6d 14000000 		.4byte	.LBE141
 2577 0d71 01       		.byte	0x1
 2578 0d72 7A01     		.2byte	0x17a
 2579 0d74 2C       		.uleb128 0x2c
 2580 0d75 F2070000 		.4byte	0x7f2
 2581 0d79 C9030000 		.4byte	.LLST33
 2582 0d7d 2D       		.uleb128 0x2d
 2583 0d7e 4A070000 		.4byte	0x74a
 2584 0d82 0E000000 		.4byte	.LBB143
 2585 0d86 10000000 		.4byte	.LBE143
 2586 0d8a 04       		.byte	0x4
 2587 0d8b AC       		.byte	0xac
 2588 0d8c 00       		.byte	0
 2589 0d8d 00       		.byte	0
 2590 0d8e 13       		.uleb128 0x13
 2591 0d8f AB080000 		.4byte	0x8ab
 2592 0d93 2F       		.uleb128 0x2f
 2593 0d94 01       		.byte	0x1
 2594 0d95 89020000 		.4byte	.LASF129
 2595 0d99 01       		.byte	0x1
 2596 0d9a BB01     		.2byte	0x1bb
 2597 0d9c 01       		.byte	0x1
 2598 0d9d DD000000 		.4byte	0xdd
 2599 0da1 00000000 		.4byte	.LFB192
 2600 0da5 56000000 		.4byte	.LFE192
 2601 0da9 F2030000 		.4byte	.LLST34
 2602 0dad FC0D0000 		.4byte	0xdfc
 2603 0db1 30       		.uleb128 0x30
ARM GAS  /tmp/cca9OIta.s 			page 47


 2604 0db2 6D627000 		.ascii	"mbp\000"
 2605 0db6 01       		.byte	0x1
 2606 0db7 BB01     		.2byte	0x1bb
 2607 0db9 67070000 		.4byte	0x767
 2608 0dbd 12040000 		.4byte	.LLST35
 2609 0dc1 31       		.uleb128 0x31
 2610 0dc2 CC050000 		.4byte	.LASF130
 2611 0dc6 01       		.byte	0x1
 2612 0dc7 BB01     		.2byte	0x1bb
 2613 0dc9 E2060000 		.4byte	0x6e2
 2614 0dcd 30040000 		.4byte	.LLST36
 2615 0dd1 31       		.uleb128 0x31
 2616 0dd2 44050000 		.4byte	.LASF122
 2617 0dd6 01       		.byte	0x1
 2618 0dd7 BB01     		.2byte	0x1bb
 2619 0dd9 FE000000 		.4byte	0xfe
 2620 0ddd 4E040000 		.4byte	.LLST37
 2621 0de1 32       		.uleb128 0x32
 2622 0de2 2A020000 		.4byte	.LASF81
 2623 0de6 01       		.byte	0x1
 2624 0de7 BC01     		.2byte	0x1bc
 2625 0de9 DD000000 		.4byte	0xdd
 2626 0ded 61040000 		.4byte	.LLST38
 2627 0df1 21       		.uleb128 0x21
 2628 0df2 C3050000 		.4byte	.LASF120
 2629 0df6 FC0D0000 		.4byte	0xdfc
 2630 0dfa 01       		.byte	0x1
 2631 0dfb 00       		.byte	0
 2632 0dfc 13       		.uleb128 0x13
 2633 0dfd F3080000 		.4byte	0x8f3
 2634 0e01 2F       		.uleb128 0x2f
 2635 0e02 01       		.byte	0x1
 2636 0e03 F4030000 		.4byte	.LASF131
 2637 0e07 01       		.byte	0x1
 2638 0e08 9E01     		.2byte	0x19e
 2639 0e0a 01       		.byte	0x1
 2640 0e0b DD000000 		.4byte	0xdd
 2641 0e0f 00000000 		.4byte	.LFB191
 2642 0e13 14000000 		.4byte	.LFE191
 2643 0e17 74040000 		.4byte	.LLST39
 2644 0e1b E30E0000 		.4byte	0xee3
 2645 0e1f 30       		.uleb128 0x30
 2646 0e20 6D627000 		.ascii	"mbp\000"
 2647 0e24 01       		.byte	0x1
 2648 0e25 9E01     		.2byte	0x19e
 2649 0e27 67070000 		.4byte	0x767
 2650 0e2b 94040000 		.4byte	.LLST40
 2651 0e2f 31       		.uleb128 0x31
 2652 0e30 CC050000 		.4byte	.LASF130
 2653 0e34 01       		.byte	0x1
 2654 0e35 9E01     		.2byte	0x19e
 2655 0e37 E2060000 		.4byte	0x6e2
 2656 0e3b A7040000 		.4byte	.LLST41
 2657 0e3f 31       		.uleb128 0x31
 2658 0e40 44050000 		.4byte	.LASF122
 2659 0e44 01       		.byte	0x1
 2660 0e45 9E01     		.2byte	0x19e
ARM GAS  /tmp/cca9OIta.s 			page 48


 2661 0e47 FE000000 		.4byte	0xfe
 2662 0e4b BA040000 		.4byte	.LLST42
 2663 0e4f 33       		.uleb128 0x33
 2664 0e50 2A020000 		.4byte	.LASF81
 2665 0e54 01       		.byte	0x1
 2666 0e55 9F01     		.2byte	0x19f
 2667 0e57 DD000000 		.4byte	0xdd
 2668 0e5b 01       		.byte	0x1
 2669 0e5c 50       		.byte	0x50
 2670 0e5d 34       		.uleb128 0x34
 2671 0e5e A5070000 		.4byte	0x7a5
 2672 0e62 02000000 		.4byte	.LBB145
 2673 0e66 08000000 		.4byte	.LBE145
 2674 0e6a 01       		.byte	0x1
 2675 0e6b A101     		.2byte	0x1a1
 2676 0e6d 9A0E0000 		.4byte	0xe9a
 2677 0e71 24       		.uleb128 0x24
 2678 0e72 15070000 		.4byte	0x715
 2679 0e76 02000000 		.4byte	.LBB146
 2680 0e7a 08000000 		.4byte	.LBE146
 2681 0e7e 0E       		.byte	0xe
 2682 0e7f 5C01     		.2byte	0x15c
 2683 0e81 24       		.uleb128 0x24
 2684 0e82 FA060000 		.4byte	0x6fa
 2685 0e86 02000000 		.4byte	.LBB147
 2686 0e8a 08000000 		.4byte	.LBE147
 2687 0e8e 09       		.byte	0x9
 2688 0e8f D001     		.2byte	0x1d0
 2689 0e91 26       		.uleb128 0x26
 2690 0e92 08070000 		.4byte	0x708
 2691 0e96 20       		.byte	0x20
 2692 0e97 00       		.byte	0
 2693 0e98 00       		.byte	0
 2694 0e99 00       		.byte	0
 2695 0e9a 24       		.uleb128 0x24
 2696 0e9b AF070000 		.4byte	0x7af
 2697 0e9f 0C000000 		.4byte	.LBB149
 2698 0ea3 12000000 		.4byte	.LBE149
 2699 0ea7 01       		.byte	0x1
 2700 0ea8 A301     		.2byte	0x1a3
 2701 0eaa 27       		.uleb128 0x27
 2702 0eab 0C000000 		.4byte	.LBB150
 2703 0eaf 12000000 		.4byte	.LBE150
 2704 0eb3 28       		.uleb128 0x28
 2705 0eb4 BD070000 		.4byte	0x7bd
 2706 0eb8 24       		.uleb128 0x24
 2707 0eb9 1F070000 		.4byte	0x71f
 2708 0ebd 0C000000 		.4byte	.LBB151
 2709 0ec1 12000000 		.4byte	.LBE151
 2710 0ec5 0E       		.byte	0xe
 2711 0ec6 7301     		.2byte	0x173
 2712 0ec8 24       		.uleb128 0x24
 2713 0ec9 FA060000 		.4byte	0x6fa
 2714 0ecd 0C000000 		.4byte	.LBB152
 2715 0ed1 12000000 		.4byte	.LBE152
 2716 0ed5 09       		.byte	0x9
 2717 0ed6 E301     		.2byte	0x1e3
ARM GAS  /tmp/cca9OIta.s 			page 49


 2718 0ed8 26       		.uleb128 0x26
 2719 0ed9 08070000 		.4byte	0x708
 2720 0edd 00       		.byte	0
 2721 0ede 00       		.byte	0
 2722 0edf 00       		.byte	0
 2723 0ee0 00       		.byte	0
 2724 0ee1 00       		.byte	0
 2725 0ee2 00       		.byte	0
 2726 0ee3 2F       		.uleb128 0x2f
 2727 0ee4 01       		.byte	0x1
 2728 0ee5 B8030000 		.4byte	.LASF132
 2729 0ee9 01       		.byte	0x1
 2730 0eea EC01     		.2byte	0x1ec
 2731 0eec 01       		.byte	0x1
 2732 0eed DD000000 		.4byte	0xdd
 2733 0ef1 00000000 		.4byte	.LFB193
 2734 0ef5 44000000 		.4byte	.LFE193
 2735 0ef9 CD040000 		.4byte	.LLST43
 2736 0efd 2C0F0000 		.4byte	0xf2c
 2737 0f01 30       		.uleb128 0x30
 2738 0f02 6D627000 		.ascii	"mbp\000"
 2739 0f06 01       		.byte	0x1
 2740 0f07 EC01     		.2byte	0x1ec
 2741 0f09 67070000 		.4byte	0x767
 2742 0f0d ED040000 		.4byte	.LLST44
 2743 0f11 31       		.uleb128 0x31
 2744 0f12 CC050000 		.4byte	.LASF130
 2745 0f16 01       		.byte	0x1
 2746 0f17 EC01     		.2byte	0x1ec
 2747 0f19 E2060000 		.4byte	0x6e2
 2748 0f1d 21050000 		.4byte	.LLST45
 2749 0f21 21       		.uleb128 0x21
 2750 0f22 C3050000 		.4byte	.LASF120
 2751 0f26 2C0F0000 		.4byte	0xf2c
 2752 0f2a 01       		.byte	0x1
 2753 0f2b 00       		.byte	0
 2754 0f2c 13       		.uleb128 0x13
 2755 0f2d F3080000 		.4byte	0x8f3
 2756 0f31 35       		.uleb128 0x35
 2757 0f32 5F040000 		.4byte	.LASF133
 2758 0f36 0F       		.byte	0xf
 2759 0f37 5506     		.2byte	0x655
 2760 0f39 3F0F0000 		.4byte	0xf3f
 2761 0f3d 01       		.byte	0x1
 2762 0f3e 01       		.byte	0x1
 2763 0f3f 14       		.uleb128 0x14
 2764 0f40 69000000 		.4byte	0x69
 2765 0f44 36       		.uleb128 0x36
 2766 0f45 636800   		.ascii	"ch\000"
 2767 0f48 02       		.byte	0x2
 2768 0f49 0902     		.2byte	0x209
 2769 0f4b 03040000 		.4byte	0x403
 2770 0f4f 01       		.byte	0x1
 2771 0f50 01       		.byte	0x1
 2772 0f51 35       		.uleb128 0x35
 2773 0f52 5F040000 		.4byte	.LASF133
 2774 0f56 0F       		.byte	0xf
ARM GAS  /tmp/cca9OIta.s 			page 50


 2775 0f57 5506     		.2byte	0x655
 2776 0f59 3F0F0000 		.4byte	0xf3f
 2777 0f5d 01       		.byte	0x1
 2778 0f5e 01       		.byte	0x1
 2779 0f5f 36       		.uleb128 0x36
 2780 0f60 636800   		.ascii	"ch\000"
 2781 0f63 02       		.byte	0x2
 2782 0f64 0902     		.2byte	0x209
 2783 0f66 03040000 		.4byte	0x403
 2784 0f6a 01       		.byte	0x1
 2785 0f6b 01       		.byte	0x1
 2786 0f6c 00       		.byte	0
 2787              		.section	.debug_abbrev,"",%progbits
 2788              	.Ldebug_abbrev0:
 2789 0000 01       		.uleb128 0x1
 2790 0001 11       		.uleb128 0x11
 2791 0002 01       		.byte	0x1
 2792 0003 25       		.uleb128 0x25
 2793 0004 0E       		.uleb128 0xe
 2794 0005 13       		.uleb128 0x13
 2795 0006 0B       		.uleb128 0xb
 2796 0007 03       		.uleb128 0x3
 2797 0008 0E       		.uleb128 0xe
 2798 0009 1B       		.uleb128 0x1b
 2799 000a 0E       		.uleb128 0xe
 2800 000b 11       		.uleb128 0x11
 2801 000c 01       		.uleb128 0x1
 2802 000d 52       		.uleb128 0x52
 2803 000e 01       		.uleb128 0x1
 2804 000f 55       		.uleb128 0x55
 2805 0010 06       		.uleb128 0x6
 2806 0011 10       		.uleb128 0x10
 2807 0012 06       		.uleb128 0x6
 2808 0013 00       		.byte	0
 2809 0014 00       		.byte	0
 2810 0015 02       		.uleb128 0x2
 2811 0016 24       		.uleb128 0x24
 2812 0017 00       		.byte	0
 2813 0018 0B       		.uleb128 0xb
 2814 0019 0B       		.uleb128 0xb
 2815 001a 3E       		.uleb128 0x3e
 2816 001b 0B       		.uleb128 0xb
 2817 001c 03       		.uleb128 0x3
 2818 001d 08       		.uleb128 0x8
 2819 001e 00       		.byte	0
 2820 001f 00       		.byte	0
 2821 0020 03       		.uleb128 0x3
 2822 0021 24       		.uleb128 0x24
 2823 0022 00       		.byte	0
 2824 0023 0B       		.uleb128 0xb
 2825 0024 0B       		.uleb128 0xb
 2826 0025 3E       		.uleb128 0x3e
 2827 0026 0B       		.uleb128 0xb
 2828 0027 03       		.uleb128 0x3
 2829 0028 0E       		.uleb128 0xe
 2830 0029 00       		.byte	0
 2831 002a 00       		.byte	0
ARM GAS  /tmp/cca9OIta.s 			page 51


 2832 002b 04       		.uleb128 0x4
 2833 002c 16       		.uleb128 0x16
 2834 002d 00       		.byte	0
 2835 002e 03       		.uleb128 0x3
 2836 002f 0E       		.uleb128 0xe
 2837 0030 3A       		.uleb128 0x3a
 2838 0031 0B       		.uleb128 0xb
 2839 0032 3B       		.uleb128 0x3b
 2840 0033 0B       		.uleb128 0xb
 2841 0034 49       		.uleb128 0x49
 2842 0035 13       		.uleb128 0x13
 2843 0036 00       		.byte	0
 2844 0037 00       		.byte	0
 2845 0038 05       		.uleb128 0x5
 2846 0039 13       		.uleb128 0x13
 2847 003a 01       		.byte	0x1
 2848 003b 03       		.uleb128 0x3
 2849 003c 0E       		.uleb128 0xe
 2850 003d 0B       		.uleb128 0xb
 2851 003e 0B       		.uleb128 0xb
 2852 003f 3A       		.uleb128 0x3a
 2853 0040 0B       		.uleb128 0xb
 2854 0041 3B       		.uleb128 0x3b
 2855 0042 0B       		.uleb128 0xb
 2856 0043 01       		.uleb128 0x1
 2857 0044 13       		.uleb128 0x13
 2858 0045 00       		.byte	0
 2859 0046 00       		.byte	0
 2860 0047 06       		.uleb128 0x6
 2861 0048 0D       		.uleb128 0xd
 2862 0049 00       		.byte	0
 2863 004a 03       		.uleb128 0x3
 2864 004b 0E       		.uleb128 0xe
 2865 004c 3A       		.uleb128 0x3a
 2866 004d 0B       		.uleb128 0xb
 2867 004e 3B       		.uleb128 0x3b
 2868 004f 0B       		.uleb128 0xb
 2869 0050 49       		.uleb128 0x49
 2870 0051 13       		.uleb128 0x13
 2871 0052 38       		.uleb128 0x38
 2872 0053 0A       		.uleb128 0xa
 2873 0054 00       		.byte	0
 2874 0055 00       		.byte	0
 2875 0056 07       		.uleb128 0x7
 2876 0057 0D       		.uleb128 0xd
 2877 0058 00       		.byte	0
 2878 0059 03       		.uleb128 0x3
 2879 005a 08       		.uleb128 0x8
 2880 005b 3A       		.uleb128 0x3a
 2881 005c 0B       		.uleb128 0xb
 2882 005d 3B       		.uleb128 0x3b
 2883 005e 05       		.uleb128 0x5
 2884 005f 49       		.uleb128 0x49
 2885 0060 13       		.uleb128 0x13
 2886 0061 38       		.uleb128 0x38
 2887 0062 0A       		.uleb128 0xa
 2888 0063 00       		.byte	0
ARM GAS  /tmp/cca9OIta.s 			page 52


 2889 0064 00       		.byte	0
 2890 0065 08       		.uleb128 0x8
 2891 0066 0D       		.uleb128 0xd
 2892 0067 00       		.byte	0
 2893 0068 03       		.uleb128 0x3
 2894 0069 0E       		.uleb128 0xe
 2895 006a 3A       		.uleb128 0x3a
 2896 006b 0B       		.uleb128 0xb
 2897 006c 3B       		.uleb128 0x3b
 2898 006d 05       		.uleb128 0x5
 2899 006e 49       		.uleb128 0x49
 2900 006f 13       		.uleb128 0x13
 2901 0070 38       		.uleb128 0x38
 2902 0071 0A       		.uleb128 0xa
 2903 0072 00       		.byte	0
 2904 0073 00       		.byte	0
 2905 0074 09       		.uleb128 0x9
 2906 0075 0F       		.uleb128 0xf
 2907 0076 00       		.byte	0
 2908 0077 0B       		.uleb128 0xb
 2909 0078 0B       		.uleb128 0xb
 2910 0079 49       		.uleb128 0x49
 2911 007a 13       		.uleb128 0x13
 2912 007b 00       		.byte	0
 2913 007c 00       		.byte	0
 2914 007d 0A       		.uleb128 0xa
 2915 007e 13       		.uleb128 0x13
 2916 007f 01       		.byte	0x1
 2917 0080 03       		.uleb128 0x3
 2918 0081 0E       		.uleb128 0xe
 2919 0082 0B       		.uleb128 0xb
 2920 0083 0B       		.uleb128 0xb
 2921 0084 3A       		.uleb128 0x3a
 2922 0085 0B       		.uleb128 0xb
 2923 0086 3B       		.uleb128 0x3b
 2924 0087 05       		.uleb128 0x5
 2925 0088 01       		.uleb128 0x1
 2926 0089 13       		.uleb128 0x13
 2927 008a 00       		.byte	0
 2928 008b 00       		.byte	0
 2929 008c 0B       		.uleb128 0xb
 2930 008d 15       		.uleb128 0x15
 2931 008e 01       		.byte	0x1
 2932 008f 27       		.uleb128 0x27
 2933 0090 0C       		.uleb128 0xc
 2934 0091 01       		.uleb128 0x1
 2935 0092 13       		.uleb128 0x13
 2936 0093 00       		.byte	0
 2937 0094 00       		.byte	0
 2938 0095 0C       		.uleb128 0xc
 2939 0096 05       		.uleb128 0x5
 2940 0097 00       		.byte	0
 2941 0098 49       		.uleb128 0x49
 2942 0099 13       		.uleb128 0x13
 2943 009a 00       		.byte	0
 2944 009b 00       		.byte	0
 2945 009c 0D       		.uleb128 0xd
ARM GAS  /tmp/cca9OIta.s 			page 53


 2946 009d 0F       		.uleb128 0xf
 2947 009e 00       		.byte	0
 2948 009f 0B       		.uleb128 0xb
 2949 00a0 0B       		.uleb128 0xb
 2950 00a1 00       		.byte	0
 2951 00a2 00       		.byte	0
 2952 00a3 0E       		.uleb128 0xe
 2953 00a4 13       		.uleb128 0x13
 2954 00a5 01       		.byte	0x1
 2955 00a6 03       		.uleb128 0x3
 2956 00a7 0E       		.uleb128 0xe
 2957 00a8 0B       		.uleb128 0xb
 2958 00a9 05       		.uleb128 0x5
 2959 00aa 3A       		.uleb128 0x3a
 2960 00ab 0B       		.uleb128 0xb
 2961 00ac 3B       		.uleb128 0x3b
 2962 00ad 05       		.uleb128 0x5
 2963 00ae 01       		.uleb128 0x1
 2964 00af 13       		.uleb128 0x13
 2965 00b0 00       		.byte	0
 2966 00b1 00       		.byte	0
 2967 00b2 0F       		.uleb128 0xf
 2968 00b3 0D       		.uleb128 0xd
 2969 00b4 00       		.byte	0
 2970 00b5 03       		.uleb128 0x3
 2971 00b6 08       		.uleb128 0x8
 2972 00b7 3A       		.uleb128 0x3a
 2973 00b8 0B       		.uleb128 0xb
 2974 00b9 3B       		.uleb128 0x3b
 2975 00ba 0B       		.uleb128 0xb
 2976 00bb 49       		.uleb128 0x49
 2977 00bc 13       		.uleb128 0x13
 2978 00bd 38       		.uleb128 0x38
 2979 00be 0A       		.uleb128 0xa
 2980 00bf 00       		.byte	0
 2981 00c0 00       		.byte	0
 2982 00c1 10       		.uleb128 0x10
 2983 00c2 13       		.uleb128 0x13
 2984 00c3 01       		.byte	0x1
 2985 00c4 0B       		.uleb128 0xb
 2986 00c5 0B       		.uleb128 0xb
 2987 00c6 3A       		.uleb128 0x3a
 2988 00c7 0B       		.uleb128 0xb
 2989 00c8 3B       		.uleb128 0x3b
 2990 00c9 0B       		.uleb128 0xb
 2991 00ca 01       		.uleb128 0x1
 2992 00cb 13       		.uleb128 0x13
 2993 00cc 00       		.byte	0
 2994 00cd 00       		.byte	0
 2995 00ce 11       		.uleb128 0x11
 2996 00cf 17       		.uleb128 0x17
 2997 00d0 01       		.byte	0x1
 2998 00d1 0B       		.uleb128 0xb
 2999 00d2 0B       		.uleb128 0xb
 3000 00d3 3A       		.uleb128 0x3a
 3001 00d4 0B       		.uleb128 0xb
 3002 00d5 3B       		.uleb128 0x3b
ARM GAS  /tmp/cca9OIta.s 			page 54


 3003 00d6 0B       		.uleb128 0xb
 3004 00d7 01       		.uleb128 0x1
 3005 00d8 13       		.uleb128 0x13
 3006 00d9 00       		.byte	0
 3007 00da 00       		.byte	0
 3008 00db 12       		.uleb128 0x12
 3009 00dc 0D       		.uleb128 0xd
 3010 00dd 00       		.byte	0
 3011 00de 03       		.uleb128 0x3
 3012 00df 0E       		.uleb128 0xe
 3013 00e0 3A       		.uleb128 0x3a
 3014 00e1 0B       		.uleb128 0xb
 3015 00e2 3B       		.uleb128 0x3b
 3016 00e3 05       		.uleb128 0x5
 3017 00e4 49       		.uleb128 0x49
 3018 00e5 13       		.uleb128 0x13
 3019 00e6 00       		.byte	0
 3020 00e7 00       		.byte	0
 3021 00e8 13       		.uleb128 0x13
 3022 00e9 26       		.uleb128 0x26
 3023 00ea 00       		.byte	0
 3024 00eb 49       		.uleb128 0x49
 3025 00ec 13       		.uleb128 0x13
 3026 00ed 00       		.byte	0
 3027 00ee 00       		.byte	0
 3028 00ef 14       		.uleb128 0x14
 3029 00f0 35       		.uleb128 0x35
 3030 00f1 00       		.byte	0
 3031 00f2 49       		.uleb128 0x49
 3032 00f3 13       		.uleb128 0x13
 3033 00f4 00       		.byte	0
 3034 00f5 00       		.byte	0
 3035 00f6 15       		.uleb128 0x15
 3036 00f7 01       		.uleb128 0x1
 3037 00f8 01       		.byte	0x1
 3038 00f9 49       		.uleb128 0x49
 3039 00fa 13       		.uleb128 0x13
 3040 00fb 01       		.uleb128 0x1
 3041 00fc 13       		.uleb128 0x13
 3042 00fd 00       		.byte	0
 3043 00fe 00       		.byte	0
 3044 00ff 16       		.uleb128 0x16
 3045 0100 21       		.uleb128 0x21
 3046 0101 00       		.byte	0
 3047 0102 49       		.uleb128 0x49
 3048 0103 13       		.uleb128 0x13
 3049 0104 2F       		.uleb128 0x2f
 3050 0105 0B       		.uleb128 0xb
 3051 0106 00       		.byte	0
 3052 0107 00       		.byte	0
 3053 0108 17       		.uleb128 0x17
 3054 0109 2E       		.uleb128 0x2e
 3055 010a 01       		.byte	0x1
 3056 010b 03       		.uleb128 0x3
 3057 010c 0E       		.uleb128 0xe
 3058 010d 3A       		.uleb128 0x3a
 3059 010e 0B       		.uleb128 0xb
ARM GAS  /tmp/cca9OIta.s 			page 55


 3060 010f 3B       		.uleb128 0x3b
 3061 0110 05       		.uleb128 0x5
 3062 0111 27       		.uleb128 0x27
 3063 0112 0C       		.uleb128 0xc
 3064 0113 20       		.uleb128 0x20
 3065 0114 0B       		.uleb128 0xb
 3066 0115 01       		.uleb128 0x1
 3067 0116 13       		.uleb128 0x13
 3068 0117 00       		.byte	0
 3069 0118 00       		.byte	0
 3070 0119 18       		.uleb128 0x18
 3071 011a 05       		.uleb128 0x5
 3072 011b 00       		.byte	0
 3073 011c 03       		.uleb128 0x3
 3074 011d 0E       		.uleb128 0xe
 3075 011e 3A       		.uleb128 0x3a
 3076 011f 0B       		.uleb128 0xb
 3077 0120 3B       		.uleb128 0x3b
 3078 0121 05       		.uleb128 0x5
 3079 0122 49       		.uleb128 0x49
 3080 0123 13       		.uleb128 0x13
 3081 0124 00       		.byte	0
 3082 0125 00       		.byte	0
 3083 0126 19       		.uleb128 0x19
 3084 0127 2E       		.uleb128 0x2e
 3085 0128 00       		.byte	0
 3086 0129 03       		.uleb128 0x3
 3087 012a 0E       		.uleb128 0xe
 3088 012b 3A       		.uleb128 0x3a
 3089 012c 0B       		.uleb128 0xb
 3090 012d 3B       		.uleb128 0x3b
 3091 012e 05       		.uleb128 0x5
 3092 012f 27       		.uleb128 0x27
 3093 0130 0C       		.uleb128 0xc
 3094 0131 20       		.uleb128 0x20
 3095 0132 0B       		.uleb128 0xb
 3096 0133 00       		.byte	0
 3097 0134 00       		.byte	0
 3098 0135 1A       		.uleb128 0x1a
 3099 0136 05       		.uleb128 0x5
 3100 0137 00       		.byte	0
 3101 0138 03       		.uleb128 0x3
 3102 0139 08       		.uleb128 0x8
 3103 013a 3A       		.uleb128 0x3a
 3104 013b 0B       		.uleb128 0xb
 3105 013c 3B       		.uleb128 0x3b
 3106 013d 05       		.uleb128 0x5
 3107 013e 49       		.uleb128 0x49
 3108 013f 13       		.uleb128 0x13
 3109 0140 00       		.byte	0
 3110 0141 00       		.byte	0
 3111 0142 1B       		.uleb128 0x1b
 3112 0143 2E       		.uleb128 0x2e
 3113 0144 01       		.byte	0x1
 3114 0145 03       		.uleb128 0x3
 3115 0146 0E       		.uleb128 0xe
 3116 0147 3A       		.uleb128 0x3a
ARM GAS  /tmp/cca9OIta.s 			page 56


 3117 0148 0B       		.uleb128 0xb
 3118 0149 3B       		.uleb128 0x3b
 3119 014a 0B       		.uleb128 0xb
 3120 014b 27       		.uleb128 0x27
 3121 014c 0C       		.uleb128 0xc
 3122 014d 49       		.uleb128 0x49
 3123 014e 13       		.uleb128 0x13
 3124 014f 20       		.uleb128 0x20
 3125 0150 0B       		.uleb128 0xb
 3126 0151 01       		.uleb128 0x1
 3127 0152 13       		.uleb128 0x13
 3128 0153 00       		.byte	0
 3129 0154 00       		.byte	0
 3130 0155 1C       		.uleb128 0x1c
 3131 0156 05       		.uleb128 0x5
 3132 0157 00       		.byte	0
 3133 0158 03       		.uleb128 0x3
 3134 0159 08       		.uleb128 0x8
 3135 015a 3A       		.uleb128 0x3a
 3136 015b 0B       		.uleb128 0xb
 3137 015c 3B       		.uleb128 0x3b
 3138 015d 0B       		.uleb128 0xb
 3139 015e 49       		.uleb128 0x49
 3140 015f 13       		.uleb128 0x13
 3141 0160 00       		.byte	0
 3142 0161 00       		.byte	0
 3143 0162 1D       		.uleb128 0x1d
 3144 0163 34       		.uleb128 0x34
 3145 0164 00       		.byte	0
 3146 0165 03       		.uleb128 0x3
 3147 0166 0E       		.uleb128 0xe
 3148 0167 49       		.uleb128 0x49
 3149 0168 13       		.uleb128 0x13
 3150 0169 34       		.uleb128 0x34
 3151 016a 0C       		.uleb128 0xc
 3152 016b 1C       		.uleb128 0x1c
 3153 016c 0E       		.uleb128 0xe
 3154 016d 00       		.byte	0
 3155 016e 00       		.byte	0
 3156 016f 1E       		.uleb128 0x1e
 3157 0170 2E       		.uleb128 0x2e
 3158 0171 01       		.byte	0x1
 3159 0172 3F       		.uleb128 0x3f
 3160 0173 0C       		.uleb128 0xc
 3161 0174 03       		.uleb128 0x3
 3162 0175 0E       		.uleb128 0xe
 3163 0176 3A       		.uleb128 0x3a
 3164 0177 0B       		.uleb128 0xb
 3165 0178 3B       		.uleb128 0x3b
 3166 0179 0B       		.uleb128 0xb
 3167 017a 27       		.uleb128 0x27
 3168 017b 0C       		.uleb128 0xc
 3169 017c 11       		.uleb128 0x11
 3170 017d 01       		.uleb128 0x1
 3171 017e 12       		.uleb128 0x12
 3172 017f 01       		.uleb128 0x1
 3173 0180 40       		.uleb128 0x40
ARM GAS  /tmp/cca9OIta.s 			page 57


 3174 0181 06       		.uleb128 0x6
 3175 0182 01       		.uleb128 0x1
 3176 0183 13       		.uleb128 0x13
 3177 0184 00       		.byte	0
 3178 0185 00       		.byte	0
 3179 0186 1F       		.uleb128 0x1f
 3180 0187 05       		.uleb128 0x5
 3181 0188 00       		.byte	0
 3182 0189 03       		.uleb128 0x3
 3183 018a 08       		.uleb128 0x8
 3184 018b 3A       		.uleb128 0x3a
 3185 018c 0B       		.uleb128 0xb
 3186 018d 3B       		.uleb128 0x3b
 3187 018e 0B       		.uleb128 0xb
 3188 018f 49       		.uleb128 0x49
 3189 0190 13       		.uleb128 0x13
 3190 0191 02       		.uleb128 0x2
 3191 0192 0A       		.uleb128 0xa
 3192 0193 00       		.byte	0
 3193 0194 00       		.byte	0
 3194 0195 20       		.uleb128 0x20
 3195 0196 05       		.uleb128 0x5
 3196 0197 00       		.byte	0
 3197 0198 03       		.uleb128 0x3
 3198 0199 08       		.uleb128 0x8
 3199 019a 3A       		.uleb128 0x3a
 3200 019b 0B       		.uleb128 0xb
 3201 019c 3B       		.uleb128 0x3b
 3202 019d 0B       		.uleb128 0xb
 3203 019e 49       		.uleb128 0x49
 3204 019f 13       		.uleb128 0x13
 3205 01a0 02       		.uleb128 0x2
 3206 01a1 06       		.uleb128 0x6
 3207 01a2 00       		.byte	0
 3208 01a3 00       		.byte	0
 3209 01a4 21       		.uleb128 0x21
 3210 01a5 34       		.uleb128 0x34
 3211 01a6 00       		.byte	0
 3212 01a7 03       		.uleb128 0x3
 3213 01a8 0E       		.uleb128 0xe
 3214 01a9 49       		.uleb128 0x49
 3215 01aa 13       		.uleb128 0x13
 3216 01ab 34       		.uleb128 0x34
 3217 01ac 0C       		.uleb128 0xc
 3218 01ad 00       		.byte	0
 3219 01ae 00       		.byte	0
 3220 01af 22       		.uleb128 0x22
 3221 01b0 1D       		.uleb128 0x1d
 3222 01b1 01       		.byte	0x1
 3223 01b2 31       		.uleb128 0x31
 3224 01b3 13       		.uleb128 0x13
 3225 01b4 11       		.uleb128 0x11
 3226 01b5 01       		.uleb128 0x1
 3227 01b6 12       		.uleb128 0x12
 3228 01b7 01       		.uleb128 0x1
 3229 01b8 58       		.uleb128 0x58
 3230 01b9 0B       		.uleb128 0xb
ARM GAS  /tmp/cca9OIta.s 			page 58


 3231 01ba 59       		.uleb128 0x59
 3232 01bb 0B       		.uleb128 0xb
 3233 01bc 01       		.uleb128 0x1
 3234 01bd 13       		.uleb128 0x13
 3235 01be 00       		.byte	0
 3236 01bf 00       		.byte	0
 3237 01c0 23       		.uleb128 0x23
 3238 01c1 05       		.uleb128 0x5
 3239 01c2 00       		.byte	0
 3240 01c3 31       		.uleb128 0x31
 3241 01c4 13       		.uleb128 0x13
 3242 01c5 02       		.uleb128 0x2
 3243 01c6 0A       		.uleb128 0xa
 3244 01c7 00       		.byte	0
 3245 01c8 00       		.byte	0
 3246 01c9 24       		.uleb128 0x24
 3247 01ca 1D       		.uleb128 0x1d
 3248 01cb 01       		.byte	0x1
 3249 01cc 31       		.uleb128 0x31
 3250 01cd 13       		.uleb128 0x13
 3251 01ce 11       		.uleb128 0x11
 3252 01cf 01       		.uleb128 0x1
 3253 01d0 12       		.uleb128 0x12
 3254 01d1 01       		.uleb128 0x1
 3255 01d2 58       		.uleb128 0x58
 3256 01d3 0B       		.uleb128 0xb
 3257 01d4 59       		.uleb128 0x59
 3258 01d5 05       		.uleb128 0x5
 3259 01d6 00       		.byte	0
 3260 01d7 00       		.byte	0
 3261 01d8 25       		.uleb128 0x25
 3262 01d9 1D       		.uleb128 0x1d
 3263 01da 01       		.byte	0x1
 3264 01db 31       		.uleb128 0x31
 3265 01dc 13       		.uleb128 0x13
 3266 01dd 11       		.uleb128 0x11
 3267 01de 01       		.uleb128 0x1
 3268 01df 12       		.uleb128 0x12
 3269 01e0 01       		.uleb128 0x1
 3270 01e1 58       		.uleb128 0x58
 3271 01e2 0B       		.uleb128 0xb
 3272 01e3 59       		.uleb128 0x59
 3273 01e4 0B       		.uleb128 0xb
 3274 01e5 00       		.byte	0
 3275 01e6 00       		.byte	0
 3276 01e7 26       		.uleb128 0x26
 3277 01e8 05       		.uleb128 0x5
 3278 01e9 00       		.byte	0
 3279 01ea 31       		.uleb128 0x31
 3280 01eb 13       		.uleb128 0x13
 3281 01ec 1C       		.uleb128 0x1c
 3282 01ed 0B       		.uleb128 0xb
 3283 01ee 00       		.byte	0
 3284 01ef 00       		.byte	0
 3285 01f0 27       		.uleb128 0x27
 3286 01f1 0B       		.uleb128 0xb
 3287 01f2 01       		.byte	0x1
ARM GAS  /tmp/cca9OIta.s 			page 59


 3288 01f3 11       		.uleb128 0x11
 3289 01f4 01       		.uleb128 0x1
 3290 01f5 12       		.uleb128 0x12
 3291 01f6 01       		.uleb128 0x1
 3292 01f7 00       		.byte	0
 3293 01f8 00       		.byte	0
 3294 01f9 28       		.uleb128 0x28
 3295 01fa 34       		.uleb128 0x34
 3296 01fb 00       		.byte	0
 3297 01fc 31       		.uleb128 0x31
 3298 01fd 13       		.uleb128 0x13
 3299 01fe 00       		.byte	0
 3300 01ff 00       		.byte	0
 3301 0200 29       		.uleb128 0x29
 3302 0201 2E       		.uleb128 0x2e
 3303 0202 01       		.byte	0x1
 3304 0203 3F       		.uleb128 0x3f
 3305 0204 0C       		.uleb128 0xc
 3306 0205 03       		.uleb128 0x3
 3307 0206 0E       		.uleb128 0xe
 3308 0207 3A       		.uleb128 0x3a
 3309 0208 0B       		.uleb128 0xb
 3310 0209 3B       		.uleb128 0x3b
 3311 020a 0B       		.uleb128 0xb
 3312 020b 27       		.uleb128 0x27
 3313 020c 0C       		.uleb128 0xc
 3314 020d 49       		.uleb128 0x49
 3315 020e 13       		.uleb128 0x13
 3316 020f 11       		.uleb128 0x11
 3317 0210 01       		.uleb128 0x1
 3318 0211 12       		.uleb128 0x12
 3319 0212 01       		.uleb128 0x1
 3320 0213 40       		.uleb128 0x40
 3321 0214 06       		.uleb128 0x6
 3322 0215 01       		.uleb128 0x1
 3323 0216 13       		.uleb128 0x13
 3324 0217 00       		.byte	0
 3325 0218 00       		.byte	0
 3326 0219 2A       		.uleb128 0x2a
 3327 021a 05       		.uleb128 0x5
 3328 021b 00       		.byte	0
 3329 021c 03       		.uleb128 0x3
 3330 021d 0E       		.uleb128 0xe
 3331 021e 3A       		.uleb128 0x3a
 3332 021f 0B       		.uleb128 0xb
 3333 0220 3B       		.uleb128 0x3b
 3334 0221 0B       		.uleb128 0xb
 3335 0222 49       		.uleb128 0x49
 3336 0223 13       		.uleb128 0x13
 3337 0224 02       		.uleb128 0x2
 3338 0225 06       		.uleb128 0x6
 3339 0226 00       		.byte	0
 3340 0227 00       		.byte	0
 3341 0228 2B       		.uleb128 0x2b
 3342 0229 34       		.uleb128 0x34
 3343 022a 00       		.byte	0
 3344 022b 03       		.uleb128 0x3
ARM GAS  /tmp/cca9OIta.s 			page 60


 3345 022c 0E       		.uleb128 0xe
 3346 022d 3A       		.uleb128 0x3a
 3347 022e 0B       		.uleb128 0xb
 3348 022f 3B       		.uleb128 0x3b
 3349 0230 0B       		.uleb128 0xb
 3350 0231 49       		.uleb128 0x49
 3351 0232 13       		.uleb128 0x13
 3352 0233 02       		.uleb128 0x2
 3353 0234 06       		.uleb128 0x6
 3354 0235 00       		.byte	0
 3355 0236 00       		.byte	0
 3356 0237 2C       		.uleb128 0x2c
 3357 0238 05       		.uleb128 0x5
 3358 0239 00       		.byte	0
 3359 023a 31       		.uleb128 0x31
 3360 023b 13       		.uleb128 0x13
 3361 023c 02       		.uleb128 0x2
 3362 023d 06       		.uleb128 0x6
 3363 023e 00       		.byte	0
 3364 023f 00       		.byte	0
 3365 0240 2D       		.uleb128 0x2d
 3366 0241 1D       		.uleb128 0x1d
 3367 0242 00       		.byte	0
 3368 0243 31       		.uleb128 0x31
 3369 0244 13       		.uleb128 0x13
 3370 0245 11       		.uleb128 0x11
 3371 0246 01       		.uleb128 0x1
 3372 0247 12       		.uleb128 0x12
 3373 0248 01       		.uleb128 0x1
 3374 0249 58       		.uleb128 0x58
 3375 024a 0B       		.uleb128 0xb
 3376 024b 59       		.uleb128 0x59
 3377 024c 0B       		.uleb128 0xb
 3378 024d 00       		.byte	0
 3379 024e 00       		.byte	0
 3380 024f 2E       		.uleb128 0x2e
 3381 0250 34       		.uleb128 0x34
 3382 0251 00       		.byte	0
 3383 0252 03       		.uleb128 0x3
 3384 0253 0E       		.uleb128 0xe
 3385 0254 3A       		.uleb128 0x3a
 3386 0255 0B       		.uleb128 0xb
 3387 0256 3B       		.uleb128 0x3b
 3388 0257 0B       		.uleb128 0xb
 3389 0258 49       		.uleb128 0x49
 3390 0259 13       		.uleb128 0x13
 3391 025a 02       		.uleb128 0x2
 3392 025b 0A       		.uleb128 0xa
 3393 025c 00       		.byte	0
 3394 025d 00       		.byte	0
 3395 025e 2F       		.uleb128 0x2f
 3396 025f 2E       		.uleb128 0x2e
 3397 0260 01       		.byte	0x1
 3398 0261 3F       		.uleb128 0x3f
 3399 0262 0C       		.uleb128 0xc
 3400 0263 03       		.uleb128 0x3
 3401 0264 0E       		.uleb128 0xe
ARM GAS  /tmp/cca9OIta.s 			page 61


 3402 0265 3A       		.uleb128 0x3a
 3403 0266 0B       		.uleb128 0xb
 3404 0267 3B       		.uleb128 0x3b
 3405 0268 05       		.uleb128 0x5
 3406 0269 27       		.uleb128 0x27
 3407 026a 0C       		.uleb128 0xc
 3408 026b 49       		.uleb128 0x49
 3409 026c 13       		.uleb128 0x13
 3410 026d 11       		.uleb128 0x11
 3411 026e 01       		.uleb128 0x1
 3412 026f 12       		.uleb128 0x12
 3413 0270 01       		.uleb128 0x1
 3414 0271 40       		.uleb128 0x40
 3415 0272 06       		.uleb128 0x6
 3416 0273 01       		.uleb128 0x1
 3417 0274 13       		.uleb128 0x13
 3418 0275 00       		.byte	0
 3419 0276 00       		.byte	0
 3420 0277 30       		.uleb128 0x30
 3421 0278 05       		.uleb128 0x5
 3422 0279 00       		.byte	0
 3423 027a 03       		.uleb128 0x3
 3424 027b 08       		.uleb128 0x8
 3425 027c 3A       		.uleb128 0x3a
 3426 027d 0B       		.uleb128 0xb
 3427 027e 3B       		.uleb128 0x3b
 3428 027f 05       		.uleb128 0x5
 3429 0280 49       		.uleb128 0x49
 3430 0281 13       		.uleb128 0x13
 3431 0282 02       		.uleb128 0x2
 3432 0283 06       		.uleb128 0x6
 3433 0284 00       		.byte	0
 3434 0285 00       		.byte	0
 3435 0286 31       		.uleb128 0x31
 3436 0287 05       		.uleb128 0x5
 3437 0288 00       		.byte	0
 3438 0289 03       		.uleb128 0x3
 3439 028a 0E       		.uleb128 0xe
 3440 028b 3A       		.uleb128 0x3a
 3441 028c 0B       		.uleb128 0xb
 3442 028d 3B       		.uleb128 0x3b
 3443 028e 05       		.uleb128 0x5
 3444 028f 49       		.uleb128 0x49
 3445 0290 13       		.uleb128 0x13
 3446 0291 02       		.uleb128 0x2
 3447 0292 06       		.uleb128 0x6
 3448 0293 00       		.byte	0
 3449 0294 00       		.byte	0
 3450 0295 32       		.uleb128 0x32
 3451 0296 34       		.uleb128 0x34
 3452 0297 00       		.byte	0
 3453 0298 03       		.uleb128 0x3
 3454 0299 0E       		.uleb128 0xe
 3455 029a 3A       		.uleb128 0x3a
 3456 029b 0B       		.uleb128 0xb
 3457 029c 3B       		.uleb128 0x3b
 3458 029d 05       		.uleb128 0x5
ARM GAS  /tmp/cca9OIta.s 			page 62


 3459 029e 49       		.uleb128 0x49
 3460 029f 13       		.uleb128 0x13
 3461 02a0 02       		.uleb128 0x2
 3462 02a1 06       		.uleb128 0x6
 3463 02a2 00       		.byte	0
 3464 02a3 00       		.byte	0
 3465 02a4 33       		.uleb128 0x33
 3466 02a5 34       		.uleb128 0x34
 3467 02a6 00       		.byte	0
 3468 02a7 03       		.uleb128 0x3
 3469 02a8 0E       		.uleb128 0xe
 3470 02a9 3A       		.uleb128 0x3a
 3471 02aa 0B       		.uleb128 0xb
 3472 02ab 3B       		.uleb128 0x3b
 3473 02ac 05       		.uleb128 0x5
 3474 02ad 49       		.uleb128 0x49
 3475 02ae 13       		.uleb128 0x13
 3476 02af 02       		.uleb128 0x2
 3477 02b0 0A       		.uleb128 0xa
 3478 02b1 00       		.byte	0
 3479 02b2 00       		.byte	0
 3480 02b3 34       		.uleb128 0x34
 3481 02b4 1D       		.uleb128 0x1d
 3482 02b5 01       		.byte	0x1
 3483 02b6 31       		.uleb128 0x31
 3484 02b7 13       		.uleb128 0x13
 3485 02b8 11       		.uleb128 0x11
 3486 02b9 01       		.uleb128 0x1
 3487 02ba 12       		.uleb128 0x12
 3488 02bb 01       		.uleb128 0x1
 3489 02bc 58       		.uleb128 0x58
 3490 02bd 0B       		.uleb128 0xb
 3491 02be 59       		.uleb128 0x59
 3492 02bf 05       		.uleb128 0x5
 3493 02c0 01       		.uleb128 0x1
 3494 02c1 13       		.uleb128 0x13
 3495 02c2 00       		.byte	0
 3496 02c3 00       		.byte	0
 3497 02c4 35       		.uleb128 0x35
 3498 02c5 34       		.uleb128 0x34
 3499 02c6 00       		.byte	0
 3500 02c7 03       		.uleb128 0x3
 3501 02c8 0E       		.uleb128 0xe
 3502 02c9 3A       		.uleb128 0x3a
 3503 02ca 0B       		.uleb128 0xb
 3504 02cb 3B       		.uleb128 0x3b
 3505 02cc 05       		.uleb128 0x5
 3506 02cd 49       		.uleb128 0x49
 3507 02ce 13       		.uleb128 0x13
 3508 02cf 3F       		.uleb128 0x3f
 3509 02d0 0C       		.uleb128 0xc
 3510 02d1 3C       		.uleb128 0x3c
 3511 02d2 0C       		.uleb128 0xc
 3512 02d3 00       		.byte	0
 3513 02d4 00       		.byte	0
 3514 02d5 36       		.uleb128 0x36
 3515 02d6 34       		.uleb128 0x34
ARM GAS  /tmp/cca9OIta.s 			page 63


 3516 02d7 00       		.byte	0
 3517 02d8 03       		.uleb128 0x3
 3518 02d9 08       		.uleb128 0x8
 3519 02da 3A       		.uleb128 0x3a
 3520 02db 0B       		.uleb128 0xb
 3521 02dc 3B       		.uleb128 0x3b
 3522 02dd 05       		.uleb128 0x5
 3523 02de 49       		.uleb128 0x49
 3524 02df 13       		.uleb128 0x13
 3525 02e0 3F       		.uleb128 0x3f
 3526 02e1 0C       		.uleb128 0xc
 3527 02e2 3C       		.uleb128 0x3c
 3528 02e3 0C       		.uleb128 0xc
 3529 02e4 00       		.byte	0
 3530 02e5 00       		.byte	0
 3531 02e6 00       		.byte	0
 3532              		.section	.debug_loc,"",%progbits
 3533              	.Ldebug_loc0:
 3534              	.LLST0:
 3535 0000 00000000 		.4byte	.LFB182
 3536 0004 02000000 		.4byte	.LCFI0
 3537 0008 0200     		.2byte	0x2
 3538 000a 7D       		.byte	0x7d
 3539 000b 00       		.sleb128 0
 3540 000c 02000000 		.4byte	.LCFI0
 3541 0010 28000000 		.4byte	.LFE182
 3542 0014 0200     		.2byte	0x2
 3543 0016 7D       		.byte	0x7d
 3544 0017 08       		.sleb128 8
 3545 0018 00000000 		.4byte	0
 3546 001c 00000000 		.4byte	0
 3547              	.LLST1:
 3548 0020 00000000 		.4byte	.LVL0
 3549 0024 10000000 		.4byte	.LVL2
 3550 0028 0100     		.2byte	0x1
 3551 002a 52       		.byte	0x52
 3552 002b 00000000 		.4byte	0
 3553 002f 00000000 		.4byte	0
 3554              	.LLST2:
 3555 0033 00000000 		.4byte	.LFB184
 3556 0037 04000000 		.4byte	.LCFI1
 3557 003b 0200     		.2byte	0x2
 3558 003d 7D       		.byte	0x7d
 3559 003e 00       		.sleb128 0
 3560 003f 04000000 		.4byte	.LCFI1
 3561 0043 2C000000 		.4byte	.LFE184
 3562 0047 0200     		.2byte	0x2
 3563 0049 7D       		.byte	0x7d
 3564 004a 08       		.sleb128 8
 3565 004b 00000000 		.4byte	0
 3566 004f 00000000 		.4byte	0
 3567              	.LLST3:
 3568 0053 00000000 		.4byte	.LVL3
 3569 0057 10000000 		.4byte	.LVL4
 3570 005b 0100     		.2byte	0x1
 3571 005d 50       		.byte	0x50
 3572 005e 10000000 		.4byte	.LVL4
ARM GAS  /tmp/cca9OIta.s 			page 64


 3573 0062 2C000000 		.4byte	.LFE184
 3574 0066 0100     		.2byte	0x1
 3575 0068 54       		.byte	0x54
 3576 0069 00000000 		.4byte	0
 3577 006d 00000000 		.4byte	0
 3578              	.LLST4:
 3579 0071 00000000 		.4byte	.LFB183
 3580 0075 02000000 		.4byte	.LCFI2
 3581 0079 0200     		.2byte	0x2
 3582 007b 7D       		.byte	0x7d
 3583 007c 00       		.sleb128 0
 3584 007d 02000000 		.4byte	.LCFI2
 3585 0081 18000000 		.4byte	.LFE183
 3586 0085 0200     		.2byte	0x2
 3587 0087 7D       		.byte	0x7d
 3588 0088 08       		.sleb128 8
 3589 0089 00000000 		.4byte	0
 3590 008d 00000000 		.4byte	0
 3591              	.LLST5:
 3592 0091 00000000 		.4byte	.LVL5
 3593 0095 0B000000 		.4byte	.LVL6-1
 3594 0099 0100     		.2byte	0x1
 3595 009b 50       		.byte	0x50
 3596 009c 00000000 		.4byte	0
 3597 00a0 00000000 		.4byte	0
 3598              	.LLST6:
 3599 00a4 00000000 		.4byte	.LFB186
 3600 00a8 04000000 		.4byte	.LCFI3
 3601 00ac 0200     		.2byte	0x2
 3602 00ae 7D       		.byte	0x7d
 3603 00af 00       		.sleb128 0
 3604 00b0 04000000 		.4byte	.LCFI3
 3605 00b4 68000000 		.4byte	.LFE186
 3606 00b8 0200     		.2byte	0x2
 3607 00ba 7D       		.byte	0x7d
 3608 00bb 18       		.sleb128 24
 3609 00bc 00000000 		.4byte	0
 3610 00c0 00000000 		.4byte	0
 3611              	.LLST7:
 3612 00c4 00000000 		.4byte	.LVL8
 3613 00c8 0E000000 		.4byte	.LVL9
 3614 00cc 0100     		.2byte	0x1
 3615 00ce 50       		.byte	0x50
 3616 00cf 0E000000 		.4byte	.LVL9
 3617 00d3 68000000 		.4byte	.LFE186
 3618 00d7 0100     		.2byte	0x1
 3619 00d9 54       		.byte	0x54
 3620 00da 00000000 		.4byte	0
 3621 00de 00000000 		.4byte	0
 3622              	.LLST8:
 3623 00e2 00000000 		.4byte	.LVL8
 3624 00e6 0E000000 		.4byte	.LVL9
 3625 00ea 0100     		.2byte	0x1
 3626 00ec 51       		.byte	0x51
 3627 00ed 0E000000 		.4byte	.LVL9
 3628 00f1 4C000000 		.4byte	.LVL14
 3629 00f5 0100     		.2byte	0x1
ARM GAS  /tmp/cca9OIta.s 			page 65


 3630 00f7 55       		.byte	0x55
 3631 00f8 4C000000 		.4byte	.LVL14
 3632 00fc 5D000000 		.4byte	.LVL15-1
 3633 0100 0300     		.2byte	0x3
 3634 0102 74       		.byte	0x74
 3635 0103 08       		.sleb128 8
 3636 0104 06       		.byte	0x6
 3637 0105 00000000 		.4byte	0
 3638 0109 00000000 		.4byte	0
 3639              	.LLST9:
 3640 010d 00000000 		.4byte	.LVL8
 3641 0111 0E000000 		.4byte	.LVL9
 3642 0115 0100     		.2byte	0x1
 3643 0117 52       		.byte	0x52
 3644 0118 00000000 		.4byte	0
 3645 011c 00000000 		.4byte	0
 3646              	.LLST10:
 3647 0120 30000000 		.4byte	.LVL11
 3648 0124 38000000 		.4byte	.LVL12
 3649 0128 0100     		.2byte	0x1
 3650 012a 50       		.byte	0x50
 3651 012b 00000000 		.4byte	0
 3652 012f 00000000 		.4byte	0
 3653              	.LLST11:
 3654 0133 16000000 		.4byte	.LVL10
 3655 0137 38000000 		.4byte	.LVL12
 3656 013b 0100     		.2byte	0x1
 3657 013d 54       		.byte	0x54
 3658 013e 40000000 		.4byte	.LVL13
 3659 0142 68000000 		.4byte	.LFE186
 3660 0146 0100     		.2byte	0x1
 3661 0148 54       		.byte	0x54
 3662 0149 00000000 		.4byte	0
 3663 014d 00000000 		.4byte	0
 3664              	.LLST12:
 3665 0151 00000000 		.4byte	.LFB185
 3666 0155 02000000 		.4byte	.LCFI4
 3667 0159 0200     		.2byte	0x2
 3668 015b 7D       		.byte	0x7d
 3669 015c 00       		.sleb128 0
 3670 015d 02000000 		.4byte	.LCFI4
 3671 0161 14000000 		.4byte	.LFE185
 3672 0165 0200     		.2byte	0x2
 3673 0167 7D       		.byte	0x7d
 3674 0168 08       		.sleb128 8
 3675 0169 00000000 		.4byte	0
 3676 016d 00000000 		.4byte	0
 3677              	.LLST13:
 3678 0171 00000000 		.4byte	.LVL16
 3679 0175 0B000000 		.4byte	.LVL17-1
 3680 0179 0100     		.2byte	0x1
 3681 017b 50       		.byte	0x50
 3682 017c 00000000 		.4byte	0
 3683 0180 00000000 		.4byte	0
 3684              	.LLST14:
 3685 0184 00000000 		.4byte	.LVL16
 3686 0188 0B000000 		.4byte	.LVL17-1
ARM GAS  /tmp/cca9OIta.s 			page 66


 3687 018c 0100     		.2byte	0x1
 3688 018e 51       		.byte	0x51
 3689 018f 00000000 		.4byte	0
 3690 0193 00000000 		.4byte	0
 3691              	.LLST15:
 3692 0197 00000000 		.4byte	.LVL16
 3693 019b 0B000000 		.4byte	.LVL17-1
 3694 019f 0100     		.2byte	0x1
 3695 01a1 52       		.byte	0x52
 3696 01a2 00000000 		.4byte	0
 3697 01a6 00000000 		.4byte	0
 3698              	.LLST16:
 3699 01aa 00000000 		.4byte	.LFB187
 3700 01ae 02000000 		.4byte	.LCFI5
 3701 01b2 0200     		.2byte	0x2
 3702 01b4 7D       		.byte	0x7d
 3703 01b5 00       		.sleb128 0
 3704 01b6 02000000 		.4byte	.LCFI5
 3705 01ba 46000000 		.4byte	.LFE187
 3706 01be 0200     		.2byte	0x2
 3707 01c0 7D       		.byte	0x7d
 3708 01c1 10       		.sleb128 16
 3709 01c2 00000000 		.4byte	0
 3710 01c6 00000000 		.4byte	0
 3711              	.LLST17:
 3712 01ca 00000000 		.4byte	.LVL18
 3713 01ce 0E000000 		.4byte	.LVL20
 3714 01d2 0100     		.2byte	0x1
 3715 01d4 50       		.byte	0x50
 3716 01d5 0E000000 		.4byte	.LVL20
 3717 01d9 35000000 		.4byte	.LVL22-1
 3718 01dd 0100     		.2byte	0x1
 3719 01df 53       		.byte	0x53
 3720 01e0 3A000000 		.4byte	.LVL23
 3721 01e4 3E000000 		.4byte	.LVL24
 3722 01e8 0100     		.2byte	0x1
 3723 01ea 50       		.byte	0x50
 3724 01eb 3E000000 		.4byte	.LVL24
 3725 01ef 46000000 		.4byte	.LFE187
 3726 01f3 0100     		.2byte	0x1
 3727 01f5 53       		.byte	0x53
 3728 01f6 00000000 		.4byte	0
 3729 01fa 00000000 		.4byte	0
 3730              	.LLST18:
 3731 01fe 00000000 		.4byte	.LVL18
 3732 0202 24000000 		.4byte	.LVL21
 3733 0206 0100     		.2byte	0x1
 3734 0208 51       		.byte	0x51
 3735 0209 24000000 		.4byte	.LVL21
 3736 020d 35000000 		.4byte	.LVL22-1
 3737 0211 0300     		.2byte	0x3
 3738 0213 73       		.byte	0x73
 3739 0214 08       		.sleb128 8
 3740 0215 06       		.byte	0x6
 3741 0216 3A000000 		.4byte	.LVL23
 3742 021a 46000000 		.4byte	.LFE187
 3743 021e 0100     		.2byte	0x1
ARM GAS  /tmp/cca9OIta.s 			page 67


 3744 0220 51       		.byte	0x51
 3745 0221 00000000 		.4byte	0
 3746 0225 00000000 		.4byte	0
 3747              	.LLST19:
 3748 0229 08000000 		.4byte	.LVL19
 3749 022d 0E000000 		.4byte	.LVL20
 3750 0231 0100     		.2byte	0x1
 3751 0233 50       		.byte	0x50
 3752 0234 0E000000 		.4byte	.LVL20
 3753 0238 35000000 		.4byte	.LVL22-1
 3754 023c 0100     		.2byte	0x1
 3755 023e 53       		.byte	0x53
 3756 023f 40000000 		.4byte	.LVL25
 3757 0243 46000000 		.4byte	.LFE187
 3758 0247 0100     		.2byte	0x1
 3759 0249 53       		.byte	0x53
 3760 024a 00000000 		.4byte	0
 3761 024e 00000000 		.4byte	0
 3762              	.LLST20:
 3763 0252 00000000 		.4byte	.LFB189
 3764 0256 02000000 		.4byte	.LCFI6
 3765 025a 0200     		.2byte	0x2
 3766 025c 7D       		.byte	0x7d
 3767 025d 00       		.sleb128 0
 3768 025e 02000000 		.4byte	.LCFI6
 3769 0262 62000000 		.4byte	.LFE189
 3770 0266 0200     		.2byte	0x2
 3771 0268 7D       		.byte	0x7d
 3772 0269 18       		.sleb128 24
 3773 026a 00000000 		.4byte	0
 3774 026e 00000000 		.4byte	0
 3775              	.LLST21:
 3776 0272 00000000 		.4byte	.LVL26
 3777 0276 0C000000 		.4byte	.LVL27
 3778 027a 0100     		.2byte	0x1
 3779 027c 50       		.byte	0x50
 3780 027d 0C000000 		.4byte	.LVL27
 3781 0281 62000000 		.4byte	.LFE189
 3782 0285 0100     		.2byte	0x1
 3783 0287 54       		.byte	0x54
 3784 0288 00000000 		.4byte	0
 3785 028c 00000000 		.4byte	0
 3786              	.LLST22:
 3787 0290 00000000 		.4byte	.LVL26
 3788 0294 0C000000 		.4byte	.LVL27
 3789 0298 0100     		.2byte	0x1
 3790 029a 51       		.byte	0x51
 3791 029b 0C000000 		.4byte	.LVL27
 3792 029f 62000000 		.4byte	.LFE189
 3793 02a3 0100     		.2byte	0x1
 3794 02a5 55       		.byte	0x55
 3795 02a6 00000000 		.4byte	0
 3796 02aa 00000000 		.4byte	0
 3797              	.LLST23:
 3798 02ae 00000000 		.4byte	.LVL26
 3799 02b2 0C000000 		.4byte	.LVL27
 3800 02b6 0100     		.2byte	0x1
ARM GAS  /tmp/cca9OIta.s 			page 68


 3801 02b8 52       		.byte	0x52
 3802 02b9 00000000 		.4byte	0
 3803 02bd 00000000 		.4byte	0
 3804              	.LLST24:
 3805 02c1 2E000000 		.4byte	.LVL29
 3806 02c5 34000000 		.4byte	.LVL30
 3807 02c9 0100     		.2byte	0x1
 3808 02cb 50       		.byte	0x50
 3809 02cc 00000000 		.4byte	0
 3810 02d0 00000000 		.4byte	0
 3811              	.LLST25:
 3812 02d4 14000000 		.4byte	.LVL28
 3813 02d8 34000000 		.4byte	.LVL30
 3814 02dc 0100     		.2byte	0x1
 3815 02de 54       		.byte	0x54
 3816 02df 3A000000 		.4byte	.LVL31
 3817 02e3 62000000 		.4byte	.LFE189
 3818 02e7 0100     		.2byte	0x1
 3819 02e9 54       		.byte	0x54
 3820 02ea 00000000 		.4byte	0
 3821 02ee 00000000 		.4byte	0
 3822              	.LLST26:
 3823 02f2 00000000 		.4byte	.LFB188
 3824 02f6 02000000 		.4byte	.LCFI7
 3825 02fa 0200     		.2byte	0x2
 3826 02fc 7D       		.byte	0x7d
 3827 02fd 00       		.sleb128 0
 3828 02fe 02000000 		.4byte	.LCFI7
 3829 0302 14000000 		.4byte	.LFE188
 3830 0306 0200     		.2byte	0x2
 3831 0308 7D       		.byte	0x7d
 3832 0309 08       		.sleb128 8
 3833 030a 00000000 		.4byte	0
 3834 030e 00000000 		.4byte	0
 3835              	.LLST27:
 3836 0312 00000000 		.4byte	.LVL32
 3837 0316 0B000000 		.4byte	.LVL33-1
 3838 031a 0100     		.2byte	0x1
 3839 031c 50       		.byte	0x50
 3840 031d 00000000 		.4byte	0
 3841 0321 00000000 		.4byte	0
 3842              	.LLST28:
 3843 0325 00000000 		.4byte	.LVL32
 3844 0329 0B000000 		.4byte	.LVL33-1
 3845 032d 0100     		.2byte	0x1
 3846 032f 51       		.byte	0x51
 3847 0330 00000000 		.4byte	0
 3848 0334 00000000 		.4byte	0
 3849              	.LLST29:
 3850 0338 00000000 		.4byte	.LVL32
 3851 033c 0B000000 		.4byte	.LVL33-1
 3852 0340 0100     		.2byte	0x1
 3853 0342 52       		.byte	0x52
 3854 0343 00000000 		.4byte	0
 3855 0347 00000000 		.4byte	0
 3856              	.LLST30:
 3857 034b 00000000 		.4byte	.LFB190
ARM GAS  /tmp/cca9OIta.s 			page 69


 3858 034f 04000000 		.4byte	.LCFI8
 3859 0353 0200     		.2byte	0x2
 3860 0355 7D       		.byte	0x7d
 3861 0356 00       		.sleb128 0
 3862 0357 04000000 		.4byte	.LCFI8
 3863 035b 48000000 		.4byte	.LFE190
 3864 035f 0200     		.2byte	0x2
 3865 0361 7D       		.byte	0x7d
 3866 0362 10       		.sleb128 16
 3867 0363 00000000 		.4byte	0
 3868 0367 00000000 		.4byte	0
 3869              	.LLST31:
 3870 036b 00000000 		.4byte	.LVL34
 3871 036f 0C000000 		.4byte	.LVL36
 3872 0373 0100     		.2byte	0x1
 3873 0375 50       		.byte	0x50
 3874 0376 0C000000 		.4byte	.LVL36
 3875 037a 37000000 		.4byte	.LVL38-1
 3876 037e 0100     		.2byte	0x1
 3877 0380 53       		.byte	0x53
 3878 0381 3C000000 		.4byte	.LVL39
 3879 0385 40000000 		.4byte	.LVL40
 3880 0389 0100     		.2byte	0x1
 3881 038b 50       		.byte	0x50
 3882 038c 40000000 		.4byte	.LVL40
 3883 0390 48000000 		.4byte	.LFE190
 3884 0394 0100     		.2byte	0x1
 3885 0396 53       		.byte	0x53
 3886 0397 00000000 		.4byte	0
 3887 039b 00000000 		.4byte	0
 3888              	.LLST32:
 3889 039f 00000000 		.4byte	.LVL34
 3890 03a3 30000000 		.4byte	.LVL37
 3891 03a7 0100     		.2byte	0x1
 3892 03a9 51       		.byte	0x51
 3893 03aa 30000000 		.4byte	.LVL37
 3894 03ae 37000000 		.4byte	.LVL38-1
 3895 03b2 0200     		.2byte	0x2
 3896 03b4 74       		.byte	0x74
 3897 03b5 00       		.sleb128 0
 3898 03b6 3C000000 		.4byte	.LVL39
 3899 03ba 48000000 		.4byte	.LFE190
 3900 03be 0100     		.2byte	0x1
 3901 03c0 51       		.byte	0x51
 3902 03c1 00000000 		.4byte	0
 3903 03c5 00000000 		.4byte	0
 3904              	.LLST33:
 3905 03c9 08000000 		.4byte	.LVL35
 3906 03cd 0C000000 		.4byte	.LVL36
 3907 03d1 0100     		.2byte	0x1
 3908 03d3 50       		.byte	0x50
 3909 03d4 0C000000 		.4byte	.LVL36
 3910 03d8 37000000 		.4byte	.LVL38-1
 3911 03dc 0100     		.2byte	0x1
 3912 03de 53       		.byte	0x53
 3913 03df 42000000 		.4byte	.LVL41
 3914 03e3 48000000 		.4byte	.LFE190
ARM GAS  /tmp/cca9OIta.s 			page 70


 3915 03e7 0100     		.2byte	0x1
 3916 03e9 53       		.byte	0x53
 3917 03ea 00000000 		.4byte	0
 3918 03ee 00000000 		.4byte	0
 3919              	.LLST34:
 3920 03f2 00000000 		.4byte	.LFB192
 3921 03f6 02000000 		.4byte	.LCFI9
 3922 03fa 0200     		.2byte	0x2
 3923 03fc 7D       		.byte	0x7d
 3924 03fd 00       		.sleb128 0
 3925 03fe 02000000 		.4byte	.LCFI9
 3926 0402 56000000 		.4byte	.LFE192
 3927 0406 0200     		.2byte	0x2
 3928 0408 7D       		.byte	0x7d
 3929 0409 18       		.sleb128 24
 3930 040a 00000000 		.4byte	0
 3931 040e 00000000 		.4byte	0
 3932              	.LLST35:
 3933 0412 00000000 		.4byte	.LVL42
 3934 0416 0C000000 		.4byte	.LVL43
 3935 041a 0100     		.2byte	0x1
 3936 041c 50       		.byte	0x50
 3937 041d 0C000000 		.4byte	.LVL43
 3938 0421 56000000 		.4byte	.LFE192
 3939 0425 0100     		.2byte	0x1
 3940 0427 54       		.byte	0x54
 3941 0428 00000000 		.4byte	0
 3942 042c 00000000 		.4byte	0
 3943              	.LLST36:
 3944 0430 00000000 		.4byte	.LVL42
 3945 0434 0C000000 		.4byte	.LVL43
 3946 0438 0100     		.2byte	0x1
 3947 043a 51       		.byte	0x51
 3948 043b 0C000000 		.4byte	.LVL43
 3949 043f 56000000 		.4byte	.LFE192
 3950 0443 0100     		.2byte	0x1
 3951 0445 55       		.byte	0x55
 3952 0446 00000000 		.4byte	0
 3953 044a 00000000 		.4byte	0
 3954              	.LLST37:
 3955 044e 00000000 		.4byte	.LVL42
 3956 0452 0C000000 		.4byte	.LVL43
 3957 0456 0100     		.2byte	0x1
 3958 0458 52       		.byte	0x52
 3959 0459 00000000 		.4byte	0
 3960 045d 00000000 		.4byte	0
 3961              	.LLST38:
 3962 0461 1E000000 		.4byte	.LVL44
 3963 0465 24000000 		.4byte	.LVL45
 3964 0469 0100     		.2byte	0x1
 3965 046b 50       		.byte	0x50
 3966 046c 00000000 		.4byte	0
 3967 0470 00000000 		.4byte	0
 3968              	.LLST39:
 3969 0474 00000000 		.4byte	.LFB191
 3970 0478 02000000 		.4byte	.LCFI10
 3971 047c 0200     		.2byte	0x2
ARM GAS  /tmp/cca9OIta.s 			page 71


 3972 047e 7D       		.byte	0x7d
 3973 047f 00       		.sleb128 0
 3974 0480 02000000 		.4byte	.LCFI10
 3975 0484 14000000 		.4byte	.LFE191
 3976 0488 0200     		.2byte	0x2
 3977 048a 7D       		.byte	0x7d
 3978 048b 08       		.sleb128 8
 3979 048c 00000000 		.4byte	0
 3980 0490 00000000 		.4byte	0
 3981              	.LLST40:
 3982 0494 00000000 		.4byte	.LVL46
 3983 0498 0B000000 		.4byte	.LVL47-1
 3984 049c 0100     		.2byte	0x1
 3985 049e 50       		.byte	0x50
 3986 049f 00000000 		.4byte	0
 3987 04a3 00000000 		.4byte	0
 3988              	.LLST41:
 3989 04a7 00000000 		.4byte	.LVL46
 3990 04ab 0B000000 		.4byte	.LVL47-1
 3991 04af 0100     		.2byte	0x1
 3992 04b1 51       		.byte	0x51
 3993 04b2 00000000 		.4byte	0
 3994 04b6 00000000 		.4byte	0
 3995              	.LLST42:
 3996 04ba 00000000 		.4byte	.LVL46
 3997 04be 0B000000 		.4byte	.LVL47-1
 3998 04c2 0100     		.2byte	0x1
 3999 04c4 52       		.byte	0x52
 4000 04c5 00000000 		.4byte	0
 4001 04c9 00000000 		.4byte	0
 4002              	.LLST43:
 4003 04cd 00000000 		.4byte	.LFB193
 4004 04d1 04000000 		.4byte	.LCFI11
 4005 04d5 0200     		.2byte	0x2
 4006 04d7 7D       		.byte	0x7d
 4007 04d8 00       		.sleb128 0
 4008 04d9 04000000 		.4byte	.LCFI11
 4009 04dd 44000000 		.4byte	.LFE193
 4010 04e1 0200     		.2byte	0x2
 4011 04e3 7D       		.byte	0x7d
 4012 04e4 08       		.sleb128 8
 4013 04e5 00000000 		.4byte	0
 4014 04e9 00000000 		.4byte	0
 4015              	.LLST44:
 4016 04ed 00000000 		.4byte	.LVL48
 4017 04f1 12000000 		.4byte	.LVL49
 4018 04f5 0100     		.2byte	0x1
 4019 04f7 50       		.byte	0x50
 4020 04f8 12000000 		.4byte	.LVL49
 4021 04fc 33000000 		.4byte	.LVL51-1
 4022 0500 0100     		.2byte	0x1
 4023 0502 53       		.byte	0x53
 4024 0503 38000000 		.4byte	.LVL52
 4025 0507 3C000000 		.4byte	.LVL53
 4026 050b 0100     		.2byte	0x1
 4027 050d 50       		.byte	0x50
 4028 050e 3C000000 		.4byte	.LVL53
ARM GAS  /tmp/cca9OIta.s 			page 72


 4029 0512 44000000 		.4byte	.LFE193
 4030 0516 0100     		.2byte	0x1
 4031 0518 53       		.byte	0x53
 4032 0519 00000000 		.4byte	0
 4033 051d 00000000 		.4byte	0
 4034              	.LLST45:
 4035 0521 00000000 		.4byte	.LVL48
 4036 0525 2C000000 		.4byte	.LVL50
 4037 0529 0100     		.2byte	0x1
 4038 052b 51       		.byte	0x51
 4039 052c 38000000 		.4byte	.LVL52
 4040 0530 44000000 		.4byte	.LFE193
 4041 0534 0100     		.2byte	0x1
 4042 0536 51       		.byte	0x51
 4043 0537 00000000 		.4byte	0
 4044 053b 00000000 		.4byte	0
 4045              		.section	.debug_aranges,"",%progbits
 4046 0000 74000000 		.4byte	0x74
 4047 0004 0200     		.2byte	0x2
 4048 0006 00000000 		.4byte	.Ldebug_info0
 4049 000a 04       		.byte	0x4
 4050 000b 00       		.byte	0
 4051 000c 0000     		.2byte	0
 4052 000e 0000     		.2byte	0
 4053 0010 00000000 		.4byte	.LFB182
 4054 0014 28000000 		.4byte	.LFE182-.LFB182
 4055 0018 00000000 		.4byte	.LFB184
 4056 001c 2C000000 		.4byte	.LFE184-.LFB184
 4057 0020 00000000 		.4byte	.LFB183
 4058 0024 18000000 		.4byte	.LFE183-.LFB183
 4059 0028 00000000 		.4byte	.LFB186
 4060 002c 68000000 		.4byte	.LFE186-.LFB186
 4061 0030 00000000 		.4byte	.LFB185
 4062 0034 14000000 		.4byte	.LFE185-.LFB185
 4063 0038 00000000 		.4byte	.LFB187
 4064 003c 46000000 		.4byte	.LFE187-.LFB187
 4065 0040 00000000 		.4byte	.LFB189
 4066 0044 62000000 		.4byte	.LFE189-.LFB189
 4067 0048 00000000 		.4byte	.LFB188
 4068 004c 14000000 		.4byte	.LFE188-.LFB188
 4069 0050 00000000 		.4byte	.LFB190
 4070 0054 48000000 		.4byte	.LFE190-.LFB190
 4071 0058 00000000 		.4byte	.LFB192
 4072 005c 56000000 		.4byte	.LFE192-.LFB192
 4073 0060 00000000 		.4byte	.LFB191
 4074 0064 14000000 		.4byte	.LFE191-.LFB191
 4075 0068 00000000 		.4byte	.LFB193
 4076 006c 44000000 		.4byte	.LFE193-.LFB193
 4077 0070 00000000 		.4byte	0
 4078 0074 00000000 		.4byte	0
 4079              		.section	.debug_ranges,"",%progbits
 4080              	.Ldebug_ranges0:
 4081 0000 00000000 		.4byte	.LFB182
 4082 0004 28000000 		.4byte	.LFE182
 4083 0008 00000000 		.4byte	.LFB184
 4084 000c 2C000000 		.4byte	.LFE184
 4085 0010 00000000 		.4byte	.LFB183
ARM GAS  /tmp/cca9OIta.s 			page 73


 4086 0014 18000000 		.4byte	.LFE183
 4087 0018 00000000 		.4byte	.LFB186
 4088 001c 68000000 		.4byte	.LFE186
 4089 0020 00000000 		.4byte	.LFB185
 4090 0024 14000000 		.4byte	.LFE185
 4091 0028 00000000 		.4byte	.LFB187
 4092 002c 46000000 		.4byte	.LFE187
 4093 0030 00000000 		.4byte	.LFB189
 4094 0034 62000000 		.4byte	.LFE189
 4095 0038 00000000 		.4byte	.LFB188
 4096 003c 14000000 		.4byte	.LFE188
 4097 0040 00000000 		.4byte	.LFB190
 4098 0044 48000000 		.4byte	.LFE190
 4099 0048 00000000 		.4byte	.LFB192
 4100 004c 56000000 		.4byte	.LFE192
 4101 0050 00000000 		.4byte	.LFB191
 4102 0054 14000000 		.4byte	.LFE191
 4103 0058 00000000 		.4byte	.LFB193
 4104 005c 44000000 		.4byte	.LFE193
 4105 0060 00000000 		.4byte	0
 4106 0064 00000000 		.4byte	0
 4107              		.section	.debug_line,"",%progbits
 4108              	.Ldebug_line0:
 4109 0000 F7040000 		.section	.debug_str,"MS",%progbits,1
 4109      02009802 
 4109      00000201 
 4109      FB0E0D00 
 4109      01010101 
 4110              	.LASF44:
 4111 0000 63685F74 		.ascii	"ch_threads_list\000"
 4111      68726561 
 4111      64735F6C 
 4111      69737400 
 4112              	.LASF45:
 4113 0010 74687265 		.ascii	"threads_queue_t\000"
 4113      6164735F 
 4113      71756575 
 4113      655F7400 
 4114              	.LASF34:
 4115 0020 705F7761 		.ascii	"p_waiting\000"
 4115      6974696E 
 4115      6700
 4116              	.LASF86:
 4117 002a 77746D74 		.ascii	"wtmtxp\000"
 4117      787000
 4118              	.LASF135:
 4119 0031 2E2E2F2E 		.ascii	"../../../resources/chibios/ChibiOS_16.1.8/os/rt/src"
 4119      2E2F2E2E 
 4119      2F726573 
 4119      6F757263 
 4119      65732F63 
 4120 0064 2F63686D 		.ascii	"/chmboxes.c\000"
 4120      626F7865 
 4120      732E6300 
 4121              	.LASF80:
 4122 0070 746D5F63 		.ascii	"tm_calibration_t\000"
 4122      616C6962 
ARM GAS  /tmp/cca9OIta.s 			page 74


 4122      72617469 
 4122      6F6E5F74 
 4122      00
 4123              	.LASF95:
 4124 0081 63686172 		.ascii	"char\000"
 4124      00
 4125              	.LASF75:
 4126 0086 72656761 		.ascii	"regarm_t\000"
 4126      726D5F74 
 4126      00
 4127              	.LASF26:
 4128 008f 705F7072 		.ascii	"p_prio\000"
 4128      696F00
 4129              	.LASF22:
 4130 0096 73797374 		.ascii	"systime_t\000"
 4130      696D655F 
 4130      7400
 4131              	.LASF93:
 4132 00a0 6D5F6F77 		.ascii	"m_owner\000"
 4132      6E657200 
 4133              	.LASF89:
 4134 00a8 735F7175 		.ascii	"s_queue\000"
 4134      65756500 
 4135              	.LASF35:
 4136 00b0 705F6D73 		.ascii	"p_msgqueue\000"
 4136      67717565 
 4136      756500
 4137              	.LASF0:
 4138 00bb 756E7369 		.ascii	"unsigned int\000"
 4138      676E6564 
 4138      20696E74 
 4138      00
 4139              	.LASF42:
 4140 00c8 74687265 		.ascii	"threads_list_t\000"
 4140      6164735F 
 4140      6C697374 
 4140      5F7400
 4141              	.LASF83:
 4142 00d7 77746F62 		.ascii	"wtobjp\000"
 4142      6A7000
 4143              	.LASF107:
 4144 00de 706F7274 		.ascii	"port_lock\000"
 4144      5F6C6F63 
 4144      6B00
 4145              	.LASF72:
 4146 00e8 76746C69 		.ascii	"vtlist\000"
 4146      737400
 4147              	.LASF48:
 4148 00ef 63685F72 		.ascii	"ch_ready_list\000"
 4148      65616479 
 4148      5F6C6973 
 4148      7400
 4149              	.LASF102:
 4150 00fd 6D625F72 		.ascii	"mb_reset\000"
 4150      65736574 
 4150      00
 4151              	.LASF74:
ARM GAS  /tmp/cca9OIta.s 			page 75


 4152 0106 69646C65 		.ascii	"idle_thread_wa\000"
 4152      5F746872 
 4152      6561645F 
 4152      776100
 4153              	.LASF114:
 4154 0115 63685468 		.ascii	"chThdQueueObjectInit\000"
 4154      64517565 
 4154      75654F62 
 4154      6A656374 
 4154      496E6974 
 4155              	.LASF87:
 4156 012a 65776D61 		.ascii	"ewmask\000"
 4156      736B00
 4157              	.LASF46:
 4158 0131 63685F74 		.ascii	"ch_threads_queue\000"
 4158      68726561 
 4158      64735F71 
 4158      75657565 
 4158      00
 4159              	.LASF113:
 4160 0142 63684D42 		.ascii	"chMBGetUsedCountI\000"
 4160      47657455 
 4160      73656443 
 4160      6F756E74 
 4160      4900
 4161              	.LASF55:
 4162 0154 76746675 		.ascii	"vtfunc_t\000"
 4162      6E635F74 
 4162      00
 4163              	.LASF90:
 4164 015d 735F636E 		.ascii	"s_cnt\000"
 4164      7400
 4165              	.LASF67:
 4166 0163 63685F73 		.ascii	"ch_system_debug\000"
 4166      79737465 
 4166      6D5F6465 
 4166      62756700 
 4167              	.LASF112:
 4168 0173 63684D42 		.ascii	"chMBGetSizeI\000"
 4168      47657453 
 4168      697A6549 
 4168      00
 4169              	.LASF121:
 4170 0180 63684D42 		.ascii	"chMBReset\000"
 4170      52657365 
 4170      7400
 4171              	.LASF9:
 4172 018a 75696E74 		.ascii	"uint32_t\000"
 4172      33325F74 
 4172      00
 4173              	.LASF20:
 4174 0193 6576656E 		.ascii	"eventmask_t\000"
 4174      746D6173 
 4174      6B5F7400 
 4175              	.LASF50:
 4176 019f 725F7072 		.ascii	"r_prio\000"
 4176      696F00
ARM GAS  /tmp/cca9OIta.s 			page 76


 4177              	.LASF62:
 4178 01a6 76745F70 		.ascii	"vt_par\000"
 4178      617200
 4179              	.LASF88:
 4180 01ad 63685F73 		.ascii	"ch_semaphore\000"
 4180      656D6170 
 4180      686F7265 
 4180      00
 4181              	.LASF18:
 4182 01ba 74707269 		.ascii	"tprio_t\000"
 4182      6F5F7400 
 4183              	.LASF57:
 4184 01c2 63685F76 		.ascii	"ch_virtual_timer\000"
 4184      69727475 
 4184      616C5F74 
 4184      696D6572 
 4184      00
 4185              	.LASF13:
 4186 01d3 6C6F6E67 		.ascii	"long long unsigned int\000"
 4186      206C6F6E 
 4186      6720756E 
 4186      7369676E 
 4186      65642069 
 4187              	.LASF21:
 4188 01ea 636E745F 		.ascii	"cnt_t\000"
 4188      7400
 4189              	.LASF116:
 4190 01f0 63685379 		.ascii	"chSysUnlock\000"
 4190      73556E6C 
 4190      6F636B00 
 4191              	.LASF28:
 4192 01fc 705F6E65 		.ascii	"p_newer\000"
 4192      77657200 
 4193              	.LASF111:
 4194 0204 76616C75 		.ascii	"value\000"
 4194      6500
 4195              	.LASF64:
 4196 020a 63685F76 		.ascii	"ch_virtual_timers_list\000"
 4196      69727475 
 4196      616C5F74 
 4196      696D6572 
 4196      735F6C69 
 4197              	.LASF23:
 4198 0221 74687265 		.ascii	"thread_t\000"
 4198      61645F74 
 4198      00
 4199              	.LASF81:
 4200 022a 7264796D 		.ascii	"rdymsg\000"
 4200      736700
 4201              	.LASF79:
 4202 0231 6F666673 		.ascii	"offset\000"
 4202      657400
 4203              	.LASF105:
 4204 0238 5F426F6F 		.ascii	"_Bool\000"
 4204      6C00
 4205              	.LASF100:
 4206 023e 6D625F72 		.ascii	"mb_rdptr\000"
ARM GAS  /tmp/cca9OIta.s 			page 77


 4206      64707472 
 4206      00
 4207              	.LASF128:
 4208 0247 63684D42 		.ascii	"chMBPostAheadI\000"
 4208      506F7374 
 4208      41686561 
 4208      644900
 4209              	.LASF106:
 4210 0256 6D61696C 		.ascii	"mailbox_t\000"
 4210      626F785F 
 4210      7400
 4211              	.LASF126:
 4212 0260 63684D42 		.ascii	"chMBPostAheadS\000"
 4212      506F7374 
 4212      41686561 
 4212      645300
 4213              	.LASF91:
 4214 026f 63685F6D 		.ascii	"ch_mutex\000"
 4214      75746578 
 4214      00
 4215              	.LASF115:
 4216 0278 63685379 		.ascii	"chSysLock\000"
 4216      734C6F63 
 4216      6B00
 4217              	.LASF30:
 4218 0282 705F6E61 		.ascii	"p_name\000"
 4218      6D6500
 4219              	.LASF129:
 4220 0289 63684D42 		.ascii	"chMBFetchS\000"
 4220      46657463 
 4220      685300
 4221              	.LASF60:
 4222 0294 76745F64 		.ascii	"vt_delta\000"
 4222      656C7461 
 4222      00
 4223              	.LASF41:
 4224 029d 74687265 		.ascii	"thread_reference_t\000"
 4224      61645F72 
 4224      65666572 
 4224      656E6365 
 4224      5F7400
 4225              	.LASF65:
 4226 02b0 76745F6C 		.ascii	"vt_lasttime\000"
 4226      61737474 
 4226      696D6500 
 4227              	.LASF16:
 4228 02bc 74737461 		.ascii	"tstate_t\000"
 4228      74655F74 
 4228      00
 4229              	.LASF29:
 4230 02c5 705F6F6C 		.ascii	"p_older\000"
 4230      64657200 
 4231              	.LASF31:
 4232 02cd 705F7374 		.ascii	"p_state\000"
 4232      61746500 
 4233              	.LASF4:
 4234 02d5 75696E74 		.ascii	"uint8_t\000"
ARM GAS  /tmp/cca9OIta.s 			page 78


 4234      385F7400 
 4235              	.LASF40:
 4236 02dd 705F6D70 		.ascii	"p_mpool\000"
 4236      6F6F6C00 
 4237              	.LASF38:
 4238 02e5 705F6D74 		.ascii	"p_mtxlist\000"
 4238      786C6973 
 4238      7400
 4239              	.LASF43:
 4240 02ef 63685F74 		.ascii	"ch_thread\000"
 4240      68726561 
 4240      6400
 4241              	.LASF66:
 4242 02f9 73797374 		.ascii	"system_debug_t\000"
 4242      656D5F64 
 4242      65627567 
 4242      5F7400
 4243              	.LASF11:
 4244 0308 6C6F6E67 		.ascii	"long long int\000"
 4244      206C6F6E 
 4244      6720696E 
 4244      7400
 4245              	.LASF118:
 4246 0316 63684D42 		.ascii	"chMBObjectInit\000"
 4246      4F626A65 
 4246      6374496E 
 4246      697400
 4247              	.LASF49:
 4248 0325 725F7175 		.ascii	"r_queue\000"
 4248      65756500 
 4249              	.LASF52:
 4250 032d 725F6E65 		.ascii	"r_newer\000"
 4250      77657200 
 4251              	.LASF19:
 4252 0335 6D73675F 		.ascii	"msg_t\000"
 4252      7400
 4253              	.LASF77:
 4254 033b 636F6E74 		.ascii	"context\000"
 4254      65787400 
 4255              	.LASF32:
 4256 0343 705F666C 		.ascii	"p_flags\000"
 4256      61677300 
 4257              	.LASF56:
 4258 034b 76697274 		.ascii	"virtual_timer_t\000"
 4258      75616C5F 
 4258      74696D65 
 4258      725F7400 
 4259              	.LASF136:
 4260 035b 2F686F6D 		.ascii	"/home/madog/Documents/proyectos/CYCLE/repos/harvest"
 4260      652F6D61 
 4260      646F672F 
 4260      446F6375 
 4260      6D656E74 
 4261 038e 65722F73 		.ascii	"er/src\000"
 4261      726300
 4262              	.LASF98:
 4263 0395 6D625F74 		.ascii	"mb_top\000"
ARM GAS  /tmp/cca9OIta.s 			page 79


 4263      6F7000
 4264              	.LASF53:
 4265 039c 725F6F6C 		.ascii	"r_older\000"
 4265      64657200 
 4266              	.LASF68:
 4267 03a4 70616E69 		.ascii	"panic_msg\000"
 4267      635F6D73 
 4267      6700
 4268              	.LASF125:
 4269 03ae 63684D42 		.ascii	"chMBPostI\000"
 4269      506F7374 
 4269      4900
 4270              	.LASF132:
 4271 03b8 63684D42 		.ascii	"chMBFetchI\000"
 4271      46657463 
 4271      684900
 4272              	.LASF36:
 4273 03c3 705F6D73 		.ascii	"p_msg\000"
 4273      6700
 4274              	.LASF123:
 4275 03c9 63684D42 		.ascii	"chMBPostS\000"
 4275      506F7374 
 4275      5300
 4276              	.LASF15:
 4277 03d3 746D6F64 		.ascii	"tmode_t\000"
 4277      655F7400 
 4278              	.LASF73:
 4279 03db 6D61696E 		.ascii	"mainthread\000"
 4279      74687265 
 4279      616400
 4280              	.LASF127:
 4281 03e6 63684D42 		.ascii	"chMBPostAhead\000"
 4281      506F7374 
 4281      41686561 
 4281      6400
 4282              	.LASF131:
 4283 03f4 63684D42 		.ascii	"chMBFetch\000"
 4283      46657463 
 4283      6800
 4284              	.LASF5:
 4285 03fe 75696E74 		.ascii	"uint16_t\000"
 4285      31365F74 
 4285      00
 4286              	.LASF14:
 4287 0407 7274636E 		.ascii	"rtcnt_t\000"
 4287      745F7400 
 4288              	.LASF39:
 4289 040f 705F7265 		.ascii	"p_realprio\000"
 4289      616C7072 
 4289      696F00
 4290              	.LASF3:
 4291 041a 73686F72 		.ascii	"short int\000"
 4291      7420696E 
 4291      7400
 4292              	.LASF99:
 4293 0424 6D625F77 		.ascii	"mb_wrptr\000"
 4293      72707472 
ARM GAS  /tmp/cca9OIta.s 			page 80


 4293      00
 4294              	.LASF54:
 4295 042d 725F6375 		.ascii	"r_current\000"
 4295      7272656E 
 4295      7400
 4296              	.LASF37:
 4297 0437 705F6570 		.ascii	"p_epending\000"
 4297      656E6469 
 4297      6E6700
 4298              	.LASF92:
 4299 0442 6D5F7175 		.ascii	"m_queue\000"
 4299      65756500 
 4300              	.LASF8:
 4301 044a 6C6F6E67 		.ascii	"long int\000"
 4301      20696E74 
 4301      00
 4302              	.LASF78:
 4303 0453 706F7274 		.ascii	"port_intctx\000"
 4303      5F696E74 
 4303      63747800 
 4304              	.LASF133:
 4305 045f 49544D5F 		.ascii	"ITM_RxBuffer\000"
 4305      52784275 
 4305      66666572 
 4305      00
 4306              	.LASF70:
 4307 046c 63685F73 		.ascii	"ch_system\000"
 4307      79737465 
 4307      6D00
 4308              	.LASF104:
 4309 0476 6D625F71 		.ascii	"mb_qr\000"
 4309      7200
 4310              	.LASF109:
 4311 047c 5F5F7365 		.ascii	"__set_BASEPRI\000"
 4311      745F4241 
 4311      53455052 
 4311      4900
 4312              	.LASF103:
 4313 048a 6D625F71 		.ascii	"mb_qw\000"
 4313      7700
 4314              	.LASF24:
 4315 0490 705F6E65 		.ascii	"p_next\000"
 4315      787400
 4316              	.LASF12:
 4317 0497 75696E74 		.ascii	"uint64_t\000"
 4317      36345F74 
 4317      00
 4318              	.LASF27:
 4319 04a0 705F6374 		.ascii	"p_ctx\000"
 4319      7800
 4320              	.LASF71:
 4321 04a6 726C6973 		.ascii	"rlist\000"
 4321      7400
 4322              	.LASF101:
 4323 04ac 6D625F63 		.ascii	"mb_cnt\000"
 4323      6E7400
 4324              	.LASF25:
ARM GAS  /tmp/cca9OIta.s 			page 81


 4325 04b3 705F7072 		.ascii	"p_prev\000"
 4325      657600
 4326              	.LASF17:
 4327 04ba 74726566 		.ascii	"trefs_t\000"
 4327      735F7400 
 4328              	.LASF10:
 4329 04c2 6C6F6E67 		.ascii	"long unsigned int\000"
 4329      20756E73 
 4329      69676E65 
 4329      6420696E 
 4329      7400
 4330              	.LASF97:
 4331 04d4 6D625F62 		.ascii	"mb_buffer\000"
 4331      75666665 
 4331      7200
 4332              	.LASF47:
 4333 04de 72656164 		.ascii	"ready_list_t\000"
 4333      795F6C69 
 4333      73745F74 
 4333      00
 4334              	.LASF7:
 4335 04eb 696E7433 		.ascii	"int32_t\000"
 4335      325F7400 
 4336              	.LASF85:
 4337 04f3 77747365 		.ascii	"wtsemp\000"
 4337      6D7000
 4338              	.LASF134:
 4339 04fa 474E5520 		.ascii	"GNU C 4.6.1\000"
 4339      4320342E 
 4339      362E3100 
 4340              	.LASF96:
 4341 0506 6D757465 		.ascii	"mutex_t\000"
 4341      785F7400 
 4342              	.LASF110:
 4343 050e 71756575 		.ascii	"queue_init\000"
 4343      655F696E 
 4343      697400
 4344              	.LASF2:
 4345 0519 756E7369 		.ascii	"unsigned char\000"
 4345      676E6564 
 4345      20636861 
 4345      7200
 4346              	.LASF63:
 4347 0527 76697274 		.ascii	"virtual_timers_list_t\000"
 4347      75616C5F 
 4347      74696D65 
 4347      72735F6C 
 4347      6973745F 
 4348              	.LASF33:
 4349 053d 705F7265 		.ascii	"p_refs\000"
 4349      667300
 4350              	.LASF122:
 4351 0544 74696D65 		.ascii	"timeout\000"
 4351      6F757400 
 4352              	.LASF119:
 4353 054c 63684D42 		.ascii	"chMBResetI\000"
 4353      52657365 
ARM GAS  /tmp/cca9OIta.s 			page 82


 4353      744900
 4354              	.LASF124:
 4355 0557 63684D42 		.ascii	"chMBPost\000"
 4355      506F7374 
 4355      00
 4356              	.LASF58:
 4357 0560 76745F6E 		.ascii	"vt_next\000"
 4357      65787400 
 4358              	.LASF69:
 4359 0568 63685F73 		.ascii	"ch_system_t\000"
 4359      79737465 
 4359      6D5F7400 
 4360              	.LASF84:
 4361 0574 77747472 		.ascii	"wttrp\000"
 4361      7000
 4362              	.LASF94:
 4363 057a 6D5F6E65 		.ascii	"m_next\000"
 4363      787400
 4364              	.LASF1:
 4365 0581 7369676E 		.ascii	"signed char\000"
 4365      65642063 
 4365      68617200 
 4366              	.LASF6:
 4367 058d 73686F72 		.ascii	"short unsigned int\000"
 4367      7420756E 
 4367      7369676E 
 4367      65642069 
 4367      6E7400
 4368              	.LASF51:
 4369 05a0 725F6374 		.ascii	"r_ctx\000"
 4369      7800
 4370              	.LASF76:
 4371 05a6 73746B61 		.ascii	"stkalign_t\000"
 4371      6C69676E 
 4371      5F7400
 4372              	.LASF117:
 4373 05b1 63684D42 		.ascii	"chMBGetFreeCountI\000"
 4373      47657446 
 4373      72656543 
 4373      6F756E74 
 4373      4900
 4374              	.LASF120:
 4375 05c3 5F5F6675 		.ascii	"__func__\000"
 4375      6E635F5F 
 4375      00
 4376              	.LASF130:
 4377 05cc 6D736770 		.ascii	"msgp\000"
 4377      00
 4378              	.LASF61:
 4379 05d1 76745F66 		.ascii	"vt_func\000"
 4379      756E6300 
 4380              	.LASF108:
 4381 05d9 706F7274 		.ascii	"port_unlock\000"
 4381      5F756E6C 
 4381      6F636B00 
 4382              	.LASF59:
 4383 05e5 76745F70 		.ascii	"vt_prev\000"
ARM GAS  /tmp/cca9OIta.s 			page 83


 4383      72657600 
 4384              	.LASF82:
 4385 05ed 65786974 		.ascii	"exitcode\000"
 4385      636F6465 
 4385      00
 4386              		.ident	"GCC: (Sourcery CodeBench Lite 2011.09-69) 4.6.1"
ARM GAS  /tmp/cca9OIta.s 			page 84


DEFINED SYMBOLS
                            *ABS*:00000000 chmboxes.c
     /tmp/cca9OIta.s:19     .text.chMBObjectInit:00000000 $t
     /tmp/cca9OIta.s:25     .text.chMBObjectInit:00000000 chMBObjectInit
     /tmp/cca9OIta.s:89     .text.chMBResetI:00000000 $t
     /tmp/cca9OIta.s:95     .text.chMBResetI:00000000 chMBResetI
     /tmp/cca9OIta.s:141    .text.chMBReset:00000000 $t
     /tmp/cca9OIta.s:147    .text.chMBReset:00000000 chMBReset
     /tmp/cca9OIta.s:202    .text.chMBPostS:00000000 $t
     /tmp/cca9OIta.s:208    .text.chMBPostS:00000000 chMBPostS
     /tmp/cca9OIta.s:309    .text.chMBPost:00000000 $t
     /tmp/cca9OIta.s:315    .text.chMBPost:00000000 chMBPost
     /tmp/cca9OIta.s:366    .text.chMBPostI:00000000 $t
     /tmp/cca9OIta.s:372    .text.chMBPostI:00000000 chMBPostI
     /tmp/cca9OIta.s:454    .text.chMBPostAheadS:00000000 $t
     /tmp/cca9OIta.s:460    .text.chMBPostAheadS:00000000 chMBPostAheadS
     /tmp/cca9OIta.s:560    .text.chMBPostAhead:00000000 $t
     /tmp/cca9OIta.s:566    .text.chMBPostAhead:00000000 chMBPostAhead
     /tmp/cca9OIta.s:617    .text.chMBPostAheadI:00000000 $t
     /tmp/cca9OIta.s:623    .text.chMBPostAheadI:00000000 chMBPostAheadI
     /tmp/cca9OIta.s:709    .text.chMBFetchS:00000000 $t
     /tmp/cca9OIta.s:715    .text.chMBFetchS:00000000 chMBFetchS
     /tmp/cca9OIta.s:800    .text.chMBFetch:00000000 $t
     /tmp/cca9OIta.s:806    .text.chMBFetch:00000000 chMBFetch
     /tmp/cca9OIta.s:857    .text.chMBFetchI:00000000 $t
     /tmp/cca9OIta.s:863    .text.chMBFetchI:00000000 chMBFetchI
                     .debug_frame:00000010 $d

UNDEFINED SYMBOLS
chThdDequeueAllI
chSchRescheduleS
chThdEnqueueTimeoutS
chThdDequeueNextI
