ARM GAS  /tmp/ccGZzdhD.s 			page 1


   1              		.syntax unified
   2              		.cpu cortex-m3
   3              		.fpu softvfp
   4              		.eabi_attribute 20, 1
   5              		.eabi_attribute 21, 1
   6              		.eabi_attribute 23, 3
   7              		.eabi_attribute 24, 1
   8              		.eabi_attribute 25, 1
   9              		.eabi_attribute 26, 1
  10              		.eabi_attribute 30, 2
  11              		.eabi_attribute 34, 1
  12              		.eabi_attribute 18, 4
  13              		.thumb
  14              		.file	"chmempools.c"
  15              		.text
  16              	.Ltext0:
  17              		.cfi_sections	.debug_frame
  18              		.section	.text.chPoolObjectInit,"ax",%progbits
  19              		.align	2
  20              		.p2align 4,,15
  21              		.global	chPoolObjectInit
  22              		.thumb
  23              		.thumb_func
  24              		.type	chPoolObjectInit, %function
  25              	chPoolObjectInit:
  26              	.LFB182:
  27              		.file 1 "../../../resources/chibios/ChibiOS_16.1.8/os/rt/src/chmempools.c"
  28              		.loc 1 75 0
  29              		.cfi_startproc
  30              		@ args = 0, pretend = 0, frame = 0
  31              		@ frame_needed = 0, uses_anonymous_args = 0
  32              		@ link register save eliminated.
  33              	.LVL0:
  34              		.loc 1 79 0
  35 0000 0023     		movs	r3, #0
  36 0002 0360     		str	r3, [r0, #0]
  37              		.loc 1 80 0
  38 0004 4160     		str	r1, [r0, #4]
  39              		.loc 1 81 0
  40 0006 8260     		str	r2, [r0, #8]
  41              		.loc 1 82 0
  42 0008 7047     		bx	lr
  43              		.cfi_endproc
  44              	.LFE182:
  45              		.size	chPoolObjectInit, .-chPoolObjectInit
  46 000a 00BFAFF3 		.section	.text.chPoolLoadArray,"ax",%progbits
  46      0080
  47              		.align	2
  48              		.p2align 4,,15
  49              		.global	chPoolLoadArray
  50              		.thumb
  51              		.thumb_func
  52              		.type	chPoolLoadArray, %function
  53              	chPoolLoadArray:
  54              	.LFB183:
  55              		.loc 1 97 0
  56              		.cfi_startproc
ARM GAS  /tmp/ccGZzdhD.s 			page 2


  57              		@ args = 0, pretend = 0, frame = 0
  58              		@ frame_needed = 0, uses_anonymous_args = 0
  59              		@ link register save eliminated.
  60              	.LVL1:
  61 0000 F0B4     		push	{r4, r5, r6, r7}
  62              	.LCFI0:
  63              		.cfi_def_cfa_offset 16
  64              		.cfi_offset 7, -4
  65              		.cfi_offset 6, -8
  66              		.cfi_offset 5, -12
  67              		.cfi_offset 4, -16
  68              		.loc 1 101 0
  69 0002 002A     		cmp	r2, #0
  70 0004 2FD0     		beq	.L2
  71 0006 013A     		subs	r2, r2, #1
  72              	.LVL2:
  73              	.LBB77:
  74              	.LBB78:
  75              	.LBB79:
  76              	.LBB80:
  77              	.LBB81:
  78              	.LBB82:
  79              		.file 2 "../../../resources/chibios/ChibiOS_16.1.8/os/ext/CMSIS/include/core_cmFunc.h"
  80              		.loc 2 548 0
  81 0008 2026     		movs	r6, #32
  82              	.LBE82:
  83              	.LBE81:
  84              	.LBE80:
  85              	.LBE79:
  86              	.LBB95:
  87              	.LBB96:
  88              	.LBB97:
  89              	.LBB98:
  90              	.LBB99:
  91 000a 0025     		movs	r5, #0
  92 000c 02F00104 		and	r4, r2, #1
  93              	.LVL3:
  94              	.LBE99:
  95              	.LBE98:
  96              	.LBE97:
  97              	.LBE96:
  98              	.LBE95:
  99              	.LBB116:
 100              	.LBB91:
 101              	.LBB87:
 102              	.LBB83:
 103              	@ 548 "../../../resources/chibios/ChibiOS_16.1.8/os/ext/CMSIS/include/core_cmFunc.h" 1
 104 0010 86F31188 		MSR basepri, r6
 105              	@ 0 "" 2
 106              	.LVL4:
 107              		.thumb
 108              	.LBE83:
 109              	.LBE87:
 110              	.LBE91:
 111              	.LBE116:
 112              	.LBB117:
 113              	.LBB118:
ARM GAS  /tmp/ccGZzdhD.s 			page 3


 114              		.loc 1 177 0
 115 0014 0368     		ldr	r3, [r0, #0]
 116 0016 0B60     		str	r3, [r1, #0]
 117              		.loc 1 178 0
 118 0018 0160     		str	r1, [r0, #0]
 119              	.LVL5:
 120              	.LBE118:
 121              	.LBE117:
 122              	.LBB122:
 123              	.LBB112:
 124              	.LBB108:
 125              	.LBB104:
 126              	.LBB100:
 127              		.loc 2 548 0
 128              	@ 548 "../../../resources/chibios/ChibiOS_16.1.8/os/ext/CMSIS/include/core_cmFunc.h" 1
 129 001a 85F31188 		MSR basepri, r5
 130              	@ 0 "" 2
 131              		.thumb
 132              	.LBE100:
 133              	.LBE104:
 134              	.LBE108:
 135              	.LBE112:
 136              	.LBE122:
 137              	.LBE78:
 138              	.LBE77:
 139              		.loc 1 104 0
 140 001e 4368     		ldr	r3, [r0, #4]
 141 0020 C918     		adds	r1, r1, r3
 142              	.LVL6:
 143              		.loc 1 101 0
 144 0022 02B3     		cbz	r2, .L2
 145              	.LVL7:
 146 0024 54B1     		cbz	r4, .L5
 147              	.LVL8:
 148              	.LBB135:
 149              	.LBB132:
 150              	.LBB123:
 151              	.LBB92:
 152              	.LBB88:
 153              	.LBB84:
 154              		.loc 2 548 0
 155              	@ 548 "../../../resources/chibios/ChibiOS_16.1.8/os/ext/CMSIS/include/core_cmFunc.h" 1
 156 0026 86F31188 		MSR basepri, r6
 157              	@ 0 "" 2
 158              	.LVL9:
 159              		.thumb
 160              	.LBE84:
 161              	.LBE88:
 162              	.LBE92:
 163              	.LBE123:
 164              	.LBB124:
 165              	.LBB119:
 166              		.loc 1 177 0
 167 002a 0368     		ldr	r3, [r0, #0]
 168 002c 0B60     		str	r3, [r1, #0]
 169              		.loc 1 178 0
 170 002e 0160     		str	r1, [r0, #0]
ARM GAS  /tmp/ccGZzdhD.s 			page 4


 171              	.LBE119:
 172              	.LBE124:
 173              	.LBB125:
 174              	.LBB113:
 175              	.LBB109:
 176              	.LBB105:
 177              	.LBB101:
 178              		.loc 2 548 0
 179              	@ 548 "../../../resources/chibios/ChibiOS_16.1.8/os/ext/CMSIS/include/core_cmFunc.h" 1
 180 0030 85F31188 		MSR basepri, r5
 181              	@ 0 "" 2
 182              		.thumb
 183              	.LBE101:
 184              	.LBE105:
 185              	.LBE109:
 186              	.LBE113:
 187              	.LBE125:
 188              	.LBE132:
 189              	.LBE135:
 190              		.loc 1 104 0
 191 0034 4368     		ldr	r3, [r0, #4]
 192              		.loc 1 101 0
 193 0036 013A     		subs	r2, r2, #1
 194              	.LVL10:
 195              		.loc 1 104 0
 196 0038 1944     		add	r1, r1, r3
 197              	.LVL11:
 198              		.loc 1 101 0
 199 003a 14D0     		beq	.L2
 200              	.LVL12:
 201              	.L5:
 202              	.LBB136:
 203              	.LBB133:
 204              	.LBB126:
 205              	.LBB93:
 206              	.LBB89:
 207              	.LBB85:
 208              		.loc 2 548 0
 209              	@ 548 "../../../resources/chibios/ChibiOS_16.1.8/os/ext/CMSIS/include/core_cmFunc.h" 1
 210 003c 86F31188 		MSR basepri, r6
 211              	@ 0 "" 2
 212              		.thumb
 213              	.LBE85:
 214              	.LBE89:
 215              	.LBE93:
 216              	.LBE126:
 217              	.LBB127:
 218              	.LBB120:
 219              		.loc 1 177 0
 220 0040 0468     		ldr	r4, [r0, #0]
 221 0042 0C60     		str	r4, [r1, #0]
 222              		.loc 1 178 0
 223 0044 0160     		str	r1, [r0, #0]
 224              	.LBE120:
 225              	.LBE127:
 226              	.LBB128:
 227              	.LBB114:
ARM GAS  /tmp/ccGZzdhD.s 			page 5


 228              	.LBB110:
 229              	.LBB106:
 230              	.LBB102:
 231              		.loc 2 548 0
 232              	@ 548 "../../../resources/chibios/ChibiOS_16.1.8/os/ext/CMSIS/include/core_cmFunc.h" 1
 233 0046 85F31188 		MSR basepri, r5
 234              	@ 0 "" 2
 235              		.thumb
 236              	.LBE102:
 237              	.LBE106:
 238              	.LBE110:
 239              	.LBE114:
 240              	.LBE128:
 241              	.LBE133:
 242              	.LBE136:
 243              		.loc 1 104 0
 244 004a 4468     		ldr	r4, [r0, #4]
 245              		.loc 1 106 0
 246 004c 013A     		subs	r2, r2, #1
 247              		.loc 1 104 0
 248 004e 0B19     		adds	r3, r1, r4
 249              	.LBB137:
 250              	.LBB134:
 251              	.LBB129:
 252              	.LBB94:
 253              	.LBB90:
 254              	.LBB86:
 255              		.loc 2 548 0
 256              	@ 548 "../../../resources/chibios/ChibiOS_16.1.8/os/ext/CMSIS/include/core_cmFunc.h" 1
 257 0050 86F31188 		MSR basepri, r6
 258              	@ 0 "" 2
 259              		.thumb
 260              	.LBE86:
 261              	.LBE90:
 262              	.LBE94:
 263              	.LBE129:
 264              	.LBB130:
 265              	.LBB121:
 266              		.loc 1 177 0
 267 0054 0768     		ldr	r7, [r0, #0]
 268 0056 0F51     		str	r7, [r1, r4]
 269              		.loc 1 178 0
 270 0058 0360     		str	r3, [r0, #0]
 271              	.LBE121:
 272              	.LBE130:
 273              	.LBB131:
 274              	.LBB115:
 275              	.LBB111:
 276              	.LBB107:
 277              	.LBB103:
 278              		.loc 2 548 0
 279              	@ 548 "../../../resources/chibios/ChibiOS_16.1.8/os/ext/CMSIS/include/core_cmFunc.h" 1
 280 005a 85F31188 		MSR basepri, r5
 281              	@ 0 "" 2
 282              		.thumb
 283              	.LBE103:
 284              	.LBE107:
ARM GAS  /tmp/ccGZzdhD.s 			page 6


 285              	.LBE111:
 286              	.LBE115:
 287              	.LBE131:
 288              	.LBE134:
 289              	.LBE137:
 290              		.loc 1 104 0
 291 005e 4168     		ldr	r1, [r0, #4]
 292              		.loc 1 101 0
 293 0060 013A     		subs	r2, r2, #1
 294              		.loc 1 104 0
 295 0062 1944     		add	r1, r3, r1
 296              		.loc 1 101 0
 297 0064 EAD1     		bne	.L5
 298              	.LVL13:
 299              	.L2:
 300              		.loc 1 108 0
 301 0066 F0BC     		pop	{r4, r5, r6, r7}
 302 0068 7047     		bx	lr
 303              		.cfi_endproc
 304              	.LFE183:
 305              		.size	chPoolLoadArray, .-chPoolLoadArray
 306 006a 00BFAFF3 		.section	.text.chPoolAllocI,"ax",%progbits
 306      0080
 307              		.align	2
 308              		.p2align 4,,15
 309              		.global	chPoolAllocI
 310              		.thumb
 311              		.thumb_func
 312              		.type	chPoolAllocI, %function
 313              	chPoolAllocI:
 314              	.LFB184:
 315              		.loc 1 120 0
 316              		.cfi_startproc
 317              		@ args = 0, pretend = 0, frame = 0
 318              		@ frame_needed = 0, uses_anonymous_args = 0
 319              	.LVL14:
 320 0000 0246     		mov	r2, r0
 321              		.loc 1 126 0
 322 0002 0068     		ldr	r0, [r0, #0]
 323              	.LVL15:
 324              		.loc 1 120 0
 325 0004 08B5     		push	{r3, lr}
 326              	.LCFI1:
 327              		.cfi_def_cfa_offset 8
 328              		.cfi_offset 14, -4
 329              		.cfi_offset 3, -8
 330              		.loc 1 128 0
 331 0006 10B1     		cbz	r0, .L14
 332              		.loc 1 129 0
 333 0008 0368     		ldr	r3, [r0, #0]
 334 000a 1360     		str	r3, [r2, #0]
 335 000c 08BD     		pop	{r3, pc}
 336              	.L14:
 337              		.loc 1 131 0
 338 000e 9368     		ldr	r3, [r2, #8]
 339 0010 0BB1     		cbz	r3, .L15
 340              		.loc 1 132 0
ARM GAS  /tmp/ccGZzdhD.s 			page 7


 341 0012 5068     		ldr	r0, [r2, #4]
 342 0014 9847     		blx	r3
 343              	.LVL16:
 344              	.L15:
 345              		.loc 1 137 0
 346 0016 08BD     		pop	{r3, pc}
 347              		.cfi_endproc
 348              	.LFE184:
 349              		.size	chPoolAllocI, .-chPoolAllocI
 350 0018 AFF30080 		.section	.text.chPoolAlloc,"ax",%progbits
 350      AFF30080 
 351              		.align	2
 352              		.p2align 4,,15
 353              		.global	chPoolAlloc
 354              		.thumb
 355              		.thumb_func
 356              		.type	chPoolAlloc, %function
 357              	chPoolAlloc:
 358              	.LFB185:
 359              		.loc 1 149 0
 360              		.cfi_startproc
 361              		@ args = 0, pretend = 0, frame = 0
 362              		@ frame_needed = 0, uses_anonymous_args = 0
 363              	.LVL17:
 364 0000 08B5     		push	{r3, lr}
 365              	.LCFI2:
 366              		.cfi_def_cfa_offset 8
 367              		.cfi_offset 14, -4
 368              		.cfi_offset 3, -8
 369              		.loc 1 149 0
 370 0002 0246     		mov	r2, r0
 371              	.LBB138:
 372              	.LBB139:
 373              	.LBB140:
 374              	.LBB141:
 375              		.loc 2 548 0
 376 0004 2023     		movs	r3, #32
 377              	@ 548 "../../../resources/chibios/ChibiOS_16.1.8/os/ext/CMSIS/include/core_cmFunc.h" 1
 378 0006 83F31188 		MSR basepri, r3
 379              	@ 0 "" 2
 380              	.LVL18:
 381              		.thumb
 382              	.LBE141:
 383              	.LBE140:
 384              	.LBE139:
 385              	.LBE138:
 386              	.LBB142:
 387              	.LBB143:
 388              		.loc 1 126 0
 389 000a 0068     		ldr	r0, [r0, #0]
 390              	.LVL19:
 391              		.loc 1 128 0
 392 000c 28B1     		cbz	r0, .L17
 393              		.loc 1 129 0
 394 000e 0168     		ldr	r1, [r0, #0]
 395 0010 1160     		str	r1, [r2, #0]
 396              	.LVL20:
ARM GAS  /tmp/ccGZzdhD.s 			page 8


 397              	.L18:
 398              	.LBE143:
 399              	.LBE142:
 400              	.LBB145:
 401              	.LBB146:
 402              	.LBB147:
 403              	.LBB148:
 404              	.LBB149:
 405              		.loc 2 548 0
 406 0012 0022     		movs	r2, #0
 407              	.LVL21:
 408              	@ 548 "../../../resources/chibios/ChibiOS_16.1.8/os/ext/CMSIS/include/core_cmFunc.h" 1
 409 0014 82F31188 		MSR basepri, r2
 410              	@ 0 "" 2
 411              		.thumb
 412              	.LBE149:
 413              	.LBE148:
 414              	.LBE147:
 415              	.LBE146:
 416              	.LBE145:
 417              		.loc 1 157 0
 418 0018 08BD     		pop	{r3, pc}
 419              	.LVL22:
 420              	.L17:
 421              	.LBB154:
 422              	.LBB144:
 423              		.loc 1 131 0
 424 001a 9368     		ldr	r3, [r2, #8]
 425 001c 002B     		cmp	r3, #0
 426 001e F8D0     		beq	.L18
 427              		.loc 1 132 0
 428 0020 5068     		ldr	r0, [r2, #4]
 429              	.LVL23:
 430 0022 9847     		blx	r3
 431              	.LVL24:
 432              	.LBE144:
 433              	.LBE154:
 434              	.LBB155:
 435              	.LBB153:
 436              	.LBB152:
 437              	.LBB151:
 438              	.LBB150:
 439              		.loc 2 548 0
 440 0024 0022     		movs	r2, #0
 441              	@ 548 "../../../resources/chibios/ChibiOS_16.1.8/os/ext/CMSIS/include/core_cmFunc.h" 1
 442 0026 82F31188 		MSR basepri, r2
 443              	@ 0 "" 2
 444              		.thumb
 445              	.LBE150:
 446              	.LBE151:
 447              	.LBE152:
 448              	.LBE153:
 449              	.LBE155:
 450              		.loc 1 157 0
 451 002a 08BD     		pop	{r3, pc}
 452              		.cfi_endproc
 453              	.LFE185:
ARM GAS  /tmp/ccGZzdhD.s 			page 9


 454              		.size	chPoolAlloc, .-chPoolAlloc
 455 002c AFF30080 		.section	.text.chPoolFreeI,"ax",%progbits
 456              		.align	2
 457              		.p2align 4,,15
 458              		.global	chPoolFreeI
 459              		.thumb
 460              		.thumb_func
 461              		.type	chPoolFreeI, %function
 462              	chPoolFreeI:
 463              	.LFB186:
 464              		.loc 1 171 0
 465              		.cfi_startproc
 466              		@ args = 0, pretend = 0, frame = 0
 467              		@ frame_needed = 0, uses_anonymous_args = 0
 468              		@ link register save eliminated.
 469              	.LVL25:
 470              		.loc 1 177 0
 471 0000 0368     		ldr	r3, [r0, #0]
 472              	.LVL26:
 473 0002 0B60     		str	r3, [r1, #0]
 474              		.loc 1 178 0
 475 0004 0160     		str	r1, [r0, #0]
 476              		.loc 1 179 0
 477 0006 7047     		bx	lr
 478              		.cfi_endproc
 479              	.LFE186:
 480              		.size	chPoolFreeI, .-chPoolFreeI
 481 0008 AFF30080 		.section	.text.chPoolFree,"ax",%progbits
 481      AFF30080 
 482              		.align	2
 483              		.p2align 4,,15
 484              		.global	chPoolFree
 485              		.thumb
 486              		.thumb_func
 487              		.type	chPoolFree, %function
 488              	chPoolFree:
 489              	.LFB187:
 490              		.loc 1 193 0
 491              		.cfi_startproc
 492              		@ args = 0, pretend = 0, frame = 0
 493              		@ frame_needed = 0, uses_anonymous_args = 0
 494              		@ link register save eliminated.
 495              	.LVL27:
 496              	.LBB156:
 497              	.LBB157:
 498              	.LBB158:
 499              	.LBB159:
 500              		.loc 2 548 0
 501 0000 2023     		movs	r3, #32
 502              	@ 548 "../../../resources/chibios/ChibiOS_16.1.8/os/ext/CMSIS/include/core_cmFunc.h" 1
 503 0002 83F31188 		MSR basepri, r3
 504              	@ 0 "" 2
 505              	.LVL28:
 506              		.thumb
 507              	.LBE159:
 508              	.LBE158:
 509              	.LBE157:
ARM GAS  /tmp/ccGZzdhD.s 			page 10


 510              	.LBE156:
 511              	.LBB160:
 512              	.LBB161:
 513              		.loc 1 177 0
 514 0006 0268     		ldr	r2, [r0, #0]
 515              	.LBE161:
 516              	.LBE160:
 517              	.LBB163:
 518              	.LBB164:
 519              	.LBB165:
 520              	.LBB166:
 521              	.LBB167:
 522              		.loc 2 548 0
 523 0008 0023     		movs	r3, #0
 524              	.LBE167:
 525              	.LBE166:
 526              	.LBE165:
 527              	.LBE164:
 528              	.LBE163:
 529              	.LBB172:
 530              	.LBB162:
 531              		.loc 1 177 0
 532 000a 0A60     		str	r2, [r1, #0]
 533              		.loc 1 178 0
 534 000c 0160     		str	r1, [r0, #0]
 535              	.LVL29:
 536              	.LBE162:
 537              	.LBE172:
 538              	.LBB173:
 539              	.LBB171:
 540              	.LBB170:
 541              	.LBB169:
 542              	.LBB168:
 543              		.loc 2 548 0
 544              	@ 548 "../../../resources/chibios/ChibiOS_16.1.8/os/ext/CMSIS/include/core_cmFunc.h" 1
 545 000e 83F31188 		MSR basepri, r3
 546              	@ 0 "" 2
 547              		.thumb
 548              	.LBE168:
 549              	.LBE169:
 550              	.LBE170:
 551              	.LBE171:
 552              	.LBE173:
 553              		.loc 1 198 0
 554 0012 7047     		bx	lr
 555              		.cfi_endproc
 556              	.LFE187:
 557              		.size	chPoolFree, .-chPoolFree
 558 0014 AFF30080 		.text
 558      AFF30080 
 558      AFF30080 
 559              	.Letext0:
 560              		.file 3 "/home/madog/programs/CodeSourcery/Sourcery_CodeBench_Lite_for_ARM_EABI/bin/../lib/gcc/arm
 561              		.file 4 "/home/madog/programs/CodeSourcery/Sourcery_CodeBench_Lite_for_ARM_EABI/bin/../lib/gcc/arm
 562              		.file 5 "../../../resources/chibios/ChibiOS_16.1.8/os/rt/ports/ARMCMx/compilers/GCC/chtypes.h"
 563              		.file 6 "../../../resources/chibios/ChibiOS_16.1.8/os/rt/include/chsystypes.h"
 564              		.file 7 "../../../resources/chibios/ChibiOS_16.1.8/os/rt/include/chschd.h"
ARM GAS  /tmp/ccGZzdhD.s 			page 11


 565              		.file 8 "../../../resources/chibios/ChibiOS_16.1.8/os/rt/ports/ARMCMx/chcore.h"
 566              		.file 9 "../../../resources/chibios/ChibiOS_16.1.8/os/rt/ports/ARMCMx/chcore_v7m.h"
 567              		.file 10 "../../../resources/chibios/ChibiOS_16.1.8/os/rt/include/chtm.h"
 568              		.file 11 "../../../resources/chibios/ChibiOS_16.1.8/os/rt/include/chsem.h"
 569              		.file 12 "../../../resources/chibios/ChibiOS_16.1.8/os/rt/include/chmtx.h"
 570              		.file 13 "../../../resources/chibios/ChibiOS_16.1.8/os/rt/include/chmemcore.h"
 571              		.file 14 "../../../resources/chibios/ChibiOS_16.1.8/os/rt/include/chmempools.h"
 572              		.file 15 "../../../resources/chibios/ChibiOS_16.1.8/os/rt/include/chsys.h"
 573              		.file 16 "../../../resources/chibios/ChibiOS_16.1.8/os/ext/CMSIS/include/core_cm3.h"
 574              		.section	.debug_info,"",%progbits
 575              	.Ldebug_info0:
 576 0000 470C0000 		.4byte	0xc47
 577 0004 0200     		.2byte	0x2
 578 0006 00000000 		.4byte	.Ldebug_abbrev0
 579 000a 04       		.byte	0x4
 580 000b 01       		.uleb128 0x1
 581 000c A8040000 		.4byte	.LASF123
 582 0010 01       		.byte	0x1
 583 0011 65010000 		.4byte	.LASF124
 584 0015 1B030000 		.4byte	.LASF125
 585 0019 00000000 		.4byte	0
 586 001d 00000000 		.4byte	0
 587 0021 10030000 		.4byte	.Ldebug_ranges0+0x310
 588 0025 00000000 		.4byte	.Ldebug_line0
 589 0029 02       		.uleb128 0x2
 590 002a 04       		.byte	0x4
 591 002b 05       		.byte	0x5
 592 002c 696E7400 		.ascii	"int\000"
 593 0030 03       		.uleb128 0x3
 594 0031 05020000 		.4byte	.LASF2
 595 0035 03       		.byte	0x3
 596 0036 D4       		.byte	0xd4
 597 0037 3B000000 		.4byte	0x3b
 598 003b 04       		.uleb128 0x4
 599 003c 04       		.byte	0x4
 600 003d 07       		.byte	0x7
 601 003e 94000000 		.4byte	.LASF0
 602 0042 04       		.uleb128 0x4
 603 0043 01       		.byte	0x1
 604 0044 06       		.byte	0x6
 605 0045 21050000 		.4byte	.LASF1
 606 0049 03       		.uleb128 0x3
 607 004a 86020000 		.4byte	.LASF3
 608 004e 04       		.byte	0x4
 609 004f 2A       		.byte	0x2a
 610 0050 54000000 		.4byte	0x54
 611 0054 04       		.uleb128 0x4
 612 0055 01       		.byte	0x1
 613 0056 08       		.byte	0x8
 614 0057 BC040000 		.4byte	.LASF4
 615 005b 04       		.uleb128 0x4
 616 005c 02       		.byte	0x2
 617 005d 05       		.byte	0x5
 618 005e B0030000 		.4byte	.LASF5
 619 0062 03       		.uleb128 0x3
 620 0063 94030000 		.4byte	.LASF6
 621 0067 04       		.byte	0x4
ARM GAS  /tmp/ccGZzdhD.s 			page 12


 622 0068 36       		.byte	0x36
 623 0069 6D000000 		.4byte	0x6d
 624 006d 04       		.uleb128 0x4
 625 006e 02       		.byte	0x2
 626 006f 07       		.byte	0x7
 627 0070 2D050000 		.4byte	.LASF7
 628 0074 03       		.uleb128 0x3
 629 0075 99040000 		.4byte	.LASF8
 630 0079 04       		.byte	0x4
 631 007a 4F       		.byte	0x4f
 632 007b 7F000000 		.4byte	0x7f
 633 007f 04       		.uleb128 0x4
 634 0080 04       		.byte	0x4
 635 0081 05       		.byte	0x5
 636 0082 D7030000 		.4byte	.LASF9
 637 0086 03       		.uleb128 0x3
 638 0087 1C010000 		.4byte	.LASF10
 639 008b 04       		.byte	0x4
 640 008c 50       		.byte	0x50
 641 008d 91000000 		.4byte	0x91
 642 0091 04       		.uleb128 0x4
 643 0092 04       		.byte	0x4
 644 0093 07       		.byte	0x7
 645 0094 6E040000 		.4byte	.LASF11
 646 0098 04       		.uleb128 0x4
 647 0099 08       		.byte	0x8
 648 009a 05       		.byte	0x5
 649 009b C1020000 		.4byte	.LASF12
 650 009f 03       		.uleb128 0x3
 651 00a0 31040000 		.4byte	.LASF13
 652 00a4 04       		.byte	0x4
 653 00a5 78       		.byte	0x78
 654 00a6 AA000000 		.4byte	0xaa
 655 00aa 04       		.uleb128 0x4
 656 00ab 08       		.byte	0x8
 657 00ac 07       		.byte	0x7
 658 00ad A6010000 		.4byte	.LASF14
 659 00b1 03       		.uleb128 0x3
 660 00b2 9D030000 		.4byte	.LASF15
 661 00b6 05       		.byte	0x5
 662 00b7 39       		.byte	0x39
 663 00b8 86000000 		.4byte	0x86
 664 00bc 03       		.uleb128 0x3
 665 00bd 81030000 		.4byte	.LASF16
 666 00c1 05       		.byte	0x5
 667 00c2 3C       		.byte	0x3c
 668 00c3 49000000 		.4byte	0x49
 669 00c7 03       		.uleb128 0x3
 670 00c8 6D020000 		.4byte	.LASF17
 671 00cc 05       		.byte	0x5
 672 00cd 3D       		.byte	0x3d
 673 00ce 49000000 		.4byte	0x49
 674 00d2 03       		.uleb128 0x3
 675 00d3 66040000 		.4byte	.LASF18
 676 00d7 05       		.byte	0x5
 677 00d8 3E       		.byte	0x3e
 678 00d9 49000000 		.4byte	0x49
ARM GAS  /tmp/ccGZzdhD.s 			page 13


 679 00dd 03       		.uleb128 0x3
 680 00de 4C010000 		.4byte	.LASF19
 681 00e2 05       		.byte	0x5
 682 00e3 40       		.byte	0x40
 683 00e4 86000000 		.4byte	0x86
 684 00e8 03       		.uleb128 0x3
 685 00e9 DF020000 		.4byte	.LASF20
 686 00ed 05       		.byte	0x5
 687 00ee 41       		.byte	0x41
 688 00ef 74000000 		.4byte	0x74
 689 00f3 03       		.uleb128 0x3
 690 00f4 25010000 		.4byte	.LASF21
 691 00f8 05       		.byte	0x5
 692 00f9 43       		.byte	0x43
 693 00fa 86000000 		.4byte	0x86
 694 00fe 03       		.uleb128 0x3
 695 00ff C5010000 		.4byte	.LASF22
 696 0103 05       		.byte	0x5
 697 0104 45       		.byte	0x45
 698 0105 74000000 		.4byte	0x74
 699 0109 03       		.uleb128 0x3
 700 010a 6F000000 		.4byte	.LASF23
 701 010e 06       		.byte	0x6
 702 010f 35       		.byte	0x35
 703 0110 62000000 		.4byte	0x62
 704 0114 03       		.uleb128 0x3
 705 0115 FC010000 		.4byte	.LASF24
 706 0119 06       		.byte	0x6
 707 011a 3F       		.byte	0x3f
 708 011b 1F010000 		.4byte	0x11f
 709 011f 05       		.uleb128 0x5
 710 0120 A8020000 		.4byte	.LASF44
 711 0124 44       		.byte	0x44
 712 0125 07       		.byte	0x7
 713 0126 C2       		.byte	0xc2
 714 0127 30020000 		.4byte	0x230
 715 012b 06       		.uleb128 0x6
 716 012c 21040000 		.4byte	.LASF25
 717 0130 07       		.byte	0x7
 718 0131 C3       		.byte	0xc3
 719 0132 3B020000 		.4byte	0x23b
 720 0136 02       		.byte	0x2
 721 0137 23       		.byte	0x23
 722 0138 00       		.uleb128 0
 723 0139 06       		.uleb128 0x6
 724 013a 5F040000 		.4byte	.LASF26
 725 013e 07       		.byte	0x7
 726 013f C5       		.byte	0xc5
 727 0140 3B020000 		.4byte	0x23b
 728 0144 02       		.byte	0x2
 729 0145 23       		.byte	0x23
 730 0146 04       		.uleb128 0x4
 731 0147 06       		.uleb128 0x6
 732 0148 5E000000 		.4byte	.LASF27
 733 014c 07       		.byte	0x7
 734 014d C7       		.byte	0xc7
 735 014e DD000000 		.4byte	0xdd
ARM GAS  /tmp/ccGZzdhD.s 			page 14


 736 0152 02       		.byte	0x2
 737 0153 23       		.byte	0x23
 738 0154 08       		.uleb128 0x8
 739 0155 06       		.uleb128 0x6
 740 0156 3A040000 		.4byte	.LASF28
 741 015a 07       		.byte	0x7
 742 015b C8       		.byte	0xc8
 743 015c 97040000 		.4byte	0x497
 744 0160 02       		.byte	0x2
 745 0161 23       		.byte	0x23
 746 0162 0C       		.uleb128 0xc
 747 0163 06       		.uleb128 0x6
 748 0164 D7010000 		.4byte	.LASF29
 749 0168 07       		.byte	0x7
 750 0169 CA       		.byte	0xca
 751 016a 3B020000 		.4byte	0x23b
 752 016e 02       		.byte	0x2
 753 016f 23       		.byte	0x23
 754 0170 10       		.uleb128 0x10
 755 0171 06       		.uleb128 0x6
 756 0172 76020000 		.4byte	.LASF30
 757 0176 07       		.byte	0x7
 758 0177 CB       		.byte	0xcb
 759 0178 3B020000 		.4byte	0x23b
 760 017c 02       		.byte	0x2
 761 017d 23       		.byte	0x23
 762 017e 14       		.uleb128 0x14
 763 017f 06       		.uleb128 0x6
 764 0180 33020000 		.4byte	.LASF31
 765 0184 07       		.byte	0x7
 766 0185 D2       		.byte	0xd2
 767 0186 36060000 		.4byte	0x636
 768 018a 02       		.byte	0x2
 769 018b 23       		.byte	0x23
 770 018c 18       		.uleb128 0x18
 771 018d 06       		.uleb128 0x6
 772 018e 7E020000 		.4byte	.LASF32
 773 0192 07       		.byte	0x7
 774 0193 DD       		.byte	0xdd
 775 0194 C7000000 		.4byte	0xc7
 776 0198 02       		.byte	0x2
 777 0199 23       		.byte	0x23
 778 019a 1C       		.uleb128 0x1c
 779 019b 06       		.uleb128 0x6
 780 019c FE020000 		.4byte	.LASF33
 781 01a0 07       		.byte	0x7
 782 01a1 E1       		.byte	0xe1
 783 01a2 BC000000 		.4byte	0xbc
 784 01a6 02       		.byte	0x2
 785 01a7 23       		.byte	0x23
 786 01a8 1D       		.uleb128 0x1d
 787 01a9 06       		.uleb128 0x6
 788 01aa E0040000 		.4byte	.LASF34
 789 01ae 07       		.byte	0x7
 790 01af E6       		.byte	0xe6
 791 01b0 D2000000 		.4byte	0xd2
 792 01b4 02       		.byte	0x2
ARM GAS  /tmp/ccGZzdhD.s 			page 15


 793 01b5 23       		.byte	0x23
 794 01b6 1E       		.uleb128 0x1e
 795 01b7 07       		.uleb128 0x7
 796 01b8 705F7500 		.ascii	"p_u\000"
 797 01bc 07       		.byte	0x7
 798 01bd 3101     		.2byte	0x131
 799 01bf 67050000 		.4byte	0x567
 800 01c3 02       		.byte	0x2
 801 01c4 23       		.byte	0x23
 802 01c5 20       		.uleb128 0x20
 803 01c6 08       		.uleb128 0x8
 804 01c7 20000000 		.4byte	.LASF35
 805 01cb 07       		.byte	0x7
 806 01cc 3601     		.2byte	0x136
 807 01ce 41020000 		.4byte	0x241
 808 01d2 02       		.byte	0x2
 809 01d3 23       		.byte	0x23
 810 01d4 24       		.uleb128 0x24
 811 01d5 08       		.uleb128 0x8
 812 01d6 89000000 		.4byte	.LASF36
 813 01da 07       		.byte	0x7
 814 01db 3C01     		.2byte	0x13c
 815 01dd 67020000 		.4byte	0x267
 816 01e1 02       		.byte	0x2
 817 01e2 23       		.byte	0x23
 818 01e3 28       		.uleb128 0x28
 819 01e4 08       		.uleb128 0x8
 820 01e5 7B030000 		.4byte	.LASF37
 821 01e9 07       		.byte	0x7
 822 01ea 4001     		.2byte	0x140
 823 01ec E8000000 		.4byte	0xe8
 824 01f0 02       		.byte	0x2
 825 01f1 23       		.byte	0x23
 826 01f2 30       		.uleb128 0x30
 827 01f3 08       		.uleb128 0x8
 828 01f4 C4030000 		.4byte	.LASF38
 829 01f8 07       		.byte	0x7
 830 01f9 4601     		.2byte	0x146
 831 01fb F3000000 		.4byte	0xf3
 832 01ff 02       		.byte	0x2
 833 0200 23       		.byte	0x23
 834 0201 34       		.uleb128 0x34
 835 0202 08       		.uleb128 0x8
 836 0203 9E020000 		.4byte	.LASF39
 837 0207 07       		.byte	0x7
 838 0208 4D01     		.2byte	0x14d
 839 020a 30060000 		.4byte	0x630
 840 020e 02       		.byte	0x2
 841 020f 23       		.byte	0x23
 842 0210 38       		.uleb128 0x38
 843 0211 08       		.uleb128 0x8
 844 0212 A5030000 		.4byte	.LASF40
 845 0216 07       		.byte	0x7
 846 0217 5101     		.2byte	0x151
 847 0219 DD000000 		.4byte	0xdd
 848 021d 02       		.byte	0x2
 849 021e 23       		.byte	0x23
ARM GAS  /tmp/ccGZzdhD.s 			page 16


 850 021f 3C       		.uleb128 0x3c
 851 0220 08       		.uleb128 0x8
 852 0221 96020000 		.4byte	.LASF41
 853 0225 07       		.byte	0x7
 854 0226 5801     		.2byte	0x158
 855 0228 2B030000 		.4byte	0x32b
 856 022c 02       		.byte	0x2
 857 022d 23       		.byte	0x23
 858 022e 40       		.uleb128 0x40
 859 022f 00       		.byte	0
 860 0230 03       		.uleb128 0x3
 861 0231 4E020000 		.4byte	.LASF42
 862 0235 06       		.byte	0x6
 863 0236 44       		.byte	0x44
 864 0237 3B020000 		.4byte	0x23b
 865 023b 09       		.uleb128 0x9
 866 023c 04       		.byte	0x4
 867 023d 14010000 		.4byte	0x114
 868 0241 03       		.uleb128 0x3
 869 0242 A1000000 		.4byte	.LASF43
 870 0246 06       		.byte	0x6
 871 0247 49       		.byte	0x49
 872 0248 4C020000 		.4byte	0x24c
 873 024c 05       		.uleb128 0x5
 874 024d 00000000 		.4byte	.LASF45
 875 0251 04       		.byte	0x4
 876 0252 07       		.byte	0x7
 877 0253 B0       		.byte	0xb0
 878 0254 67020000 		.4byte	0x267
 879 0258 06       		.uleb128 0x6
 880 0259 21040000 		.4byte	.LASF25
 881 025d 07       		.byte	0x7
 882 025e B1       		.byte	0xb1
 883 025f 3B020000 		.4byte	0x23b
 884 0263 02       		.byte	0x2
 885 0264 23       		.byte	0x23
 886 0265 00       		.uleb128 0
 887 0266 00       		.byte	0
 888 0267 03       		.uleb128 0x3
 889 0268 10000000 		.4byte	.LASF46
 890 026c 06       		.byte	0x6
 891 026d 50       		.byte	0x50
 892 026e 72020000 		.4byte	0x272
 893 0272 05       		.uleb128 0x5
 894 0273 EC000000 		.4byte	.LASF47
 895 0277 08       		.byte	0x8
 896 0278 07       		.byte	0x7
 897 0279 B7       		.byte	0xb7
 898 027a 9B020000 		.4byte	0x29b
 899 027e 06       		.uleb128 0x6
 900 027f 21040000 		.4byte	.LASF25
 901 0283 07       		.byte	0x7
 902 0284 B8       		.byte	0xb8
 903 0285 3B020000 		.4byte	0x23b
 904 0289 02       		.byte	0x2
 905 028a 23       		.byte	0x23
 906 028b 00       		.uleb128 0
ARM GAS  /tmp/ccGZzdhD.s 			page 17


 907 028c 06       		.uleb128 0x6
 908 028d 5F040000 		.4byte	.LASF26
 909 0291 07       		.byte	0x7
 910 0292 B9       		.byte	0xb9
 911 0293 3B020000 		.4byte	0x23b
 912 0297 02       		.byte	0x2
 913 0298 23       		.byte	0x23
 914 0299 04       		.uleb128 0x4
 915 029a 00       		.byte	0
 916 029b 03       		.uleb128 0x3
 917 029c 80040000 		.4byte	.LASF48
 918 02a0 06       		.byte	0x6
 919 02a1 57       		.byte	0x57
 920 02a2 A6020000 		.4byte	0x2a6
 921 02a6 0A       		.uleb128 0xa
 922 02a7 C8000000 		.4byte	.LASF49
 923 02ab 1C       		.byte	0x1c
 924 02ac 07       		.byte	0x7
 925 02ad 9001     		.2byte	0x190
 926 02af 0E030000 		.4byte	0x30e
 927 02b3 08       		.uleb128 0x8
 928 02b4 CF020000 		.4byte	.LASF50
 929 02b8 07       		.byte	0x7
 930 02b9 9101     		.2byte	0x191
 931 02bb 67020000 		.4byte	0x267
 932 02bf 02       		.byte	0x2
 933 02c0 23       		.byte	0x23
 934 02c1 00       		.uleb128 0
 935 02c2 08       		.uleb128 0x8
 936 02c3 31010000 		.4byte	.LASF51
 937 02c7 07       		.byte	0x7
 938 02c8 9201     		.2byte	0x192
 939 02ca DD000000 		.4byte	0xdd
 940 02ce 02       		.byte	0x2
 941 02cf 23       		.byte	0x23
 942 02d0 08       		.uleb128 0x8
 943 02d1 08       		.uleb128 0x8
 944 02d2 40050000 		.4byte	.LASF52
 945 02d6 07       		.byte	0x7
 946 02d7 9401     		.2byte	0x194
 947 02d9 97040000 		.4byte	0x497
 948 02dd 02       		.byte	0x2
 949 02de 23       		.byte	0x23
 950 02df 0C       		.uleb128 0xc
 951 02e0 08       		.uleb128 0x8
 952 02e1 D7020000 		.4byte	.LASF53
 953 02e5 07       		.byte	0x7
 954 02e6 9701     		.2byte	0x197
 955 02e8 3B020000 		.4byte	0x23b
 956 02ec 02       		.byte	0x2
 957 02ed 23       		.byte	0x23
 958 02ee 10       		.uleb128 0x10
 959 02ef 08       		.uleb128 0x8
 960 02f0 5A030000 		.4byte	.LASF54
 961 02f4 07       		.byte	0x7
 962 02f5 9801     		.2byte	0x198
 963 02f7 3B020000 		.4byte	0x23b
ARM GAS  /tmp/ccGZzdhD.s 			page 18


 964 02fb 02       		.byte	0x2
 965 02fc 23       		.byte	0x23
 966 02fd 14       		.uleb128 0x14
 967 02fe 08       		.uleb128 0x8
 968 02ff BA030000 		.4byte	.LASF55
 969 0303 07       		.byte	0x7
 970 0304 9B01     		.2byte	0x19b
 971 0306 3B020000 		.4byte	0x23b
 972 030a 02       		.byte	0x2
 973 030b 23       		.byte	0x23
 974 030c 18       		.uleb128 0x18
 975 030d 00       		.byte	0
 976 030e 03       		.uleb128 0x3
 977 030f FD000000 		.4byte	.LASF56
 978 0313 06       		.byte	0x6
 979 0314 5C       		.byte	0x5c
 980 0315 19030000 		.4byte	0x319
 981 0319 09       		.uleb128 0x9
 982 031a 04       		.byte	0x4
 983 031b 1F030000 		.4byte	0x31f
 984 031f 0B       		.uleb128 0xb
 985 0320 01       		.byte	0x1
 986 0321 2B030000 		.4byte	0x32b
 987 0325 0C       		.uleb128 0xc
 988 0326 2B030000 		.4byte	0x32b
 989 032a 00       		.byte	0
 990 032b 0D       		.uleb128 0xd
 991 032c 04       		.byte	0x4
 992 032d 03       		.uleb128 0x3
 993 032e 06030000 		.4byte	.LASF57
 994 0332 06       		.byte	0x6
 995 0333 61       		.byte	0x61
 996 0334 38030000 		.4byte	0x338
 997 0338 0A       		.uleb128 0xa
 998 0339 54010000 		.4byte	.LASF58
 999 033d 14       		.byte	0x14
 1000 033e 07       		.byte	0x7
 1001 033f 6B01     		.2byte	0x16b
 1002 0341 91030000 		.4byte	0x391
 1003 0345 08       		.uleb128 0x8
 1004 0346 00050000 		.4byte	.LASF59
 1005 034a 07       		.byte	0x7
 1006 034b 6C01     		.2byte	0x16c
 1007 034d 48060000 		.4byte	0x648
 1008 0351 02       		.byte	0x2
 1009 0352 23       		.byte	0x23
 1010 0353 00       		.uleb128 0
 1011 0354 08       		.uleb128 0x8
 1012 0355 6E050000 		.4byte	.LASF60
 1013 0359 07       		.byte	0x7
 1014 035a 6D01     		.2byte	0x16d
 1015 035c 48060000 		.4byte	0x648
 1016 0360 02       		.byte	0x2
 1017 0361 23       		.byte	0x23
 1018 0362 04       		.uleb128 0x4
 1019 0363 08       		.uleb128 0x8
 1020 0364 45020000 		.4byte	.LASF61
ARM GAS  /tmp/ccGZzdhD.s 			page 19


 1021 0368 07       		.byte	0x7
 1022 0369 6E01     		.2byte	0x16e
 1023 036b 09010000 		.4byte	0x109
 1024 036f 02       		.byte	0x2
 1025 0370 23       		.byte	0x23
 1026 0371 08       		.uleb128 0x8
 1027 0372 08       		.uleb128 0x8
 1028 0373 5A050000 		.4byte	.LASF62
 1029 0377 07       		.byte	0x7
 1030 0378 6F01     		.2byte	0x16f
 1031 037a 0E030000 		.4byte	0x30e
 1032 037e 02       		.byte	0x2
 1033 037f 23       		.byte	0x23
 1034 0380 0C       		.uleb128 0xc
 1035 0381 08       		.uleb128 0x8
 1036 0382 38010000 		.4byte	.LASF63
 1037 0386 07       		.byte	0x7
 1038 0387 7101     		.2byte	0x171
 1039 0389 2B030000 		.4byte	0x32b
 1040 038d 02       		.byte	0x2
 1041 038e 23       		.byte	0x23
 1042 038f 10       		.uleb128 0x10
 1043 0390 00       		.byte	0
 1044 0391 03       		.uleb128 0x3
 1045 0392 CA040000 		.4byte	.LASF64
 1046 0396 06       		.byte	0x6
 1047 0397 66       		.byte	0x66
 1048 0398 9C030000 		.4byte	0x39c
 1049 039c 0A       		.uleb128 0xa
 1050 039d E5010000 		.4byte	.LASF65
 1051 03a1 0C       		.byte	0xc
 1052 03a2 07       		.byte	0x7
 1053 03a3 7B01     		.2byte	0x17b
 1054 03a5 E6030000 		.4byte	0x3e6
 1055 03a9 08       		.uleb128 0x8
 1056 03aa 00050000 		.4byte	.LASF59
 1057 03ae 07       		.byte	0x7
 1058 03af 7C01     		.2byte	0x17c
 1059 03b1 48060000 		.4byte	0x648
 1060 03b5 02       		.byte	0x2
 1061 03b6 23       		.byte	0x23
 1062 03b7 00       		.uleb128 0
 1063 03b8 08       		.uleb128 0x8
 1064 03b9 6E050000 		.4byte	.LASF60
 1065 03bd 07       		.byte	0x7
 1066 03be 7E01     		.2byte	0x17e
 1067 03c0 48060000 		.4byte	0x648
 1068 03c4 02       		.byte	0x2
 1069 03c5 23       		.byte	0x23
 1070 03c6 04       		.uleb128 0x4
 1071 03c7 08       		.uleb128 0x8
 1072 03c8 45020000 		.4byte	.LASF61
 1073 03cc 07       		.byte	0x7
 1074 03cd 8001     		.2byte	0x180
 1075 03cf 09010000 		.4byte	0x109
 1076 03d3 02       		.byte	0x2
 1077 03d4 23       		.byte	0x23
ARM GAS  /tmp/ccGZzdhD.s 			page 20


 1078 03d5 08       		.uleb128 0x8
 1079 03d6 08       		.uleb128 0x8
 1080 03d7 61020000 		.4byte	.LASF66
 1081 03db 07       		.byte	0x7
 1082 03dc 8801     		.2byte	0x188
 1083 03de 09010000 		.4byte	0x109
 1084 03e2 02       		.byte	0x2
 1085 03e3 23       		.byte	0x23
 1086 03e4 0A       		.uleb128 0xa
 1087 03e5 00       		.byte	0
 1088 03e6 03       		.uleb128 0x3
 1089 03e7 B2020000 		.4byte	.LASF67
 1090 03eb 06       		.byte	0x6
 1091 03ec 6B       		.byte	0x6b
 1092 03ed F1030000 		.4byte	0x3f1
 1093 03f1 0A       		.uleb128 0xa
 1094 03f2 0C010000 		.4byte	.LASF68
 1095 03f6 04       		.byte	0x4
 1096 03f7 07       		.byte	0x7
 1097 03f8 A201     		.2byte	0x1a2
 1098 03fa 0E040000 		.4byte	0x40e
 1099 03fe 08       		.uleb128 0x8
 1100 03ff 71030000 		.4byte	.LASF69
 1101 0403 07       		.byte	0x7
 1102 0404 AA01     		.2byte	0x1aa
 1103 0406 4E060000 		.4byte	0x64e
 1104 040a 02       		.byte	0x2
 1105 040b 23       		.byte	0x23
 1106 040c 00       		.uleb128 0
 1107 040d 00       		.byte	0
 1108 040e 03       		.uleb128 0x3
 1109 040f 08050000 		.4byte	.LASF70
 1110 0413 06       		.byte	0x6
 1111 0414 70       		.byte	0x70
 1112 0415 19040000 		.4byte	0x419
 1113 0419 0E       		.uleb128 0xe
 1114 041a F9030000 		.4byte	.LASF71
 1115 041e 5001     		.2byte	0x150
 1116 0420 07       		.byte	0x7
 1117 0421 C201     		.2byte	0x1c2
 1118 0423 81040000 		.4byte	0x481
 1119 0427 08       		.uleb128 0x8
 1120 0428 40040000 		.4byte	.LASF72
 1121 042c 07       		.byte	0x7
 1122 042d C601     		.2byte	0x1c6
 1123 042f 9B020000 		.4byte	0x29b
 1124 0433 02       		.byte	0x2
 1125 0434 23       		.byte	0x23
 1126 0435 00       		.uleb128 0
 1127 0436 08       		.uleb128 0x8
 1128 0437 C1000000 		.4byte	.LASF73
 1129 043b 07       		.byte	0x7
 1130 043c CA01     		.2byte	0x1ca
 1131 043e 91030000 		.4byte	0x391
 1132 0442 02       		.byte	0x2
 1133 0443 23       		.byte	0x23
 1134 0444 1C       		.uleb128 0x1c
ARM GAS  /tmp/ccGZzdhD.s 			page 21


 1135 0445 07       		.uleb128 0x7
 1136 0446 64626700 		.ascii	"dbg\000"
 1137 044a 07       		.byte	0x7
 1138 044b CE01     		.2byte	0x1ce
 1139 044d E6030000 		.4byte	0x3e6
 1140 0451 02       		.byte	0x2
 1141 0452 23       		.byte	0x23
 1142 0453 28       		.uleb128 0x28
 1143 0454 08       		.uleb128 0x8
 1144 0455 89030000 		.4byte	.LASF74
 1145 0459 07       		.byte	0x7
 1146 045a D201     		.2byte	0x1d2
 1147 045c 14010000 		.4byte	0x114
 1148 0460 02       		.byte	0x2
 1149 0461 23       		.byte	0x23
 1150 0462 2C       		.uleb128 0x2c
 1151 0463 07       		.uleb128 0x7
 1152 0464 746D00   		.ascii	"tm\000"
 1153 0467 07       		.byte	0x7
 1154 0468 D701     		.2byte	0x1d7
 1155 046a 5C050000 		.4byte	0x55c
 1156 046e 02       		.byte	0x2
 1157 046f 23       		.byte	0x23
 1158 0470 70       		.uleb128 0x70
 1159 0471 08       		.uleb128 0x8
 1160 0472 D6000000 		.4byte	.LASF75
 1161 0476 07       		.byte	0x7
 1162 0477 E301     		.2byte	0x1e3
 1163 0479 53060000 		.4byte	0x653
 1164 047d 02       		.byte	0x2
 1165 047e 23       		.byte	0x23
 1166 047f 78       		.uleb128 0x78
 1167 0480 00       		.byte	0
 1168 0481 03       		.uleb128 0x3
 1169 0482 55000000 		.4byte	.LASF76
 1170 0486 08       		.byte	0x8
 1171 0487 65       		.byte	0x65
 1172 0488 2B030000 		.4byte	0x32b
 1173 048c 03       		.uleb128 0x3
 1174 048d 46050000 		.4byte	.LASF77
 1175 0491 08       		.byte	0x8
 1176 0492 6D       		.byte	0x6d
 1177 0493 9F000000 		.4byte	0x9f
 1178 0497 05       		.uleb128 0x5
 1179 0498 E5020000 		.4byte	.LASF78
 1180 049c 04       		.byte	0x4
 1181 049d 08       		.byte	0x8
 1182 049e 89       		.byte	0x89
 1183 049f B2040000 		.4byte	0x4b2
 1184 04a3 0F       		.uleb128 0xf
 1185 04a4 72313300 		.ascii	"r13\000"
 1186 04a8 08       		.byte	0x8
 1187 04a9 8A       		.byte	0x8a
 1188 04aa 3F050000 		.4byte	0x53f
 1189 04ae 02       		.byte	0x2
 1190 04af 23       		.byte	0x23
 1191 04b0 00       		.uleb128 0
ARM GAS  /tmp/ccGZzdhD.s 			page 22


 1192 04b1 00       		.byte	0
 1193 04b2 05       		.uleb128 0x5
 1194 04b3 E0030000 		.4byte	.LASF79
 1195 04b7 24       		.byte	0x24
 1196 04b8 09       		.byte	0x9
 1197 04b9 FD       		.byte	0xfd
 1198 04ba 3F050000 		.4byte	0x53f
 1199 04be 07       		.uleb128 0x7
 1200 04bf 723400   		.ascii	"r4\000"
 1201 04c2 09       		.byte	0x9
 1202 04c3 1001     		.2byte	0x110
 1203 04c5 81040000 		.4byte	0x481
 1204 04c9 02       		.byte	0x2
 1205 04ca 23       		.byte	0x23
 1206 04cb 00       		.uleb128 0
 1207 04cc 07       		.uleb128 0x7
 1208 04cd 723500   		.ascii	"r5\000"
 1209 04d0 09       		.byte	0x9
 1210 04d1 1101     		.2byte	0x111
 1211 04d3 81040000 		.4byte	0x481
 1212 04d7 02       		.byte	0x2
 1213 04d8 23       		.byte	0x23
 1214 04d9 04       		.uleb128 0x4
 1215 04da 07       		.uleb128 0x7
 1216 04db 723600   		.ascii	"r6\000"
 1217 04de 09       		.byte	0x9
 1218 04df 1201     		.2byte	0x112
 1219 04e1 81040000 		.4byte	0x481
 1220 04e5 02       		.byte	0x2
 1221 04e6 23       		.byte	0x23
 1222 04e7 08       		.uleb128 0x8
 1223 04e8 07       		.uleb128 0x7
 1224 04e9 723700   		.ascii	"r7\000"
 1225 04ec 09       		.byte	0x9
 1226 04ed 1301     		.2byte	0x113
 1227 04ef 81040000 		.4byte	0x481
 1228 04f3 02       		.byte	0x2
 1229 04f4 23       		.byte	0x23
 1230 04f5 0C       		.uleb128 0xc
 1231 04f6 07       		.uleb128 0x7
 1232 04f7 723800   		.ascii	"r8\000"
 1233 04fa 09       		.byte	0x9
 1234 04fb 1401     		.2byte	0x114
 1235 04fd 81040000 		.4byte	0x481
 1236 0501 02       		.byte	0x2
 1237 0502 23       		.byte	0x23
 1238 0503 10       		.uleb128 0x10
 1239 0504 07       		.uleb128 0x7
 1240 0505 723900   		.ascii	"r9\000"
 1241 0508 09       		.byte	0x9
 1242 0509 1501     		.2byte	0x115
 1243 050b 81040000 		.4byte	0x481
 1244 050f 02       		.byte	0x2
 1245 0510 23       		.byte	0x23
 1246 0511 14       		.uleb128 0x14
 1247 0512 07       		.uleb128 0x7
 1248 0513 72313000 		.ascii	"r10\000"
ARM GAS  /tmp/ccGZzdhD.s 			page 23


 1249 0517 09       		.byte	0x9
 1250 0518 1601     		.2byte	0x116
 1251 051a 81040000 		.4byte	0x481
 1252 051e 02       		.byte	0x2
 1253 051f 23       		.byte	0x23
 1254 0520 18       		.uleb128 0x18
 1255 0521 07       		.uleb128 0x7
 1256 0522 72313100 		.ascii	"r11\000"
 1257 0526 09       		.byte	0x9
 1258 0527 1701     		.2byte	0x117
 1259 0529 81040000 		.4byte	0x481
 1260 052d 02       		.byte	0x2
 1261 052e 23       		.byte	0x23
 1262 052f 1C       		.uleb128 0x1c
 1263 0530 07       		.uleb128 0x7
 1264 0531 6C7200   		.ascii	"lr\000"
 1265 0534 09       		.byte	0x9
 1266 0535 1801     		.2byte	0x118
 1267 0537 81040000 		.4byte	0x481
 1268 053b 02       		.byte	0x2
 1269 053c 23       		.byte	0x23
 1270 053d 20       		.uleb128 0x20
 1271 053e 00       		.byte	0
 1272 053f 09       		.uleb128 0x9
 1273 0540 04       		.byte	0x4
 1274 0541 B2040000 		.4byte	0x4b2
 1275 0545 10       		.uleb128 0x10
 1276 0546 04       		.byte	0x4
 1277 0547 0A       		.byte	0xa
 1278 0548 38       		.byte	0x38
 1279 0549 5C050000 		.4byte	0x55c
 1280 054d 06       		.uleb128 0x6
 1281 054e 13020000 		.4byte	.LASF80
 1282 0552 0A       		.byte	0xa
 1283 0553 3C       		.byte	0x3c
 1284 0554 B1000000 		.4byte	0xb1
 1285 0558 02       		.byte	0x2
 1286 0559 23       		.byte	0x23
 1287 055a 00       		.uleb128 0
 1288 055b 00       		.byte	0
 1289 055c 03       		.uleb128 0x3
 1290 055d 3F000000 		.4byte	.LASF81
 1291 0561 0A       		.byte	0xa
 1292 0562 3D       		.byte	0x3d
 1293 0563 45050000 		.4byte	0x545
 1294 0567 11       		.uleb128 0x11
 1295 0568 04       		.byte	0x4
 1296 0569 07       		.byte	0x7
 1297 056a FA       		.byte	0xfa
 1298 056b C4050000 		.4byte	0x5c4
 1299 056f 12       		.uleb128 0x12
 1300 0570 0C020000 		.4byte	.LASF82
 1301 0574 07       		.byte	0x7
 1302 0575 0101     		.2byte	0x101
 1303 0577 E8000000 		.4byte	0xe8
 1304 057b 12       		.uleb128 0x12
 1305 057c 76050000 		.4byte	.LASF83
ARM GAS  /tmp/ccGZzdhD.s 			page 24


 1306 0580 07       		.byte	0x7
 1307 0581 0801     		.2byte	0x108
 1308 0583 E8000000 		.4byte	0xe8
 1309 0587 12       		.uleb128 0x12
 1310 0588 B0000000 		.4byte	.LASF84
 1311 058c 07       		.byte	0x7
 1312 058d 0F01     		.2byte	0x10f
 1313 058f 2B030000 		.4byte	0x32b
 1314 0593 12       		.uleb128 0x12
 1315 0594 14050000 		.4byte	.LASF85
 1316 0598 07       		.byte	0x7
 1317 0599 1601     		.2byte	0x116
 1318 059b C4050000 		.4byte	0x5c4
 1319 059f 12       		.uleb128 0x12
 1320 05a0 A1040000 		.4byte	.LASF86
 1321 05a4 07       		.byte	0x7
 1322 05a5 1E01     		.2byte	0x11e
 1323 05a7 F3050000 		.4byte	0x5f3
 1324 05ab 12       		.uleb128 0x12
 1325 05ac 2A000000 		.4byte	.LASF87
 1326 05b0 07       		.byte	0x7
 1327 05b1 2701     		.2byte	0x127
 1328 05b3 30060000 		.4byte	0x630
 1329 05b7 12       		.uleb128 0x12
 1330 05b8 E5000000 		.4byte	.LASF88
 1331 05bc 07       		.byte	0x7
 1332 05bd 2F01     		.2byte	0x12f
 1333 05bf F3000000 		.4byte	0xf3
 1334 05c3 00       		.byte	0
 1335 05c4 09       		.uleb128 0x9
 1336 05c5 04       		.byte	0x4
 1337 05c6 30020000 		.4byte	0x230
 1338 05ca 05       		.uleb128 0x5
 1339 05cb 3F010000 		.4byte	.LASF89
 1340 05cf 0C       		.byte	0xc
 1341 05d0 0B       		.byte	0xb
 1342 05d1 34       		.byte	0x34
 1343 05d2 F3050000 		.4byte	0x5f3
 1344 05d6 06       		.uleb128 0x6
 1345 05d7 81000000 		.4byte	.LASF90
 1346 05db 0B       		.byte	0xb
 1347 05dc 35       		.byte	0x35
 1348 05dd 67020000 		.4byte	0x267
 1349 05e1 02       		.byte	0x2
 1350 05e2 23       		.byte	0x23
 1351 05e3 00       		.uleb128 0
 1352 05e4 06       		.uleb128 0x6
 1353 05e5 06010000 		.4byte	.LASF91
 1354 05e9 0B       		.byte	0xb
 1355 05ea 37       		.byte	0x37
 1356 05eb FE000000 		.4byte	0xfe
 1357 05ef 02       		.byte	0x2
 1358 05f0 23       		.byte	0x23
 1359 05f1 08       		.uleb128 0x8
 1360 05f2 00       		.byte	0
 1361 05f3 09       		.uleb128 0x9
 1362 05f4 04       		.byte	0x4
ARM GAS  /tmp/ccGZzdhD.s 			page 25


 1363 05f5 CA050000 		.4byte	0x5ca
 1364 05f9 05       		.uleb128 0x5
 1365 05fa 20020000 		.4byte	.LASF92
 1366 05fe 10       		.byte	0x10
 1367 05ff 0C       		.byte	0xc
 1368 0600 39       		.byte	0x39
 1369 0601 30060000 		.4byte	0x630
 1370 0605 06       		.uleb128 0x6
 1371 0606 CF030000 		.4byte	.LASF93
 1372 060a 0C       		.byte	0xc
 1373 060b 3A       		.byte	0x3a
 1374 060c 67020000 		.4byte	0x267
 1375 0610 02       		.byte	0x2
 1376 0611 23       		.byte	0x23
 1377 0612 00       		.uleb128 0
 1378 0613 06       		.uleb128 0x6
 1379 0614 79000000 		.4byte	.LASF94
 1380 0618 0C       		.byte	0xc
 1381 0619 3C       		.byte	0x3c
 1382 061a 3B020000 		.4byte	0x23b
 1383 061e 02       		.byte	0x2
 1384 061f 23       		.byte	0x23
 1385 0620 08       		.uleb128 0x8
 1386 0621 06       		.uleb128 0x6
 1387 0622 1A050000 		.4byte	.LASF95
 1388 0626 0C       		.byte	0xc
 1389 0627 3E       		.byte	0x3e
 1390 0628 6E060000 		.4byte	0x66e
 1391 062c 02       		.byte	0x2
 1392 062d 23       		.byte	0x23
 1393 062e 0C       		.uleb128 0xc
 1394 062f 00       		.byte	0
 1395 0630 09       		.uleb128 0x9
 1396 0631 04       		.byte	0x4
 1397 0632 F9050000 		.4byte	0x5f9
 1398 0636 09       		.uleb128 0x9
 1399 0637 04       		.byte	0x4
 1400 0638 3C060000 		.4byte	0x63c
 1401 063c 13       		.uleb128 0x13
 1402 063d 41060000 		.4byte	0x641
 1403 0641 04       		.uleb128 0x4
 1404 0642 01       		.byte	0x1
 1405 0643 08       		.byte	0x8
 1406 0644 50000000 		.4byte	.LASF96
 1407 0648 09       		.uleb128 0x9
 1408 0649 04       		.byte	0x4
 1409 064a 2D030000 		.4byte	0x32d
 1410 064e 14       		.uleb128 0x14
 1411 064f 36060000 		.4byte	0x636
 1412 0653 15       		.uleb128 0x15
 1413 0654 8C040000 		.4byte	0x48c
 1414 0658 63060000 		.4byte	0x663
 1415 065c 16       		.uleb128 0x16
 1416 065d 3B000000 		.4byte	0x3b
 1417 0661 1A       		.byte	0x1a
 1418 0662 00       		.byte	0
 1419 0663 03       		.uleb128 0x3
ARM GAS  /tmp/ccGZzdhD.s 			page 26


 1420 0664 B4040000 		.4byte	.LASF97
 1421 0668 0C       		.byte	0xc
 1422 0669 34       		.byte	0x34
 1423 066a F9050000 		.4byte	0x5f9
 1424 066e 09       		.uleb128 0x9
 1425 066f 04       		.byte	0x4
 1426 0670 63060000 		.4byte	0x663
 1427 0674 04       		.uleb128 0x4
 1428 0675 01       		.byte	0x1
 1429 0676 02       		.byte	0x2
 1430 0677 1A020000 		.4byte	.LASF98
 1431 067b 03       		.uleb128 0x3
 1432 067c 52040000 		.4byte	.LASF99
 1433 0680 0D       		.byte	0xd
 1434 0681 34       		.byte	0x34
 1435 0682 86060000 		.4byte	0x686
 1436 0686 09       		.uleb128 0x9
 1437 0687 04       		.byte	0x4
 1438 0688 8C060000 		.4byte	0x68c
 1439 068c 17       		.uleb128 0x17
 1440 068d 01       		.byte	0x1
 1441 068e 2B030000 		.4byte	0x32b
 1442 0692 9C060000 		.4byte	0x69c
 1443 0696 0C       		.uleb128 0xc
 1444 0697 30000000 		.4byte	0x30
 1445 069b 00       		.byte	0
 1446 069c 05       		.uleb128 0x5
 1447 069d F4040000 		.4byte	.LASF100
 1448 06a1 04       		.byte	0x4
 1449 06a2 0E       		.byte	0xe
 1450 06a3 38       		.byte	0x38
 1451 06a4 B7060000 		.4byte	0x6b7
 1452 06a8 06       		.uleb128 0x6
 1453 06a9 BD010000 		.4byte	.LASF101
 1454 06ad 0E       		.byte	0xe
 1455 06ae 39       		.byte	0x39
 1456 06af B7060000 		.4byte	0x6b7
 1457 06b3 02       		.byte	0x2
 1458 06b4 23       		.byte	0x23
 1459 06b5 00       		.uleb128 0
 1460 06b6 00       		.byte	0
 1461 06b7 09       		.uleb128 0x9
 1462 06b8 04       		.byte	0x4
 1463 06b9 9C060000 		.4byte	0x69c
 1464 06bd 10       		.uleb128 0x10
 1465 06be 0C       		.byte	0xc
 1466 06bf 0E       		.byte	0xe
 1467 06c0 40       		.byte	0x40
 1468 06c1 F0060000 		.4byte	0x6f0
 1469 06c5 06       		.uleb128 0x6
 1470 06c6 8E020000 		.4byte	.LASF102
 1471 06ca 0E       		.byte	0xe
 1472 06cb 41       		.byte	0x41
 1473 06cc B7060000 		.4byte	0x6b7
 1474 06d0 02       		.byte	0x2
 1475 06d1 23       		.byte	0x23
 1476 06d2 00       		.uleb128 0
ARM GAS  /tmp/ccGZzdhD.s 			page 27


 1477 06d3 06       		.uleb128 0x6
 1478 06d4 62030000 		.4byte	.LASF103
 1479 06d8 0E       		.byte	0xe
 1480 06d9 42       		.byte	0x42
 1481 06da 30000000 		.4byte	0x30
 1482 06de 02       		.byte	0x2
 1483 06df 23       		.byte	0x23
 1484 06e0 04       		.uleb128 0x4
 1485 06e1 06       		.uleb128 0x6
 1486 06e2 7F050000 		.4byte	.LASF104
 1487 06e6 0E       		.byte	0xe
 1488 06e7 44       		.byte	0x44
 1489 06e8 7B060000 		.4byte	0x67b
 1490 06ec 02       		.byte	0x2
 1491 06ed 23       		.byte	0x23
 1492 06ee 08       		.uleb128 0x8
 1493 06ef 00       		.byte	0
 1494 06f0 03       		.uleb128 0x3
 1495 06f1 31000000 		.4byte	.LASF105
 1496 06f5 0E       		.byte	0xe
 1497 06f6 46       		.byte	0x46
 1498 06f7 BD060000 		.4byte	0x6bd
 1499 06fb 18       		.uleb128 0x18
 1500 06fc 13040000 		.4byte	.LASF112
 1501 0700 02       		.byte	0x2
 1502 0701 2202     		.2byte	0x222
 1503 0703 01       		.byte	0x1
 1504 0704 03       		.byte	0x3
 1505 0705 16070000 		.4byte	0x716
 1506 0709 19       		.uleb128 0x19
 1507 070a DF010000 		.4byte	.LASF109
 1508 070e 02       		.byte	0x2
 1509 070f 2202     		.2byte	0x222
 1510 0711 86000000 		.4byte	0x86
 1511 0715 00       		.byte	0
 1512 0716 1A       		.uleb128 0x1a
 1513 0717 B7000000 		.4byte	.LASF106
 1514 071b 09       		.byte	0x9
 1515 071c C801     		.2byte	0x1c8
 1516 071e 01       		.byte	0x1
 1517 071f 03       		.byte	0x3
 1518 0720 1A       		.uleb128 0x1a
 1519 0721 62050000 		.4byte	.LASF107
 1520 0725 09       		.byte	0x9
 1521 0726 E001     		.2byte	0x1e0
 1522 0728 01       		.byte	0x1
 1523 0729 03       		.byte	0x3
 1524 072a 1A       		.uleb128 0x1a
 1525 072b 29020000 		.4byte	.LASF108
 1526 072f 0F       		.byte	0xf
 1527 0730 5A01     		.2byte	0x15a
 1528 0732 01       		.byte	0x1
 1529 0733 03       		.byte	0x3
 1530 0734 1B       		.uleb128 0x1b
 1531 0735 01       		.byte	0x1
 1532 0736 E7040000 		.4byte	.LASF114
 1533 073a 01       		.byte	0x1
ARM GAS  /tmp/ccGZzdhD.s 			page 28


 1534 073b 78       		.byte	0x78
 1535 073c 01       		.byte	0x1
 1536 073d 2B030000 		.4byte	0x32b
 1537 0741 01       		.byte	0x1
 1538 0742 6A070000 		.4byte	0x76a
 1539 0746 1C       		.uleb128 0x1c
 1540 0747 6D7000   		.ascii	"mp\000"
 1541 074a 01       		.byte	0x1
 1542 074b 78       		.byte	0x78
 1543 074c 6A070000 		.4byte	0x76a
 1544 0750 1D       		.uleb128 0x1d
 1545 0751 16030000 		.4byte	.LASF110
 1546 0755 01       		.byte	0x1
 1547 0756 79       		.byte	0x79
 1548 0757 2B030000 		.4byte	0x32b
 1549 075b 1E       		.uleb128 0x1e
 1550 075c 51050000 		.4byte	.LASF111
 1551 0760 80070000 		.4byte	0x780
 1552 0764 01       		.byte	0x1
 1553 0765 E7040000 		.4byte	.LASF114
 1554 0769 00       		.byte	0
 1555 076a 09       		.uleb128 0x9
 1556 076b 04       		.byte	0x4
 1557 076c F0060000 		.4byte	0x6f0
 1558 0770 15       		.uleb128 0x15
 1559 0771 41060000 		.4byte	0x641
 1560 0775 80070000 		.4byte	0x780
 1561 0779 16       		.uleb128 0x16
 1562 077a 3B000000 		.4byte	0x3b
 1563 077e 0C       		.byte	0xc
 1564 077f 00       		.byte	0
 1565 0780 13       		.uleb128 0x13
 1566 0781 70070000 		.4byte	0x770
 1567 0785 18       		.uleb128 0x18
 1568 0786 CB010000 		.4byte	.LASF113
 1569 078a 0F       		.byte	0xf
 1570 078b 6601     		.2byte	0x166
 1571 078d 01       		.byte	0x1
 1572 078e 03       		.byte	0x3
 1573 078f A2070000 		.4byte	0x7a2
 1574 0793 1E       		.uleb128 0x1e
 1575 0794 51050000 		.4byte	.LASF111
 1576 0798 B2070000 		.4byte	0x7b2
 1577 079c 01       		.byte	0x1
 1578 079d CB010000 		.4byte	.LASF113
 1579 07a1 00       		.byte	0
 1580 07a2 15       		.uleb128 0x15
 1581 07a3 41060000 		.4byte	0x641
 1582 07a7 B2070000 		.4byte	0x7b2
 1583 07ab 16       		.uleb128 0x16
 1584 07ac 3B000000 		.4byte	0x3b
 1585 07b0 0B       		.byte	0xb
 1586 07b1 00       		.byte	0
 1587 07b2 13       		.uleb128 0x13
 1588 07b3 A2070000 		.4byte	0x7a2
 1589 07b7 1F       		.uleb128 0x1f
 1590 07b8 01       		.byte	0x1
ARM GAS  /tmp/ccGZzdhD.s 			page 29


 1591 07b9 8D040000 		.4byte	.LASF115
 1592 07bd 01       		.byte	0x1
 1593 07be AB       		.byte	0xab
 1594 07bf 01       		.byte	0x1
 1595 07c0 01       		.byte	0x1
 1596 07c1 F4070000 		.4byte	0x7f4
 1597 07c5 1C       		.uleb128 0x1c
 1598 07c6 6D7000   		.ascii	"mp\000"
 1599 07c9 01       		.byte	0x1
 1600 07ca AB       		.byte	0xab
 1601 07cb 6A070000 		.4byte	0x76a
 1602 07cf 20       		.uleb128 0x20
 1603 07d0 16030000 		.4byte	.LASF110
 1604 07d4 01       		.byte	0x1
 1605 07d5 AB       		.byte	0xab
 1606 07d6 2B030000 		.4byte	0x32b
 1607 07da 21       		.uleb128 0x21
 1608 07db 70687000 		.ascii	"php\000"
 1609 07df 01       		.byte	0x1
 1610 07e0 AC       		.byte	0xac
 1611 07e1 B7060000 		.4byte	0x6b7
 1612 07e5 1E       		.uleb128 0x1e
 1613 07e6 51050000 		.4byte	.LASF111
 1614 07ea F4070000 		.4byte	0x7f4
 1615 07ee 01       		.byte	0x1
 1616 07ef 8D040000 		.4byte	.LASF115
 1617 07f3 00       		.byte	0
 1618 07f4 13       		.uleb128 0x13
 1619 07f5 A2070000 		.4byte	0x7a2
 1620 07f9 1F       		.uleb128 0x1f
 1621 07fa 01       		.byte	0x1
 1622 07fb 3A020000 		.4byte	.LASF116
 1623 07ff 01       		.byte	0x1
 1624 0800 C1       		.byte	0xc1
 1625 0801 01       		.byte	0x1
 1626 0802 01       		.byte	0x1
 1627 0803 1D080000 		.4byte	0x81d
 1628 0807 1C       		.uleb128 0x1c
 1629 0808 6D7000   		.ascii	"mp\000"
 1630 080b 01       		.byte	0x1
 1631 080c C1       		.byte	0xc1
 1632 080d 6A070000 		.4byte	0x76a
 1633 0811 20       		.uleb128 0x20
 1634 0812 16030000 		.4byte	.LASF110
 1635 0816 01       		.byte	0x1
 1636 0817 C1       		.byte	0xc1
 1637 0818 2B030000 		.4byte	0x32b
 1638 081c 00       		.byte	0
 1639 081d 22       		.uleb128 0x22
 1640 081e 65000000 		.4byte	.LASF117
 1641 0822 0E       		.byte	0xe
 1642 0823 89       		.byte	0x89
 1643 0824 01       		.byte	0x1
 1644 0825 03       		.byte	0x3
 1645 0826 40080000 		.4byte	0x840
 1646 082a 1C       		.uleb128 0x1c
 1647 082b 6D7000   		.ascii	"mp\000"
ARM GAS  /tmp/ccGZzdhD.s 			page 30


 1648 082e 0E       		.byte	0xe
 1649 082f 89       		.byte	0x89
 1650 0830 6A070000 		.4byte	0x76a
 1651 0834 20       		.uleb128 0x20
 1652 0835 16030000 		.4byte	.LASF110
 1653 0839 0E       		.byte	0xe
 1654 083a 89       		.byte	0x89
 1655 083b 2B030000 		.4byte	0x32b
 1656 083f 00       		.byte	0
 1657 0840 23       		.uleb128 0x23
 1658 0841 01       		.byte	0x1
 1659 0842 ED020000 		.4byte	.LASF120
 1660 0846 01       		.byte	0x1
 1661 0847 4B       		.byte	0x4b
 1662 0848 01       		.byte	0x1
 1663 0849 00000000 		.4byte	.LFB182
 1664 084d 0A000000 		.4byte	.LFE182
 1665 0851 02       		.byte	0x2
 1666 0852 7D       		.byte	0x7d
 1667 0853 00       		.sleb128 0
 1668 0854 89080000 		.4byte	0x889
 1669 0858 24       		.uleb128 0x24
 1670 0859 6D7000   		.ascii	"mp\000"
 1671 085c 01       		.byte	0x1
 1672 085d 4B       		.byte	0x4b
 1673 085e 6A070000 		.4byte	0x76a
 1674 0862 01       		.byte	0x1
 1675 0863 50       		.byte	0x50
 1676 0864 25       		.uleb128 0x25
 1677 0865 55030000 		.4byte	.LASF118
 1678 0869 01       		.byte	0x1
 1679 086a 4B       		.byte	0x4b
 1680 086b 30000000 		.4byte	0x30
 1681 086f 01       		.byte	0x1
 1682 0870 51       		.byte	0x51
 1683 0871 25       		.uleb128 0x25
 1684 0872 28040000 		.4byte	.LASF119
 1685 0876 01       		.byte	0x1
 1686 0877 4B       		.byte	0x4b
 1687 0878 7B060000 		.4byte	0x67b
 1688 087c 01       		.byte	0x1
 1689 087d 52       		.byte	0x52
 1690 087e 26       		.uleb128 0x26
 1691 087f 51050000 		.4byte	.LASF111
 1692 0883 99080000 		.4byte	0x899
 1693 0887 01       		.byte	0x1
 1694 0888 00       		.byte	0
 1695 0889 15       		.uleb128 0x15
 1696 088a 41060000 		.4byte	0x641
 1697 088e 99080000 		.4byte	0x899
 1698 0892 16       		.uleb128 0x16
 1699 0893 3B000000 		.4byte	0x3b
 1700 0897 10       		.byte	0x10
 1701 0898 00       		.byte	0
 1702 0899 13       		.uleb128 0x13
 1703 089a 89080000 		.4byte	0x889
 1704 089e 27       		.uleb128 0x27
ARM GAS  /tmp/ccGZzdhD.s 			page 31


 1705 089f 01       		.byte	0x1
 1706 08a0 03040000 		.4byte	.LASF121
 1707 08a4 01       		.byte	0x1
 1708 08a5 61       		.byte	0x61
 1709 08a6 01       		.byte	0x1
 1710 08a7 00000000 		.4byte	.LFB183
 1711 08ab 6A000000 		.4byte	.LFE183
 1712 08af 00000000 		.4byte	.LLST0
 1713 08b3 DC090000 		.4byte	0x9dc
 1714 08b7 28       		.uleb128 0x28
 1715 08b8 6D7000   		.ascii	"mp\000"
 1716 08bb 01       		.byte	0x1
 1717 08bc 61       		.byte	0x61
 1718 08bd 6A070000 		.4byte	0x76a
 1719 08c1 20000000 		.4byte	.LLST1
 1720 08c5 28       		.uleb128 0x28
 1721 08c6 7000     		.ascii	"p\000"
 1722 08c8 01       		.byte	0x1
 1723 08c9 61       		.byte	0x61
 1724 08ca 2B030000 		.4byte	0x32b
 1725 08ce 3E000000 		.4byte	.LLST2
 1726 08d2 28       		.uleb128 0x28
 1727 08d3 6E00     		.ascii	"n\000"
 1728 08d5 01       		.byte	0x1
 1729 08d6 61       		.byte	0x61
 1730 08d7 30000000 		.4byte	0x30
 1731 08db 5D000000 		.4byte	.LLST3
 1732 08df 26       		.uleb128 0x26
 1733 08e0 51050000 		.4byte	.LASF111
 1734 08e4 EC090000 		.4byte	0x9ec
 1735 08e8 01       		.byte	0x1
 1736 08e9 29       		.uleb128 0x29
 1737 08ea 1D080000 		.4byte	0x81d
 1738 08ee 08000000 		.4byte	.LBB77
 1739 08f2 00000000 		.4byte	.Ldebug_ranges0+0
 1740 08f6 01       		.byte	0x1
 1741 08f7 66       		.byte	0x66
 1742 08f8 2A       		.uleb128 0x2a
 1743 08f9 34080000 		.4byte	0x834
 1744 08fd 8A000000 		.4byte	.LLST4
 1745 0901 29       		.uleb128 0x29
 1746 0902 F9070000 		.4byte	0x7f9
 1747 0906 08000000 		.4byte	.LBB78
 1748 090a 28000000 		.4byte	.Ldebug_ranges0+0x28
 1749 090e 0E       		.byte	0xe
 1750 090f 8B       		.byte	0x8b
 1751 0910 2A       		.uleb128 0x2a
 1752 0911 11080000 		.4byte	0x811
 1753 0915 8A000000 		.4byte	.LLST4
 1754 0919 2B       		.uleb128 0x2b
 1755 091a 07080000 		.4byte	0x807
 1756 091e 2C       		.uleb128 0x2c
 1757 091f 2A070000 		.4byte	0x72a
 1758 0923 08000000 		.4byte	.LBB79
 1759 0927 50000000 		.4byte	.Ldebug_ranges0+0x50
 1760 092b 01       		.byte	0x1
 1761 092c C3       		.byte	0xc3
ARM GAS  /tmp/ccGZzdhD.s 			page 32


 1762 092d 5D090000 		.4byte	0x95d
 1763 0931 2D       		.uleb128 0x2d
 1764 0932 16070000 		.4byte	0x716
 1765 0936 08000000 		.4byte	.LBB80
 1766 093a 80000000 		.4byte	.Ldebug_ranges0+0x80
 1767 093e 0F       		.byte	0xf
 1768 093f 5C01     		.2byte	0x15c
 1769 0941 2D       		.uleb128 0x2d
 1770 0942 FB060000 		.4byte	0x6fb
 1771 0946 08000000 		.4byte	.LBB81
 1772 094a B0000000 		.4byte	.Ldebug_ranges0+0xb0
 1773 094e 09       		.byte	0x9
 1774 094f D001     		.2byte	0x1d0
 1775 0951 2A       		.uleb128 0x2a
 1776 0952 09070000 		.4byte	0x709
 1777 0956 A9000000 		.4byte	.LLST6
 1778 095a 00       		.byte	0
 1779 095b 00       		.byte	0
 1780 095c 00       		.byte	0
 1781 095d 2C       		.uleb128 0x2c
 1782 095e 85070000 		.4byte	0x785
 1783 0962 0A000000 		.4byte	.LBB95
 1784 0966 E0000000 		.4byte	.Ldebug_ranges0+0xe0
 1785 096a 01       		.byte	0x1
 1786 096b C5       		.byte	0xc5
 1787 096c A7090000 		.4byte	0x9a7
 1788 0970 2E       		.uleb128 0x2e
 1789 0971 10010000 		.4byte	.Ldebug_ranges0+0x110
 1790 0975 2F       		.uleb128 0x2f
 1791 0976 93070000 		.4byte	0x793
 1792 097a 2D       		.uleb128 0x2d
 1793 097b 20070000 		.4byte	0x720
 1794 097f 0A000000 		.4byte	.LBB97
 1795 0983 40010000 		.4byte	.Ldebug_ranges0+0x140
 1796 0987 0F       		.byte	0xf
 1797 0988 7301     		.2byte	0x173
 1798 098a 2D       		.uleb128 0x2d
 1799 098b FB060000 		.4byte	0x6fb
 1800 098f 0A000000 		.4byte	.LBB98
 1801 0993 70010000 		.4byte	.Ldebug_ranges0+0x170
 1802 0997 09       		.byte	0x9
 1803 0998 E301     		.2byte	0x1e3
 1804 099a 2A       		.uleb128 0x2a
 1805 099b 09070000 		.4byte	0x709
 1806 099f BE000000 		.4byte	.LLST7
 1807 09a3 00       		.byte	0
 1808 09a4 00       		.byte	0
 1809 09a5 00       		.byte	0
 1810 09a6 00       		.byte	0
 1811 09a7 29       		.uleb128 0x29
 1812 09a8 B7070000 		.4byte	0x7b7
 1813 09ac 14000000 		.4byte	.LBB117
 1814 09b0 A0010000 		.4byte	.Ldebug_ranges0+0x1a0
 1815 09b4 01       		.byte	0x1
 1816 09b5 C4       		.byte	0xc4
 1817 09b6 2A       		.uleb128 0x2a
 1818 09b7 CF070000 		.4byte	0x7cf
ARM GAS  /tmp/ccGZzdhD.s 			page 33


 1819 09bb D2000000 		.4byte	.LLST8
 1820 09bf 2B       		.uleb128 0x2b
 1821 09c0 C5070000 		.4byte	0x7c5
 1822 09c4 2E       		.uleb128 0x2e
 1823 09c5 C8010000 		.4byte	.Ldebug_ranges0+0x1c8
 1824 09c9 30       		.uleb128 0x30
 1825 09ca DA070000 		.4byte	0x7da
 1826 09ce D2000000 		.4byte	.LLST8
 1827 09d2 2F       		.uleb128 0x2f
 1828 09d3 E5070000 		.4byte	0x7e5
 1829 09d7 00       		.byte	0
 1830 09d8 00       		.byte	0
 1831 09d9 00       		.byte	0
 1832 09da 00       		.byte	0
 1833 09db 00       		.byte	0
 1834 09dc 15       		.uleb128 0x15
 1835 09dd 41060000 		.4byte	0x641
 1836 09e1 EC090000 		.4byte	0x9ec
 1837 09e5 16       		.uleb128 0x16
 1838 09e6 3B000000 		.4byte	0x3b
 1839 09ea 0F       		.byte	0xf
 1840 09eb 00       		.byte	0
 1841 09ec 13       		.uleb128 0x13
 1842 09ed DC090000 		.4byte	0x9dc
 1843 09f1 31       		.uleb128 0x31
 1844 09f2 34070000 		.4byte	0x734
 1845 09f6 00000000 		.4byte	.LFB184
 1846 09fa 18000000 		.4byte	.LFE184
 1847 09fe F1000000 		.4byte	.LLST10
 1848 0a02 1E0A0000 		.4byte	0xa1e
 1849 0a06 2A       		.uleb128 0x2a
 1850 0a07 46070000 		.4byte	0x746
 1851 0a0b 11010000 		.4byte	.LLST11
 1852 0a0f 30       		.uleb128 0x30
 1853 0a10 50070000 		.4byte	0x750
 1854 0a14 2F010000 		.4byte	.LLST12
 1855 0a18 2F       		.uleb128 0x2f
 1856 0a19 5B070000 		.4byte	0x75b
 1857 0a1d 00       		.byte	0
 1858 0a1e 32       		.uleb128 0x32
 1859 0a1f 01       		.byte	0x1
 1860 0a20 46040000 		.4byte	.LASF126
 1861 0a24 01       		.byte	0x1
 1862 0a25 95       		.byte	0x95
 1863 0a26 01       		.byte	0x1
 1864 0a27 2B030000 		.4byte	0x32b
 1865 0a2b 00000000 		.4byte	.LFB185
 1866 0a2f 2C000000 		.4byte	.LFE185
 1867 0a33 4E010000 		.4byte	.LLST13
 1868 0a37 0A0B0000 		.4byte	0xb0a
 1869 0a3b 28       		.uleb128 0x28
 1870 0a3c 6D7000   		.ascii	"mp\000"
 1871 0a3f 01       		.byte	0x1
 1872 0a40 95       		.byte	0x95
 1873 0a41 6A070000 		.4byte	0x76a
 1874 0a45 6E010000 		.4byte	.LLST14
 1875 0a49 33       		.uleb128 0x33
ARM GAS  /tmp/ccGZzdhD.s 			page 34


 1876 0a4a 16030000 		.4byte	.LASF110
 1877 0a4e 01       		.byte	0x1
 1878 0a4f 96       		.byte	0x96
 1879 0a50 2B030000 		.4byte	0x32b
 1880 0a54 01       		.byte	0x1
 1881 0a55 50       		.byte	0x50
 1882 0a56 34       		.uleb128 0x34
 1883 0a57 2A070000 		.4byte	0x72a
 1884 0a5b 04000000 		.4byte	.LBB138
 1885 0a5f 0A000000 		.4byte	.LBE138
 1886 0a63 01       		.byte	0x1
 1887 0a64 98       		.byte	0x98
 1888 0a65 920A0000 		.4byte	0xa92
 1889 0a69 35       		.uleb128 0x35
 1890 0a6a 16070000 		.4byte	0x716
 1891 0a6e 04000000 		.4byte	.LBB139
 1892 0a72 0A000000 		.4byte	.LBE139
 1893 0a76 0F       		.byte	0xf
 1894 0a77 5C01     		.2byte	0x15c
 1895 0a79 35       		.uleb128 0x35
 1896 0a7a FB060000 		.4byte	0x6fb
 1897 0a7e 04000000 		.4byte	.LBB140
 1898 0a82 0A000000 		.4byte	.LBE140
 1899 0a86 09       		.byte	0x9
 1900 0a87 D001     		.2byte	0x1d0
 1901 0a89 36       		.uleb128 0x36
 1902 0a8a 09070000 		.4byte	0x709
 1903 0a8e 20       		.byte	0x20
 1904 0a8f 00       		.byte	0
 1905 0a90 00       		.byte	0
 1906 0a91 00       		.byte	0
 1907 0a92 2C       		.uleb128 0x2c
 1908 0a93 34070000 		.4byte	0x734
 1909 0a97 0A000000 		.4byte	.LBB142
 1910 0a9b F0010000 		.4byte	.Ldebug_ranges0+0x1f0
 1911 0a9f 01       		.byte	0x1
 1912 0aa0 99       		.byte	0x99
 1913 0aa1 C30A0000 		.4byte	0xac3
 1914 0aa5 2A       		.uleb128 0x2a
 1915 0aa6 46070000 		.4byte	0x746
 1916 0aaa 97010000 		.4byte	.LLST15
 1917 0aae 2E       		.uleb128 0x2e
 1918 0aaf 08020000 		.4byte	.Ldebug_ranges0+0x208
 1919 0ab3 30       		.uleb128 0x30
 1920 0ab4 50070000 		.4byte	0x750
 1921 0ab8 C0010000 		.4byte	.LLST16
 1922 0abc 2F       		.uleb128 0x2f
 1923 0abd 5B070000 		.4byte	0x75b
 1924 0ac1 00       		.byte	0
 1925 0ac2 00       		.byte	0
 1926 0ac3 29       		.uleb128 0x29
 1927 0ac4 85070000 		.4byte	0x785
 1928 0ac8 12000000 		.4byte	.LBB145
 1929 0acc 20020000 		.4byte	.Ldebug_ranges0+0x220
 1930 0ad0 01       		.byte	0x1
 1931 0ad1 9A       		.byte	0x9a
 1932 0ad2 2E       		.uleb128 0x2e
ARM GAS  /tmp/ccGZzdhD.s 			page 35


 1933 0ad3 38020000 		.4byte	.Ldebug_ranges0+0x238
 1934 0ad7 2F       		.uleb128 0x2f
 1935 0ad8 93070000 		.4byte	0x793
 1936 0adc 2D       		.uleb128 0x2d
 1937 0add 20070000 		.4byte	0x720
 1938 0ae1 12000000 		.4byte	.LBB147
 1939 0ae5 50020000 		.4byte	.Ldebug_ranges0+0x250
 1940 0ae9 0F       		.byte	0xf
 1941 0aea 7301     		.2byte	0x173
 1942 0aec 2D       		.uleb128 0x2d
 1943 0aed FB060000 		.4byte	0x6fb
 1944 0af1 12000000 		.4byte	.LBB148
 1945 0af5 68020000 		.4byte	.Ldebug_ranges0+0x268
 1946 0af9 09       		.byte	0x9
 1947 0afa E301     		.2byte	0x1e3
 1948 0afc 2A       		.uleb128 0x2a
 1949 0afd 09070000 		.4byte	0x709
 1950 0b01 F6010000 		.4byte	.LLST17
 1951 0b05 00       		.byte	0
 1952 0b06 00       		.byte	0
 1953 0b07 00       		.byte	0
 1954 0b08 00       		.byte	0
 1955 0b09 00       		.byte	0
 1956 0b0a 37       		.uleb128 0x37
 1957 0b0b B7070000 		.4byte	0x7b7
 1958 0b0f 00000000 		.4byte	.LFB186
 1959 0b13 08000000 		.4byte	.LFE186
 1960 0b17 02       		.byte	0x2
 1961 0b18 7D       		.byte	0x7d
 1962 0b19 00       		.sleb128 0
 1963 0b1a 390B0000 		.4byte	0xb39
 1964 0b1e 38       		.uleb128 0x38
 1965 0b1f C5070000 		.4byte	0x7c5
 1966 0b23 01       		.byte	0x1
 1967 0b24 50       		.byte	0x50
 1968 0b25 38       		.uleb128 0x38
 1969 0b26 CF070000 		.4byte	0x7cf
 1970 0b2a 01       		.byte	0x1
 1971 0b2b 51       		.byte	0x51
 1972 0b2c 39       		.uleb128 0x39
 1973 0b2d DA070000 		.4byte	0x7da
 1974 0b31 01       		.byte	0x1
 1975 0b32 51       		.byte	0x51
 1976 0b33 2F       		.uleb128 0x2f
 1977 0b34 E5070000 		.4byte	0x7e5
 1978 0b38 00       		.byte	0
 1979 0b39 37       		.uleb128 0x37
 1980 0b3a F9070000 		.4byte	0x7f9
 1981 0b3e 00000000 		.4byte	.LFB187
 1982 0b42 14000000 		.4byte	.LFE187
 1983 0b46 02       		.byte	0x2
 1984 0b47 7D       		.byte	0x7d
 1985 0b48 00       		.sleb128 0
 1986 0b49 0F0C0000 		.4byte	0xc0f
 1987 0b4d 38       		.uleb128 0x38
 1988 0b4e 07080000 		.4byte	0x807
 1989 0b52 01       		.byte	0x1
ARM GAS  /tmp/ccGZzdhD.s 			page 36


 1990 0b53 50       		.byte	0x50
 1991 0b54 38       		.uleb128 0x38
 1992 0b55 11080000 		.4byte	0x811
 1993 0b59 01       		.byte	0x1
 1994 0b5a 51       		.byte	0x51
 1995 0b5b 34       		.uleb128 0x34
 1996 0b5c 2A070000 		.4byte	0x72a
 1997 0b60 00000000 		.4byte	.LBB156
 1998 0b64 06000000 		.4byte	.LBE156
 1999 0b68 01       		.byte	0x1
 2000 0b69 C3       		.byte	0xc3
 2001 0b6a 970B0000 		.4byte	0xb97
 2002 0b6e 35       		.uleb128 0x35
 2003 0b6f 16070000 		.4byte	0x716
 2004 0b73 00000000 		.4byte	.LBB157
 2005 0b77 06000000 		.4byte	.LBE157
 2006 0b7b 0F       		.byte	0xf
 2007 0b7c 5C01     		.2byte	0x15c
 2008 0b7e 35       		.uleb128 0x35
 2009 0b7f FB060000 		.4byte	0x6fb
 2010 0b83 00000000 		.4byte	.LBB158
 2011 0b87 06000000 		.4byte	.LBE158
 2012 0b8b 09       		.byte	0x9
 2013 0b8c D001     		.2byte	0x1d0
 2014 0b8e 36       		.uleb128 0x36
 2015 0b8f 09070000 		.4byte	0x709
 2016 0b93 20       		.byte	0x20
 2017 0b94 00       		.byte	0
 2018 0b95 00       		.byte	0
 2019 0b96 00       		.byte	0
 2020 0b97 2C       		.uleb128 0x2c
 2021 0b98 B7070000 		.4byte	0x7b7
 2022 0b9c 06000000 		.4byte	.LBB160
 2023 0ba0 80020000 		.4byte	.Ldebug_ranges0+0x280
 2024 0ba4 01       		.byte	0x1
 2025 0ba5 C4       		.byte	0xc4
 2026 0ba6 CB0B0000 		.4byte	0xbcb
 2027 0baa 38       		.uleb128 0x38
 2028 0bab CF070000 		.4byte	0x7cf
 2029 0baf 01       		.byte	0x1
 2030 0bb0 51       		.byte	0x51
 2031 0bb1 38       		.uleb128 0x38
 2032 0bb2 C5070000 		.4byte	0x7c5
 2033 0bb6 01       		.byte	0x1
 2034 0bb7 50       		.byte	0x50
 2035 0bb8 2E       		.uleb128 0x2e
 2036 0bb9 98020000 		.4byte	.Ldebug_ranges0+0x298
 2037 0bbd 39       		.uleb128 0x39
 2038 0bbe DA070000 		.4byte	0x7da
 2039 0bc2 01       		.byte	0x1
 2040 0bc3 51       		.byte	0x51
 2041 0bc4 2F       		.uleb128 0x2f
 2042 0bc5 E5070000 		.4byte	0x7e5
 2043 0bc9 00       		.byte	0
 2044 0bca 00       		.byte	0
 2045 0bcb 29       		.uleb128 0x29
 2046 0bcc 85070000 		.4byte	0x785
ARM GAS  /tmp/ccGZzdhD.s 			page 37


 2047 0bd0 08000000 		.4byte	.LBB163
 2048 0bd4 B0020000 		.4byte	.Ldebug_ranges0+0x2b0
 2049 0bd8 01       		.byte	0x1
 2050 0bd9 C5       		.byte	0xc5
 2051 0bda 2E       		.uleb128 0x2e
 2052 0bdb C8020000 		.4byte	.Ldebug_ranges0+0x2c8
 2053 0bdf 2F       		.uleb128 0x2f
 2054 0be0 93070000 		.4byte	0x793
 2055 0be4 2D       		.uleb128 0x2d
 2056 0be5 20070000 		.4byte	0x720
 2057 0be9 08000000 		.4byte	.LBB165
 2058 0bed E0020000 		.4byte	.Ldebug_ranges0+0x2e0
 2059 0bf1 0F       		.byte	0xf
 2060 0bf2 7301     		.2byte	0x173
 2061 0bf4 2D       		.uleb128 0x2d
 2062 0bf5 FB060000 		.4byte	0x6fb
 2063 0bf9 08000000 		.4byte	.LBB166
 2064 0bfd F8020000 		.4byte	.Ldebug_ranges0+0x2f8
 2065 0c01 09       		.byte	0x9
 2066 0c02 E301     		.2byte	0x1e3
 2067 0c04 36       		.uleb128 0x36
 2068 0c05 09070000 		.4byte	0x709
 2069 0c09 00       		.byte	0
 2070 0c0a 00       		.byte	0
 2071 0c0b 00       		.byte	0
 2072 0c0c 00       		.byte	0
 2073 0c0d 00       		.byte	0
 2074 0c0e 00       		.byte	0
 2075 0c0f 3A       		.uleb128 0x3a
 2076 0c10 EC030000 		.4byte	.LASF122
 2077 0c14 10       		.byte	0x10
 2078 0c15 5506     		.2byte	0x655
 2079 0c17 1D0C0000 		.4byte	0xc1d
 2080 0c1b 01       		.byte	0x1
 2081 0c1c 01       		.byte	0x1
 2082 0c1d 14       		.uleb128 0x14
 2083 0c1e 74000000 		.4byte	0x74
 2084 0c22 3B       		.uleb128 0x3b
 2085 0c23 636800   		.ascii	"ch\000"
 2086 0c26 07       		.byte	0x7
 2087 0c27 0902     		.2byte	0x209
 2088 0c29 0E040000 		.4byte	0x40e
 2089 0c2d 01       		.byte	0x1
 2090 0c2e 01       		.byte	0x1
 2091 0c2f 3A       		.uleb128 0x3a
 2092 0c30 EC030000 		.4byte	.LASF122
 2093 0c34 10       		.byte	0x10
 2094 0c35 5506     		.2byte	0x655
 2095 0c37 1D0C0000 		.4byte	0xc1d
 2096 0c3b 01       		.byte	0x1
 2097 0c3c 01       		.byte	0x1
 2098 0c3d 3B       		.uleb128 0x3b
 2099 0c3e 636800   		.ascii	"ch\000"
 2100 0c41 07       		.byte	0x7
 2101 0c42 0902     		.2byte	0x209
 2102 0c44 0E040000 		.4byte	0x40e
 2103 0c48 01       		.byte	0x1
ARM GAS  /tmp/ccGZzdhD.s 			page 38


 2104 0c49 01       		.byte	0x1
 2105 0c4a 00       		.byte	0
 2106              		.section	.debug_abbrev,"",%progbits
 2107              	.Ldebug_abbrev0:
 2108 0000 01       		.uleb128 0x1
 2109 0001 11       		.uleb128 0x11
 2110 0002 01       		.byte	0x1
 2111 0003 25       		.uleb128 0x25
 2112 0004 0E       		.uleb128 0xe
 2113 0005 13       		.uleb128 0x13
 2114 0006 0B       		.uleb128 0xb
 2115 0007 03       		.uleb128 0x3
 2116 0008 0E       		.uleb128 0xe
 2117 0009 1B       		.uleb128 0x1b
 2118 000a 0E       		.uleb128 0xe
 2119 000b 11       		.uleb128 0x11
 2120 000c 01       		.uleb128 0x1
 2121 000d 52       		.uleb128 0x52
 2122 000e 01       		.uleb128 0x1
 2123 000f 55       		.uleb128 0x55
 2124 0010 06       		.uleb128 0x6
 2125 0011 10       		.uleb128 0x10
 2126 0012 06       		.uleb128 0x6
 2127 0013 00       		.byte	0
 2128 0014 00       		.byte	0
 2129 0015 02       		.uleb128 0x2
 2130 0016 24       		.uleb128 0x24
 2131 0017 00       		.byte	0
 2132 0018 0B       		.uleb128 0xb
 2133 0019 0B       		.uleb128 0xb
 2134 001a 3E       		.uleb128 0x3e
 2135 001b 0B       		.uleb128 0xb
 2136 001c 03       		.uleb128 0x3
 2137 001d 08       		.uleb128 0x8
 2138 001e 00       		.byte	0
 2139 001f 00       		.byte	0
 2140 0020 03       		.uleb128 0x3
 2141 0021 16       		.uleb128 0x16
 2142 0022 00       		.byte	0
 2143 0023 03       		.uleb128 0x3
 2144 0024 0E       		.uleb128 0xe
 2145 0025 3A       		.uleb128 0x3a
 2146 0026 0B       		.uleb128 0xb
 2147 0027 3B       		.uleb128 0x3b
 2148 0028 0B       		.uleb128 0xb
 2149 0029 49       		.uleb128 0x49
 2150 002a 13       		.uleb128 0x13
 2151 002b 00       		.byte	0
 2152 002c 00       		.byte	0
 2153 002d 04       		.uleb128 0x4
 2154 002e 24       		.uleb128 0x24
 2155 002f 00       		.byte	0
 2156 0030 0B       		.uleb128 0xb
 2157 0031 0B       		.uleb128 0xb
 2158 0032 3E       		.uleb128 0x3e
 2159 0033 0B       		.uleb128 0xb
 2160 0034 03       		.uleb128 0x3
ARM GAS  /tmp/ccGZzdhD.s 			page 39


 2161 0035 0E       		.uleb128 0xe
 2162 0036 00       		.byte	0
 2163 0037 00       		.byte	0
 2164 0038 05       		.uleb128 0x5
 2165 0039 13       		.uleb128 0x13
 2166 003a 01       		.byte	0x1
 2167 003b 03       		.uleb128 0x3
 2168 003c 0E       		.uleb128 0xe
 2169 003d 0B       		.uleb128 0xb
 2170 003e 0B       		.uleb128 0xb
 2171 003f 3A       		.uleb128 0x3a
 2172 0040 0B       		.uleb128 0xb
 2173 0041 3B       		.uleb128 0x3b
 2174 0042 0B       		.uleb128 0xb
 2175 0043 01       		.uleb128 0x1
 2176 0044 13       		.uleb128 0x13
 2177 0045 00       		.byte	0
 2178 0046 00       		.byte	0
 2179 0047 06       		.uleb128 0x6
 2180 0048 0D       		.uleb128 0xd
 2181 0049 00       		.byte	0
 2182 004a 03       		.uleb128 0x3
 2183 004b 0E       		.uleb128 0xe
 2184 004c 3A       		.uleb128 0x3a
 2185 004d 0B       		.uleb128 0xb
 2186 004e 3B       		.uleb128 0x3b
 2187 004f 0B       		.uleb128 0xb
 2188 0050 49       		.uleb128 0x49
 2189 0051 13       		.uleb128 0x13
 2190 0052 38       		.uleb128 0x38
 2191 0053 0A       		.uleb128 0xa
 2192 0054 00       		.byte	0
 2193 0055 00       		.byte	0
 2194 0056 07       		.uleb128 0x7
 2195 0057 0D       		.uleb128 0xd
 2196 0058 00       		.byte	0
 2197 0059 03       		.uleb128 0x3
 2198 005a 08       		.uleb128 0x8
 2199 005b 3A       		.uleb128 0x3a
 2200 005c 0B       		.uleb128 0xb
 2201 005d 3B       		.uleb128 0x3b
 2202 005e 05       		.uleb128 0x5
 2203 005f 49       		.uleb128 0x49
 2204 0060 13       		.uleb128 0x13
 2205 0061 38       		.uleb128 0x38
 2206 0062 0A       		.uleb128 0xa
 2207 0063 00       		.byte	0
 2208 0064 00       		.byte	0
 2209 0065 08       		.uleb128 0x8
 2210 0066 0D       		.uleb128 0xd
 2211 0067 00       		.byte	0
 2212 0068 03       		.uleb128 0x3
 2213 0069 0E       		.uleb128 0xe
 2214 006a 3A       		.uleb128 0x3a
 2215 006b 0B       		.uleb128 0xb
 2216 006c 3B       		.uleb128 0x3b
 2217 006d 05       		.uleb128 0x5
ARM GAS  /tmp/ccGZzdhD.s 			page 40


 2218 006e 49       		.uleb128 0x49
 2219 006f 13       		.uleb128 0x13
 2220 0070 38       		.uleb128 0x38
 2221 0071 0A       		.uleb128 0xa
 2222 0072 00       		.byte	0
 2223 0073 00       		.byte	0
 2224 0074 09       		.uleb128 0x9
 2225 0075 0F       		.uleb128 0xf
 2226 0076 00       		.byte	0
 2227 0077 0B       		.uleb128 0xb
 2228 0078 0B       		.uleb128 0xb
 2229 0079 49       		.uleb128 0x49
 2230 007a 13       		.uleb128 0x13
 2231 007b 00       		.byte	0
 2232 007c 00       		.byte	0
 2233 007d 0A       		.uleb128 0xa
 2234 007e 13       		.uleb128 0x13
 2235 007f 01       		.byte	0x1
 2236 0080 03       		.uleb128 0x3
 2237 0081 0E       		.uleb128 0xe
 2238 0082 0B       		.uleb128 0xb
 2239 0083 0B       		.uleb128 0xb
 2240 0084 3A       		.uleb128 0x3a
 2241 0085 0B       		.uleb128 0xb
 2242 0086 3B       		.uleb128 0x3b
 2243 0087 05       		.uleb128 0x5
 2244 0088 01       		.uleb128 0x1
 2245 0089 13       		.uleb128 0x13
 2246 008a 00       		.byte	0
 2247 008b 00       		.byte	0
 2248 008c 0B       		.uleb128 0xb
 2249 008d 15       		.uleb128 0x15
 2250 008e 01       		.byte	0x1
 2251 008f 27       		.uleb128 0x27
 2252 0090 0C       		.uleb128 0xc
 2253 0091 01       		.uleb128 0x1
 2254 0092 13       		.uleb128 0x13
 2255 0093 00       		.byte	0
 2256 0094 00       		.byte	0
 2257 0095 0C       		.uleb128 0xc
 2258 0096 05       		.uleb128 0x5
 2259 0097 00       		.byte	0
 2260 0098 49       		.uleb128 0x49
 2261 0099 13       		.uleb128 0x13
 2262 009a 00       		.byte	0
 2263 009b 00       		.byte	0
 2264 009c 0D       		.uleb128 0xd
 2265 009d 0F       		.uleb128 0xf
 2266 009e 00       		.byte	0
 2267 009f 0B       		.uleb128 0xb
 2268 00a0 0B       		.uleb128 0xb
 2269 00a1 00       		.byte	0
 2270 00a2 00       		.byte	0
 2271 00a3 0E       		.uleb128 0xe
 2272 00a4 13       		.uleb128 0x13
 2273 00a5 01       		.byte	0x1
 2274 00a6 03       		.uleb128 0x3
ARM GAS  /tmp/ccGZzdhD.s 			page 41


 2275 00a7 0E       		.uleb128 0xe
 2276 00a8 0B       		.uleb128 0xb
 2277 00a9 05       		.uleb128 0x5
 2278 00aa 3A       		.uleb128 0x3a
 2279 00ab 0B       		.uleb128 0xb
 2280 00ac 3B       		.uleb128 0x3b
 2281 00ad 05       		.uleb128 0x5
 2282 00ae 01       		.uleb128 0x1
 2283 00af 13       		.uleb128 0x13
 2284 00b0 00       		.byte	0
 2285 00b1 00       		.byte	0
 2286 00b2 0F       		.uleb128 0xf
 2287 00b3 0D       		.uleb128 0xd
 2288 00b4 00       		.byte	0
 2289 00b5 03       		.uleb128 0x3
 2290 00b6 08       		.uleb128 0x8
 2291 00b7 3A       		.uleb128 0x3a
 2292 00b8 0B       		.uleb128 0xb
 2293 00b9 3B       		.uleb128 0x3b
 2294 00ba 0B       		.uleb128 0xb
 2295 00bb 49       		.uleb128 0x49
 2296 00bc 13       		.uleb128 0x13
 2297 00bd 38       		.uleb128 0x38
 2298 00be 0A       		.uleb128 0xa
 2299 00bf 00       		.byte	0
 2300 00c0 00       		.byte	0
 2301 00c1 10       		.uleb128 0x10
 2302 00c2 13       		.uleb128 0x13
 2303 00c3 01       		.byte	0x1
 2304 00c4 0B       		.uleb128 0xb
 2305 00c5 0B       		.uleb128 0xb
 2306 00c6 3A       		.uleb128 0x3a
 2307 00c7 0B       		.uleb128 0xb
 2308 00c8 3B       		.uleb128 0x3b
 2309 00c9 0B       		.uleb128 0xb
 2310 00ca 01       		.uleb128 0x1
 2311 00cb 13       		.uleb128 0x13
 2312 00cc 00       		.byte	0
 2313 00cd 00       		.byte	0
 2314 00ce 11       		.uleb128 0x11
 2315 00cf 17       		.uleb128 0x17
 2316 00d0 01       		.byte	0x1
 2317 00d1 0B       		.uleb128 0xb
 2318 00d2 0B       		.uleb128 0xb
 2319 00d3 3A       		.uleb128 0x3a
 2320 00d4 0B       		.uleb128 0xb
 2321 00d5 3B       		.uleb128 0x3b
 2322 00d6 0B       		.uleb128 0xb
 2323 00d7 01       		.uleb128 0x1
 2324 00d8 13       		.uleb128 0x13
 2325 00d9 00       		.byte	0
 2326 00da 00       		.byte	0
 2327 00db 12       		.uleb128 0x12
 2328 00dc 0D       		.uleb128 0xd
 2329 00dd 00       		.byte	0
 2330 00de 03       		.uleb128 0x3
 2331 00df 0E       		.uleb128 0xe
ARM GAS  /tmp/ccGZzdhD.s 			page 42


 2332 00e0 3A       		.uleb128 0x3a
 2333 00e1 0B       		.uleb128 0xb
 2334 00e2 3B       		.uleb128 0x3b
 2335 00e3 05       		.uleb128 0x5
 2336 00e4 49       		.uleb128 0x49
 2337 00e5 13       		.uleb128 0x13
 2338 00e6 00       		.byte	0
 2339 00e7 00       		.byte	0
 2340 00e8 13       		.uleb128 0x13
 2341 00e9 26       		.uleb128 0x26
 2342 00ea 00       		.byte	0
 2343 00eb 49       		.uleb128 0x49
 2344 00ec 13       		.uleb128 0x13
 2345 00ed 00       		.byte	0
 2346 00ee 00       		.byte	0
 2347 00ef 14       		.uleb128 0x14
 2348 00f0 35       		.uleb128 0x35
 2349 00f1 00       		.byte	0
 2350 00f2 49       		.uleb128 0x49
 2351 00f3 13       		.uleb128 0x13
 2352 00f4 00       		.byte	0
 2353 00f5 00       		.byte	0
 2354 00f6 15       		.uleb128 0x15
 2355 00f7 01       		.uleb128 0x1
 2356 00f8 01       		.byte	0x1
 2357 00f9 49       		.uleb128 0x49
 2358 00fa 13       		.uleb128 0x13
 2359 00fb 01       		.uleb128 0x1
 2360 00fc 13       		.uleb128 0x13
 2361 00fd 00       		.byte	0
 2362 00fe 00       		.byte	0
 2363 00ff 16       		.uleb128 0x16
 2364 0100 21       		.uleb128 0x21
 2365 0101 00       		.byte	0
 2366 0102 49       		.uleb128 0x49
 2367 0103 13       		.uleb128 0x13
 2368 0104 2F       		.uleb128 0x2f
 2369 0105 0B       		.uleb128 0xb
 2370 0106 00       		.byte	0
 2371 0107 00       		.byte	0
 2372 0108 17       		.uleb128 0x17
 2373 0109 15       		.uleb128 0x15
 2374 010a 01       		.byte	0x1
 2375 010b 27       		.uleb128 0x27
 2376 010c 0C       		.uleb128 0xc
 2377 010d 49       		.uleb128 0x49
 2378 010e 13       		.uleb128 0x13
 2379 010f 01       		.uleb128 0x1
 2380 0110 13       		.uleb128 0x13
 2381 0111 00       		.byte	0
 2382 0112 00       		.byte	0
 2383 0113 18       		.uleb128 0x18
 2384 0114 2E       		.uleb128 0x2e
 2385 0115 01       		.byte	0x1
 2386 0116 03       		.uleb128 0x3
 2387 0117 0E       		.uleb128 0xe
 2388 0118 3A       		.uleb128 0x3a
ARM GAS  /tmp/ccGZzdhD.s 			page 43


 2389 0119 0B       		.uleb128 0xb
 2390 011a 3B       		.uleb128 0x3b
 2391 011b 05       		.uleb128 0x5
 2392 011c 27       		.uleb128 0x27
 2393 011d 0C       		.uleb128 0xc
 2394 011e 20       		.uleb128 0x20
 2395 011f 0B       		.uleb128 0xb
 2396 0120 01       		.uleb128 0x1
 2397 0121 13       		.uleb128 0x13
 2398 0122 00       		.byte	0
 2399 0123 00       		.byte	0
 2400 0124 19       		.uleb128 0x19
 2401 0125 05       		.uleb128 0x5
 2402 0126 00       		.byte	0
 2403 0127 03       		.uleb128 0x3
 2404 0128 0E       		.uleb128 0xe
 2405 0129 3A       		.uleb128 0x3a
 2406 012a 0B       		.uleb128 0xb
 2407 012b 3B       		.uleb128 0x3b
 2408 012c 05       		.uleb128 0x5
 2409 012d 49       		.uleb128 0x49
 2410 012e 13       		.uleb128 0x13
 2411 012f 00       		.byte	0
 2412 0130 00       		.byte	0
 2413 0131 1A       		.uleb128 0x1a
 2414 0132 2E       		.uleb128 0x2e
 2415 0133 00       		.byte	0
 2416 0134 03       		.uleb128 0x3
 2417 0135 0E       		.uleb128 0xe
 2418 0136 3A       		.uleb128 0x3a
 2419 0137 0B       		.uleb128 0xb
 2420 0138 3B       		.uleb128 0x3b
 2421 0139 05       		.uleb128 0x5
 2422 013a 27       		.uleb128 0x27
 2423 013b 0C       		.uleb128 0xc
 2424 013c 20       		.uleb128 0x20
 2425 013d 0B       		.uleb128 0xb
 2426 013e 00       		.byte	0
 2427 013f 00       		.byte	0
 2428 0140 1B       		.uleb128 0x1b
 2429 0141 2E       		.uleb128 0x2e
 2430 0142 01       		.byte	0x1
 2431 0143 3F       		.uleb128 0x3f
 2432 0144 0C       		.uleb128 0xc
 2433 0145 03       		.uleb128 0x3
 2434 0146 0E       		.uleb128 0xe
 2435 0147 3A       		.uleb128 0x3a
 2436 0148 0B       		.uleb128 0xb
 2437 0149 3B       		.uleb128 0x3b
 2438 014a 0B       		.uleb128 0xb
 2439 014b 27       		.uleb128 0x27
 2440 014c 0C       		.uleb128 0xc
 2441 014d 49       		.uleb128 0x49
 2442 014e 13       		.uleb128 0x13
 2443 014f 20       		.uleb128 0x20
 2444 0150 0B       		.uleb128 0xb
 2445 0151 01       		.uleb128 0x1
ARM GAS  /tmp/ccGZzdhD.s 			page 44


 2446 0152 13       		.uleb128 0x13
 2447 0153 00       		.byte	0
 2448 0154 00       		.byte	0
 2449 0155 1C       		.uleb128 0x1c
 2450 0156 05       		.uleb128 0x5
 2451 0157 00       		.byte	0
 2452 0158 03       		.uleb128 0x3
 2453 0159 08       		.uleb128 0x8
 2454 015a 3A       		.uleb128 0x3a
 2455 015b 0B       		.uleb128 0xb
 2456 015c 3B       		.uleb128 0x3b
 2457 015d 0B       		.uleb128 0xb
 2458 015e 49       		.uleb128 0x49
 2459 015f 13       		.uleb128 0x13
 2460 0160 00       		.byte	0
 2461 0161 00       		.byte	0
 2462 0162 1D       		.uleb128 0x1d
 2463 0163 34       		.uleb128 0x34
 2464 0164 00       		.byte	0
 2465 0165 03       		.uleb128 0x3
 2466 0166 0E       		.uleb128 0xe
 2467 0167 3A       		.uleb128 0x3a
 2468 0168 0B       		.uleb128 0xb
 2469 0169 3B       		.uleb128 0x3b
 2470 016a 0B       		.uleb128 0xb
 2471 016b 49       		.uleb128 0x49
 2472 016c 13       		.uleb128 0x13
 2473 016d 00       		.byte	0
 2474 016e 00       		.byte	0
 2475 016f 1E       		.uleb128 0x1e
 2476 0170 34       		.uleb128 0x34
 2477 0171 00       		.byte	0
 2478 0172 03       		.uleb128 0x3
 2479 0173 0E       		.uleb128 0xe
 2480 0174 49       		.uleb128 0x49
 2481 0175 13       		.uleb128 0x13
 2482 0176 34       		.uleb128 0x34
 2483 0177 0C       		.uleb128 0xc
 2484 0178 1C       		.uleb128 0x1c
 2485 0179 0E       		.uleb128 0xe
 2486 017a 00       		.byte	0
 2487 017b 00       		.byte	0
 2488 017c 1F       		.uleb128 0x1f
 2489 017d 2E       		.uleb128 0x2e
 2490 017e 01       		.byte	0x1
 2491 017f 3F       		.uleb128 0x3f
 2492 0180 0C       		.uleb128 0xc
 2493 0181 03       		.uleb128 0x3
 2494 0182 0E       		.uleb128 0xe
 2495 0183 3A       		.uleb128 0x3a
 2496 0184 0B       		.uleb128 0xb
 2497 0185 3B       		.uleb128 0x3b
 2498 0186 0B       		.uleb128 0xb
 2499 0187 27       		.uleb128 0x27
 2500 0188 0C       		.uleb128 0xc
 2501 0189 20       		.uleb128 0x20
 2502 018a 0B       		.uleb128 0xb
ARM GAS  /tmp/ccGZzdhD.s 			page 45


 2503 018b 01       		.uleb128 0x1
 2504 018c 13       		.uleb128 0x13
 2505 018d 00       		.byte	0
 2506 018e 00       		.byte	0
 2507 018f 20       		.uleb128 0x20
 2508 0190 05       		.uleb128 0x5
 2509 0191 00       		.byte	0
 2510 0192 03       		.uleb128 0x3
 2511 0193 0E       		.uleb128 0xe
 2512 0194 3A       		.uleb128 0x3a
 2513 0195 0B       		.uleb128 0xb
 2514 0196 3B       		.uleb128 0x3b
 2515 0197 0B       		.uleb128 0xb
 2516 0198 49       		.uleb128 0x49
 2517 0199 13       		.uleb128 0x13
 2518 019a 00       		.byte	0
 2519 019b 00       		.byte	0
 2520 019c 21       		.uleb128 0x21
 2521 019d 34       		.uleb128 0x34
 2522 019e 00       		.byte	0
 2523 019f 03       		.uleb128 0x3
 2524 01a0 08       		.uleb128 0x8
 2525 01a1 3A       		.uleb128 0x3a
 2526 01a2 0B       		.uleb128 0xb
 2527 01a3 3B       		.uleb128 0x3b
 2528 01a4 0B       		.uleb128 0xb
 2529 01a5 49       		.uleb128 0x49
 2530 01a6 13       		.uleb128 0x13
 2531 01a7 00       		.byte	0
 2532 01a8 00       		.byte	0
 2533 01a9 22       		.uleb128 0x22
 2534 01aa 2E       		.uleb128 0x2e
 2535 01ab 01       		.byte	0x1
 2536 01ac 03       		.uleb128 0x3
 2537 01ad 0E       		.uleb128 0xe
 2538 01ae 3A       		.uleb128 0x3a
 2539 01af 0B       		.uleb128 0xb
 2540 01b0 3B       		.uleb128 0x3b
 2541 01b1 0B       		.uleb128 0xb
 2542 01b2 27       		.uleb128 0x27
 2543 01b3 0C       		.uleb128 0xc
 2544 01b4 20       		.uleb128 0x20
 2545 01b5 0B       		.uleb128 0xb
 2546 01b6 01       		.uleb128 0x1
 2547 01b7 13       		.uleb128 0x13
 2548 01b8 00       		.byte	0
 2549 01b9 00       		.byte	0
 2550 01ba 23       		.uleb128 0x23
 2551 01bb 2E       		.uleb128 0x2e
 2552 01bc 01       		.byte	0x1
 2553 01bd 3F       		.uleb128 0x3f
 2554 01be 0C       		.uleb128 0xc
 2555 01bf 03       		.uleb128 0x3
 2556 01c0 0E       		.uleb128 0xe
 2557 01c1 3A       		.uleb128 0x3a
 2558 01c2 0B       		.uleb128 0xb
 2559 01c3 3B       		.uleb128 0x3b
ARM GAS  /tmp/ccGZzdhD.s 			page 46


 2560 01c4 0B       		.uleb128 0xb
 2561 01c5 27       		.uleb128 0x27
 2562 01c6 0C       		.uleb128 0xc
 2563 01c7 11       		.uleb128 0x11
 2564 01c8 01       		.uleb128 0x1
 2565 01c9 12       		.uleb128 0x12
 2566 01ca 01       		.uleb128 0x1
 2567 01cb 40       		.uleb128 0x40
 2568 01cc 0A       		.uleb128 0xa
 2569 01cd 01       		.uleb128 0x1
 2570 01ce 13       		.uleb128 0x13
 2571 01cf 00       		.byte	0
 2572 01d0 00       		.byte	0
 2573 01d1 24       		.uleb128 0x24
 2574 01d2 05       		.uleb128 0x5
 2575 01d3 00       		.byte	0
 2576 01d4 03       		.uleb128 0x3
 2577 01d5 08       		.uleb128 0x8
 2578 01d6 3A       		.uleb128 0x3a
 2579 01d7 0B       		.uleb128 0xb
 2580 01d8 3B       		.uleb128 0x3b
 2581 01d9 0B       		.uleb128 0xb
 2582 01da 49       		.uleb128 0x49
 2583 01db 13       		.uleb128 0x13
 2584 01dc 02       		.uleb128 0x2
 2585 01dd 0A       		.uleb128 0xa
 2586 01de 00       		.byte	0
 2587 01df 00       		.byte	0
 2588 01e0 25       		.uleb128 0x25
 2589 01e1 05       		.uleb128 0x5
 2590 01e2 00       		.byte	0
 2591 01e3 03       		.uleb128 0x3
 2592 01e4 0E       		.uleb128 0xe
 2593 01e5 3A       		.uleb128 0x3a
 2594 01e6 0B       		.uleb128 0xb
 2595 01e7 3B       		.uleb128 0x3b
 2596 01e8 0B       		.uleb128 0xb
 2597 01e9 49       		.uleb128 0x49
 2598 01ea 13       		.uleb128 0x13
 2599 01eb 02       		.uleb128 0x2
 2600 01ec 0A       		.uleb128 0xa
 2601 01ed 00       		.byte	0
 2602 01ee 00       		.byte	0
 2603 01ef 26       		.uleb128 0x26
 2604 01f0 34       		.uleb128 0x34
 2605 01f1 00       		.byte	0
 2606 01f2 03       		.uleb128 0x3
 2607 01f3 0E       		.uleb128 0xe
 2608 01f4 49       		.uleb128 0x49
 2609 01f5 13       		.uleb128 0x13
 2610 01f6 34       		.uleb128 0x34
 2611 01f7 0C       		.uleb128 0xc
 2612 01f8 00       		.byte	0
 2613 01f9 00       		.byte	0
 2614 01fa 27       		.uleb128 0x27
 2615 01fb 2E       		.uleb128 0x2e
 2616 01fc 01       		.byte	0x1
ARM GAS  /tmp/ccGZzdhD.s 			page 47


 2617 01fd 3F       		.uleb128 0x3f
 2618 01fe 0C       		.uleb128 0xc
 2619 01ff 03       		.uleb128 0x3
 2620 0200 0E       		.uleb128 0xe
 2621 0201 3A       		.uleb128 0x3a
 2622 0202 0B       		.uleb128 0xb
 2623 0203 3B       		.uleb128 0x3b
 2624 0204 0B       		.uleb128 0xb
 2625 0205 27       		.uleb128 0x27
 2626 0206 0C       		.uleb128 0xc
 2627 0207 11       		.uleb128 0x11
 2628 0208 01       		.uleb128 0x1
 2629 0209 12       		.uleb128 0x12
 2630 020a 01       		.uleb128 0x1
 2631 020b 40       		.uleb128 0x40
 2632 020c 06       		.uleb128 0x6
 2633 020d 01       		.uleb128 0x1
 2634 020e 13       		.uleb128 0x13
 2635 020f 00       		.byte	0
 2636 0210 00       		.byte	0
 2637 0211 28       		.uleb128 0x28
 2638 0212 05       		.uleb128 0x5
 2639 0213 00       		.byte	0
 2640 0214 03       		.uleb128 0x3
 2641 0215 08       		.uleb128 0x8
 2642 0216 3A       		.uleb128 0x3a
 2643 0217 0B       		.uleb128 0xb
 2644 0218 3B       		.uleb128 0x3b
 2645 0219 0B       		.uleb128 0xb
 2646 021a 49       		.uleb128 0x49
 2647 021b 13       		.uleb128 0x13
 2648 021c 02       		.uleb128 0x2
 2649 021d 06       		.uleb128 0x6
 2650 021e 00       		.byte	0
 2651 021f 00       		.byte	0
 2652 0220 29       		.uleb128 0x29
 2653 0221 1D       		.uleb128 0x1d
 2654 0222 01       		.byte	0x1
 2655 0223 31       		.uleb128 0x31
 2656 0224 13       		.uleb128 0x13
 2657 0225 52       		.uleb128 0x52
 2658 0226 01       		.uleb128 0x1
 2659 0227 55       		.uleb128 0x55
 2660 0228 06       		.uleb128 0x6
 2661 0229 58       		.uleb128 0x58
 2662 022a 0B       		.uleb128 0xb
 2663 022b 59       		.uleb128 0x59
 2664 022c 0B       		.uleb128 0xb
 2665 022d 00       		.byte	0
 2666 022e 00       		.byte	0
 2667 022f 2A       		.uleb128 0x2a
 2668 0230 05       		.uleb128 0x5
 2669 0231 00       		.byte	0
 2670 0232 31       		.uleb128 0x31
 2671 0233 13       		.uleb128 0x13
 2672 0234 02       		.uleb128 0x2
 2673 0235 06       		.uleb128 0x6
ARM GAS  /tmp/ccGZzdhD.s 			page 48


 2674 0236 00       		.byte	0
 2675 0237 00       		.byte	0
 2676 0238 2B       		.uleb128 0x2b
 2677 0239 05       		.uleb128 0x5
 2678 023a 00       		.byte	0
 2679 023b 31       		.uleb128 0x31
 2680 023c 13       		.uleb128 0x13
 2681 023d 00       		.byte	0
 2682 023e 00       		.byte	0
 2683 023f 2C       		.uleb128 0x2c
 2684 0240 1D       		.uleb128 0x1d
 2685 0241 01       		.byte	0x1
 2686 0242 31       		.uleb128 0x31
 2687 0243 13       		.uleb128 0x13
 2688 0244 52       		.uleb128 0x52
 2689 0245 01       		.uleb128 0x1
 2690 0246 55       		.uleb128 0x55
 2691 0247 06       		.uleb128 0x6
 2692 0248 58       		.uleb128 0x58
 2693 0249 0B       		.uleb128 0xb
 2694 024a 59       		.uleb128 0x59
 2695 024b 0B       		.uleb128 0xb
 2696 024c 01       		.uleb128 0x1
 2697 024d 13       		.uleb128 0x13
 2698 024e 00       		.byte	0
 2699 024f 00       		.byte	0
 2700 0250 2D       		.uleb128 0x2d
 2701 0251 1D       		.uleb128 0x1d
 2702 0252 01       		.byte	0x1
 2703 0253 31       		.uleb128 0x31
 2704 0254 13       		.uleb128 0x13
 2705 0255 52       		.uleb128 0x52
 2706 0256 01       		.uleb128 0x1
 2707 0257 55       		.uleb128 0x55
 2708 0258 06       		.uleb128 0x6
 2709 0259 58       		.uleb128 0x58
 2710 025a 0B       		.uleb128 0xb
 2711 025b 59       		.uleb128 0x59
 2712 025c 05       		.uleb128 0x5
 2713 025d 00       		.byte	0
 2714 025e 00       		.byte	0
 2715 025f 2E       		.uleb128 0x2e
 2716 0260 0B       		.uleb128 0xb
 2717 0261 01       		.byte	0x1
 2718 0262 55       		.uleb128 0x55
 2719 0263 06       		.uleb128 0x6
 2720 0264 00       		.byte	0
 2721 0265 00       		.byte	0
 2722 0266 2F       		.uleb128 0x2f
 2723 0267 34       		.uleb128 0x34
 2724 0268 00       		.byte	0
 2725 0269 31       		.uleb128 0x31
 2726 026a 13       		.uleb128 0x13
 2727 026b 00       		.byte	0
 2728 026c 00       		.byte	0
 2729 026d 30       		.uleb128 0x30
 2730 026e 34       		.uleb128 0x34
ARM GAS  /tmp/ccGZzdhD.s 			page 49


 2731 026f 00       		.byte	0
 2732 0270 31       		.uleb128 0x31
 2733 0271 13       		.uleb128 0x13
 2734 0272 02       		.uleb128 0x2
 2735 0273 06       		.uleb128 0x6
 2736 0274 00       		.byte	0
 2737 0275 00       		.byte	0
 2738 0276 31       		.uleb128 0x31
 2739 0277 2E       		.uleb128 0x2e
 2740 0278 01       		.byte	0x1
 2741 0279 31       		.uleb128 0x31
 2742 027a 13       		.uleb128 0x13
 2743 027b 11       		.uleb128 0x11
 2744 027c 01       		.uleb128 0x1
 2745 027d 12       		.uleb128 0x12
 2746 027e 01       		.uleb128 0x1
 2747 027f 40       		.uleb128 0x40
 2748 0280 06       		.uleb128 0x6
 2749 0281 01       		.uleb128 0x1
 2750 0282 13       		.uleb128 0x13
 2751 0283 00       		.byte	0
 2752 0284 00       		.byte	0
 2753 0285 32       		.uleb128 0x32
 2754 0286 2E       		.uleb128 0x2e
 2755 0287 01       		.byte	0x1
 2756 0288 3F       		.uleb128 0x3f
 2757 0289 0C       		.uleb128 0xc
 2758 028a 03       		.uleb128 0x3
 2759 028b 0E       		.uleb128 0xe
 2760 028c 3A       		.uleb128 0x3a
 2761 028d 0B       		.uleb128 0xb
 2762 028e 3B       		.uleb128 0x3b
 2763 028f 0B       		.uleb128 0xb
 2764 0290 27       		.uleb128 0x27
 2765 0291 0C       		.uleb128 0xc
 2766 0292 49       		.uleb128 0x49
 2767 0293 13       		.uleb128 0x13
 2768 0294 11       		.uleb128 0x11
 2769 0295 01       		.uleb128 0x1
 2770 0296 12       		.uleb128 0x12
 2771 0297 01       		.uleb128 0x1
 2772 0298 40       		.uleb128 0x40
 2773 0299 06       		.uleb128 0x6
 2774 029a 01       		.uleb128 0x1
 2775 029b 13       		.uleb128 0x13
 2776 029c 00       		.byte	0
 2777 029d 00       		.byte	0
 2778 029e 33       		.uleb128 0x33
 2779 029f 34       		.uleb128 0x34
 2780 02a0 00       		.byte	0
 2781 02a1 03       		.uleb128 0x3
 2782 02a2 0E       		.uleb128 0xe
 2783 02a3 3A       		.uleb128 0x3a
 2784 02a4 0B       		.uleb128 0xb
 2785 02a5 3B       		.uleb128 0x3b
 2786 02a6 0B       		.uleb128 0xb
 2787 02a7 49       		.uleb128 0x49
ARM GAS  /tmp/ccGZzdhD.s 			page 50


 2788 02a8 13       		.uleb128 0x13
 2789 02a9 02       		.uleb128 0x2
 2790 02aa 0A       		.uleb128 0xa
 2791 02ab 00       		.byte	0
 2792 02ac 00       		.byte	0
 2793 02ad 34       		.uleb128 0x34
 2794 02ae 1D       		.uleb128 0x1d
 2795 02af 01       		.byte	0x1
 2796 02b0 31       		.uleb128 0x31
 2797 02b1 13       		.uleb128 0x13
 2798 02b2 11       		.uleb128 0x11
 2799 02b3 01       		.uleb128 0x1
 2800 02b4 12       		.uleb128 0x12
 2801 02b5 01       		.uleb128 0x1
 2802 02b6 58       		.uleb128 0x58
 2803 02b7 0B       		.uleb128 0xb
 2804 02b8 59       		.uleb128 0x59
 2805 02b9 0B       		.uleb128 0xb
 2806 02ba 01       		.uleb128 0x1
 2807 02bb 13       		.uleb128 0x13
 2808 02bc 00       		.byte	0
 2809 02bd 00       		.byte	0
 2810 02be 35       		.uleb128 0x35
 2811 02bf 1D       		.uleb128 0x1d
 2812 02c0 01       		.byte	0x1
 2813 02c1 31       		.uleb128 0x31
 2814 02c2 13       		.uleb128 0x13
 2815 02c3 11       		.uleb128 0x11
 2816 02c4 01       		.uleb128 0x1
 2817 02c5 12       		.uleb128 0x12
 2818 02c6 01       		.uleb128 0x1
 2819 02c7 58       		.uleb128 0x58
 2820 02c8 0B       		.uleb128 0xb
 2821 02c9 59       		.uleb128 0x59
 2822 02ca 05       		.uleb128 0x5
 2823 02cb 00       		.byte	0
 2824 02cc 00       		.byte	0
 2825 02cd 36       		.uleb128 0x36
 2826 02ce 05       		.uleb128 0x5
 2827 02cf 00       		.byte	0
 2828 02d0 31       		.uleb128 0x31
 2829 02d1 13       		.uleb128 0x13
 2830 02d2 1C       		.uleb128 0x1c
 2831 02d3 0B       		.uleb128 0xb
 2832 02d4 00       		.byte	0
 2833 02d5 00       		.byte	0
 2834 02d6 37       		.uleb128 0x37
 2835 02d7 2E       		.uleb128 0x2e
 2836 02d8 01       		.byte	0x1
 2837 02d9 31       		.uleb128 0x31
 2838 02da 13       		.uleb128 0x13
 2839 02db 11       		.uleb128 0x11
 2840 02dc 01       		.uleb128 0x1
 2841 02dd 12       		.uleb128 0x12
 2842 02de 01       		.uleb128 0x1
 2843 02df 40       		.uleb128 0x40
 2844 02e0 0A       		.uleb128 0xa
ARM GAS  /tmp/ccGZzdhD.s 			page 51


 2845 02e1 01       		.uleb128 0x1
 2846 02e2 13       		.uleb128 0x13
 2847 02e3 00       		.byte	0
 2848 02e4 00       		.byte	0
 2849 02e5 38       		.uleb128 0x38
 2850 02e6 05       		.uleb128 0x5
 2851 02e7 00       		.byte	0
 2852 02e8 31       		.uleb128 0x31
 2853 02e9 13       		.uleb128 0x13
 2854 02ea 02       		.uleb128 0x2
 2855 02eb 0A       		.uleb128 0xa
 2856 02ec 00       		.byte	0
 2857 02ed 00       		.byte	0
 2858 02ee 39       		.uleb128 0x39
 2859 02ef 34       		.uleb128 0x34
 2860 02f0 00       		.byte	0
 2861 02f1 31       		.uleb128 0x31
 2862 02f2 13       		.uleb128 0x13
 2863 02f3 02       		.uleb128 0x2
 2864 02f4 0A       		.uleb128 0xa
 2865 02f5 00       		.byte	0
 2866 02f6 00       		.byte	0
 2867 02f7 3A       		.uleb128 0x3a
 2868 02f8 34       		.uleb128 0x34
 2869 02f9 00       		.byte	0
 2870 02fa 03       		.uleb128 0x3
 2871 02fb 0E       		.uleb128 0xe
 2872 02fc 3A       		.uleb128 0x3a
 2873 02fd 0B       		.uleb128 0xb
 2874 02fe 3B       		.uleb128 0x3b
 2875 02ff 05       		.uleb128 0x5
 2876 0300 49       		.uleb128 0x49
 2877 0301 13       		.uleb128 0x13
 2878 0302 3F       		.uleb128 0x3f
 2879 0303 0C       		.uleb128 0xc
 2880 0304 3C       		.uleb128 0x3c
 2881 0305 0C       		.uleb128 0xc
 2882 0306 00       		.byte	0
 2883 0307 00       		.byte	0
 2884 0308 3B       		.uleb128 0x3b
 2885 0309 34       		.uleb128 0x34
 2886 030a 00       		.byte	0
 2887 030b 03       		.uleb128 0x3
 2888 030c 08       		.uleb128 0x8
 2889 030d 3A       		.uleb128 0x3a
 2890 030e 0B       		.uleb128 0xb
 2891 030f 3B       		.uleb128 0x3b
 2892 0310 05       		.uleb128 0x5
 2893 0311 49       		.uleb128 0x49
 2894 0312 13       		.uleb128 0x13
 2895 0313 3F       		.uleb128 0x3f
 2896 0314 0C       		.uleb128 0xc
 2897 0315 3C       		.uleb128 0x3c
 2898 0316 0C       		.uleb128 0xc
 2899 0317 00       		.byte	0
 2900 0318 00       		.byte	0
 2901 0319 00       		.byte	0
ARM GAS  /tmp/ccGZzdhD.s 			page 52


 2902              		.section	.debug_loc,"",%progbits
 2903              	.Ldebug_loc0:
 2904              	.LLST0:
 2905 0000 00000000 		.4byte	.LFB183
 2906 0004 02000000 		.4byte	.LCFI0
 2907 0008 0200     		.2byte	0x2
 2908 000a 7D       		.byte	0x7d
 2909 000b 00       		.sleb128 0
 2910 000c 02000000 		.4byte	.LCFI0
 2911 0010 6A000000 		.4byte	.LFE183
 2912 0014 0200     		.2byte	0x2
 2913 0016 7D       		.byte	0x7d
 2914 0017 10       		.sleb128 16
 2915 0018 00000000 		.4byte	0
 2916 001c 00000000 		.4byte	0
 2917              	.LLST1:
 2918 0020 00000000 		.4byte	.LVL1
 2919 0024 24000000 		.4byte	.LVL7
 2920 0028 0100     		.2byte	0x1
 2921 002a 50       		.byte	0x50
 2922 002b 3C000000 		.4byte	.LVL12
 2923 002f 6A000000 		.4byte	.LFE183
 2924 0033 0100     		.2byte	0x1
 2925 0035 50       		.byte	0x50
 2926 0036 00000000 		.4byte	0
 2927 003a 00000000 		.4byte	0
 2928              	.LLST2:
 2929 003e 00000000 		.4byte	.LVL1
 2930 0042 22000000 		.4byte	.LVL6
 2931 0046 0100     		.2byte	0x1
 2932 0048 51       		.byte	0x51
 2933 0049 22000000 		.4byte	.LVL6
 2934 004d 3A000000 		.4byte	.LVL11
 2935 0051 0200     		.2byte	0x2
 2936 0053 70       		.byte	0x70
 2937 0054 00       		.sleb128 0
 2938 0055 00000000 		.4byte	0
 2939 0059 00000000 		.4byte	0
 2940              	.LLST3:
 2941 005d 00000000 		.4byte	.LVL1
 2942 0061 08000000 		.4byte	.LVL2
 2943 0065 0100     		.2byte	0x1
 2944 0067 52       		.byte	0x52
 2945 0068 08000000 		.4byte	.LVL2
 2946 006c 38000000 		.4byte	.LVL10
 2947 0070 0300     		.2byte	0x3
 2948 0072 72       		.byte	0x72
 2949 0073 01       		.sleb128 1
 2950 0074 9F       		.byte	0x9f
 2951 0075 38000000 		.4byte	.LVL10
 2952 0079 3A000000 		.4byte	.LVL11
 2953 007d 0300     		.2byte	0x3
 2954 007f 72       		.byte	0x72
 2955 0080 02       		.sleb128 2
 2956 0081 9F       		.byte	0x9f
 2957 0082 00000000 		.4byte	0
 2958 0086 00000000 		.4byte	0
ARM GAS  /tmp/ccGZzdhD.s 			page 53


 2959              	.LLST4:
 2960 008a 10000000 		.4byte	.LVL3
 2961 008e 22000000 		.4byte	.LVL6
 2962 0092 0100     		.2byte	0x1
 2963 0094 51       		.byte	0x51
 2964 0095 22000000 		.4byte	.LVL6
 2965 0099 26000000 		.4byte	.LVL8
 2966 009d 0200     		.2byte	0x2
 2967 009f 70       		.byte	0x70
 2968 00a0 00       		.sleb128 0
 2969 00a1 00000000 		.4byte	0
 2970 00a5 00000000 		.4byte	0
 2971              	.LLST6:
 2972 00a9 10000000 		.4byte	.LVL3
 2973 00ad 66000000 		.4byte	.LVL13
 2974 00b1 0300     		.2byte	0x3
 2975 00b3 08       		.byte	0x8
 2976 00b4 20       		.byte	0x20
 2977 00b5 9F       		.byte	0x9f
 2978 00b6 00000000 		.4byte	0
 2979 00ba 00000000 		.4byte	0
 2980              	.LLST7:
 2981 00be 1A000000 		.4byte	.LVL5
 2982 00c2 66000000 		.4byte	.LVL13
 2983 00c6 0200     		.2byte	0x2
 2984 00c8 30       		.byte	0x30
 2985 00c9 9F       		.byte	0x9f
 2986 00ca 00000000 		.4byte	0
 2987 00ce 00000000 		.4byte	0
 2988              	.LLST8:
 2989 00d2 14000000 		.4byte	.LVL4
 2990 00d6 22000000 		.4byte	.LVL6
 2991 00da 0100     		.2byte	0x1
 2992 00dc 51       		.byte	0x51
 2993 00dd 22000000 		.4byte	.LVL6
 2994 00e1 2A000000 		.4byte	.LVL9
 2995 00e5 0200     		.2byte	0x2
 2996 00e7 70       		.byte	0x70
 2997 00e8 00       		.sleb128 0
 2998 00e9 00000000 		.4byte	0
 2999 00ed 00000000 		.4byte	0
 3000              	.LLST10:
 3001 00f1 00000000 		.4byte	.LFB184
 3002 00f5 06000000 		.4byte	.LCFI1
 3003 00f9 0200     		.2byte	0x2
 3004 00fb 7D       		.byte	0x7d
 3005 00fc 00       		.sleb128 0
 3006 00fd 06000000 		.4byte	.LCFI1
 3007 0101 18000000 		.4byte	.LFE184
 3008 0105 0200     		.2byte	0x2
 3009 0107 7D       		.byte	0x7d
 3010 0108 08       		.sleb128 8
 3011 0109 00000000 		.4byte	0
 3012 010d 00000000 		.4byte	0
 3013              	.LLST11:
 3014 0111 00000000 		.4byte	.LVL14
 3015 0115 04000000 		.4byte	.LVL15
ARM GAS  /tmp/ccGZzdhD.s 			page 54


 3016 0119 0100     		.2byte	0x1
 3017 011b 50       		.byte	0x50
 3018 011c 04000000 		.4byte	.LVL15
 3019 0120 15000000 		.4byte	.LVL16-1
 3020 0124 0100     		.2byte	0x1
 3021 0126 52       		.byte	0x52
 3022 0127 00000000 		.4byte	0
 3023 012b 00000000 		.4byte	0
 3024              	.LLST12:
 3025 012f 04000000 		.4byte	.LVL15
 3026 0133 15000000 		.4byte	.LVL16-1
 3027 0137 0200     		.2byte	0x2
 3028 0139 72       		.byte	0x72
 3029 013a 00       		.sleb128 0
 3030 013b 16000000 		.4byte	.LVL16
 3031 013f 18000000 		.4byte	.LFE184
 3032 0143 0100     		.2byte	0x1
 3033 0145 50       		.byte	0x50
 3034 0146 00000000 		.4byte	0
 3035 014a 00000000 		.4byte	0
 3036              	.LLST13:
 3037 014e 00000000 		.4byte	.LFB185
 3038 0152 02000000 		.4byte	.LCFI2
 3039 0156 0200     		.2byte	0x2
 3040 0158 7D       		.byte	0x7d
 3041 0159 00       		.sleb128 0
 3042 015a 02000000 		.4byte	.LCFI2
 3043 015e 2C000000 		.4byte	.LFE185
 3044 0162 0200     		.2byte	0x2
 3045 0164 7D       		.byte	0x7d
 3046 0165 08       		.sleb128 8
 3047 0166 00000000 		.4byte	0
 3048 016a 00000000 		.4byte	0
 3049              	.LLST14:
 3050 016e 00000000 		.4byte	.LVL17
 3051 0172 0C000000 		.4byte	.LVL19
 3052 0176 0100     		.2byte	0x1
 3053 0178 50       		.byte	0x50
 3054 0179 12000000 		.4byte	.LVL20
 3055 017d 14000000 		.4byte	.LVL21
 3056 0181 0100     		.2byte	0x1
 3057 0183 52       		.byte	0x52
 3058 0184 1A000000 		.4byte	.LVL22
 3059 0188 23000000 		.4byte	.LVL24-1
 3060 018c 0100     		.2byte	0x1
 3061 018e 52       		.byte	0x52
 3062 018f 00000000 		.4byte	0
 3063 0193 00000000 		.4byte	0
 3064              	.LLST15:
 3065 0197 0A000000 		.4byte	.LVL18
 3066 019b 0C000000 		.4byte	.LVL19
 3067 019f 0100     		.2byte	0x1
 3068 01a1 50       		.byte	0x50
 3069 01a2 0C000000 		.4byte	.LVL19
 3070 01a6 14000000 		.4byte	.LVL21
 3071 01aa 0100     		.2byte	0x1
 3072 01ac 52       		.byte	0x52
ARM GAS  /tmp/ccGZzdhD.s 			page 55


 3073 01ad 1A000000 		.4byte	.LVL22
 3074 01b1 23000000 		.4byte	.LVL24-1
 3075 01b5 0100     		.2byte	0x1
 3076 01b7 52       		.byte	0x52
 3077 01b8 00000000 		.4byte	0
 3078 01bc 00000000 		.4byte	0
 3079              	.LLST16:
 3080 01c0 0C000000 		.4byte	.LVL19
 3081 01c4 14000000 		.4byte	.LVL21
 3082 01c8 0200     		.2byte	0x2
 3083 01ca 72       		.byte	0x72
 3084 01cb 00       		.sleb128 0
 3085 01cc 14000000 		.4byte	.LVL21
 3086 01d0 22000000 		.4byte	.LVL23
 3087 01d4 0100     		.2byte	0x1
 3088 01d6 50       		.byte	0x50
 3089 01d7 22000000 		.4byte	.LVL23
 3090 01db 23000000 		.4byte	.LVL24-1
 3091 01df 0200     		.2byte	0x2
 3092 01e1 72       		.byte	0x72
 3093 01e2 00       		.sleb128 0
 3094 01e3 24000000 		.4byte	.LVL24
 3095 01e7 2C000000 		.4byte	.LFE185
 3096 01eb 0100     		.2byte	0x1
 3097 01ed 50       		.byte	0x50
 3098 01ee 00000000 		.4byte	0
 3099 01f2 00000000 		.4byte	0
 3100              	.LLST17:
 3101 01f6 12000000 		.4byte	.LVL20
 3102 01fa 1A000000 		.4byte	.LVL22
 3103 01fe 0200     		.2byte	0x2
 3104 0200 30       		.byte	0x30
 3105 0201 9F       		.byte	0x9f
 3106 0202 24000000 		.4byte	.LVL24
 3107 0206 2C000000 		.4byte	.LFE185
 3108 020a 0200     		.2byte	0x2
 3109 020c 30       		.byte	0x30
 3110 020d 9F       		.byte	0x9f
 3111 020e 00000000 		.4byte	0
 3112 0212 00000000 		.4byte	0
 3113              		.section	.debug_aranges,"",%progbits
 3114 0000 44000000 		.4byte	0x44
 3115 0004 0200     		.2byte	0x2
 3116 0006 00000000 		.4byte	.Ldebug_info0
 3117 000a 04       		.byte	0x4
 3118 000b 00       		.byte	0
 3119 000c 0000     		.2byte	0
 3120 000e 0000     		.2byte	0
 3121 0010 00000000 		.4byte	.LFB182
 3122 0014 0A000000 		.4byte	.LFE182-.LFB182
 3123 0018 00000000 		.4byte	.LFB183
 3124 001c 6A000000 		.4byte	.LFE183-.LFB183
 3125 0020 00000000 		.4byte	.LFB184
 3126 0024 18000000 		.4byte	.LFE184-.LFB184
 3127 0028 00000000 		.4byte	.LFB185
 3128 002c 2C000000 		.4byte	.LFE185-.LFB185
 3129 0030 00000000 		.4byte	.LFB186
ARM GAS  /tmp/ccGZzdhD.s 			page 56


 3130 0034 08000000 		.4byte	.LFE186-.LFB186
 3131 0038 00000000 		.4byte	.LFB187
 3132 003c 14000000 		.4byte	.LFE187-.LFB187
 3133 0040 00000000 		.4byte	0
 3134 0044 00000000 		.4byte	0
 3135              		.section	.debug_ranges,"",%progbits
 3136              	.Ldebug_ranges0:
 3137 0000 08000000 		.4byte	.LBB77
 3138 0004 1E000000 		.4byte	.LBE77
 3139 0008 26000000 		.4byte	.LBB135
 3140 000c 34000000 		.4byte	.LBE135
 3141 0010 3C000000 		.4byte	.LBB136
 3142 0014 4A000000 		.4byte	.LBE136
 3143 0018 50000000 		.4byte	.LBB137
 3144 001c 5E000000 		.4byte	.LBE137
 3145 0020 00000000 		.4byte	0
 3146 0024 00000000 		.4byte	0
 3147 0028 08000000 		.4byte	.LBB78
 3148 002c 1E000000 		.4byte	.LBE78
 3149 0030 26000000 		.4byte	.LBB132
 3150 0034 34000000 		.4byte	.LBE132
 3151 0038 3C000000 		.4byte	.LBB133
 3152 003c 4A000000 		.4byte	.LBE133
 3153 0040 50000000 		.4byte	.LBB134
 3154 0044 5E000000 		.4byte	.LBE134
 3155 0048 00000000 		.4byte	0
 3156 004c 00000000 		.4byte	0
 3157 0050 08000000 		.4byte	.LBB79
 3158 0054 0A000000 		.4byte	.LBE79
 3159 0058 10000000 		.4byte	.LBB116
 3160 005c 14000000 		.4byte	.LBE116
 3161 0060 26000000 		.4byte	.LBB123
 3162 0064 2A000000 		.4byte	.LBE123
 3163 0068 3C000000 		.4byte	.LBB126
 3164 006c 40000000 		.4byte	.LBE126
 3165 0070 50000000 		.4byte	.LBB129
 3166 0074 54000000 		.4byte	.LBE129
 3167 0078 00000000 		.4byte	0
 3168 007c 00000000 		.4byte	0
 3169 0080 08000000 		.4byte	.LBB80
 3170 0084 0A000000 		.4byte	.LBE80
 3171 0088 10000000 		.4byte	.LBB91
 3172 008c 14000000 		.4byte	.LBE91
 3173 0090 26000000 		.4byte	.LBB92
 3174 0094 2A000000 		.4byte	.LBE92
 3175 0098 3C000000 		.4byte	.LBB93
 3176 009c 40000000 		.4byte	.LBE93
 3177 00a0 50000000 		.4byte	.LBB94
 3178 00a4 54000000 		.4byte	.LBE94
 3179 00a8 00000000 		.4byte	0
 3180 00ac 00000000 		.4byte	0
 3181 00b0 08000000 		.4byte	.LBB81
 3182 00b4 0A000000 		.4byte	.LBE81
 3183 00b8 10000000 		.4byte	.LBB87
 3184 00bc 14000000 		.4byte	.LBE87
 3185 00c0 26000000 		.4byte	.LBB88
 3186 00c4 2A000000 		.4byte	.LBE88
ARM GAS  /tmp/ccGZzdhD.s 			page 57


 3187 00c8 3C000000 		.4byte	.LBB89
 3188 00cc 40000000 		.4byte	.LBE89
 3189 00d0 50000000 		.4byte	.LBB90
 3190 00d4 54000000 		.4byte	.LBE90
 3191 00d8 00000000 		.4byte	0
 3192 00dc 00000000 		.4byte	0
 3193 00e0 0A000000 		.4byte	.LBB95
 3194 00e4 10000000 		.4byte	.LBE95
 3195 00e8 1A000000 		.4byte	.LBB122
 3196 00ec 1E000000 		.4byte	.LBE122
 3197 00f0 30000000 		.4byte	.LBB125
 3198 00f4 34000000 		.4byte	.LBE125
 3199 00f8 46000000 		.4byte	.LBB128
 3200 00fc 4A000000 		.4byte	.LBE128
 3201 0100 5A000000 		.4byte	.LBB131
 3202 0104 5E000000 		.4byte	.LBE131
 3203 0108 00000000 		.4byte	0
 3204 010c 00000000 		.4byte	0
 3205 0110 0A000000 		.4byte	.LBB96
 3206 0114 10000000 		.4byte	.LBE96
 3207 0118 1A000000 		.4byte	.LBB112
 3208 011c 1E000000 		.4byte	.LBE112
 3209 0120 30000000 		.4byte	.LBB113
 3210 0124 34000000 		.4byte	.LBE113
 3211 0128 46000000 		.4byte	.LBB114
 3212 012c 4A000000 		.4byte	.LBE114
 3213 0130 5A000000 		.4byte	.LBB115
 3214 0134 5E000000 		.4byte	.LBE115
 3215 0138 00000000 		.4byte	0
 3216 013c 00000000 		.4byte	0
 3217 0140 0A000000 		.4byte	.LBB97
 3218 0144 10000000 		.4byte	.LBE97
 3219 0148 1A000000 		.4byte	.LBB108
 3220 014c 1E000000 		.4byte	.LBE108
 3221 0150 30000000 		.4byte	.LBB109
 3222 0154 34000000 		.4byte	.LBE109
 3223 0158 46000000 		.4byte	.LBB110
 3224 015c 4A000000 		.4byte	.LBE110
 3225 0160 5A000000 		.4byte	.LBB111
 3226 0164 5E000000 		.4byte	.LBE111
 3227 0168 00000000 		.4byte	0
 3228 016c 00000000 		.4byte	0
 3229 0170 0A000000 		.4byte	.LBB98
 3230 0174 10000000 		.4byte	.LBE98
 3231 0178 1A000000 		.4byte	.LBB104
 3232 017c 1E000000 		.4byte	.LBE104
 3233 0180 30000000 		.4byte	.LBB105
 3234 0184 34000000 		.4byte	.LBE105
 3235 0188 46000000 		.4byte	.LBB106
 3236 018c 4A000000 		.4byte	.LBE106
 3237 0190 5A000000 		.4byte	.LBB107
 3238 0194 5E000000 		.4byte	.LBE107
 3239 0198 00000000 		.4byte	0
 3240 019c 00000000 		.4byte	0
 3241 01a0 14000000 		.4byte	.LBB117
 3242 01a4 1A000000 		.4byte	.LBE117
 3243 01a8 2A000000 		.4byte	.LBB124
ARM GAS  /tmp/ccGZzdhD.s 			page 58


 3244 01ac 30000000 		.4byte	.LBE124
 3245 01b0 40000000 		.4byte	.LBB127
 3246 01b4 46000000 		.4byte	.LBE127
 3247 01b8 54000000 		.4byte	.LBB130
 3248 01bc 5A000000 		.4byte	.LBE130
 3249 01c0 00000000 		.4byte	0
 3250 01c4 00000000 		.4byte	0
 3251 01c8 14000000 		.4byte	.LBB118
 3252 01cc 1A000000 		.4byte	.LBE118
 3253 01d0 2A000000 		.4byte	.LBB119
 3254 01d4 30000000 		.4byte	.LBE119
 3255 01d8 40000000 		.4byte	.LBB120
 3256 01dc 46000000 		.4byte	.LBE120
 3257 01e0 54000000 		.4byte	.LBB121
 3258 01e4 5A000000 		.4byte	.LBE121
 3259 01e8 00000000 		.4byte	0
 3260 01ec 00000000 		.4byte	0
 3261 01f0 0A000000 		.4byte	.LBB142
 3262 01f4 12000000 		.4byte	.LBE142
 3263 01f8 1A000000 		.4byte	.LBB154
 3264 01fc 24000000 		.4byte	.LBE154
 3265 0200 00000000 		.4byte	0
 3266 0204 00000000 		.4byte	0
 3267 0208 0A000000 		.4byte	.LBB143
 3268 020c 12000000 		.4byte	.LBE143
 3269 0210 1A000000 		.4byte	.LBB144
 3270 0214 24000000 		.4byte	.LBE144
 3271 0218 00000000 		.4byte	0
 3272 021c 00000000 		.4byte	0
 3273 0220 12000000 		.4byte	.LBB145
 3274 0224 18000000 		.4byte	.LBE145
 3275 0228 24000000 		.4byte	.LBB155
 3276 022c 2A000000 		.4byte	.LBE155
 3277 0230 00000000 		.4byte	0
 3278 0234 00000000 		.4byte	0
 3279 0238 12000000 		.4byte	.LBB146
 3280 023c 18000000 		.4byte	.LBE146
 3281 0240 24000000 		.4byte	.LBB153
 3282 0244 2A000000 		.4byte	.LBE153
 3283 0248 00000000 		.4byte	0
 3284 024c 00000000 		.4byte	0
 3285 0250 12000000 		.4byte	.LBB147
 3286 0254 18000000 		.4byte	.LBE147
 3287 0258 24000000 		.4byte	.LBB152
 3288 025c 2A000000 		.4byte	.LBE152
 3289 0260 00000000 		.4byte	0
 3290 0264 00000000 		.4byte	0
 3291 0268 12000000 		.4byte	.LBB148
 3292 026c 18000000 		.4byte	.LBE148
 3293 0270 24000000 		.4byte	.LBB151
 3294 0274 2A000000 		.4byte	.LBE151
 3295 0278 00000000 		.4byte	0
 3296 027c 00000000 		.4byte	0
 3297 0280 06000000 		.4byte	.LBB160
 3298 0284 08000000 		.4byte	.LBE160
 3299 0288 0A000000 		.4byte	.LBB172
 3300 028c 0E000000 		.4byte	.LBE172
ARM GAS  /tmp/ccGZzdhD.s 			page 59


 3301 0290 00000000 		.4byte	0
 3302 0294 00000000 		.4byte	0
 3303 0298 06000000 		.4byte	.LBB161
 3304 029c 08000000 		.4byte	.LBE161
 3305 02a0 0A000000 		.4byte	.LBB162
 3306 02a4 0E000000 		.4byte	.LBE162
 3307 02a8 00000000 		.4byte	0
 3308 02ac 00000000 		.4byte	0
 3309 02b0 08000000 		.4byte	.LBB163
 3310 02b4 0A000000 		.4byte	.LBE163
 3311 02b8 0E000000 		.4byte	.LBB173
 3312 02bc 12000000 		.4byte	.LBE173
 3313 02c0 00000000 		.4byte	0
 3314 02c4 00000000 		.4byte	0
 3315 02c8 08000000 		.4byte	.LBB164
 3316 02cc 0A000000 		.4byte	.LBE164
 3317 02d0 0E000000 		.4byte	.LBB171
 3318 02d4 12000000 		.4byte	.LBE171
 3319 02d8 00000000 		.4byte	0
 3320 02dc 00000000 		.4byte	0
 3321 02e0 08000000 		.4byte	.LBB165
 3322 02e4 0A000000 		.4byte	.LBE165
 3323 02e8 0E000000 		.4byte	.LBB170
 3324 02ec 12000000 		.4byte	.LBE170
 3325 02f0 00000000 		.4byte	0
 3326 02f4 00000000 		.4byte	0
 3327 02f8 08000000 		.4byte	.LBB166
 3328 02fc 0A000000 		.4byte	.LBE166
 3329 0300 0E000000 		.4byte	.LBB169
 3330 0304 12000000 		.4byte	.LBE169
 3331 0308 00000000 		.4byte	0
 3332 030c 00000000 		.4byte	0
 3333 0310 00000000 		.4byte	.LFB182
 3334 0314 0A000000 		.4byte	.LFE182
 3335 0318 00000000 		.4byte	.LFB183
 3336 031c 6A000000 		.4byte	.LFE183
 3337 0320 00000000 		.4byte	.LFB184
 3338 0324 18000000 		.4byte	.LFE184
 3339 0328 00000000 		.4byte	.LFB185
 3340 032c 2C000000 		.4byte	.LFE185
 3341 0330 00000000 		.4byte	.LFB186
 3342 0334 08000000 		.4byte	.LFE186
 3343 0338 00000000 		.4byte	.LFB187
 3344 033c 14000000 		.4byte	.LFE187
 3345 0340 00000000 		.4byte	0
 3346 0344 00000000 		.4byte	0
 3347              		.section	.debug_line,"",%progbits
 3348              	.Ldebug_line0:
 3349 0000 4F040000 		.section	.debug_str,"MS",%progbits,1
 3349      02001A03 
 3349      00000201 
 3349      FB0E0D00 
 3349      01010101 
 3350              	.LASF45:
 3351 0000 63685F74 		.ascii	"ch_threads_list\000"
 3351      68726561 
 3351      64735F6C 
ARM GAS  /tmp/ccGZzdhD.s 			page 60


 3351      69737400 
 3352              	.LASF46:
 3353 0010 74687265 		.ascii	"threads_queue_t\000"
 3353      6164735F 
 3353      71756575 
 3353      655F7400 
 3354              	.LASF35:
 3355 0020 705F7761 		.ascii	"p_waiting\000"
 3355      6974696E 
 3355      6700
 3356              	.LASF87:
 3357 002a 77746D74 		.ascii	"wtmtxp\000"
 3357      787000
 3358              	.LASF105:
 3359 0031 6D656D6F 		.ascii	"memory_pool_t\000"
 3359      72795F70 
 3359      6F6F6C5F 
 3359      7400
 3360              	.LASF81:
 3361 003f 746D5F63 		.ascii	"tm_calibration_t\000"
 3361      616C6962 
 3361      72617469 
 3361      6F6E5F74 
 3361      00
 3362              	.LASF96:
 3363 0050 63686172 		.ascii	"char\000"
 3363      00
 3364              	.LASF76:
 3365 0055 72656761 		.ascii	"regarm_t\000"
 3365      726D5F74 
 3365      00
 3366              	.LASF27:
 3367 005e 705F7072 		.ascii	"p_prio\000"
 3367      696F00
 3368              	.LASF117:
 3369 0065 6368506F 		.ascii	"chPoolAdd\000"
 3369      6F6C4164 
 3369      6400
 3370              	.LASF23:
 3371 006f 73797374 		.ascii	"systime_t\000"
 3371      696D655F 
 3371      7400
 3372              	.LASF94:
 3373 0079 6D5F6F77 		.ascii	"m_owner\000"
 3373      6E657200 
 3374              	.LASF90:
 3375 0081 735F7175 		.ascii	"s_queue\000"
 3375      65756500 
 3376              	.LASF36:
 3377 0089 705F6D73 		.ascii	"p_msgqueue\000"
 3377      67717565 
 3377      756500
 3378              	.LASF0:
 3379 0094 756E7369 		.ascii	"unsigned int\000"
 3379      676E6564 
 3379      20696E74 
 3379      00
ARM GAS  /tmp/ccGZzdhD.s 			page 61


 3380              	.LASF43:
 3381 00a1 74687265 		.ascii	"threads_list_t\000"
 3381      6164735F 
 3381      6C697374 
 3381      5F7400
 3382              	.LASF84:
 3383 00b0 77746F62 		.ascii	"wtobjp\000"
 3383      6A7000
 3384              	.LASF106:
 3385 00b7 706F7274 		.ascii	"port_lock\000"
 3385      5F6C6F63 
 3385      6B00
 3386              	.LASF73:
 3387 00c1 76746C69 		.ascii	"vtlist\000"
 3387      737400
 3388              	.LASF49:
 3389 00c8 63685F72 		.ascii	"ch_ready_list\000"
 3389      65616479 
 3389      5F6C6973 
 3389      7400
 3390              	.LASF75:
 3391 00d6 69646C65 		.ascii	"idle_thread_wa\000"
 3391      5F746872 
 3391      6561645F 
 3391      776100
 3392              	.LASF88:
 3393 00e5 65776D61 		.ascii	"ewmask\000"
 3393      736B00
 3394              	.LASF47:
 3395 00ec 63685F74 		.ascii	"ch_threads_queue\000"
 3395      68726561 
 3395      64735F71 
 3395      75657565 
 3395      00
 3396              	.LASF56:
 3397 00fd 76746675 		.ascii	"vtfunc_t\000"
 3397      6E635F74 
 3397      00
 3398              	.LASF91:
 3399 0106 735F636E 		.ascii	"s_cnt\000"
 3399      7400
 3400              	.LASF68:
 3401 010c 63685F73 		.ascii	"ch_system_debug\000"
 3401      79737465 
 3401      6D5F6465 
 3401      62756700 
 3402              	.LASF10:
 3403 011c 75696E74 		.ascii	"uint32_t\000"
 3403      33325F74 
 3403      00
 3404              	.LASF21:
 3405 0125 6576656E 		.ascii	"eventmask_t\000"
 3405      746D6173 
 3405      6B5F7400 
 3406              	.LASF51:
 3407 0131 725F7072 		.ascii	"r_prio\000"
 3407      696F00
ARM GAS  /tmp/ccGZzdhD.s 			page 62


 3408              	.LASF63:
 3409 0138 76745F70 		.ascii	"vt_par\000"
 3409      617200
 3410              	.LASF89:
 3411 013f 63685F73 		.ascii	"ch_semaphore\000"
 3411      656D6170 
 3411      686F7265 
 3411      00
 3412              	.LASF19:
 3413 014c 74707269 		.ascii	"tprio_t\000"
 3413      6F5F7400 
 3414              	.LASF58:
 3415 0154 63685F76 		.ascii	"ch_virtual_timer\000"
 3415      69727475 
 3415      616C5F74 
 3415      696D6572 
 3415      00
 3416              	.LASF124:
 3417 0165 2E2E2F2E 		.ascii	"../../../resources/chibios/ChibiOS_16.1.8/os/rt/src"
 3417      2E2F2E2E 
 3417      2F726573 
 3417      6F757263 
 3417      65732F63 
 3418 0198 2F63686D 		.ascii	"/chmempools.c\000"
 3418      656D706F 
 3418      6F6C732E 
 3418      6300
 3419              	.LASF14:
 3420 01a6 6C6F6E67 		.ascii	"long long unsigned int\000"
 3420      206C6F6E 
 3420      6720756E 
 3420      7369676E 
 3420      65642069 
 3421              	.LASF101:
 3422 01bd 70685F6E 		.ascii	"ph_next\000"
 3422      65787400 
 3423              	.LASF22:
 3424 01c5 636E745F 		.ascii	"cnt_t\000"
 3424      7400
 3425              	.LASF113:
 3426 01cb 63685379 		.ascii	"chSysUnlock\000"
 3426      73556E6C 
 3426      6F636B00 
 3427              	.LASF29:
 3428 01d7 705F6E65 		.ascii	"p_newer\000"
 3428      77657200 
 3429              	.LASF109:
 3430 01df 76616C75 		.ascii	"value\000"
 3430      6500
 3431              	.LASF65:
 3432 01e5 63685F76 		.ascii	"ch_virtual_timers_list\000"
 3432      69727475 
 3432      616C5F74 
 3432      696D6572 
 3432      735F6C69 
 3433              	.LASF24:
 3434 01fc 74687265 		.ascii	"thread_t\000"
ARM GAS  /tmp/ccGZzdhD.s 			page 63


 3434      61645F74 
 3434      00
 3435              	.LASF2:
 3436 0205 73697A65 		.ascii	"size_t\000"
 3436      5F7400
 3437              	.LASF82:
 3438 020c 7264796D 		.ascii	"rdymsg\000"
 3438      736700
 3439              	.LASF80:
 3440 0213 6F666673 		.ascii	"offset\000"
 3440      657400
 3441              	.LASF98:
 3442 021a 5F426F6F 		.ascii	"_Bool\000"
 3442      6C00
 3443              	.LASF92:
 3444 0220 63685F6D 		.ascii	"ch_mutex\000"
 3444      75746578 
 3444      00
 3445              	.LASF108:
 3446 0229 63685379 		.ascii	"chSysLock\000"
 3446      734C6F63 
 3446      6B00
 3447              	.LASF31:
 3448 0233 705F6E61 		.ascii	"p_name\000"
 3448      6D6500
 3449              	.LASF116:
 3450 023a 6368506F 		.ascii	"chPoolFree\000"
 3450      6F6C4672 
 3450      656500
 3451              	.LASF61:
 3452 0245 76745F64 		.ascii	"vt_delta\000"
 3452      656C7461 
 3452      00
 3453              	.LASF42:
 3454 024e 74687265 		.ascii	"thread_reference_t\000"
 3454      61645F72 
 3454      65666572 
 3454      656E6365 
 3454      5F7400
 3455              	.LASF66:
 3456 0261 76745F6C 		.ascii	"vt_lasttime\000"
 3456      61737474 
 3456      696D6500 
 3457              	.LASF17:
 3458 026d 74737461 		.ascii	"tstate_t\000"
 3458      74655F74 
 3458      00
 3459              	.LASF30:
 3460 0276 705F6F6C 		.ascii	"p_older\000"
 3460      64657200 
 3461              	.LASF32:
 3462 027e 705F7374 		.ascii	"p_state\000"
 3462      61746500 
 3463              	.LASF3:
 3464 0286 75696E74 		.ascii	"uint8_t\000"
 3464      385F7400 
 3465              	.LASF102:
ARM GAS  /tmp/ccGZzdhD.s 			page 64


 3466 028e 6D705F6E 		.ascii	"mp_next\000"
 3466      65787400 
 3467              	.LASF41:
 3468 0296 705F6D70 		.ascii	"p_mpool\000"
 3468      6F6F6C00 
 3469              	.LASF39:
 3470 029e 705F6D74 		.ascii	"p_mtxlist\000"
 3470      786C6973 
 3470      7400
 3471              	.LASF44:
 3472 02a8 63685F74 		.ascii	"ch_thread\000"
 3472      68726561 
 3472      6400
 3473              	.LASF67:
 3474 02b2 73797374 		.ascii	"system_debug_t\000"
 3474      656D5F64 
 3474      65627567 
 3474      5F7400
 3475              	.LASF12:
 3476 02c1 6C6F6E67 		.ascii	"long long int\000"
 3476      206C6F6E 
 3476      6720696E 
 3476      7400
 3477              	.LASF50:
 3478 02cf 725F7175 		.ascii	"r_queue\000"
 3478      65756500 
 3479              	.LASF53:
 3480 02d7 725F6E65 		.ascii	"r_newer\000"
 3480      77657200 
 3481              	.LASF20:
 3482 02df 6D73675F 		.ascii	"msg_t\000"
 3482      7400
 3483              	.LASF78:
 3484 02e5 636F6E74 		.ascii	"context\000"
 3484      65787400 
 3485              	.LASF120:
 3486 02ed 6368506F 		.ascii	"chPoolObjectInit\000"
 3486      6F6C4F62 
 3486      6A656374 
 3486      496E6974 
 3486      00
 3487              	.LASF33:
 3488 02fe 705F666C 		.ascii	"p_flags\000"
 3488      61677300 
 3489              	.LASF57:
 3490 0306 76697274 		.ascii	"virtual_timer_t\000"
 3490      75616C5F 
 3490      74696D65 
 3490      725F7400 
 3491              	.LASF110:
 3492 0316 6F626A70 		.ascii	"objp\000"
 3492      00
 3493              	.LASF125:
 3494 031b 2F686F6D 		.ascii	"/home/madog/Documents/proyectos/CYCLE/repos/harvest"
 3494      652F6D61 
 3494      646F672F 
 3494      446F6375 
ARM GAS  /tmp/ccGZzdhD.s 			page 65


 3494      6D656E74 
 3495 034e 65722F73 		.ascii	"er/src\000"
 3495      726300
 3496              	.LASF118:
 3497 0355 73697A65 		.ascii	"size\000"
 3497      00
 3498              	.LASF54:
 3499 035a 725F6F6C 		.ascii	"r_older\000"
 3499      64657200 
 3500              	.LASF103:
 3501 0362 6D705F6F 		.ascii	"mp_object_size\000"
 3501      626A6563 
 3501      745F7369 
 3501      7A6500
 3502              	.LASF69:
 3503 0371 70616E69 		.ascii	"panic_msg\000"
 3503      635F6D73 
 3503      6700
 3504              	.LASF37:
 3505 037b 705F6D73 		.ascii	"p_msg\000"
 3505      6700
 3506              	.LASF16:
 3507 0381 746D6F64 		.ascii	"tmode_t\000"
 3507      655F7400 
 3508              	.LASF74:
 3509 0389 6D61696E 		.ascii	"mainthread\000"
 3509      74687265 
 3509      616400
 3510              	.LASF6:
 3511 0394 75696E74 		.ascii	"uint16_t\000"
 3511      31365F74 
 3511      00
 3512              	.LASF15:
 3513 039d 7274636E 		.ascii	"rtcnt_t\000"
 3513      745F7400 
 3514              	.LASF40:
 3515 03a5 705F7265 		.ascii	"p_realprio\000"
 3515      616C7072 
 3515      696F00
 3516              	.LASF5:
 3517 03b0 73686F72 		.ascii	"short int\000"
 3517      7420696E 
 3517      7400
 3518              	.LASF55:
 3519 03ba 725F6375 		.ascii	"r_current\000"
 3519      7272656E 
 3519      7400
 3520              	.LASF38:
 3521 03c4 705F6570 		.ascii	"p_epending\000"
 3521      656E6469 
 3521      6E6700
 3522              	.LASF93:
 3523 03cf 6D5F7175 		.ascii	"m_queue\000"
 3523      65756500 
 3524              	.LASF9:
 3525 03d7 6C6F6E67 		.ascii	"long int\000"
 3525      20696E74 
ARM GAS  /tmp/ccGZzdhD.s 			page 66


 3525      00
 3526              	.LASF79:
 3527 03e0 706F7274 		.ascii	"port_intctx\000"
 3527      5F696E74 
 3527      63747800 
 3528              	.LASF122:
 3529 03ec 49544D5F 		.ascii	"ITM_RxBuffer\000"
 3529      52784275 
 3529      66666572 
 3529      00
 3530              	.LASF71:
 3531 03f9 63685F73 		.ascii	"ch_system\000"
 3531      79737465 
 3531      6D00
 3532              	.LASF121:
 3533 0403 6368506F 		.ascii	"chPoolLoadArray\000"
 3533      6F6C4C6F 
 3533      61644172 
 3533      72617900 
 3534              	.LASF112:
 3535 0413 5F5F7365 		.ascii	"__set_BASEPRI\000"
 3535      745F4241 
 3535      53455052 
 3535      4900
 3536              	.LASF25:
 3537 0421 705F6E65 		.ascii	"p_next\000"
 3537      787400
 3538              	.LASF119:
 3539 0428 70726F76 		.ascii	"provider\000"
 3539      69646572 
 3539      00
 3540              	.LASF13:
 3541 0431 75696E74 		.ascii	"uint64_t\000"
 3541      36345F74 
 3541      00
 3542              	.LASF28:
 3543 043a 705F6374 		.ascii	"p_ctx\000"
 3543      7800
 3544              	.LASF72:
 3545 0440 726C6973 		.ascii	"rlist\000"
 3545      7400
 3546              	.LASF126:
 3547 0446 6368506F 		.ascii	"chPoolAlloc\000"
 3547      6F6C416C 
 3547      6C6F6300 
 3548              	.LASF99:
 3549 0452 6D656D67 		.ascii	"memgetfunc_t\000"
 3549      65746675 
 3549      6E635F74 
 3549      00
 3550              	.LASF26:
 3551 045f 705F7072 		.ascii	"p_prev\000"
 3551      657600
 3552              	.LASF18:
 3553 0466 74726566 		.ascii	"trefs_t\000"
 3553      735F7400 
 3554              	.LASF11:
ARM GAS  /tmp/ccGZzdhD.s 			page 67


 3555 046e 6C6F6E67 		.ascii	"long unsigned int\000"
 3555      20756E73 
 3555      69676E65 
 3555      6420696E 
 3555      7400
 3556              	.LASF48:
 3557 0480 72656164 		.ascii	"ready_list_t\000"
 3557      795F6C69 
 3557      73745F74 
 3557      00
 3558              	.LASF115:
 3559 048d 6368506F 		.ascii	"chPoolFreeI\000"
 3559      6F6C4672 
 3559      65654900 
 3560              	.LASF8:
 3561 0499 696E7433 		.ascii	"int32_t\000"
 3561      325F7400 
 3562              	.LASF86:
 3563 04a1 77747365 		.ascii	"wtsemp\000"
 3563      6D7000
 3564              	.LASF123:
 3565 04a8 474E5520 		.ascii	"GNU C 4.6.1\000"
 3565      4320342E 
 3565      362E3100 
 3566              	.LASF97:
 3567 04b4 6D757465 		.ascii	"mutex_t\000"
 3567      785F7400 
 3568              	.LASF4:
 3569 04bc 756E7369 		.ascii	"unsigned char\000"
 3569      676E6564 
 3569      20636861 
 3569      7200
 3570              	.LASF64:
 3571 04ca 76697274 		.ascii	"virtual_timers_list_t\000"
 3571      75616C5F 
 3571      74696D65 
 3571      72735F6C 
 3571      6973745F 
 3572              	.LASF34:
 3573 04e0 705F7265 		.ascii	"p_refs\000"
 3573      667300
 3574              	.LASF114:
 3575 04e7 6368506F 		.ascii	"chPoolAllocI\000"
 3575      6F6C416C 
 3575      6C6F6349 
 3575      00
 3576              	.LASF100:
 3577 04f4 706F6F6C 		.ascii	"pool_header\000"
 3577      5F686561 
 3577      64657200 
 3578              	.LASF59:
 3579 0500 76745F6E 		.ascii	"vt_next\000"
 3579      65787400 
 3580              	.LASF70:
 3581 0508 63685F73 		.ascii	"ch_system_t\000"
 3581      79737465 
 3581      6D5F7400 
ARM GAS  /tmp/ccGZzdhD.s 			page 68


 3582              	.LASF85:
 3583 0514 77747472 		.ascii	"wttrp\000"
 3583      7000
 3584              	.LASF95:
 3585 051a 6D5F6E65 		.ascii	"m_next\000"
 3585      787400
 3586              	.LASF1:
 3587 0521 7369676E 		.ascii	"signed char\000"
 3587      65642063 
 3587      68617200 
 3588              	.LASF7:
 3589 052d 73686F72 		.ascii	"short unsigned int\000"
 3589      7420756E 
 3589      7369676E 
 3589      65642069 
 3589      6E7400
 3590              	.LASF52:
 3591 0540 725F6374 		.ascii	"r_ctx\000"
 3591      7800
 3592              	.LASF77:
 3593 0546 73746B61 		.ascii	"stkalign_t\000"
 3593      6C69676E 
 3593      5F7400
 3594              	.LASF111:
 3595 0551 5F5F6675 		.ascii	"__func__\000"
 3595      6E635F5F 
 3595      00
 3596              	.LASF62:
 3597 055a 76745F66 		.ascii	"vt_func\000"
 3597      756E6300 
 3598              	.LASF107:
 3599 0562 706F7274 		.ascii	"port_unlock\000"
 3599      5F756E6C 
 3599      6F636B00 
 3600              	.LASF60:
 3601 056e 76745F70 		.ascii	"vt_prev\000"
 3601      72657600 
 3602              	.LASF83:
 3603 0576 65786974 		.ascii	"exitcode\000"
 3603      636F6465 
 3603      00
 3604              	.LASF104:
 3605 057f 6D705F70 		.ascii	"mp_provider\000"
 3605      726F7669 
 3605      64657200 
 3606              		.ident	"GCC: (Sourcery CodeBench Lite 2011.09-69) 4.6.1"
ARM GAS  /tmp/ccGZzdhD.s 			page 69


DEFINED SYMBOLS
                            *ABS*:00000000 chmempools.c
     /tmp/ccGZzdhD.s:19     .text.chPoolObjectInit:00000000 $t
     /tmp/ccGZzdhD.s:25     .text.chPoolObjectInit:00000000 chPoolObjectInit
     /tmp/ccGZzdhD.s:47     .text.chPoolLoadArray:00000000 $t
     /tmp/ccGZzdhD.s:53     .text.chPoolLoadArray:00000000 chPoolLoadArray
     /tmp/ccGZzdhD.s:307    .text.chPoolAllocI:00000000 $t
     /tmp/ccGZzdhD.s:313    .text.chPoolAllocI:00000000 chPoolAllocI
     /tmp/ccGZzdhD.s:351    .text.chPoolAlloc:00000000 $t
     /tmp/ccGZzdhD.s:357    .text.chPoolAlloc:00000000 chPoolAlloc
     /tmp/ccGZzdhD.s:456    .text.chPoolFreeI:00000000 $t
     /tmp/ccGZzdhD.s:462    .text.chPoolFreeI:00000000 chPoolFreeI
     /tmp/ccGZzdhD.s:482    .text.chPoolFree:00000000 $t
     /tmp/ccGZzdhD.s:488    .text.chPoolFree:00000000 chPoolFree
                     .debug_frame:00000010 $d

NO UNDEFINED SYMBOLS
