ARM GAS  /tmp/ccGZzdhD.s 			page 1


   1              		.syntax unified
   2              		.cpu cortex-m3
   3              		.fpu softvfp
   4              		.eabi_attribute 20, 1
   5              		.eabi_attribute 21, 1
   6              		.eabi_attribute 23, 3
   7              		.eabi_attribute 24, 1
   8              		.eabi_attribute 25, 1
   9              		.eabi_attribute 26, 1
  10              		.eabi_attribute 30, 2
  11              		.eabi_attribute 34, 1
  12              		.eabi_attribute 18, 4
  13              		.thumb
  14              		.file	"chmempools.c"
  15              		.text
  16              	.Ltext0:
  17              		.cfi_sections	.debug_frame
  18              		.section	.text.chPoolObjectInit,"ax",%progbits
  19              		.align	2
  20              		.p2align 4,,15
  21              		.global	chPoolObjectInit
  22              		.thumb
  23              		.thumb_func
  24              		.type	chPoolObjectInit, %function
  25              	chPoolObjectInit:
  26              	.LFB182:
  27              		.file 1 "../../../resources/chibios/ChibiOS_16.1.8/os/rt/src/chmempools.c"
  28              		.loc 1 75 0
  29              		.cfi_startproc
  30              		@ args = 0, pretend = 0, frame = 0
  31              		@ frame_needed = 0, uses_anonymous_args = 0
  32              		@ link register save eliminated.
  33              	.LVL0:
  34              		.loc 1 79 0
  35 0000 0023     		movs	r3, #0
  36 0002 0360     		str	r3, [r0, #0]
  37              		.loc 1 80 0
  38 0004 4160     		str	r1, [r0, #4]
  39              		.loc 1 81 0
  40 0006 8260     		str	r2, [r0, #8]
  41              		.loc 1 82 0
  42 0008 7047     		bx	lr
  43              		.cfi_endproc
  44              	.LFE182:
  45              		.size	chPoolObjectInit, .-chPoolObjectInit
  46 000a 00BFAFF3 		.section	.text.chPoolLoadArray,"ax",%progbits
  46      0080
  47              		.align	2
  48              		.p2align 4,,15
  49              		.global	chPoolLoadArray
  50              		.thumb
  51              		.thumb_func
  52              		.type	chPoolLoadArray, %function
  53              	chPoolLoadArray:
  54              	.LFB183:
  55              		.loc 1 97 0
  56              		.cfi_startproc
ARM GAS  /tmp/ccGZzdhD.s 			page 2


  57              		@ args = 0, pretend = 0, frame = 0
  58              		@ frame_needed = 0, uses_anonymous_args = 0
  59              		@ link register save eliminated.
  60              	.LVL1:
  61 0000 F0B4     		push	{r4, r5, r6, r7}
  62              	.LCFI0:
  63              		.cfi_def_cfa_offset 16
  64              		.cfi_offset 7, -4
  65              		.cfi_offset 6, -8
  66              		.cfi_offset 5, -12
  67              		.cfi_offset 4, -16
  68              		.loc 1 101 0
  69 0002 002A     		cmp	r2, #0
  70 0004 2FD0     		beq	.L2
  71 0006 013A     		subs	r2, r2, #1
  72              	.LVL2:
  73              	.LBB77:
  74              	.LBB78:
  75              	.LBB79:
  76              	.LBB80:
  77              	.LBB81:
  78              	.LBB82:
  79              		.file 2 "../../../resources/chibios/ChibiOS_16.1.8/os/ext/CMSIS/include/core_cmFunc.h"
  80              		.loc 2 548 0
  81 0008 2026     		movs	r6, #32
  82              	.LBE82:
  83              	.LBE81:
  84              	.LBE80:
  85              	.LBE79:
  86              	.LBB95:
  87              	.LBB96:
  88              	.LBB97:
  89              	.LBB98:
  90              	.LBB99:
  91 000a 0025     		movs	r5, #0
  92 000c 02F00104 		and	r4, r2, #1
  93              	.LVL3:
  94              	.LBE99:
  95              	.LBE98:
  96              	.LBE97:
  97              	.LBE96:
  98              	.LBE95:
  99              	.LBB116:
 100              	.LBB91:
 101              	.LBB87:
 102              	.LBB83:
 103              	@ 548 "../../../resources/chibios/ChibiOS_16.1.8/os/ext/CMSIS/include/core_cmFunc.h" 1
 104 0010 86F31188 		MSR basepri, r6
 105              	@ 0 "" 2
 106              	.LVL4:
 107              		.thumb
 108              	.LBE83:
 109              	.LBE87:
 110              	.LBE91:
 111              	.LBE116:
 112              	.LBB117:
 113              	.LBB118:
ARM GAS  /tmp/ccGZzdhD.s 			page 3


 114              		.loc 1 177 0
 115 0014 0368     		ldr	r3, [r0, #0]
 116 0016 0B60     		str	r3, [r1, #0]
 117              		.loc 1 178 0
 118 0018 0160     		str	r1, [r0, #0]
 119              	.LVL5:
 120              	.LBE118:
 121              	.LBE117:
 122              	.LBB122:
 123              	.LBB112:
 124              	.LBB108:
 125              	.LBB104:
 126              	.LBB100:
 127              		.loc 2 548 0
 128              	@ 548 "../../../resources/chibios/ChibiOS_16.1.8/os/ext/CMSIS/include/core_cmFunc.h" 1
 129 001a 85F31188 		MSR basepri, r5
 130              	@ 0 "" 2
 131              		.thumb
 132              	.LBE100:
 133              	.LBE104:
 134              	.LBE108:
 135              	.LBE112:
 136              	.LBE122:
 137              	.LBE78:
 138              	.LBE77:
 139              		.loc 1 104 0
 140 001e 4368     		ldr	r3, [r0, #4]
 141 0020 C918     		adds	r1, r1, r3
 142              	.LVL6:
 143              		.loc 1 101 0
 144 0022 02B3     		cbz	r2, .L2
 145              	.LVL7:
 146 0024 54B1     		cbz	r4, .L5
 147              	.LVL8:
 148              	.LBB135:
 149              	.LBB132:
 150              	.LBB123:
 151              	.LBB92:
 152              	.LBB88:
 153              	.LBB84:
 154              		.loc 2 548 0
 155              	@ 548 "../../../resources/chibios/ChibiOS_16.1.8/os/ext/CMSIS/include/core_cmFunc.h" 1
 156 0026 86F31188 		MSR basepri, r6
 157              	@ 0 "" 2
 158              	.LVL9:
 159              		.thumb
 160              	.LBE84:
 161              	.LBE88:
 162              	.LBE92:
 163              	.LBE123:
 164              	.LBB124:
 165              	.LBB119:
 166              		.loc 1 177 0
 167 002a 0368     		ldr	r3, [r0, #0]
 168 002c 0B60     		str	r3, [r1, #0]
 169              		.loc 1 178 0
 170 002e 0160     		str	r1, [r0, #0]
ARM GAS  /tmp/ccGZzdhD.s 			page 4


 171              	.LBE119:
 172              	.LBE124:
 173              	.LBB125:
 174              	.LBB113:
 175              	.LBB109:
 176              	.LBB105:
 177              	.LBB101:
 178              		.loc 2 548 0
 179              	@ 548 "../../../resources/chibios/ChibiOS_16.1.8/os/ext/CMSIS/include/core_cmFunc.h" 1
 180 0030 85F31188 		MSR basepri, r5
 181              	@ 0 "" 2
 182              		.thumb
 183              	.LBE101:
 184              	.LBE105:
 185              	.LBE109:
 186              	.LBE113:
 187              	.LBE125:
 188              	.LBE132:
 189              	.LBE135:
 190              		.loc 1 104 0
 191 0034 4368     		ldr	r3, [r0, #4]
 192              		.loc 1 101 0
 193 0036 013A     		subs	r2, r2, #1
 194              	.LVL10:
 195              		.loc 1 104 0
 196 0038 1944     		add	r1, r1, r3
 197              	.LVL11:
 198              		.loc 1 101 0
 199 003a 14D0     		beq	.L2
 200              	.LVL12:
 201              	.L5:
 202              	.LBB136:
 203              	.LBB133:
 204              	.LBB126:
 205              	.LBB93:
 206              	.LBB89:
 207              	.LBB85:
 208              		.loc 2 548 0
 209              	@ 548 "../../../resources/chibios/ChibiOS_16.1.8/os/ext/CMSIS/include/core_cmFunc.h" 1
 210 003c 86F31188 		MSR basepri, r6
 211              	@ 0 "" 2
 212              		.thumb
 213              	.LBE85:
 214              	.LBE89:
 215              	.LBE93:
 216              	.LBE126:
 217              	.LBB127:
 218              	.LBB120:
 219              		.loc 1 177 0
 220 0040 0468     		ldr	r4, [r0, #0]
 221 0042 0C60     		str	r4, [r1, #0]
 222              		.loc 1 178 0
 223 0044 0160     		str	r1, [r0, #0]
 224              	.LBE120:
 225              	.LBE127:
 226              	.LBB128:
 227              	.LBB114:
ARM GAS  /tmp/ccGZzdhD.s 			page 5


 228              	.LBB110:
 229              	.LBB106:
 230              	.LBB102:
 231              		.loc 2 548 0
 232              	@ 548 "../../../resources/chibios/ChibiOS_16.1.8/os/ext/CMSIS/include/core_cmFunc.h" 1
 233 0046 85F31188 		MSR basepri, r5
 234              	@ 0 "" 2
 235              		.thumb
 236              	.LBE102:
 237              	.LBE106:
 238              	.LBE110:
 239              	.LBE114:
 240              	.LBE128:
 241              	.LBE133:
 242              	.LBE136:
 243              		.loc 1 104 0
 244 004a 4468     		ldr	r4, [r0, #4]
 245              		.loc 1 106 0
 246 004c 013A     		subs	r2, r2, #1
 247              		.loc 1 104 0
 248 004e 0B19     		adds	r3, r1, r4
 249              	.LBB137:
 250              	.LBB134:
 251              	.LBB129:
 252              	.LBB94:
 253              	.LBB90:
 254              	.LBB86:
 255              		.loc 2 548 0
 256              	@ 548 "../../../resources/chibios/ChibiOS_16.1.8/os/ext/CMSIS/include/core_cmFunc.h" 1
 257 0050 86F31188 		MSR basepri, r6
 258              	@ 0 "" 2
 259              		.thumb
 260              	.LBE86:
 261              	.LBE90:
 262              	.LBE94:
 263              	.LBE129:
 264              	.LBB130:
 265              	.LBB121:
 266              		.loc 1 177 0
 267 0054 0768     		ldr	r7, [r0, #0]
 268 0056 0F51     		str	r7, [r1, r4]
 269              		.loc 1 178 0
 270 0058 0360     		str	r3, [r0, #0]
 271              	.LBE121:
 272              	.LBE130:
 273              	.LBB131:
 274              	.LBB115:
 275              	.LBB111:
 276              	.LBB107:
 277              	.LBB103:
 278              		.loc 2 548 0
 279              	@ 548 "../../../resources/chibios/ChibiOS_16.1.8/os/ext/CMSIS/include/core_cmFunc.h" 1
 280 005a 85F31188 		MSR basepri, r5
 281              	@ 0 "" 2
 282              		.thumb
 283              	.LBE103:
 284              	.LBE107:
ARM GAS  /tmp/ccGZzdhD.s 			page 6


 285              	.LBE111:
 286              	.LBE115:
 287              	.LBE131:
 288              	.LBE134:
 289              	.LBE137:
 290              		.loc 1 104 0
 291 005e 4168     		ldr	r1, [r0, #4]
 292              		.loc 1 101 0
 293 0060 013A     		subs	r2, r2, #1
 294              		.loc 1 104 0
 295 0062 1944     		add	r1, r3, r1
 296              		.loc 1 101 0
 297 0064 EAD1     		bne	.L5
 298              	.LVL13:
 299              	.L2:
 300              		.loc 1 108 0
 301 0066 F0BC     		pop	{r4, r5, r6, r7}
 302 0068 7047     		bx	lr
 303              		.cfi_endproc
 304              	.LFE183:
 305              		.size	chPoolLoadArray, .-chPoolLoadArray
 306 006a 00BFAFF3 		.section	.text.chPoolAllocI,"ax",%progbits
 306      0080
 307              		.align	2
 308              		.p2align 4,,15
 309              		.global	chPoolAllocI
 310              		.thumb
 311              		.thumb_func
 312              		.type	chPoolAllocI, %function
 313              	chPoolAllocI:
 314              	.LFB184:
 315              		.loc 1 120 0
 316              		.cfi_startproc
 317              		@ args = 0, pretend = 0, frame = 0
 318              		@ frame_needed = 0, uses_anonymous_args = 0
 319              	.LVL14:
 320 0000 0246     		mov	r2, r0
 321              		.loc 1 126 0
 322 0002 0068     		ldr	r0, [r0, #0]
 323              	.LVL15:
 324              		.loc 1 120 0
 325 0004 08B5     		push	{r3, lr}
 326              	.LCFI1:
 327              		.cfi_def_cfa_offset 8
 328              		.cfi_offset 14, -4
 329              		.cfi_offset 3, -8
 330              		.loc 1 128 0
 331 0006 10B1     		cbz	r0, .L14
 332              		.loc 1 129 0
 333 0008 0368     		ldr	r3, [r0, #0]
 334 000a 1360     		str	r3, [r2, #0]
 335 000c 08BD     		pop	{r3, pc}
 336              	.L14:
 337              		.loc 1 131 0
 338 000e 9368     		ldr	r3, [r2, #8]
 339 0010 0BB1     		cbz	r3, .L15
 340              		.loc 1 132 0
ARM GAS  /tmp/ccGZzdhD.s 			page 7


 341 0012 5068     		ldr	r0, [r2, #4]
 342 0014 9847     		blx	r3
 343              	.LVL16:
 344              	.L15:
 345              		.loc 1 137 0
 346 0016 08BD     		pop	{r3, pc}
 347              		.cfi_endproc
 348              	.LFE184:
 349              		.size	chPoolAllocI, .-chPoolAllocI
 350 0018 AFF30080 		.section	.text.chPoolAlloc,"ax",%progbits
 350      AFF30080 
 351              		.align	2
 352              		.p2align 4,,15
 353              		.global	chPoolAlloc
 354              		.thumb
 355              		.thumb_func
 356              		.type	chPoolAlloc, %function
 357              	chPoolAlloc:
 358              	.LFB185:
 359              		.loc 1 149 0
 360              		.cfi_startproc
 361              		@ args = 0, pretend = 0, frame = 0
 362              		@ frame_needed = 0, uses_anonymous_args = 0
 363              	.LVL17:
 364 0000 08B5     		push	{r3, lr}
 365              	.LCFI2:
 366              		.cfi_def_cfa_offset 8
 367              		.cfi_offset 14, -4
 368              		.cfi_offset 3, -8
 369              		.loc 1 149 0
 370 0002 0246     		mov	r2, r0
 371              	.LBB138:
 372              	.LBB139:
 373              	.LBB140:
 374              	.LBB141:
 375              		.loc 2 548 0
 376 0004 2023     		movs	r3, #32
 377              	@ 548 "../../../resources/chibios/ChibiOS_16.1.8/os/ext/CMSIS/include/core_cmFunc.h" 1
 378 0006 83F31188 		MSR basepri, r3
 379              	@ 0 "" 2
 380              	.LVL18:
 381              		.thumb
 382              	.LBE141:
 383              	.LBE140:
 384              	.LBE139:
 385              	.LBE138:
 386              	.LBB142:
 387              	.LBB143:
 388              		.loc 1 126 0
 389 000a 0068     		ldr	r0, [r0, #0]
 390              	.LVL19:
 391              		.loc 1 128 0
 392 000c 28B1     		cbz	r0, .L17
 393              		.loc 1 129 0
 394 000e 0168     		ldr	r1, [r0, #0]
 395 0010 1160     		str	r1, [r2, #0]
 396              	.LVL20:
ARM GAS  /tmp/ccGZzdhD.s 			page 8


 397              	.L18:
 398              	.LBE143:
 399              	.LBE142:
 400              	.LBB145:
 401              	.LBB146:
 402              	.LBB147:
 403              	.LBB148:
 404              	.LBB149:
 405              		.loc 2 548 0
 406 0012 0022     		movs	r2, #0
 407              	.LVL21:
 408              	@ 548 "../../../resources/chibios/ChibiOS_16.1.8/os/ext/CMSIS/include/core_cmFunc.h" 1
 409 0014 82F31188 		MSR basepri, r2
 410              	@ 0 "" 2
 411              		.thumb
 412              	.LBE149:
 413              	.LBE148:
 414              	.LBE147:
 415              	.LBE146:
 416              	.LBE145:
 417              		.loc 1 157 0
 418 0018 08BD     		pop	{r3, pc}
 419              	.LVL22:
 420              	.L17:
 421              	.LBB154:
 422              	.LBB144:
 423              		.loc 1 131 0
 424 001a 9368     		ldr	r3, [r2, #8]
 425 001c 002B     		cmp	r3, #0
 426 001e F8D0     		beq	.L18
 427              		.loc 1 132 0
 428 0020 5068     		ldr	r0, [r2, #4]
 429              	.LVL23:
 430 0022 9847     		blx	r3
 431              	.LVL24:
 432              	.LBE144:
 433              	.LBE154:
 434              	.LBB155:
 435              	.LBB153:
 436              	.LBB152:
 437              	.LBB151:
 438              	.LBB150:
 439              		.loc 2 548 0
 440 0024 0022     		movs	r2, #0
 441              	@ 548 "../../../resources/chibios/ChibiOS_16.1.8/os/ext/CMSIS/include/core_cmFunc.h" 1
 442 0026 82F31188 		MSR basepri, r2
 443              	@ 0 "" 2
 444              		.thumb
 445              	.LBE150:
 446              	.LBE151:
 447              	.LBE152:
 448              	.LBE153:
 449              	.LBE155:
 450              		.loc 1 157 0
 451 002a 08BD     		pop	{r3, pc}
 452              		.cfi_endproc
 453              	.LFE185:
ARM GAS  /tmp/ccGZzdhD.s 			page 9


 454              		.size	chPoolAlloc, .-chPoolAlloc
 455 002c AFF30080 		.section	.text.chPoolFreeI,"ax",%progbits
 456              		.align	2
 457              		.p2align 4,,15
 458              		.global	chPoolFreeI
 459              		.thumb
 460              		.thumb_func
 461              		.type	chPoolFreeI, %function
 462              	chPoolFreeI:
 463              	.LFB186:
 464              		.loc 1 171 0
 465              		.cfi_startproc
 466              		@ args = 0, pretend = 0, frame = 0
 467              		@ frame_needed = 0, uses_anonymous_args = 0
 468              		@ link register save eliminated.
 469              	.LVL25:
 470              		.loc 1 177 0
 471 0000 0368     		ldr	r3, [r0, #0]
 472              	.LVL26:
 473 0002 0B60     		str	r3, [r1, #0]
 474              		.loc 1 178 0
 475 0004 0160     		str	r1, [r0, #0]
 476              		.loc 1 179 0
 477 0006 7047     		bx	lr
 478              		.cfi_endproc
 479              	.LFE186:
 480              		.size	chPoolFreeI, .-chPoolFreeI
 481 0008 AFF30080 		.section	.text.chPoolFree,"ax",%progbits
 481      AFF30080 
 482              		.align	2
 483              		.p2align 4,,15
 484              		.global	chPoolFree
 485              		.thumb
 486              		.thumb_func
 487              		.type	chPoolFree, %function
 488              	chPoolFree:
 489              	.LFB187:
 490              		.loc 1 193 0
 491              		.cfi_startproc
 492              		@ args = 0, pretend = 0, frame = 0
 493              		@ frame_needed = 0, uses_anonymous_args = 0
 494              		@ link register save eliminated.
 495              	.LVL27:
 496              	.LBB156:
 497              	.LBB157:
 498              	.LBB158:
 499              	.LBB159:
 500              		.loc 2 548 0
 501 0000 2023     		movs	r3, #32
 502              	@ 548 "../../../resources/chibios/ChibiOS_16.1.8/os/ext/CMSIS/include/core_cmFunc.h" 1
 503 0002 83F31188 		MSR basepri, r3
 504              	@ 0 "" 2
 505              	.LVL28:
 506              		.thumb
 507              	.LBE159:
 508              	.LBE158:
 509              	.LBE157:
ARM GAS  /tmp/ccGZzdhD.s 			page 10


 510              	.LBE156:
 511              	.LBB160:
 512              	.LBB161:
 513              		.loc 1 177 0
 514 0006 0268     		ldr	r2, [r0, #0]
 515              	.LBE161:
 516              	.LBE160:
 517              	.LBB163:
 518              	.LBB164:
 519              	.LBB165:
 520              	.LBB166:
 521              	.LBB167:
 522              		.loc 2 548 0
 523 0008 0023     		movs	r3, #0
 524              	.LBE167:
 525              	.LBE166:
 526              	.LBE165:
 527              	.LBE164:
 528              	.LBE163:
 529              	.LBB172:
 530              	.LBB162:
 531              		.loc 1 177 0
 532 000a 0A60     		str	r2, [r1, #0]
 533              		.loc 1 178 0
 534 000c 0160     		str	r1, [r0, #0]
 535              	.LVL29:
 536              	.LBE162:
 537              	.LBE172:
 538              	.LBB173:
 539              	.LBB171:
 540              	.LBB170:
 541              	.LBB169:
 542              	.LBB168:
 543              		.loc 2 548 0
 544              	@ 548 "../../../resources/chibios/ChibiOS_16.1.8/os/ext/CMSIS/include/core_cmFunc.h" 1
 545 000e 83F31188 		MSR basepri, r3
 546              	@ 0 "" 2
 547              		.thumb
 548              	.LBE168:
 549              	.LBE169:
 550              	.LBE170:
 551              	.LBE171:
 552              	.LBE173:
 553              		.loc 1 198 0
 554 0012 7047     		bx	lr
 555              		.cfi_endproc
 556              	.LFE187:
 557              		.size	chPoolFree, .-chPoolFree
 558 0014 AFF30080 		.text
 558      AFF30080 
 558      AFF30080 
 559              	.Letext0:
 560              		.file 3 "/home/madog/programs/CodeSourcery/Sourcery_CodeBench_Lite_for_ARM_EABI/bin/../lib/gcc/arm
 561              		.file 4 "/home/madog/programs/CodeSourcery/Sourcery_CodeBench_Lite_for_ARM_EABI/bin/../lib/gcc/arm
 562              		.file 5 "../../../resources/chibios/ChibiOS_16.1.8/os/rt/ports/ARMCMx/compilers/GCC/chtypes.h"
 563              		.file 6 "../../../resources/chibios/ChibiOS_16.1.8/os/rt/include/chsystypes.h"
 564              		.file 7 "../../../resources/chibios/ChibiOS_16.1.8/os/rt/include/chschd.h"
ARM GAS  /tmp/ccGZzdhD.s 			page 11


 565              		.file 8 "../../../resources/chibios/ChibiOS_16.1.8/os/rt/ports/ARMCMx/chcore.h"
 566              		.file 9 "../../../resources/chibios/ChibiOS_16.1.8/os/rt/ports/ARMCMx/chcore_v7m.h"
 567              		.file 10 "../../../resources/chibios/ChibiOS_16.1.8/os/rt/include/chtm.h"
 568              		.file 11 "../../../resources/chibios/ChibiOS_16.1.8/os/rt/include/chsem.h"
 569              		.file 12 "../../../resources/chibios/ChibiOS_16.1.8/os/rt/include/chmtx.h"
 570              		.file 13 "../../../resources/chibios/ChibiOS_16.1.8/os/rt/include/chmemcore.h"
 571              		.file 14 "../../../resources/chibios/ChibiOS_16.1.8/os/rt/include/chmempools.h"
 572              		.file 15 "../../../resources/chibios/ChibiOS_16.1.8/os/rt/include/chsys.h"
 573              		.file 16 "../../../resources/chibios/ChibiOS_16.1.8/os/ext/CMSIS/include/core_cm3.h"