ARM GAS  /tmp/ccTtpWue.s 			page 1


   1              		.syntax unified
   2              		.cpu cortex-m3
   3              		.fpu softvfp
   4              		.eabi_attribute 20, 1
   5              		.eabi_attribute 21, 1
   6              		.eabi_attribute 23, 3
   7              		.eabi_attribute 24, 1
   8              		.eabi_attribute 25, 1
   9              		.eabi_attribute 26, 1
  10              		.eabi_attribute 30, 2
  11              		.eabi_attribute 34, 1
  12              		.eabi_attribute 18, 4
  13              		.thumb
  14              		.file	"chmsg.c"
  15              		.text
  16              	.Ltext0:
  17              		.cfi_sections	.debug_frame
  18              		.section	.text.chMsgSend,"ax",%progbits
  19              		.align	2
  20              		.p2align 4,,15
  21              		.global	chMsgSend
  22              		.thumb
  23              		.thumb_func
  24              		.type	chMsgSend, %function
  25              	chMsgSend:
  26              	.LFB182:
  27              		.file 1 "../../../resources/chibios/ChibiOS_16.1.8/os/rt/src/chmsg.c"
  28              		.loc 1 87 0
  29              		.cfi_startproc
  30              		@ args = 0, pretend = 0, frame = 0
  31              		@ frame_needed = 0, uses_anonymous_args = 0
  32              	.LVL0:
  33 0000 70B5     		push	{r4, r5, r6, lr}
  34              	.LCFI0:
  35              		.cfi_def_cfa_offset 16
  36              		.cfi_offset 14, -4
  37              		.cfi_offset 6, -8
  38              		.cfi_offset 5, -12
  39              		.cfi_offset 4, -16
  40              		.loc 1 88 0
  41 0002 40F20004 		movw	r4, #:lower16:ch
  42 0006 C0F20004 		movt	r4, #:upper16:ch
  43 000a A469     		ldr	r4, [r4, #24]
  44              	.LVL1:
  45              	.LBB52:
  46              	.LBB53:
  47              	.LBB54:
  48              	.LBB55:
  49              		.file 2 "../../../resources/chibios/ChibiOS_16.1.8/os/ext/CMSIS/include/core_cmFunc.h"
  50              		.loc 2 548 0
  51 000c 2023     		movs	r3, #32
  52              	@ 548 "../../../resources/chibios/ChibiOS_16.1.8/os/ext/CMSIS/include/core_cmFunc.h" 1
  53 000e 83F31188 		MSR basepri, r3
  54              	@ 0 "" 2
  55              		.thumb
  56              	.LBE55:
  57              	.LBE54:
ARM GAS  /tmp/ccTtpWue.s 			page 2


  58              	.LBE53:
  59              	.LBE52:
  60              		.loc 1 94 0
  61 0012 00F12805 		add	r5, r0, #40
  62 0016 2562     		str	r5, [r4, #32]
  63              	.LVL2:
  64              		.loc 1 96 0
  65 0018 067F     		ldrb	r6, [r0, #28]	@ zero_extendqisi2
  66              	.LBB56:
  67              	.LBB57:
  68              		.file 3 "../../../resources/chibios/ChibiOS_16.1.8/os/rt/include/chschd.h"
  69              		.loc 3 666 0
  70 001a C26A     		ldr	r2, [r0, #44]
  71              	.LBE57:
  72              	.LBE56:
  73              		.loc 1 96 0
  74 001c 0E2E     		cmp	r6, #14
  75              	.LBB60:
  76              	.LBB58:
  77              		.loc 3 665 0
  78 001e 2560     		str	r5, [r4, #0]
  79              	.LBE58:
  80              	.LBE60:
  81              		.loc 1 93 0
  82 0020 2163     		str	r1, [r4, #48]
  83              	.LBB61:
  84              	.LBB59:
  85              		.loc 3 666 0
  86 0022 6260     		str	r2, [r4, #4]
  87              		.loc 3 667 0
  88 0024 1460     		str	r4, [r2, #0]
  89              		.loc 3 668 0
  90 0026 C462     		str	r4, [r0, #44]
  91              	.LBE59:
  92              	.LBE61:
  93              		.loc 1 96 0
  94 0028 07D0     		beq	.L4
  95              		.loc 1 99 0
  96 002a 0C20     		movs	r0, #12
  97              	.LVL3:
  98 002c FFF7FEFF 		bl	chSchGoSleepS
  99              	.LVL4:
 100              		.loc 1 100 0
 101 0030 206A     		ldr	r0, [r4, #32]
 102              	.LVL5:
 103              	.LBB62:
 104              	.LBB63:
 105              	.LBB64:
 106              	.LBB65:
 107              	.LBB66:
 108              		.loc 2 548 0
 109 0032 0021     		movs	r1, #0
 110              	@ 548 "../../../resources/chibios/ChibiOS_16.1.8/os/ext/CMSIS/include/core_cmFunc.h" 1
 111 0034 81F31188 		MSR basepri, r1
 112              	@ 0 "" 2
 113              		.thumb
 114              	.LBE66:
ARM GAS  /tmp/ccTtpWue.s 			page 3


 115              	.LBE65:
 116              	.LBE64:
 117              	.LBE63:
 118              	.LBE62:
 119              		.loc 1 104 0
 120 0038 70BD     		pop	{r4, r5, r6, pc}
 121              	.LVL6:
 122              	.L4:
 123              		.loc 1 97 0
 124 003a FFF7FEFF 		bl	chSchReadyI
 125              	.LVL7:
 126              		.loc 1 99 0
 127 003e 0C20     		movs	r0, #12
 128 0040 FFF7FEFF 		bl	chSchGoSleepS
 129              		.loc 1 100 0
 130 0044 206A     		ldr	r0, [r4, #32]
 131              	.LVL8:
 132              	.LBB71:
 133              	.LBB70:
 134              	.LBB69:
 135              	.LBB68:
 136              	.LBB67:
 137              		.loc 2 548 0
 138 0046 0021     		movs	r1, #0
 139              	@ 548 "../../../resources/chibios/ChibiOS_16.1.8/os/ext/CMSIS/include/core_cmFunc.h" 1
 140 0048 81F31188 		MSR basepri, r1
 141              	@ 0 "" 2
 142              		.thumb
 143              	.LBE67:
 144              	.LBE68:
 145              	.LBE69:
 146              	.LBE70:
 147              	.LBE71:
 148              		.loc 1 104 0
 149 004c 70BD     		pop	{r4, r5, r6, pc}
 150              		.cfi_endproc
 151              	.LFE182:
 152              		.size	chMsgSend, .-chMsgSend
 153 004e 00BF     		.section	.text.chMsgWait,"ax",%progbits
 154              		.align	2
 155              		.p2align 4,,15
 156              		.global	chMsgWait
 157              		.thumb
 158              		.thumb_func
 159              		.type	chMsgWait, %function
 160              	chMsgWait:
 161              	.LFB183:
 162              		.loc 1 120 0
 163              		.cfi_startproc
 164              		@ args = 0, pretend = 0, frame = 0
 165              		@ frame_needed = 0, uses_anonymous_args = 0
 166              	.LVL9:
 167 0000 10B5     		push	{r4, lr}
 168              	.LCFI1:
 169              		.cfi_def_cfa_offset 8
 170              		.cfi_offset 14, -4
 171              		.cfi_offset 4, -8
ARM GAS  /tmp/ccTtpWue.s 			page 4


 172              	.LBB72:
 173              	.LBB73:
 174              	.LBB74:
 175              	.LBB75:
 176              		.loc 2 548 0
 177 0002 2023     		movs	r3, #32
 178              	@ 548 "../../../resources/chibios/ChibiOS_16.1.8/os/ext/CMSIS/include/core_cmFunc.h" 1
 179 0004 83F31188 		MSR basepri, r3
 180              	@ 0 "" 2
 181              		.thumb
 182              	.LBE75:
 183              	.LBE74:
 184              	.LBE73:
 185              	.LBE72:
 186              		.loc 1 124 0
 187 0008 40F20004 		movw	r4, #:lower16:ch
 188 000c C0F20004 		movt	r4, #:upper16:ch
 189 0010 A269     		ldr	r2, [r4, #24]
 190              	.LVL10:
 191              	.LBB76:
 192              	.LBB77:
 193              		.file 4 "../../../resources/chibios/ChibiOS_16.1.8/os/rt/include/chmsg.h"
 194              		.loc 4 83 0
 195 0012 1346     		mov	r3, r2
 196 0014 53F8280F 		ldr	r0, [r3, #40]!
 197              	.LBE77:
 198              	.LBE76:
 199              		.loc 1 124 0
 200 0018 9842     		cmp	r0, r3
 201 001a 08D0     		beq	.L7
 202              	.LVL11:
 203              	.L6:
 204              	.LBB78:
 205              	.LBB79:
 206              		.loc 3 674 0
 207 001c 0168     		ldr	r1, [r0, #0]
 208 001e 9162     		str	r1, [r2, #40]
 209              	.LBE79:
 210              	.LBE78:
 211              		.loc 1 128 0
 212 0020 0D22     		movs	r2, #13
 213              	.LVL12:
 214              	.LBB81:
 215              	.LBB80:
 216              		.loc 3 675 0
 217 0022 4B60     		str	r3, [r1, #4]
 218              	.LBE80:
 219              	.LBE81:
 220              		.loc 1 128 0
 221 0024 0277     		strb	r2, [r0, #28]
 222              	.LVL13:
 223              	.LBB82:
 224              	.LBB83:
 225              	.LBB84:
 226              	.LBB85:
 227              	.LBB86:
 228              		.loc 2 548 0
ARM GAS  /tmp/ccTtpWue.s 			page 5


 229 0026 0021     		movs	r1, #0
 230              	@ 548 "../../../resources/chibios/ChibiOS_16.1.8/os/ext/CMSIS/include/core_cmFunc.h" 1
 231 0028 81F31188 		MSR basepri, r1
 232              	@ 0 "" 2
 233              		.thumb
 234              	.LBE86:
 235              	.LBE85:
 236              	.LBE84:
 237              	.LBE83:
 238              	.LBE82:
 239              		.loc 1 132 0
 240 002c 10BD     		pop	{r4, pc}
 241              	.LVL14:
 242              	.L7:
 243              		.loc 1 125 0
 244 002e 0E20     		movs	r0, #14
 245 0030 FFF7FEFF 		bl	chSchGoSleepS
 246              	.LVL15:
 247 0034 A269     		ldr	r2, [r4, #24]
 248 0036 1346     		mov	r3, r2
 249 0038 53F8280F 		ldr	r0, [r3, #40]!
 250 003c EEE7     		b	.L6
 251              		.cfi_endproc
 252              	.LFE183:
 253              		.size	chMsgWait, .-chMsgWait
 254 003e 00BF     		.section	.text.chMsgRelease,"ax",%progbits
 255              		.align	2
 256              		.p2align 4,,15
 257              		.global	chMsgRelease
 258              		.thumb
 259              		.thumb_func
 260              		.type	chMsgRelease, %function
 261              	chMsgRelease:
 262              	.LFB184:
 263              		.loc 1 144 0
 264              		.cfi_startproc
 265              		@ args = 0, pretend = 0, frame = 0
 266              		@ frame_needed = 0, uses_anonymous_args = 0
 267              	.LVL16:
 268 0000 08B5     		push	{r3, lr}
 269              	.LCFI2:
 270              		.cfi_def_cfa_offset 8
 271              		.cfi_offset 14, -4
 272              		.cfi_offset 3, -8
 273              	.LBB87:
 274              	.LBB88:
 275              	.LBB89:
 276              	.LBB90:
 277              		.loc 2 548 0
 278 0002 2022     		movs	r2, #32
 279              	@ 548 "../../../resources/chibios/ChibiOS_16.1.8/os/ext/CMSIS/include/core_cmFunc.h" 1
 280 0004 82F31188 		MSR basepri, r2
 281              	@ 0 "" 2
 282              		.thumb
 283              	.LBE90:
 284              	.LBE89:
 285              	.LBE88:
ARM GAS  /tmp/ccTtpWue.s 			page 6


 286              	.LBE87:
 287              	.LBB91:
 288              	.LBB92:
 289              		.loc 4 115 0
 290 0008 FFF7FEFF 		bl	chSchWakeupS
 291              	.LVL17:
 292              	.LBE92:
 293              	.LBE91:
 294              	.LBB93:
 295              	.LBB94:
 296              	.LBB95:
 297              	.LBB96:
 298              	.LBB97:
 299              		.loc 2 548 0
 300 000c 0023     		movs	r3, #0
 301              	@ 548 "../../../resources/chibios/ChibiOS_16.1.8/os/ext/CMSIS/include/core_cmFunc.h" 1
 302 000e 83F31188 		MSR basepri, r3
 303              	@ 0 "" 2
 304              		.thumb
 305              	.LBE97:
 306              	.LBE96:
 307              	.LBE95:
 308              	.LBE94:
 309              	.LBE93:
 310              		.loc 1 150 0
 311 0012 08BD     		pop	{r3, pc}
 312              		.cfi_endproc
 313              	.LFE184:
 314              		.size	chMsgRelease, .-chMsgRelease
 315 0014 AFF30080 		.text
 315      AFF30080 
 315      AFF30080 
 316              	.Letext0:
 317              		.file 5 "/home/madog/programs/CodeSourcery/Sourcery_CodeBench_Lite_for_ARM_EABI/bin/../lib/gcc/arm
 318              		.file 6 "../../../resources/chibios/ChibiOS_16.1.8/os/rt/ports/ARMCMx/compilers/GCC/chtypes.h"
 319              		.file 7 "../../../resources/chibios/ChibiOS_16.1.8/os/rt/include/chsystypes.h"
 320              		.file 8 "../../../resources/chibios/ChibiOS_16.1.8/os/rt/ports/ARMCMx/chcore.h"
 321              		.file 9 "../../../resources/chibios/ChibiOS_16.1.8/os/rt/ports/ARMCMx/chcore_v7m.h"
 322              		.file 10 "../../../resources/chibios/ChibiOS_16.1.8/os/rt/include/chtm.h"
 323              		.file 11 "../../../resources/chibios/ChibiOS_16.1.8/os/rt/include/chsem.h"
 324              		.file 12 "../../../resources/chibios/ChibiOS_16.1.8/os/rt/include/chmtx.h"
 325              		.file 13 "../../../resources/chibios/ChibiOS_16.1.8/os/rt/include/chsys.h"
 326              		.file 14 "../../../resources/chibios/ChibiOS_16.1.8/os/ext/CMSIS/include/core_cm3.h"
 327              		.section	.debug_info,"",%progbits
 328              	.Ldebug_info0:
 329 0000 A50A0000 		.4byte	0xaa5
 330 0004 0200     		.2byte	0x2
 331 0006 00000000 		.4byte	.Ldebug_abbrev0
 332 000a 04       		.byte	0x4
 333 000b 01       		.uleb128 0x1
 334 000c 41040000 		.4byte	.LASF112
 335 0010 01       		.byte	0x1
 336 0011 C8030000 		.4byte	.LASF113
 337 0015 BD020000 		.4byte	.LASF114
 338 0019 00000000 		.4byte	0
 339 001d 00000000 		.4byte	0
 340 0021 B0000000 		.4byte	.Ldebug_ranges0+0xb0
ARM GAS  /tmp/ccTtpWue.s 			page 7


 341 0025 00000000 		.4byte	.Ldebug_line0
 342 0029 02       		.uleb128 0x2
 343 002a 04       		.byte	0x4
 344 002b 05       		.byte	0x5
 345 002c 696E7400 		.ascii	"int\000"
 346 0030 03       		.uleb128 0x3
 347 0031 04       		.byte	0x4
 348 0032 07       		.byte	0x7
 349 0033 8E000000 		.4byte	.LASF0
 350 0037 03       		.uleb128 0x3
 351 0038 01       		.byte	0x1
 352 0039 06       		.byte	0x6
 353 003a BF040000 		.4byte	.LASF1
 354 003e 04       		.uleb128 0x4
 355 003f 3C020000 		.4byte	.LASF4
 356 0043 05       		.byte	0x5
 357 0044 2A       		.byte	0x2a
 358 0045 49000000 		.4byte	0x49
 359 0049 03       		.uleb128 0x3
 360 004a 01       		.byte	0x1
 361 004b 08       		.byte	0x8
 362 004c 55040000 		.4byte	.LASF2
 363 0050 03       		.uleb128 0x3
 364 0051 02       		.byte	0x2
 365 0052 05       		.byte	0x5
 366 0053 3E030000 		.4byte	.LASF3
 367 0057 04       		.uleb128 0x4
 368 0058 22030000 		.4byte	.LASF5
 369 005c 05       		.byte	0x5
 370 005d 36       		.byte	0x36
 371 005e 62000000 		.4byte	0x62
 372 0062 03       		.uleb128 0x3
 373 0063 02       		.byte	0x2
 374 0064 07       		.byte	0x7
 375 0065 CB040000 		.4byte	.LASF6
 376 0069 04       		.uleb128 0x4
 377 006a 32040000 		.4byte	.LASF7
 378 006e 05       		.byte	0x5
 379 006f 4F       		.byte	0x4f
 380 0070 74000000 		.4byte	0x74
 381 0074 03       		.uleb128 0x3
 382 0075 04       		.byte	0x4
 383 0076 05       		.byte	0x5
 384 0077 65030000 		.4byte	.LASF8
 385 007b 04       		.uleb128 0x4
 386 007c 2D010000 		.4byte	.LASF9
 387 0080 05       		.byte	0x5
 388 0081 50       		.byte	0x50
 389 0082 86000000 		.4byte	0x86
 390 0086 03       		.uleb128 0x3
 391 0087 04       		.byte	0x4
 392 0088 07       		.byte	0x7
 393 0089 13040000 		.4byte	.LASF10
 394 008d 03       		.uleb128 0x3
 395 008e 08       		.byte	0x8
 396 008f 05       		.byte	0x5
 397 0090 6F020000 		.4byte	.LASF11
ARM GAS  /tmp/ccTtpWue.s 			page 8


 398 0094 04       		.uleb128 0x4
 399 0095 B3030000 		.4byte	.LASF12
 400 0099 05       		.byte	0x5
 401 009a 78       		.byte	0x78
 402 009b 9F000000 		.4byte	0x9f
 403 009f 03       		.uleb128 0x3
 404 00a0 08       		.byte	0x8
 405 00a1 07       		.byte	0x7
 406 00a2 76010000 		.4byte	.LASF13
 407 00a6 04       		.uleb128 0x4
 408 00a7 2B030000 		.4byte	.LASF14
 409 00ab 06       		.byte	0x6
 410 00ac 39       		.byte	0x39
 411 00ad 7B000000 		.4byte	0x7b
 412 00b1 04       		.uleb128 0x4
 413 00b2 0F030000 		.4byte	.LASF15
 414 00b6 06       		.byte	0x6
 415 00b7 3C       		.byte	0x3c
 416 00b8 3E000000 		.4byte	0x3e
 417 00bc 04       		.uleb128 0x4
 418 00bd 23020000 		.4byte	.LASF16
 419 00c1 06       		.byte	0x6
 420 00c2 3D       		.byte	0x3d
 421 00c3 3E000000 		.4byte	0x3e
 422 00c7 04       		.uleb128 0x4
 423 00c8 0B040000 		.4byte	.LASF17
 424 00cc 06       		.byte	0x6
 425 00cd 3E       		.byte	0x3e
 426 00ce 3E000000 		.4byte	0x3e
 427 00d2 04       		.uleb128 0x4
 428 00d3 5D010000 		.4byte	.LASF18
 429 00d7 06       		.byte	0x6
 430 00d8 40       		.byte	0x40
 431 00d9 7B000000 		.4byte	0x7b
 432 00dd 04       		.uleb128 0x4
 433 00de 8D020000 		.4byte	.LASF19
 434 00e2 06       		.byte	0x6
 435 00e3 41       		.byte	0x41
 436 00e4 69000000 		.4byte	0x69
 437 00e8 04       		.uleb128 0x4
 438 00e9 36010000 		.4byte	.LASF20
 439 00ed 06       		.byte	0x6
 440 00ee 43       		.byte	0x43
 441 00ef 7B000000 		.4byte	0x7b
 442 00f3 04       		.uleb128 0x4
 443 00f4 8D010000 		.4byte	.LASF21
 444 00f8 06       		.byte	0x6
 445 00f9 45       		.byte	0x45
 446 00fa 69000000 		.4byte	0x69
 447 00fe 04       		.uleb128 0x4
 448 00ff 69000000 		.4byte	.LASF22
 449 0103 07       		.byte	0x7
 450 0104 35       		.byte	0x35
 451 0105 57000000 		.4byte	0x57
 452 0109 04       		.uleb128 0x4
 453 010a C4010000 		.4byte	.LASF23
 454 010e 07       		.byte	0x7
ARM GAS  /tmp/ccTtpWue.s 			page 9


 455 010f 3F       		.byte	0x3f
 456 0110 14010000 		.4byte	0x114
 457 0114 05       		.uleb128 0x5
 458 0115 56020000 		.4byte	.LASF43
 459 0119 44       		.byte	0x44
 460 011a 03       		.byte	0x3
 461 011b C2       		.byte	0xc2
 462 011c 25020000 		.4byte	0x225
 463 0120 06       		.uleb128 0x6
 464 0121 AC030000 		.4byte	.LASF24
 465 0125 03       		.byte	0x3
 466 0126 C3       		.byte	0xc3
 467 0127 30020000 		.4byte	0x230
 468 012b 02       		.byte	0x2
 469 012c 23       		.byte	0x23
 470 012d 00       		.uleb128 0
 471 012e 06       		.uleb128 0x6
 472 012f 04040000 		.4byte	.LASF25
 473 0133 03       		.byte	0x3
 474 0134 C5       		.byte	0xc5
 475 0135 30020000 		.4byte	0x230
 476 0139 02       		.byte	0x2
 477 013a 23       		.byte	0x23
 478 013b 04       		.uleb128 0x4
 479 013c 06       		.uleb128 0x6
 480 013d 62000000 		.4byte	.LASF26
 481 0141 03       		.byte	0x3
 482 0142 C7       		.byte	0xc7
 483 0143 D2000000 		.4byte	0xd2
 484 0147 02       		.byte	0x2
 485 0148 23       		.byte	0x23
 486 0149 08       		.uleb128 0x8
 487 014a 06       		.uleb128 0x6
 488 014b BC030000 		.4byte	.LASF27
 489 014f 03       		.byte	0x3
 490 0150 C8       		.byte	0xc8
 491 0151 8C040000 		.4byte	0x48c
 492 0155 02       		.byte	0x2
 493 0156 23       		.byte	0x23
 494 0157 0C       		.uleb128 0xc
 495 0158 06       		.uleb128 0x6
 496 0159 9F010000 		.4byte	.LASF28
 497 015d 03       		.byte	0x3
 498 015e CA       		.byte	0xca
 499 015f 30020000 		.4byte	0x230
 500 0163 02       		.byte	0x2
 501 0164 23       		.byte	0x23
 502 0165 10       		.uleb128 0x10
 503 0166 06       		.uleb128 0x6
 504 0167 2C020000 		.4byte	.LASF29
 505 016b 03       		.byte	0x3
 506 016c CB       		.byte	0xcb
 507 016d 30020000 		.4byte	0x230
 508 0171 02       		.byte	0x2
 509 0172 23       		.byte	0x23
 510 0173 14       		.uleb128 0x14
 511 0174 06       		.uleb128 0x6
ARM GAS  /tmp/ccTtpWue.s 			page 10


 512 0175 F4010000 		.4byte	.LASF30
 513 0179 03       		.byte	0x3
 514 017a D2       		.byte	0xd2
 515 017b 2B060000 		.4byte	0x62b
 516 017f 02       		.byte	0x2
 517 0180 23       		.byte	0x23
 518 0181 18       		.uleb128 0x18
 519 0182 06       		.uleb128 0x6
 520 0183 34020000 		.4byte	.LASF31
 521 0187 03       		.byte	0x3
 522 0188 DD       		.byte	0xdd
 523 0189 BC000000 		.4byte	0xbc
 524 018d 02       		.byte	0x2
 525 018e 23       		.byte	0x23
 526 018f 1C       		.uleb128 0x1c
 527 0190 06       		.uleb128 0x6
 528 0191 A5020000 		.4byte	.LASF32
 529 0195 03       		.byte	0x3
 530 0196 E1       		.byte	0xe1
 531 0197 B1000000 		.4byte	0xb1
 532 019b 02       		.byte	0x2
 533 019c 23       		.byte	0x23
 534 019d 1D       		.uleb128 0x1d
 535 019e 06       		.uleb128 0x6
 536 019f 79040000 		.4byte	.LASF33
 537 01a3 03       		.byte	0x3
 538 01a4 E6       		.byte	0xe6
 539 01a5 C7000000 		.4byte	0xc7
 540 01a9 02       		.byte	0x2
 541 01aa 23       		.byte	0x23
 542 01ab 1E       		.uleb128 0x1e
 543 01ac 07       		.uleb128 0x7
 544 01ad 705F7500 		.ascii	"p_u\000"
 545 01b1 03       		.byte	0x3
 546 01b2 3101     		.2byte	0x131
 547 01b4 5C050000 		.4byte	0x55c
 548 01b8 02       		.byte	0x2
 549 01b9 23       		.byte	0x23
 550 01ba 20       		.uleb128 0x20
 551 01bb 08       		.uleb128 0x8
 552 01bc 20000000 		.4byte	.LASF34
 553 01c0 03       		.byte	0x3
 554 01c1 3601     		.2byte	0x136
 555 01c3 36020000 		.4byte	0x236
 556 01c7 02       		.byte	0x2
 557 01c8 23       		.byte	0x23
 558 01c9 24       		.uleb128 0x24
 559 01ca 08       		.uleb128 0x8
 560 01cb 83000000 		.4byte	.LASF35
 561 01cf 03       		.byte	0x3
 562 01d0 3C01     		.2byte	0x13c
 563 01d2 5C020000 		.4byte	0x25c
 564 01d6 02       		.byte	0x2
 565 01d7 23       		.byte	0x23
 566 01d8 28       		.uleb128 0x28
 567 01d9 08       		.uleb128 0x8
 568 01da 09030000 		.4byte	.LASF36
ARM GAS  /tmp/ccTtpWue.s 			page 11


 569 01de 03       		.byte	0x3
 570 01df 4001     		.2byte	0x140
 571 01e1 DD000000 		.4byte	0xdd
 572 01e5 02       		.byte	0x2
 573 01e6 23       		.byte	0x23
 574 01e7 30       		.uleb128 0x30
 575 01e8 08       		.uleb128 0x8
 576 01e9 52030000 		.4byte	.LASF37
 577 01ed 03       		.byte	0x3
 578 01ee 4601     		.2byte	0x146
 579 01f0 E8000000 		.4byte	0xe8
 580 01f4 02       		.byte	0x2
 581 01f5 23       		.byte	0x23
 582 01f6 34       		.uleb128 0x34
 583 01f7 08       		.uleb128 0x8
 584 01f8 4C020000 		.4byte	.LASF38
 585 01fc 03       		.byte	0x3
 586 01fd 4D01     		.2byte	0x14d
 587 01ff 25060000 		.4byte	0x625
 588 0203 02       		.byte	0x2
 589 0204 23       		.byte	0x23
 590 0205 38       		.uleb128 0x38
 591 0206 08       		.uleb128 0x8
 592 0207 33030000 		.4byte	.LASF39
 593 020b 03       		.byte	0x3
 594 020c 5101     		.2byte	0x151
 595 020e D2000000 		.4byte	0xd2
 596 0212 02       		.byte	0x2
 597 0213 23       		.byte	0x23
 598 0214 3C       		.uleb128 0x3c
 599 0215 08       		.uleb128 0x8
 600 0216 44020000 		.4byte	.LASF40
 601 021a 03       		.byte	0x3
 602 021b 5801     		.2byte	0x158
 603 021d 20030000 		.4byte	0x320
 604 0221 02       		.byte	0x2
 605 0222 23       		.byte	0x23
 606 0223 40       		.uleb128 0x40
 607 0224 00       		.byte	0
 608 0225 04       		.uleb128 0x4
 609 0226 04020000 		.4byte	.LASF41
 610 022a 07       		.byte	0x7
 611 022b 44       		.byte	0x44
 612 022c 30020000 		.4byte	0x230
 613 0230 09       		.uleb128 0x9
 614 0231 04       		.byte	0x4
 615 0232 09010000 		.4byte	0x109
 616 0236 04       		.uleb128 0x4
 617 0237 9B000000 		.4byte	.LASF42
 618 023b 07       		.byte	0x7
 619 023c 49       		.byte	0x49
 620 023d 41020000 		.4byte	0x241
 621 0241 05       		.uleb128 0x5
 622 0242 00000000 		.4byte	.LASF44
 623 0246 04       		.byte	0x4
 624 0247 03       		.byte	0x3
 625 0248 B0       		.byte	0xb0
ARM GAS  /tmp/ccTtpWue.s 			page 12


 626 0249 5C020000 		.4byte	0x25c
 627 024d 06       		.uleb128 0x6
 628 024e AC030000 		.4byte	.LASF24
 629 0252 03       		.byte	0x3
 630 0253 B1       		.byte	0xb1
 631 0254 30020000 		.4byte	0x230
 632 0258 02       		.byte	0x2
 633 0259 23       		.byte	0x23
 634 025a 00       		.uleb128 0
 635 025b 00       		.byte	0
 636 025c 04       		.uleb128 0x4
 637 025d 10000000 		.4byte	.LASF45
 638 0261 07       		.byte	0x7
 639 0262 50       		.byte	0x50
 640 0263 67020000 		.4byte	0x267
 641 0267 05       		.uleb128 0x5
 642 0268 F0000000 		.4byte	.LASF46
 643 026c 08       		.byte	0x8
 644 026d 03       		.byte	0x3
 645 026e B7       		.byte	0xb7
 646 026f 90020000 		.4byte	0x290
 647 0273 06       		.uleb128 0x6
 648 0274 AC030000 		.4byte	.LASF24
 649 0278 03       		.byte	0x3
 650 0279 B8       		.byte	0xb8
 651 027a 30020000 		.4byte	0x230
 652 027e 02       		.byte	0x2
 653 027f 23       		.byte	0x23
 654 0280 00       		.uleb128 0
 655 0281 06       		.uleb128 0x6
 656 0282 04040000 		.4byte	.LASF25
 657 0286 03       		.byte	0x3
 658 0287 B9       		.byte	0xb9
 659 0288 30020000 		.4byte	0x230
 660 028c 02       		.byte	0x2
 661 028d 23       		.byte	0x23
 662 028e 04       		.uleb128 0x4
 663 028f 00       		.byte	0
 664 0290 04       		.uleb128 0x4
 665 0291 25040000 		.4byte	.LASF47
 666 0295 07       		.byte	0x7
 667 0296 57       		.byte	0x57
 668 0297 9B020000 		.4byte	0x29b
 669 029b 0A       		.uleb128 0xa
 670 029c CC000000 		.4byte	.LASF48
 671 02a0 1C       		.byte	0x1c
 672 02a1 03       		.byte	0x3
 673 02a2 9001     		.2byte	0x190
 674 02a4 03030000 		.4byte	0x303
 675 02a8 08       		.uleb128 0x8
 676 02a9 7D020000 		.4byte	.LASF49
 677 02ad 03       		.byte	0x3
 678 02ae 9101     		.2byte	0x191
 679 02b0 5C020000 		.4byte	0x25c
 680 02b4 02       		.byte	0x2
 681 02b5 23       		.byte	0x23
 682 02b6 00       		.uleb128 0
ARM GAS  /tmp/ccTtpWue.s 			page 13


 683 02b7 08       		.uleb128 0x8
 684 02b8 42010000 		.4byte	.LASF50
 685 02bc 03       		.byte	0x3
 686 02bd 9201     		.2byte	0x192
 687 02bf D2000000 		.4byte	0xd2
 688 02c3 02       		.byte	0x2
 689 02c4 23       		.byte	0x23
 690 02c5 08       		.uleb128 0x8
 691 02c6 08       		.uleb128 0x8
 692 02c7 DE040000 		.4byte	.LASF51
 693 02cb 03       		.byte	0x3
 694 02cc 9401     		.2byte	0x194
 695 02ce 8C040000 		.4byte	0x48c
 696 02d2 02       		.byte	0x2
 697 02d3 23       		.byte	0x23
 698 02d4 0C       		.uleb128 0xc
 699 02d5 08       		.uleb128 0x8
 700 02d6 85020000 		.4byte	.LASF52
 701 02da 03       		.byte	0x3
 702 02db 9701     		.2byte	0x197
 703 02dd 30020000 		.4byte	0x230
 704 02e1 02       		.byte	0x2
 705 02e2 23       		.byte	0x23
 706 02e3 10       		.uleb128 0x10
 707 02e4 08       		.uleb128 0x8
 708 02e5 F7020000 		.4byte	.LASF53
 709 02e9 03       		.byte	0x3
 710 02ea 9801     		.2byte	0x198
 711 02ec 30020000 		.4byte	0x230
 712 02f0 02       		.byte	0x2
 713 02f1 23       		.byte	0x23
 714 02f2 14       		.uleb128 0x14
 715 02f3 08       		.uleb128 0x8
 716 02f4 48030000 		.4byte	.LASF54
 717 02f8 03       		.byte	0x3
 718 02f9 9B01     		.2byte	0x19b
 719 02fb 30020000 		.4byte	0x230
 720 02ff 02       		.byte	0x2
 721 0300 23       		.byte	0x23
 722 0301 18       		.uleb128 0x18
 723 0302 00       		.byte	0
 724 0303 04       		.uleb128 0x4
 725 0304 01010000 		.4byte	.LASF55
 726 0308 07       		.byte	0x7
 727 0309 5C       		.byte	0x5c
 728 030a 0E030000 		.4byte	0x30e
 729 030e 09       		.uleb128 0x9
 730 030f 04       		.byte	0x4
 731 0310 14030000 		.4byte	0x314
 732 0314 0B       		.uleb128 0xb
 733 0315 01       		.byte	0x1
 734 0316 20030000 		.4byte	0x320
 735 031a 0C       		.uleb128 0xc
 736 031b 20030000 		.4byte	0x320
 737 031f 00       		.byte	0
 738 0320 0D       		.uleb128 0xd
 739 0321 04       		.byte	0x4
ARM GAS  /tmp/ccTtpWue.s 			page 14


 740 0322 04       		.uleb128 0x4
 741 0323 AD020000 		.4byte	.LASF56
 742 0327 07       		.byte	0x7
 743 0328 61       		.byte	0x61
 744 0329 2D030000 		.4byte	0x32d
 745 032d 0A       		.uleb128 0xa
 746 032e 65010000 		.4byte	.LASF57
 747 0332 14       		.byte	0x14
 748 0333 03       		.byte	0x3
 749 0334 6B01     		.2byte	0x16b
 750 0336 86030000 		.4byte	0x386
 751 033a 08       		.uleb128 0x8
 752 033b 9E040000 		.4byte	.LASF58
 753 033f 03       		.byte	0x3
 754 0340 6C01     		.2byte	0x16c
 755 0342 3D060000 		.4byte	0x63d
 756 0346 02       		.byte	0x2
 757 0347 23       		.byte	0x23
 758 0348 00       		.uleb128 0
 759 0349 08       		.uleb128 0x8
 760 034a 0C050000 		.4byte	.LASF59
 761 034e 03       		.byte	0x3
 762 034f 6D01     		.2byte	0x16d
 763 0351 3D060000 		.4byte	0x63d
 764 0355 02       		.byte	0x2
 765 0356 23       		.byte	0x23
 766 0357 04       		.uleb128 0x4
 767 0358 08       		.uleb128 0x8
 768 0359 FB010000 		.4byte	.LASF60
 769 035d 03       		.byte	0x3
 770 035e 6E01     		.2byte	0x16e
 771 0360 FE000000 		.4byte	0xfe
 772 0364 02       		.byte	0x2
 773 0365 23       		.byte	0x23
 774 0366 08       		.uleb128 0x8
 775 0367 08       		.uleb128 0x8
 776 0368 F8040000 		.4byte	.LASF61
 777 036c 03       		.byte	0x3
 778 036d 6F01     		.2byte	0x16f
 779 036f 03030000 		.4byte	0x303
 780 0373 02       		.byte	0x2
 781 0374 23       		.byte	0x23
 782 0375 0C       		.uleb128 0xc
 783 0376 08       		.uleb128 0x8
 784 0377 49010000 		.4byte	.LASF62
 785 037b 03       		.byte	0x3
 786 037c 7101     		.2byte	0x171
 787 037e 20030000 		.4byte	0x320
 788 0382 02       		.byte	0x2
 789 0383 23       		.byte	0x23
 790 0384 10       		.uleb128 0x10
 791 0385 00       		.byte	0
 792 0386 04       		.uleb128 0x4
 793 0387 63040000 		.4byte	.LASF63
 794 038b 07       		.byte	0x7
 795 038c 66       		.byte	0x66
 796 038d 91030000 		.4byte	0x391
ARM GAS  /tmp/ccTtpWue.s 			page 15


 797 0391 0A       		.uleb128 0xa
 798 0392 AD010000 		.4byte	.LASF64
 799 0396 0C       		.byte	0xc
 800 0397 03       		.byte	0x3
 801 0398 7B01     		.2byte	0x17b
 802 039a DB030000 		.4byte	0x3db
 803 039e 08       		.uleb128 0x8
 804 039f 9E040000 		.4byte	.LASF58
 805 03a3 03       		.byte	0x3
 806 03a4 7C01     		.2byte	0x17c
 807 03a6 3D060000 		.4byte	0x63d
 808 03aa 02       		.byte	0x2
 809 03ab 23       		.byte	0x23
 810 03ac 00       		.uleb128 0
 811 03ad 08       		.uleb128 0x8
 812 03ae 0C050000 		.4byte	.LASF59
 813 03b2 03       		.byte	0x3
 814 03b3 7E01     		.2byte	0x17e
 815 03b5 3D060000 		.4byte	0x63d
 816 03b9 02       		.byte	0x2
 817 03ba 23       		.byte	0x23
 818 03bb 04       		.uleb128 0x4
 819 03bc 08       		.uleb128 0x8
 820 03bd FB010000 		.4byte	.LASF60
 821 03c1 03       		.byte	0x3
 822 03c2 8001     		.2byte	0x180
 823 03c4 FE000000 		.4byte	0xfe
 824 03c8 02       		.byte	0x2
 825 03c9 23       		.byte	0x23
 826 03ca 08       		.uleb128 0x8
 827 03cb 08       		.uleb128 0x8
 828 03cc 17020000 		.4byte	.LASF65
 829 03d0 03       		.byte	0x3
 830 03d1 8801     		.2byte	0x188
 831 03d3 FE000000 		.4byte	0xfe
 832 03d7 02       		.byte	0x2
 833 03d8 23       		.byte	0x23
 834 03d9 0A       		.uleb128 0xa
 835 03da 00       		.byte	0
 836 03db 04       		.uleb128 0x4
 837 03dc 60020000 		.4byte	.LASF66
 838 03e0 07       		.byte	0x7
 839 03e1 6B       		.byte	0x6b
 840 03e2 E6030000 		.4byte	0x3e6
 841 03e6 0A       		.uleb128 0xa
 842 03e7 1D010000 		.4byte	.LASF67
 843 03eb 04       		.byte	0x4
 844 03ec 03       		.byte	0x3
 845 03ed A201     		.2byte	0x1a2
 846 03ef 03040000 		.4byte	0x403
 847 03f3 08       		.uleb128 0x8
 848 03f4 FF020000 		.4byte	.LASF68
 849 03f8 03       		.byte	0x3
 850 03f9 AA01     		.2byte	0x1aa
 851 03fb 43060000 		.4byte	0x643
 852 03ff 02       		.byte	0x2
 853 0400 23       		.byte	0x23
ARM GAS  /tmp/ccTtpWue.s 			page 16


 854 0401 00       		.uleb128 0
 855 0402 00       		.byte	0
 856 0403 04       		.uleb128 0x4
 857 0404 A6040000 		.4byte	.LASF69
 858 0408 07       		.byte	0x7
 859 0409 70       		.byte	0x70
 860 040a 0E040000 		.4byte	0x40e
 861 040e 0E       		.uleb128 0xe
 862 040f 87030000 		.4byte	.LASF70
 863 0413 5001     		.2byte	0x150
 864 0415 03       		.byte	0x3
 865 0416 C201     		.2byte	0x1c2
 866 0418 76040000 		.4byte	0x476
 867 041c 08       		.uleb128 0x8
 868 041d C2030000 		.4byte	.LASF71
 869 0421 03       		.byte	0x3
 870 0422 C601     		.2byte	0x1c6
 871 0424 90020000 		.4byte	0x290
 872 0428 02       		.byte	0x2
 873 0429 23       		.byte	0x23
 874 042a 00       		.uleb128 0
 875 042b 08       		.uleb128 0x8
 876 042c C5000000 		.4byte	.LASF72
 877 0430 03       		.byte	0x3
 878 0431 CA01     		.2byte	0x1ca
 879 0433 86030000 		.4byte	0x386
 880 0437 02       		.byte	0x2
 881 0438 23       		.byte	0x23
 882 0439 1C       		.uleb128 0x1c
 883 043a 07       		.uleb128 0x7
 884 043b 64626700 		.ascii	"dbg\000"
 885 043f 03       		.byte	0x3
 886 0440 CE01     		.2byte	0x1ce
 887 0442 DB030000 		.4byte	0x3db
 888 0446 02       		.byte	0x2
 889 0447 23       		.byte	0x23
 890 0448 28       		.uleb128 0x28
 891 0449 08       		.uleb128 0x8
 892 044a 17030000 		.4byte	.LASF73
 893 044e 03       		.byte	0x3
 894 044f D201     		.2byte	0x1d2
 895 0451 09010000 		.4byte	0x109
 896 0455 02       		.byte	0x2
 897 0456 23       		.byte	0x23
 898 0457 2C       		.uleb128 0x2c
 899 0458 07       		.uleb128 0x7
 900 0459 746D00   		.ascii	"tm\000"
 901 045c 03       		.byte	0x3
 902 045d D701     		.2byte	0x1d7
 903 045f 51050000 		.4byte	0x551
 904 0463 02       		.byte	0x2
 905 0464 23       		.byte	0x23
 906 0465 70       		.uleb128 0x70
 907 0466 08       		.uleb128 0x8
 908 0467 DA000000 		.4byte	.LASF74
 909 046b 03       		.byte	0x3
 910 046c E301     		.2byte	0x1e3
ARM GAS  /tmp/ccTtpWue.s 			page 17


 911 046e 48060000 		.4byte	0x648
 912 0472 02       		.byte	0x2
 913 0473 23       		.byte	0x23
 914 0474 78       		.uleb128 0x78
 915 0475 00       		.byte	0
 916 0476 04       		.uleb128 0x4
 917 0477 59000000 		.4byte	.LASF75
 918 047b 08       		.byte	0x8
 919 047c 65       		.byte	0x65
 920 047d 20030000 		.4byte	0x320
 921 0481 04       		.uleb128 0x4
 922 0482 E4040000 		.4byte	.LASF76
 923 0486 08       		.byte	0x8
 924 0487 6D       		.byte	0x6d
 925 0488 94000000 		.4byte	0x94
 926 048c 05       		.uleb128 0x5
 927 048d 9D020000 		.4byte	.LASF77
 928 0491 04       		.byte	0x4
 929 0492 08       		.byte	0x8
 930 0493 89       		.byte	0x89
 931 0494 A7040000 		.4byte	0x4a7
 932 0498 0F       		.uleb128 0xf
 933 0499 72313300 		.ascii	"r13\000"
 934 049d 08       		.byte	0x8
 935 049e 8A       		.byte	0x8a
 936 049f 34050000 		.4byte	0x534
 937 04a3 02       		.byte	0x2
 938 04a4 23       		.byte	0x23
 939 04a5 00       		.uleb128 0
 940 04a6 00       		.byte	0
 941 04a7 05       		.uleb128 0x5
 942 04a8 6E030000 		.4byte	.LASF78
 943 04ac 24       		.byte	0x24
 944 04ad 09       		.byte	0x9
 945 04ae FD       		.byte	0xfd
 946 04af 34050000 		.4byte	0x534
 947 04b3 07       		.uleb128 0x7
 948 04b4 723400   		.ascii	"r4\000"
 949 04b7 09       		.byte	0x9
 950 04b8 1001     		.2byte	0x110
 951 04ba 76040000 		.4byte	0x476
 952 04be 02       		.byte	0x2
 953 04bf 23       		.byte	0x23
 954 04c0 00       		.uleb128 0
 955 04c1 07       		.uleb128 0x7
 956 04c2 723500   		.ascii	"r5\000"
 957 04c5 09       		.byte	0x9
 958 04c6 1101     		.2byte	0x111
 959 04c8 76040000 		.4byte	0x476
 960 04cc 02       		.byte	0x2
 961 04cd 23       		.byte	0x23
 962 04ce 04       		.uleb128 0x4
 963 04cf 07       		.uleb128 0x7
 964 04d0 723600   		.ascii	"r6\000"
 965 04d3 09       		.byte	0x9
 966 04d4 1201     		.2byte	0x112
 967 04d6 76040000 		.4byte	0x476
ARM GAS  /tmp/ccTtpWue.s 			page 18


 968 04da 02       		.byte	0x2
 969 04db 23       		.byte	0x23
 970 04dc 08       		.uleb128 0x8
 971 04dd 07       		.uleb128 0x7
 972 04de 723700   		.ascii	"r7\000"
 973 04e1 09       		.byte	0x9
 974 04e2 1301     		.2byte	0x113
 975 04e4 76040000 		.4byte	0x476
 976 04e8 02       		.byte	0x2
 977 04e9 23       		.byte	0x23
 978 04ea 0C       		.uleb128 0xc
 979 04eb 07       		.uleb128 0x7
 980 04ec 723800   		.ascii	"r8\000"
 981 04ef 09       		.byte	0x9
 982 04f0 1401     		.2byte	0x114
 983 04f2 76040000 		.4byte	0x476
 984 04f6 02       		.byte	0x2
 985 04f7 23       		.byte	0x23
 986 04f8 10       		.uleb128 0x10
 987 04f9 07       		.uleb128 0x7
 988 04fa 723900   		.ascii	"r9\000"
 989 04fd 09       		.byte	0x9
 990 04fe 1501     		.2byte	0x115
 991 0500 76040000 		.4byte	0x476
 992 0504 02       		.byte	0x2
 993 0505 23       		.byte	0x23
 994 0506 14       		.uleb128 0x14
 995 0507 07       		.uleb128 0x7
 996 0508 72313000 		.ascii	"r10\000"
 997 050c 09       		.byte	0x9
 998 050d 1601     		.2byte	0x116
 999 050f 76040000 		.4byte	0x476
 1000 0513 02       		.byte	0x2
 1001 0514 23       		.byte	0x23
 1002 0515 18       		.uleb128 0x18
 1003 0516 07       		.uleb128 0x7
 1004 0517 72313100 		.ascii	"r11\000"
 1005 051b 09       		.byte	0x9
 1006 051c 1701     		.2byte	0x117
 1007 051e 76040000 		.4byte	0x476
 1008 0522 02       		.byte	0x2
 1009 0523 23       		.byte	0x23
 1010 0524 1C       		.uleb128 0x1c
 1011 0525 07       		.uleb128 0x7
 1012 0526 6C7200   		.ascii	"lr\000"
 1013 0529 09       		.byte	0x9
 1014 052a 1801     		.2byte	0x118
 1015 052c 76040000 		.4byte	0x476
 1016 0530 02       		.byte	0x2
 1017 0531 23       		.byte	0x23
 1018 0532 20       		.uleb128 0x20
 1019 0533 00       		.byte	0
 1020 0534 09       		.uleb128 0x9
 1021 0535 04       		.byte	0x4
 1022 0536 A7040000 		.4byte	0x4a7
 1023 053a 10       		.uleb128 0x10
 1024 053b 04       		.byte	0x4
ARM GAS  /tmp/ccTtpWue.s 			page 19


 1025 053c 0A       		.byte	0xa
 1026 053d 38       		.byte	0x38
 1027 053e 51050000 		.4byte	0x551
 1028 0542 06       		.uleb128 0x6
 1029 0543 D4010000 		.4byte	.LASF79
 1030 0547 0A       		.byte	0xa
 1031 0548 3C       		.byte	0x3c
 1032 0549 A6000000 		.4byte	0xa6
 1033 054d 02       		.byte	0x2
 1034 054e 23       		.byte	0x23
 1035 054f 00       		.uleb128 0
 1036 0550 00       		.byte	0
 1037 0551 04       		.uleb128 0x4
 1038 0552 31000000 		.4byte	.LASF80
 1039 0556 0A       		.byte	0xa
 1040 0557 3D       		.byte	0x3d
 1041 0558 3A050000 		.4byte	0x53a
 1042 055c 11       		.uleb128 0x11
 1043 055d 04       		.byte	0x4
 1044 055e 03       		.byte	0x3
 1045 055f FA       		.byte	0xfa
 1046 0560 B9050000 		.4byte	0x5b9
 1047 0564 12       		.uleb128 0x12
 1048 0565 CD010000 		.4byte	.LASF81
 1049 0569 03       		.byte	0x3
 1050 056a 0101     		.2byte	0x101
 1051 056c DD000000 		.4byte	0xdd
 1052 0570 12       		.uleb128 0x12
 1053 0571 14050000 		.4byte	.LASF82
 1054 0575 03       		.byte	0x3
 1055 0576 0801     		.2byte	0x108
 1056 0578 DD000000 		.4byte	0xdd
 1057 057c 12       		.uleb128 0x12
 1058 057d B4000000 		.4byte	.LASF83
 1059 0581 03       		.byte	0x3
 1060 0582 0F01     		.2byte	0x10f
 1061 0584 20030000 		.4byte	0x320
 1062 0588 12       		.uleb128 0x12
 1063 0589 B2040000 		.4byte	.LASF84
 1064 058d 03       		.byte	0x3
 1065 058e 1601     		.2byte	0x116
 1066 0590 B9050000 		.4byte	0x5b9
 1067 0594 12       		.uleb128 0x12
 1068 0595 3A040000 		.4byte	.LASF85
 1069 0599 03       		.byte	0x3
 1070 059a 1E01     		.2byte	0x11e
 1071 059c E8050000 		.4byte	0x5e8
 1072 05a0 12       		.uleb128 0x12
 1073 05a1 2A000000 		.4byte	.LASF86
 1074 05a5 03       		.byte	0x3
 1075 05a6 2701     		.2byte	0x127
 1076 05a8 25060000 		.4byte	0x625
 1077 05ac 12       		.uleb128 0x12
 1078 05ad E9000000 		.4byte	.LASF87
 1079 05b1 03       		.byte	0x3
 1080 05b2 2F01     		.2byte	0x12f
 1081 05b4 E8000000 		.4byte	0xe8
ARM GAS  /tmp/ccTtpWue.s 			page 20


 1082 05b8 00       		.byte	0
 1083 05b9 09       		.uleb128 0x9
 1084 05ba 04       		.byte	0x4
 1085 05bb 25020000 		.4byte	0x225
 1086 05bf 05       		.uleb128 0x5
 1087 05c0 50010000 		.4byte	.LASF88
 1088 05c4 0C       		.byte	0xc
 1089 05c5 0B       		.byte	0xb
 1090 05c6 34       		.byte	0x34
 1091 05c7 E8050000 		.4byte	0x5e8
 1092 05cb 06       		.uleb128 0x6
 1093 05cc 7B000000 		.4byte	.LASF89
 1094 05d0 0B       		.byte	0xb
 1095 05d1 35       		.byte	0x35
 1096 05d2 5C020000 		.4byte	0x25c
 1097 05d6 02       		.byte	0x2
 1098 05d7 23       		.byte	0x23
 1099 05d8 00       		.uleb128 0
 1100 05d9 06       		.uleb128 0x6
 1101 05da 17010000 		.4byte	.LASF90
 1102 05de 0B       		.byte	0xb
 1103 05df 37       		.byte	0x37
 1104 05e0 F3000000 		.4byte	0xf3
 1105 05e4 02       		.byte	0x2
 1106 05e5 23       		.byte	0x23
 1107 05e6 08       		.uleb128 0x8
 1108 05e7 00       		.byte	0
 1109 05e8 09       		.uleb128 0x9
 1110 05e9 04       		.byte	0x4
 1111 05ea BF050000 		.4byte	0x5bf
 1112 05ee 05       		.uleb128 0x5
 1113 05ef E1010000 		.4byte	.LASF91
 1114 05f3 10       		.byte	0x10
 1115 05f4 0C       		.byte	0xc
 1116 05f5 39       		.byte	0x39
 1117 05f6 25060000 		.4byte	0x625
 1118 05fa 06       		.uleb128 0x6
 1119 05fb 5D030000 		.4byte	.LASF92
 1120 05ff 0C       		.byte	0xc
 1121 0600 3A       		.byte	0x3a
 1122 0601 5C020000 		.4byte	0x25c
 1123 0605 02       		.byte	0x2
 1124 0606 23       		.byte	0x23
 1125 0607 00       		.uleb128 0
 1126 0608 06       		.uleb128 0x6
 1127 0609 73000000 		.4byte	.LASF93
 1128 060d 0C       		.byte	0xc
 1129 060e 3C       		.byte	0x3c
 1130 060f 30020000 		.4byte	0x230
 1131 0613 02       		.byte	0x2
 1132 0614 23       		.byte	0x23
 1133 0615 08       		.uleb128 0x8
 1134 0616 06       		.uleb128 0x6
 1135 0617 B8040000 		.4byte	.LASF94
 1136 061b 0C       		.byte	0xc
 1137 061c 3E       		.byte	0x3e
 1138 061d 63060000 		.4byte	0x663
ARM GAS  /tmp/ccTtpWue.s 			page 21


 1139 0621 02       		.byte	0x2
 1140 0622 23       		.byte	0x23
 1141 0623 0C       		.uleb128 0xc
 1142 0624 00       		.byte	0
 1143 0625 09       		.uleb128 0x9
 1144 0626 04       		.byte	0x4
 1145 0627 EE050000 		.4byte	0x5ee
 1146 062b 09       		.uleb128 0x9
 1147 062c 04       		.byte	0x4
 1148 062d 31060000 		.4byte	0x631
 1149 0631 13       		.uleb128 0x13
 1150 0632 36060000 		.4byte	0x636
 1151 0636 03       		.uleb128 0x3
 1152 0637 01       		.byte	0x1
 1153 0638 08       		.byte	0x8
 1154 0639 42000000 		.4byte	.LASF95
 1155 063d 09       		.uleb128 0x9
 1156 063e 04       		.byte	0x4
 1157 063f 22030000 		.4byte	0x322
 1158 0643 14       		.uleb128 0x14
 1159 0644 2B060000 		.4byte	0x62b
 1160 0648 15       		.uleb128 0x15
 1161 0649 81040000 		.4byte	0x481
 1162 064d 58060000 		.4byte	0x658
 1163 0651 16       		.uleb128 0x16
 1164 0652 30000000 		.4byte	0x30
 1165 0656 1A       		.byte	0x1a
 1166 0657 00       		.byte	0
 1167 0658 04       		.uleb128 0x4
 1168 0659 4D040000 		.4byte	.LASF96
 1169 065d 0C       		.byte	0xc
 1170 065e 34       		.byte	0x34
 1171 065f EE050000 		.4byte	0x5ee
 1172 0663 09       		.uleb128 0x9
 1173 0664 04       		.byte	0x4
 1174 0665 58060000 		.4byte	0x658
 1175 0669 03       		.uleb128 0x3
 1176 066a 01       		.byte	0x1
 1177 066b 02       		.byte	0x2
 1178 066c DB010000 		.4byte	.LASF97
 1179 0670 17       		.uleb128 0x17
 1180 0671 9E030000 		.4byte	.LASF101
 1181 0675 02       		.byte	0x2
 1182 0676 2202     		.2byte	0x222
 1183 0678 01       		.byte	0x1
 1184 0679 03       		.byte	0x3
 1185 067a 8B060000 		.4byte	0x68b
 1186 067e 18       		.uleb128 0x18
 1187 067f A7010000 		.4byte	.LASF103
 1188 0683 02       		.byte	0x2
 1189 0684 2202     		.2byte	0x222
 1190 0686 7B000000 		.4byte	0x7b
 1191 068a 00       		.byte	0
 1192 068b 19       		.uleb128 0x19
 1193 068c BB000000 		.4byte	.LASF98
 1194 0690 09       		.byte	0x9
 1195 0691 C801     		.2byte	0x1c8
ARM GAS  /tmp/ccTtpWue.s 			page 22


 1196 0693 01       		.byte	0x1
 1197 0694 03       		.byte	0x3
 1198 0695 19       		.uleb128 0x19
 1199 0696 00050000 		.4byte	.LASF99
 1200 069a 09       		.byte	0x9
 1201 069b E001     		.2byte	0x1e0
 1202 069d 01       		.byte	0x1
 1203 069e 03       		.byte	0x3
 1204 069f 19       		.uleb128 0x19
 1205 06a0 EA010000 		.4byte	.LASF100
 1206 06a4 0D       		.byte	0xd
 1207 06a5 5A01     		.2byte	0x15a
 1208 06a7 01       		.byte	0x1
 1209 06a8 03       		.byte	0x3
 1210 06a9 17       		.uleb128 0x17
 1211 06aa 91030000 		.4byte	.LASF102
 1212 06ae 03       		.byte	0x3
 1213 06af 9702     		.2byte	0x297
 1214 06b1 01       		.byte	0x1
 1215 06b2 03       		.byte	0x3
 1216 06b3 CF060000 		.4byte	0x6cf
 1217 06b7 1A       		.uleb128 0x1a
 1218 06b8 747000   		.ascii	"tp\000"
 1219 06bb 03       		.byte	0x3
 1220 06bc 9702     		.2byte	0x297
 1221 06be 30020000 		.4byte	0x230
 1222 06c2 1A       		.uleb128 0x1a
 1223 06c3 74717000 		.ascii	"tqp\000"
 1224 06c7 03       		.byte	0x3
 1225 06c8 9702     		.2byte	0x297
 1226 06ca CF060000 		.4byte	0x6cf
 1227 06ce 00       		.byte	0
 1228 06cf 09       		.uleb128 0x9
 1229 06d0 04       		.byte	0x4
 1230 06d1 5C020000 		.4byte	0x25c
 1231 06d5 17       		.uleb128 0x17
 1232 06d6 93010000 		.4byte	.LASF104
 1233 06da 0D       		.byte	0xd
 1234 06db 6601     		.2byte	0x166
 1235 06dd 01       		.byte	0x1
 1236 06de 03       		.byte	0x3
 1237 06df F2060000 		.4byte	0x6f2
 1238 06e3 1B       		.uleb128 0x1b
 1239 06e4 EF040000 		.4byte	.LASF107
 1240 06e8 02070000 		.4byte	0x702
 1241 06ec 01       		.byte	0x1
 1242 06ed 93010000 		.4byte	.LASF104
 1243 06f1 00       		.byte	0
 1244 06f2 15       		.uleb128 0x15
 1245 06f3 36060000 		.4byte	0x636
 1246 06f7 02070000 		.4byte	0x702
 1247 06fb 16       		.uleb128 0x16
 1248 06fc 30000000 		.4byte	0x30
 1249 0700 0B       		.byte	0xb
 1250 0701 00       		.byte	0
 1251 0702 13       		.uleb128 0x13
 1252 0703 F2060000 		.4byte	0x6f2
ARM GAS  /tmp/ccTtpWue.s 			page 23


 1253 0707 1C       		.uleb128 0x1c
 1254 0708 8E040000 		.4byte	.LASF105
 1255 070c 04       		.byte	0x4
 1256 070d 4F       		.byte	0x4f
 1257 070e 01       		.byte	0x1
 1258 070f 69060000 		.4byte	0x669
 1259 0713 03       		.byte	0x3
 1260 0714 23070000 		.4byte	0x723
 1261 0718 1D       		.uleb128 0x1d
 1262 0719 747000   		.ascii	"tp\000"
 1263 071c 04       		.byte	0x4
 1264 071d 4F       		.byte	0x4f
 1265 071e 30020000 		.4byte	0x230
 1266 0722 00       		.byte	0
 1267 0723 1E       		.uleb128 0x1e
 1268 0724 47000000 		.4byte	.LASF106
 1269 0728 03       		.byte	0x3
 1270 0729 9F02     		.2byte	0x29f
 1271 072b 01       		.byte	0x1
 1272 072c 30020000 		.4byte	0x230
 1273 0730 03       		.byte	0x3
 1274 0731 4D070000 		.4byte	0x74d
 1275 0735 1A       		.uleb128 0x1a
 1276 0736 74717000 		.ascii	"tqp\000"
 1277 073a 03       		.byte	0x3
 1278 073b 9F02     		.2byte	0x29f
 1279 073d CF060000 		.4byte	0x6cf
 1280 0741 1F       		.uleb128 0x1f
 1281 0742 747000   		.ascii	"tp\000"
 1282 0745 03       		.byte	0x3
 1283 0746 A002     		.2byte	0x2a0
 1284 0748 30020000 		.4byte	0x230
 1285 074c 00       		.byte	0
 1286 074d 20       		.uleb128 0x20
 1287 074e 80040000 		.4byte	.LASF108
 1288 0752 04       		.byte	0x4
 1289 0753 6F       		.byte	0x6f
 1290 0754 01       		.byte	0x1
 1291 0755 03       		.byte	0x3
 1292 0756 70070000 		.4byte	0x770
 1293 075a 1D       		.uleb128 0x1d
 1294 075b 747000   		.ascii	"tp\000"
 1295 075e 04       		.byte	0x4
 1296 075f 6F       		.byte	0x6f
 1297 0760 30020000 		.4byte	0x230
 1298 0764 1D       		.uleb128 0x1d
 1299 0765 6D736700 		.ascii	"msg\000"
 1300 0769 04       		.byte	0x4
 1301 076a 6F       		.byte	0x6f
 1302 076b DD000000 		.4byte	0xdd
 1303 076f 00       		.byte	0
 1304 0770 21       		.uleb128 0x21
 1305 0771 01       		.byte	0x1
 1306 0772 AA000000 		.4byte	.LASF109
 1307 0776 01       		.byte	0x1
 1308 0777 57       		.byte	0x57
 1309 0778 01       		.byte	0x1
ARM GAS  /tmp/ccTtpWue.s 			page 24


 1310 0779 DD000000 		.4byte	0xdd
 1311 077d 00000000 		.4byte	.LFB182
 1312 0781 4E000000 		.4byte	.LFE182
 1313 0785 00000000 		.4byte	.LLST0
 1314 0789 6A080000 		.4byte	0x86a
 1315 078d 22       		.uleb128 0x22
 1316 078e 747000   		.ascii	"tp\000"
 1317 0791 01       		.byte	0x1
 1318 0792 57       		.byte	0x57
 1319 0793 30020000 		.4byte	0x230
 1320 0797 20000000 		.4byte	.LLST1
 1321 079b 22       		.uleb128 0x22
 1322 079c 6D736700 		.ascii	"msg\000"
 1323 07a0 01       		.byte	0x1
 1324 07a1 57       		.byte	0x57
 1325 07a2 DD000000 		.4byte	0xdd
 1326 07a6 40000000 		.4byte	.LLST2
 1327 07aa 23       		.uleb128 0x23
 1328 07ab 63747000 		.ascii	"ctp\000"
 1329 07af 01       		.byte	0x1
 1330 07b0 58       		.byte	0x58
 1331 07b1 30020000 		.4byte	0x230
 1332 07b5 76000000 		.4byte	.LLST3
 1333 07b9 24       		.uleb128 0x24
 1334 07ba EF040000 		.4byte	.LASF107
 1335 07be 7A080000 		.4byte	0x87a
 1336 07c2 01       		.byte	0x1
 1337 07c3 25       		.uleb128 0x25
 1338 07c4 9F060000 		.4byte	0x69f
 1339 07c8 0C000000 		.4byte	.LBB52
 1340 07cc 12000000 		.4byte	.LBE52
 1341 07d0 01       		.byte	0x1
 1342 07d1 5C       		.byte	0x5c
 1343 07d2 FF070000 		.4byte	0x7ff
 1344 07d6 26       		.uleb128 0x26
 1345 07d7 8B060000 		.4byte	0x68b
 1346 07db 0C000000 		.4byte	.LBB53
 1347 07df 12000000 		.4byte	.LBE53
 1348 07e3 0D       		.byte	0xd
 1349 07e4 5C01     		.2byte	0x15c
 1350 07e6 26       		.uleb128 0x26
 1351 07e7 70060000 		.4byte	0x670
 1352 07eb 0C000000 		.4byte	.LBB54
 1353 07ef 12000000 		.4byte	.LBE54
 1354 07f3 09       		.byte	0x9
 1355 07f4 D001     		.2byte	0x1d0
 1356 07f6 27       		.uleb128 0x27
 1357 07f7 7E060000 		.4byte	0x67e
 1358 07fb 20       		.byte	0x20
 1359 07fc 00       		.byte	0
 1360 07fd 00       		.byte	0
 1361 07fe 00       		.byte	0
 1362 07ff 28       		.uleb128 0x28
 1363 0800 A9060000 		.4byte	0x6a9
 1364 0804 1A000000 		.4byte	.LBB56
 1365 0808 00000000 		.4byte	.Ldebug_ranges0+0
 1366 080c 01       		.byte	0x1
ARM GAS  /tmp/ccTtpWue.s 			page 25


 1367 080d 5F       		.byte	0x5f
 1368 080e 23080000 		.4byte	0x823
 1369 0812 29       		.uleb128 0x29
 1370 0813 C2060000 		.4byte	0x6c2
 1371 0817 01       		.byte	0x1
 1372 0818 55       		.byte	0x55
 1373 0819 2A       		.uleb128 0x2a
 1374 081a B7060000 		.4byte	0x6b7
 1375 081e 76000000 		.4byte	.LLST3
 1376 0822 00       		.byte	0
 1377 0823 2B       		.uleb128 0x2b
 1378 0824 D5060000 		.4byte	0x6d5
 1379 0828 32000000 		.4byte	.LBB62
 1380 082c 20000000 		.4byte	.Ldebug_ranges0+0x20
 1381 0830 01       		.byte	0x1
 1382 0831 65       		.byte	0x65
 1383 0832 2C       		.uleb128 0x2c
 1384 0833 38000000 		.4byte	.Ldebug_ranges0+0x38
 1385 0837 2D       		.uleb128 0x2d
 1386 0838 E3060000 		.4byte	0x6e3
 1387 083c 2E       		.uleb128 0x2e
 1388 083d 95060000 		.4byte	0x695
 1389 0841 32000000 		.4byte	.LBB64
 1390 0845 50000000 		.4byte	.Ldebug_ranges0+0x50
 1391 0849 0D       		.byte	0xd
 1392 084a 7301     		.2byte	0x173
 1393 084c 2E       		.uleb128 0x2e
 1394 084d 70060000 		.4byte	0x670
 1395 0851 32000000 		.4byte	.LBB65
 1396 0855 68000000 		.4byte	.Ldebug_ranges0+0x68
 1397 0859 09       		.byte	0x9
 1398 085a E301     		.2byte	0x1e3
 1399 085c 2A       		.uleb128 0x2a
 1400 085d 7E060000 		.4byte	0x67e
 1401 0861 89000000 		.4byte	.LLST5
 1402 0865 00       		.byte	0
 1403 0866 00       		.byte	0
 1404 0867 00       		.byte	0
 1405 0868 00       		.byte	0
 1406 0869 00       		.byte	0
 1407 086a 15       		.uleb128 0x15
 1408 086b 36060000 		.4byte	0x636
 1409 086f 7A080000 		.4byte	0x87a
 1410 0873 16       		.uleb128 0x16
 1411 0874 30000000 		.4byte	0x30
 1412 0878 09       		.byte	0x9
 1413 0879 00       		.byte	0
 1414 087a 13       		.uleb128 0x13
 1415 087b 6A080000 		.4byte	0x86a
 1416 087f 21       		.uleb128 0x21
 1417 0880 01       		.byte	0x1
 1418 0881 93020000 		.4byte	.LASF110
 1419 0885 01       		.byte	0x1
 1420 0886 78       		.byte	0x78
 1421 0887 01       		.byte	0x1
 1422 0888 30020000 		.4byte	0x230
 1423 088c 00000000 		.4byte	.LFB183
ARM GAS  /tmp/ccTtpWue.s 			page 26


 1424 0890 3E000000 		.4byte	.LFE183
 1425 0894 A9000000 		.4byte	.LLST6
 1426 0898 76090000 		.4byte	0x976
 1427 089c 2F       		.uleb128 0x2f
 1428 089d 747000   		.ascii	"tp\000"
 1429 08a0 01       		.byte	0x1
 1430 08a1 79       		.byte	0x79
 1431 08a2 30020000 		.4byte	0x230
 1432 08a6 25       		.uleb128 0x25
 1433 08a7 9F060000 		.4byte	0x69f
 1434 08ab 02000000 		.4byte	.LBB72
 1435 08af 08000000 		.4byte	.LBE72
 1436 08b3 01       		.byte	0x1
 1437 08b4 7B       		.byte	0x7b
 1438 08b5 E2080000 		.4byte	0x8e2
 1439 08b9 26       		.uleb128 0x26
 1440 08ba 8B060000 		.4byte	0x68b
 1441 08be 02000000 		.4byte	.LBB73
 1442 08c2 08000000 		.4byte	.LBE73
 1443 08c6 0D       		.byte	0xd
 1444 08c7 5C01     		.2byte	0x15c
 1445 08c9 26       		.uleb128 0x26
 1446 08ca 70060000 		.4byte	0x670
 1447 08ce 02000000 		.4byte	.LBB74
 1448 08d2 08000000 		.4byte	.LBE74
 1449 08d6 09       		.byte	0x9
 1450 08d7 D001     		.2byte	0x1d0
 1451 08d9 27       		.uleb128 0x27
 1452 08da 7E060000 		.4byte	0x67e
 1453 08de 20       		.byte	0x20
 1454 08df 00       		.byte	0
 1455 08e0 00       		.byte	0
 1456 08e1 00       		.byte	0
 1457 08e2 25       		.uleb128 0x25
 1458 08e3 07070000 		.4byte	0x707
 1459 08e7 12000000 		.4byte	.LBB76
 1460 08eb 18000000 		.4byte	.LBE76
 1461 08ef 01       		.byte	0x1
 1462 08f0 7C       		.byte	0x7c
 1463 08f1 FF080000 		.4byte	0x8ff
 1464 08f5 2A       		.uleb128 0x2a
 1465 08f6 18070000 		.4byte	0x718
 1466 08fa C9000000 		.4byte	.LLST7
 1467 08fe 00       		.byte	0
 1468 08ff 28       		.uleb128 0x28
 1469 0900 23070000 		.4byte	0x723
 1470 0904 1C000000 		.4byte	.LBB78
 1471 0908 80000000 		.4byte	.Ldebug_ranges0+0x80
 1472 090c 01       		.byte	0x1
 1473 090d 7F       		.byte	0x7f
 1474 090e 2B090000 		.4byte	0x92b
 1475 0912 2A       		.uleb128 0x2a
 1476 0913 35070000 		.4byte	0x735
 1477 0917 E8000000 		.4byte	.LLST8
 1478 091b 2C       		.uleb128 0x2c
 1479 091c 98000000 		.4byte	.Ldebug_ranges0+0x98
 1480 0920 30       		.uleb128 0x30
ARM GAS  /tmp/ccTtpWue.s 			page 27


 1481 0921 41070000 		.4byte	0x741
 1482 0925 FD000000 		.4byte	.LLST9
 1483 0929 00       		.byte	0
 1484 092a 00       		.byte	0
 1485 092b 31       		.uleb128 0x31
 1486 092c D5060000 		.4byte	0x6d5
 1487 0930 26000000 		.4byte	.LBB82
 1488 0934 2C000000 		.4byte	.LBE82
 1489 0938 01       		.byte	0x1
 1490 0939 81       		.byte	0x81
 1491 093a 32       		.uleb128 0x32
 1492 093b 26000000 		.4byte	.LBB83
 1493 093f 2C000000 		.4byte	.LBE83
 1494 0943 2D       		.uleb128 0x2d
 1495 0944 E3060000 		.4byte	0x6e3
 1496 0948 26       		.uleb128 0x26
 1497 0949 95060000 		.4byte	0x695
 1498 094d 26000000 		.4byte	.LBB84
 1499 0951 2C000000 		.4byte	.LBE84
 1500 0955 0D       		.byte	0xd
 1501 0956 7301     		.2byte	0x173
 1502 0958 26       		.uleb128 0x26
 1503 0959 70060000 		.4byte	0x670
 1504 095d 26000000 		.4byte	.LBB85
 1505 0961 2C000000 		.4byte	.LBE85
 1506 0965 09       		.byte	0x9
 1507 0966 E301     		.2byte	0x1e3
 1508 0968 2A       		.uleb128 0x2a
 1509 0969 7E060000 		.4byte	0x67e
 1510 096d 10010000 		.4byte	.LLST10
 1511 0971 00       		.byte	0
 1512 0972 00       		.byte	0
 1513 0973 00       		.byte	0
 1514 0974 00       		.byte	0
 1515 0975 00       		.byte	0
 1516 0976 33       		.uleb128 0x33
 1517 0977 01       		.byte	0x1
 1518 0978 0A010000 		.4byte	.LASF115
 1519 097c 01       		.byte	0x1
 1520 097d 90       		.byte	0x90
 1521 097e 01       		.byte	0x1
 1522 097f 00000000 		.4byte	.LFB184
 1523 0983 14000000 		.4byte	.LFE184
 1524 0987 24010000 		.4byte	.LLST11
 1525 098b 580A0000 		.4byte	0xa58
 1526 098f 22       		.uleb128 0x22
 1527 0990 747000   		.ascii	"tp\000"
 1528 0993 01       		.byte	0x1
 1529 0994 90       		.byte	0x90
 1530 0995 30020000 		.4byte	0x230
 1531 0999 44010000 		.4byte	.LLST12
 1532 099d 22       		.uleb128 0x22
 1533 099e 6D736700 		.ascii	"msg\000"
 1534 09a2 01       		.byte	0x1
 1535 09a3 90       		.byte	0x90
 1536 09a4 DD000000 		.4byte	0xdd
 1537 09a8 57010000 		.4byte	.LLST13
ARM GAS  /tmp/ccTtpWue.s 			page 28


 1538 09ac 24       		.uleb128 0x24
 1539 09ad EF040000 		.4byte	.LASF107
 1540 09b1 680A0000 		.4byte	0xa68
 1541 09b5 01       		.byte	0x1
 1542 09b6 25       		.uleb128 0x25
 1543 09b7 9F060000 		.4byte	0x69f
 1544 09bb 02000000 		.4byte	.LBB87
 1545 09bf 08000000 		.4byte	.LBE87
 1546 09c3 01       		.byte	0x1
 1547 09c4 92       		.byte	0x92
 1548 09c5 F2090000 		.4byte	0x9f2
 1549 09c9 26       		.uleb128 0x26
 1550 09ca 8B060000 		.4byte	0x68b
 1551 09ce 02000000 		.4byte	.LBB88
 1552 09d2 08000000 		.4byte	.LBE88
 1553 09d6 0D       		.byte	0xd
 1554 09d7 5C01     		.2byte	0x15c
 1555 09d9 26       		.uleb128 0x26
 1556 09da 70060000 		.4byte	0x670
 1557 09de 02000000 		.4byte	.LBB89
 1558 09e2 08000000 		.4byte	.LBE89
 1559 09e6 09       		.byte	0x9
 1560 09e7 D001     		.2byte	0x1d0
 1561 09e9 27       		.uleb128 0x27
 1562 09ea 7E060000 		.4byte	0x67e
 1563 09ee 20       		.byte	0x20
 1564 09ef 00       		.byte	0
 1565 09f0 00       		.byte	0
 1566 09f1 00       		.byte	0
 1567 09f2 25       		.uleb128 0x25
 1568 09f3 4D070000 		.4byte	0x74d
 1569 09f7 08000000 		.4byte	.LBB91
 1570 09fb 0C000000 		.4byte	.LBE91
 1571 09ff 01       		.byte	0x1
 1572 0a00 94       		.byte	0x94
 1573 0a01 100A0000 		.4byte	0xa10
 1574 0a05 34       		.uleb128 0x34
 1575 0a06 64070000 		.4byte	0x764
 1576 0a0a 34       		.uleb128 0x34
 1577 0a0b 5A070000 		.4byte	0x75a
 1578 0a0f 00       		.byte	0
 1579 0a10 31       		.uleb128 0x31
 1580 0a11 D5060000 		.4byte	0x6d5
 1581 0a15 0C000000 		.4byte	.LBB93
 1582 0a19 12000000 		.4byte	.LBE93
 1583 0a1d 01       		.byte	0x1
 1584 0a1e 95       		.byte	0x95
 1585 0a1f 32       		.uleb128 0x32
 1586 0a20 0C000000 		.4byte	.LBB94
 1587 0a24 12000000 		.4byte	.LBE94
 1588 0a28 2D       		.uleb128 0x2d
 1589 0a29 E3060000 		.4byte	0x6e3
 1590 0a2d 26       		.uleb128 0x26
 1591 0a2e 95060000 		.4byte	0x695
 1592 0a32 0C000000 		.4byte	.LBB95
 1593 0a36 12000000 		.4byte	.LBE95
 1594 0a3a 0D       		.byte	0xd
ARM GAS  /tmp/ccTtpWue.s 			page 29


 1595 0a3b 7301     		.2byte	0x173
 1596 0a3d 26       		.uleb128 0x26
 1597 0a3e 70060000 		.4byte	0x670
 1598 0a42 0C000000 		.4byte	.LBB96
 1599 0a46 12000000 		.4byte	.LBE96
 1600 0a4a 09       		.byte	0x9
 1601 0a4b E301     		.2byte	0x1e3
 1602 0a4d 27       		.uleb128 0x27
 1603 0a4e 7E060000 		.4byte	0x67e
 1604 0a52 00       		.byte	0
 1605 0a53 00       		.byte	0
 1606 0a54 00       		.byte	0
 1607 0a55 00       		.byte	0
 1608 0a56 00       		.byte	0
 1609 0a57 00       		.byte	0
 1610 0a58 15       		.uleb128 0x15
 1611 0a59 36060000 		.4byte	0x636
 1612 0a5d 680A0000 		.4byte	0xa68
 1613 0a61 16       		.uleb128 0x16
 1614 0a62 30000000 		.4byte	0x30
 1615 0a66 0C       		.byte	0xc
 1616 0a67 00       		.byte	0
 1617 0a68 13       		.uleb128 0x13
 1618 0a69 580A0000 		.4byte	0xa58
 1619 0a6d 35       		.uleb128 0x35
 1620 0a6e 7A030000 		.4byte	.LASF111
 1621 0a72 0E       		.byte	0xe
 1622 0a73 5506     		.2byte	0x655
 1623 0a75 7B0A0000 		.4byte	0xa7b
 1624 0a79 01       		.byte	0x1
 1625 0a7a 01       		.byte	0x1
 1626 0a7b 14       		.uleb128 0x14
 1627 0a7c 69000000 		.4byte	0x69
 1628 0a80 36       		.uleb128 0x36
 1629 0a81 636800   		.ascii	"ch\000"
 1630 0a84 03       		.byte	0x3
 1631 0a85 0902     		.2byte	0x209
 1632 0a87 03040000 		.4byte	0x403
 1633 0a8b 01       		.byte	0x1
 1634 0a8c 01       		.byte	0x1
 1635 0a8d 35       		.uleb128 0x35
 1636 0a8e 7A030000 		.4byte	.LASF111
 1637 0a92 0E       		.byte	0xe
 1638 0a93 5506     		.2byte	0x655
 1639 0a95 7B0A0000 		.4byte	0xa7b
 1640 0a99 01       		.byte	0x1
 1641 0a9a 01       		.byte	0x1
 1642 0a9b 36       		.uleb128 0x36
 1643 0a9c 636800   		.ascii	"ch\000"
 1644 0a9f 03       		.byte	0x3
 1645 0aa0 0902     		.2byte	0x209
 1646 0aa2 03040000 		.4byte	0x403
 1647 0aa6 01       		.byte	0x1
 1648 0aa7 01       		.byte	0x1
 1649 0aa8 00       		.byte	0
 1650              		.section	.debug_abbrev,"",%progbits
 1651              	.Ldebug_abbrev0:
ARM GAS  /tmp/ccTtpWue.s 			page 30


 1652 0000 01       		.uleb128 0x1
 1653 0001 11       		.uleb128 0x11
 1654 0002 01       		.byte	0x1
 1655 0003 25       		.uleb128 0x25
 1656 0004 0E       		.uleb128 0xe
 1657 0005 13       		.uleb128 0x13
 1658 0006 0B       		.uleb128 0xb
 1659 0007 03       		.uleb128 0x3
 1660 0008 0E       		.uleb128 0xe
 1661 0009 1B       		.uleb128 0x1b
 1662 000a 0E       		.uleb128 0xe
 1663 000b 11       		.uleb128 0x11
 1664 000c 01       		.uleb128 0x1
 1665 000d 52       		.uleb128 0x52
 1666 000e 01       		.uleb128 0x1
 1667 000f 55       		.uleb128 0x55
 1668 0010 06       		.uleb128 0x6
 1669 0011 10       		.uleb128 0x10
 1670 0012 06       		.uleb128 0x6
 1671 0013 00       		.byte	0
 1672 0014 00       		.byte	0
 1673 0015 02       		.uleb128 0x2
 1674 0016 24       		.uleb128 0x24
 1675 0017 00       		.byte	0
 1676 0018 0B       		.uleb128 0xb
 1677 0019 0B       		.uleb128 0xb
 1678 001a 3E       		.uleb128 0x3e
 1679 001b 0B       		.uleb128 0xb
 1680 001c 03       		.uleb128 0x3
 1681 001d 08       		.uleb128 0x8
 1682 001e 00       		.byte	0
 1683 001f 00       		.byte	0
 1684 0020 03       		.uleb128 0x3
 1685 0021 24       		.uleb128 0x24
 1686 0022 00       		.byte	0
 1687 0023 0B       		.uleb128 0xb
 1688 0024 0B       		.uleb128 0xb
 1689 0025 3E       		.uleb128 0x3e
 1690 0026 0B       		.uleb128 0xb
 1691 0027 03       		.uleb128 0x3
 1692 0028 0E       		.uleb128 0xe
 1693 0029 00       		.byte	0
 1694 002a 00       		.byte	0
 1695 002b 04       		.uleb128 0x4
 1696 002c 16       		.uleb128 0x16
 1697 002d 00       		.byte	0
 1698 002e 03       		.uleb128 0x3
 1699 002f 0E       		.uleb128 0xe
 1700 0030 3A       		.uleb128 0x3a
 1701 0031 0B       		.uleb128 0xb
 1702 0032 3B       		.uleb128 0x3b
 1703 0033 0B       		.uleb128 0xb
 1704 0034 49       		.uleb128 0x49
 1705 0035 13       		.uleb128 0x13
 1706 0036 00       		.byte	0
 1707 0037 00       		.byte	0
 1708 0038 05       		.uleb128 0x5
ARM GAS  /tmp/ccTtpWue.s 			page 31


 1709 0039 13       		.uleb128 0x13
 1710 003a 01       		.byte	0x1
 1711 003b 03       		.uleb128 0x3
 1712 003c 0E       		.uleb128 0xe
 1713 003d 0B       		.uleb128 0xb
 1714 003e 0B       		.uleb128 0xb
 1715 003f 3A       		.uleb128 0x3a
 1716 0040 0B       		.uleb128 0xb
 1717 0041 3B       		.uleb128 0x3b
 1718 0042 0B       		.uleb128 0xb
 1719 0043 01       		.uleb128 0x1
 1720 0044 13       		.uleb128 0x13
 1721 0045 00       		.byte	0
 1722 0046 00       		.byte	0
 1723 0047 06       		.uleb128 0x6
 1724 0048 0D       		.uleb128 0xd
 1725 0049 00       		.byte	0
 1726 004a 03       		.uleb128 0x3
 1727 004b 0E       		.uleb128 0xe
 1728 004c 3A       		.uleb128 0x3a
 1729 004d 0B       		.uleb128 0xb
 1730 004e 3B       		.uleb128 0x3b
 1731 004f 0B       		.uleb128 0xb
 1732 0050 49       		.uleb128 0x49
 1733 0051 13       		.uleb128 0x13
 1734 0052 38       		.uleb128 0x38
 1735 0053 0A       		.uleb128 0xa
 1736 0054 00       		.byte	0
 1737 0055 00       		.byte	0
 1738 0056 07       		.uleb128 0x7
 1739 0057 0D       		.uleb128 0xd
 1740 0058 00       		.byte	0
 1741 0059 03       		.uleb128 0x3
 1742 005a 08       		.uleb128 0x8
 1743 005b 3A       		.uleb128 0x3a
 1744 005c 0B       		.uleb128 0xb
 1745 005d 3B       		.uleb128 0x3b
 1746 005e 05       		.uleb128 0x5
 1747 005f 49       		.uleb128 0x49
 1748 0060 13       		.uleb128 0x13
 1749 0061 38       		.uleb128 0x38
 1750 0062 0A       		.uleb128 0xa
 1751 0063 00       		.byte	0
 1752 0064 00       		.byte	0
 1753 0065 08       		.uleb128 0x8
 1754 0066 0D       		.uleb128 0xd
 1755 0067 00       		.byte	0
 1756 0068 03       		.uleb128 0x3
 1757 0069 0E       		.uleb128 0xe
 1758 006a 3A       		.uleb128 0x3a
 1759 006b 0B       		.uleb128 0xb
 1760 006c 3B       		.uleb128 0x3b
 1761 006d 05       		.uleb128 0x5
 1762 006e 49       		.uleb128 0x49
 1763 006f 13       		.uleb128 0x13
 1764 0070 38       		.uleb128 0x38
 1765 0071 0A       		.uleb128 0xa
ARM GAS  /tmp/ccTtpWue.s 			page 32


 1766 0072 00       		.byte	0
 1767 0073 00       		.byte	0
 1768 0074 09       		.uleb128 0x9
 1769 0075 0F       		.uleb128 0xf
 1770 0076 00       		.byte	0
 1771 0077 0B       		.uleb128 0xb
 1772 0078 0B       		.uleb128 0xb
 1773 0079 49       		.uleb128 0x49
 1774 007a 13       		.uleb128 0x13
 1775 007b 00       		.byte	0
 1776 007c 00       		.byte	0
 1777 007d 0A       		.uleb128 0xa
 1778 007e 13       		.uleb128 0x13
 1779 007f 01       		.byte	0x1
 1780 0080 03       		.uleb128 0x3
 1781 0081 0E       		.uleb128 0xe
 1782 0082 0B       		.uleb128 0xb
 1783 0083 0B       		.uleb128 0xb
 1784 0084 3A       		.uleb128 0x3a
 1785 0085 0B       		.uleb128 0xb
 1786 0086 3B       		.uleb128 0x3b
 1787 0087 05       		.uleb128 0x5
 1788 0088 01       		.uleb128 0x1
 1789 0089 13       		.uleb128 0x13
 1790 008a 00       		.byte	0
 1791 008b 00       		.byte	0
 1792 008c 0B       		.uleb128 0xb
 1793 008d 15       		.uleb128 0x15
 1794 008e 01       		.byte	0x1
 1795 008f 27       		.uleb128 0x27
 1796 0090 0C       		.uleb128 0xc
 1797 0091 01       		.uleb128 0x1
 1798 0092 13       		.uleb128 0x13
 1799 0093 00       		.byte	0
 1800 0094 00       		.byte	0
 1801 0095 0C       		.uleb128 0xc
 1802 0096 05       		.uleb128 0x5
 1803 0097 00       		.byte	0
 1804 0098 49       		.uleb128 0x49
 1805 0099 13       		.uleb128 0x13
 1806 009a 00       		.byte	0
 1807 009b 00       		.byte	0
 1808 009c 0D       		.uleb128 0xd
 1809 009d 0F       		.uleb128 0xf
 1810 009e 00       		.byte	0
 1811 009f 0B       		.uleb128 0xb
 1812 00a0 0B       		.uleb128 0xb
 1813 00a1 00       		.byte	0
 1814 00a2 00       		.byte	0
 1815 00a3 0E       		.uleb128 0xe
 1816 00a4 13       		.uleb128 0x13
 1817 00a5 01       		.byte	0x1
 1818 00a6 03       		.uleb128 0x3
 1819 00a7 0E       		.uleb128 0xe
 1820 00a8 0B       		.uleb128 0xb
 1821 00a9 05       		.uleb128 0x5
 1822 00aa 3A       		.uleb128 0x3a
ARM GAS  /tmp/ccTtpWue.s 			page 33


 1823 00ab 0B       		.uleb128 0xb
 1824 00ac 3B       		.uleb128 0x3b
 1825 00ad 05       		.uleb128 0x5
 1826 00ae 01       		.uleb128 0x1
 1827 00af 13       		.uleb128 0x13
 1828 00b0 00       		.byte	0
 1829 00b1 00       		.byte	0
 1830 00b2 0F       		.uleb128 0xf
 1831 00b3 0D       		.uleb128 0xd
 1832 00b4 00       		.byte	0
 1833 00b5 03       		.uleb128 0x3
 1834 00b6 08       		.uleb128 0x8
 1835 00b7 3A       		.uleb128 0x3a
 1836 00b8 0B       		.uleb128 0xb
 1837 00b9 3B       		.uleb128 0x3b
 1838 00ba 0B       		.uleb128 0xb
 1839 00bb 49       		.uleb128 0x49
 1840 00bc 13       		.uleb128 0x13
 1841 00bd 38       		.uleb128 0x38
 1842 00be 0A       		.uleb128 0xa
 1843 00bf 00       		.byte	0
 1844 00c0 00       		.byte	0
 1845 00c1 10       		.uleb128 0x10
 1846 00c2 13       		.uleb128 0x13
 1847 00c3 01       		.byte	0x1
 1848 00c4 0B       		.uleb128 0xb
 1849 00c5 0B       		.uleb128 0xb
 1850 00c6 3A       		.uleb128 0x3a
 1851 00c7 0B       		.uleb128 0xb
 1852 00c8 3B       		.uleb128 0x3b
 1853 00c9 0B       		.uleb128 0xb
 1854 00ca 01       		.uleb128 0x1
 1855 00cb 13       		.uleb128 0x13
 1856 00cc 00       		.byte	0
 1857 00cd 00       		.byte	0
 1858 00ce 11       		.uleb128 0x11
 1859 00cf 17       		.uleb128 0x17
 1860 00d0 01       		.byte	0x1
 1861 00d1 0B       		.uleb128 0xb
 1862 00d2 0B       		.uleb128 0xb
 1863 00d3 3A       		.uleb128 0x3a
 1864 00d4 0B       		.uleb128 0xb
 1865 00d5 3B       		.uleb128 0x3b
 1866 00d6 0B       		.uleb128 0xb
 1867 00d7 01       		.uleb128 0x1
 1868 00d8 13       		.uleb128 0x13
 1869 00d9 00       		.byte	0
 1870 00da 00       		.byte	0
 1871 00db 12       		.uleb128 0x12
 1872 00dc 0D       		.uleb128 0xd
 1873 00dd 00       		.byte	0
 1874 00de 03       		.uleb128 0x3
 1875 00df 0E       		.uleb128 0xe
 1876 00e0 3A       		.uleb128 0x3a
 1877 00e1 0B       		.uleb128 0xb
 1878 00e2 3B       		.uleb128 0x3b
 1879 00e3 05       		.uleb128 0x5
ARM GAS  /tmp/ccTtpWue.s 			page 34


 1880 00e4 49       		.uleb128 0x49
 1881 00e5 13       		.uleb128 0x13
 1882 00e6 00       		.byte	0
 1883 00e7 00       		.byte	0
 1884 00e8 13       		.uleb128 0x13
 1885 00e9 26       		.uleb128 0x26
 1886 00ea 00       		.byte	0
 1887 00eb 49       		.uleb128 0x49
 1888 00ec 13       		.uleb128 0x13
 1889 00ed 00       		.byte	0
 1890 00ee 00       		.byte	0
 1891 00ef 14       		.uleb128 0x14
 1892 00f0 35       		.uleb128 0x35
 1893 00f1 00       		.byte	0
 1894 00f2 49       		.uleb128 0x49
 1895 00f3 13       		.uleb128 0x13
 1896 00f4 00       		.byte	0
 1897 00f5 00       		.byte	0
 1898 00f6 15       		.uleb128 0x15
 1899 00f7 01       		.uleb128 0x1
 1900 00f8 01       		.byte	0x1
 1901 00f9 49       		.uleb128 0x49
 1902 00fa 13       		.uleb128 0x13
 1903 00fb 01       		.uleb128 0x1
 1904 00fc 13       		.uleb128 0x13
 1905 00fd 00       		.byte	0
 1906 00fe 00       		.byte	0
 1907 00ff 16       		.uleb128 0x16
 1908 0100 21       		.uleb128 0x21
 1909 0101 00       		.byte	0
 1910 0102 49       		.uleb128 0x49
 1911 0103 13       		.uleb128 0x13
 1912 0104 2F       		.uleb128 0x2f
 1913 0105 0B       		.uleb128 0xb
 1914 0106 00       		.byte	0
 1915 0107 00       		.byte	0
 1916 0108 17       		.uleb128 0x17
 1917 0109 2E       		.uleb128 0x2e
 1918 010a 01       		.byte	0x1
 1919 010b 03       		.uleb128 0x3
 1920 010c 0E       		.uleb128 0xe
 1921 010d 3A       		.uleb128 0x3a
 1922 010e 0B       		.uleb128 0xb
 1923 010f 3B       		.uleb128 0x3b
 1924 0110 05       		.uleb128 0x5
 1925 0111 27       		.uleb128 0x27
 1926 0112 0C       		.uleb128 0xc
 1927 0113 20       		.uleb128 0x20
 1928 0114 0B       		.uleb128 0xb
 1929 0115 01       		.uleb128 0x1
 1930 0116 13       		.uleb128 0x13
 1931 0117 00       		.byte	0
 1932 0118 00       		.byte	0
 1933 0119 18       		.uleb128 0x18
 1934 011a 05       		.uleb128 0x5
 1935 011b 00       		.byte	0
 1936 011c 03       		.uleb128 0x3
ARM GAS  /tmp/ccTtpWue.s 			page 35


 1937 011d 0E       		.uleb128 0xe
 1938 011e 3A       		.uleb128 0x3a
 1939 011f 0B       		.uleb128 0xb
 1940 0120 3B       		.uleb128 0x3b
 1941 0121 05       		.uleb128 0x5
 1942 0122 49       		.uleb128 0x49
 1943 0123 13       		.uleb128 0x13
 1944 0124 00       		.byte	0
 1945 0125 00       		.byte	0
 1946 0126 19       		.uleb128 0x19
 1947 0127 2E       		.uleb128 0x2e
 1948 0128 00       		.byte	0
 1949 0129 03       		.uleb128 0x3
 1950 012a 0E       		.uleb128 0xe
 1951 012b 3A       		.uleb128 0x3a
 1952 012c 0B       		.uleb128 0xb
 1953 012d 3B       		.uleb128 0x3b
 1954 012e 05       		.uleb128 0x5
 1955 012f 27       		.uleb128 0x27
 1956 0130 0C       		.uleb128 0xc
 1957 0131 20       		.uleb128 0x20
 1958 0132 0B       		.uleb128 0xb
 1959 0133 00       		.byte	0
 1960 0134 00       		.byte	0
 1961 0135 1A       		.uleb128 0x1a
 1962 0136 05       		.uleb128 0x5
 1963 0137 00       		.byte	0
 1964 0138 03       		.uleb128 0x3
 1965 0139 08       		.uleb128 0x8
 1966 013a 3A       		.uleb128 0x3a
 1967 013b 0B       		.uleb128 0xb
 1968 013c 3B       		.uleb128 0x3b
 1969 013d 05       		.uleb128 0x5
 1970 013e 49       		.uleb128 0x49
 1971 013f 13       		.uleb128 0x13
 1972 0140 00       		.byte	0
 1973 0141 00       		.byte	0
 1974 0142 1B       		.uleb128 0x1b
 1975 0143 34       		.uleb128 0x34
 1976 0144 00       		.byte	0
 1977 0145 03       		.uleb128 0x3
 1978 0146 0E       		.uleb128 0xe
 1979 0147 49       		.uleb128 0x49
 1980 0148 13       		.uleb128 0x13
 1981 0149 34       		.uleb128 0x34
 1982 014a 0C       		.uleb128 0xc
 1983 014b 1C       		.uleb128 0x1c
 1984 014c 0E       		.uleb128 0xe
 1985 014d 00       		.byte	0
 1986 014e 00       		.byte	0
 1987 014f 1C       		.uleb128 0x1c
 1988 0150 2E       		.uleb128 0x2e
 1989 0151 01       		.byte	0x1
 1990 0152 03       		.uleb128 0x3
 1991 0153 0E       		.uleb128 0xe
 1992 0154 3A       		.uleb128 0x3a
 1993 0155 0B       		.uleb128 0xb
ARM GAS  /tmp/ccTtpWue.s 			page 36


 1994 0156 3B       		.uleb128 0x3b
 1995 0157 0B       		.uleb128 0xb
 1996 0158 27       		.uleb128 0x27
 1997 0159 0C       		.uleb128 0xc
 1998 015a 49       		.uleb128 0x49
 1999 015b 13       		.uleb128 0x13
 2000 015c 20       		.uleb128 0x20
 2001 015d 0B       		.uleb128 0xb
 2002 015e 01       		.uleb128 0x1
 2003 015f 13       		.uleb128 0x13
 2004 0160 00       		.byte	0
 2005 0161 00       		.byte	0
 2006 0162 1D       		.uleb128 0x1d
 2007 0163 05       		.uleb128 0x5
 2008 0164 00       		.byte	0
 2009 0165 03       		.uleb128 0x3
 2010 0166 08       		.uleb128 0x8
 2011 0167 3A       		.uleb128 0x3a
 2012 0168 0B       		.uleb128 0xb
 2013 0169 3B       		.uleb128 0x3b
 2014 016a 0B       		.uleb128 0xb
 2015 016b 49       		.uleb128 0x49
 2016 016c 13       		.uleb128 0x13
 2017 016d 00       		.byte	0
 2018 016e 00       		.byte	0
 2019 016f 1E       		.uleb128 0x1e
 2020 0170 2E       		.uleb128 0x2e
 2021 0171 01       		.byte	0x1
 2022 0172 03       		.uleb128 0x3
 2023 0173 0E       		.uleb128 0xe
 2024 0174 3A       		.uleb128 0x3a
 2025 0175 0B       		.uleb128 0xb
 2026 0176 3B       		.uleb128 0x3b
 2027 0177 05       		.uleb128 0x5
 2028 0178 27       		.uleb128 0x27
 2029 0179 0C       		.uleb128 0xc
 2030 017a 49       		.uleb128 0x49
 2031 017b 13       		.uleb128 0x13
 2032 017c 20       		.uleb128 0x20
 2033 017d 0B       		.uleb128 0xb
 2034 017e 01       		.uleb128 0x1
 2035 017f 13       		.uleb128 0x13
 2036 0180 00       		.byte	0
 2037 0181 00       		.byte	0
 2038 0182 1F       		.uleb128 0x1f
 2039 0183 34       		.uleb128 0x34
 2040 0184 00       		.byte	0
 2041 0185 03       		.uleb128 0x3
 2042 0186 08       		.uleb128 0x8
 2043 0187 3A       		.uleb128 0x3a
 2044 0188 0B       		.uleb128 0xb
 2045 0189 3B       		.uleb128 0x3b
 2046 018a 05       		.uleb128 0x5
 2047 018b 49       		.uleb128 0x49
 2048 018c 13       		.uleb128 0x13
 2049 018d 00       		.byte	0
 2050 018e 00       		.byte	0
ARM GAS  /tmp/ccTtpWue.s 			page 37


 2051 018f 20       		.uleb128 0x20
 2052 0190 2E       		.uleb128 0x2e
 2053 0191 01       		.byte	0x1
 2054 0192 03       		.uleb128 0x3
 2055 0193 0E       		.uleb128 0xe
 2056 0194 3A       		.uleb128 0x3a
 2057 0195 0B       		.uleb128 0xb
 2058 0196 3B       		.uleb128 0x3b
 2059 0197 0B       		.uleb128 0xb
 2060 0198 27       		.uleb128 0x27
 2061 0199 0C       		.uleb128 0xc
 2062 019a 20       		.uleb128 0x20
 2063 019b 0B       		.uleb128 0xb
 2064 019c 01       		.uleb128 0x1
 2065 019d 13       		.uleb128 0x13
 2066 019e 00       		.byte	0
 2067 019f 00       		.byte	0
 2068 01a0 21       		.uleb128 0x21
 2069 01a1 2E       		.uleb128 0x2e
 2070 01a2 01       		.byte	0x1
 2071 01a3 3F       		.uleb128 0x3f
 2072 01a4 0C       		.uleb128 0xc
 2073 01a5 03       		.uleb128 0x3
 2074 01a6 0E       		.uleb128 0xe
 2075 01a7 3A       		.uleb128 0x3a
 2076 01a8 0B       		.uleb128 0xb
 2077 01a9 3B       		.uleb128 0x3b
 2078 01aa 0B       		.uleb128 0xb
 2079 01ab 27       		.uleb128 0x27
 2080 01ac 0C       		.uleb128 0xc
 2081 01ad 49       		.uleb128 0x49
 2082 01ae 13       		.uleb128 0x13
 2083 01af 11       		.uleb128 0x11
 2084 01b0 01       		.uleb128 0x1
 2085 01b1 12       		.uleb128 0x12
 2086 01b2 01       		.uleb128 0x1
 2087 01b3 40       		.uleb128 0x40
 2088 01b4 06       		.uleb128 0x6
 2089 01b5 01       		.uleb128 0x1
 2090 01b6 13       		.uleb128 0x13
 2091 01b7 00       		.byte	0
 2092 01b8 00       		.byte	0
 2093 01b9 22       		.uleb128 0x22
 2094 01ba 05       		.uleb128 0x5
 2095 01bb 00       		.byte	0
 2096 01bc 03       		.uleb128 0x3
 2097 01bd 08       		.uleb128 0x8
 2098 01be 3A       		.uleb128 0x3a
 2099 01bf 0B       		.uleb128 0xb
 2100 01c0 3B       		.uleb128 0x3b
 2101 01c1 0B       		.uleb128 0xb
 2102 01c2 49       		.uleb128 0x49
 2103 01c3 13       		.uleb128 0x13
 2104 01c4 02       		.uleb128 0x2
 2105 01c5 06       		.uleb128 0x6
 2106 01c6 00       		.byte	0
 2107 01c7 00       		.byte	0
ARM GAS  /tmp/ccTtpWue.s 			page 38


 2108 01c8 23       		.uleb128 0x23
 2109 01c9 34       		.uleb128 0x34
 2110 01ca 00       		.byte	0
 2111 01cb 03       		.uleb128 0x3
 2112 01cc 08       		.uleb128 0x8
 2113 01cd 3A       		.uleb128 0x3a
 2114 01ce 0B       		.uleb128 0xb
 2115 01cf 3B       		.uleb128 0x3b
 2116 01d0 0B       		.uleb128 0xb
 2117 01d1 49       		.uleb128 0x49
 2118 01d2 13       		.uleb128 0x13
 2119 01d3 02       		.uleb128 0x2
 2120 01d4 06       		.uleb128 0x6
 2121 01d5 00       		.byte	0
 2122 01d6 00       		.byte	0
 2123 01d7 24       		.uleb128 0x24
 2124 01d8 34       		.uleb128 0x34
 2125 01d9 00       		.byte	0
 2126 01da 03       		.uleb128 0x3
 2127 01db 0E       		.uleb128 0xe
 2128 01dc 49       		.uleb128 0x49
 2129 01dd 13       		.uleb128 0x13
 2130 01de 34       		.uleb128 0x34
 2131 01df 0C       		.uleb128 0xc
 2132 01e0 00       		.byte	0
 2133 01e1 00       		.byte	0
 2134 01e2 25       		.uleb128 0x25
 2135 01e3 1D       		.uleb128 0x1d
 2136 01e4 01       		.byte	0x1
 2137 01e5 31       		.uleb128 0x31
 2138 01e6 13       		.uleb128 0x13
 2139 01e7 11       		.uleb128 0x11
 2140 01e8 01       		.uleb128 0x1
 2141 01e9 12       		.uleb128 0x12
 2142 01ea 01       		.uleb128 0x1
 2143 01eb 58       		.uleb128 0x58
 2144 01ec 0B       		.uleb128 0xb
 2145 01ed 59       		.uleb128 0x59
 2146 01ee 0B       		.uleb128 0xb
 2147 01ef 01       		.uleb128 0x1
 2148 01f0 13       		.uleb128 0x13
 2149 01f1 00       		.byte	0
 2150 01f2 00       		.byte	0
 2151 01f3 26       		.uleb128 0x26
 2152 01f4 1D       		.uleb128 0x1d
 2153 01f5 01       		.byte	0x1
 2154 01f6 31       		.uleb128 0x31
 2155 01f7 13       		.uleb128 0x13
 2156 01f8 11       		.uleb128 0x11
 2157 01f9 01       		.uleb128 0x1
 2158 01fa 12       		.uleb128 0x12
 2159 01fb 01       		.uleb128 0x1
 2160 01fc 58       		.uleb128 0x58
 2161 01fd 0B       		.uleb128 0xb
 2162 01fe 59       		.uleb128 0x59
 2163 01ff 05       		.uleb128 0x5
 2164 0200 00       		.byte	0
ARM GAS  /tmp/ccTtpWue.s 			page 39


 2165 0201 00       		.byte	0
 2166 0202 27       		.uleb128 0x27
 2167 0203 05       		.uleb128 0x5
 2168 0204 00       		.byte	0
 2169 0205 31       		.uleb128 0x31
 2170 0206 13       		.uleb128 0x13
 2171 0207 1C       		.uleb128 0x1c
 2172 0208 0B       		.uleb128 0xb
 2173 0209 00       		.byte	0
 2174 020a 00       		.byte	0
 2175 020b 28       		.uleb128 0x28
 2176 020c 1D       		.uleb128 0x1d
 2177 020d 01       		.byte	0x1
 2178 020e 31       		.uleb128 0x31
 2179 020f 13       		.uleb128 0x13
 2180 0210 52       		.uleb128 0x52
 2181 0211 01       		.uleb128 0x1
 2182 0212 55       		.uleb128 0x55
 2183 0213 06       		.uleb128 0x6
 2184 0214 58       		.uleb128 0x58
 2185 0215 0B       		.uleb128 0xb
 2186 0216 59       		.uleb128 0x59
 2187 0217 0B       		.uleb128 0xb
 2188 0218 01       		.uleb128 0x1
 2189 0219 13       		.uleb128 0x13
 2190 021a 00       		.byte	0
 2191 021b 00       		.byte	0
 2192 021c 29       		.uleb128 0x29
 2193 021d 05       		.uleb128 0x5
 2194 021e 00       		.byte	0
 2195 021f 31       		.uleb128 0x31
 2196 0220 13       		.uleb128 0x13
 2197 0221 02       		.uleb128 0x2
 2198 0222 0A       		.uleb128 0xa
 2199 0223 00       		.byte	0
 2200 0224 00       		.byte	0
 2201 0225 2A       		.uleb128 0x2a
 2202 0226 05       		.uleb128 0x5
 2203 0227 00       		.byte	0
 2204 0228 31       		.uleb128 0x31
 2205 0229 13       		.uleb128 0x13
 2206 022a 02       		.uleb128 0x2
 2207 022b 06       		.uleb128 0x6
 2208 022c 00       		.byte	0
 2209 022d 00       		.byte	0
 2210 022e 2B       		.uleb128 0x2b
 2211 022f 1D       		.uleb128 0x1d
 2212 0230 01       		.byte	0x1
 2213 0231 31       		.uleb128 0x31
 2214 0232 13       		.uleb128 0x13
 2215 0233 52       		.uleb128 0x52
 2216 0234 01       		.uleb128 0x1
 2217 0235 55       		.uleb128 0x55
 2218 0236 06       		.uleb128 0x6
 2219 0237 58       		.uleb128 0x58
 2220 0238 0B       		.uleb128 0xb
 2221 0239 59       		.uleb128 0x59
ARM GAS  /tmp/ccTtpWue.s 			page 40


 2222 023a 0B       		.uleb128 0xb
 2223 023b 00       		.byte	0
 2224 023c 00       		.byte	0
 2225 023d 2C       		.uleb128 0x2c
 2226 023e 0B       		.uleb128 0xb
 2227 023f 01       		.byte	0x1
 2228 0240 55       		.uleb128 0x55
 2229 0241 06       		.uleb128 0x6
 2230 0242 00       		.byte	0
 2231 0243 00       		.byte	0
 2232 0244 2D       		.uleb128 0x2d
 2233 0245 34       		.uleb128 0x34
 2234 0246 00       		.byte	0
 2235 0247 31       		.uleb128 0x31
 2236 0248 13       		.uleb128 0x13
 2237 0249 00       		.byte	0
 2238 024a 00       		.byte	0
 2239 024b 2E       		.uleb128 0x2e
 2240 024c 1D       		.uleb128 0x1d
 2241 024d 01       		.byte	0x1
 2242 024e 31       		.uleb128 0x31
 2243 024f 13       		.uleb128 0x13
 2244 0250 52       		.uleb128 0x52
 2245 0251 01       		.uleb128 0x1
 2246 0252 55       		.uleb128 0x55
 2247 0253 06       		.uleb128 0x6
 2248 0254 58       		.uleb128 0x58
 2249 0255 0B       		.uleb128 0xb
 2250 0256 59       		.uleb128 0x59
 2251 0257 05       		.uleb128 0x5
 2252 0258 00       		.byte	0
 2253 0259 00       		.byte	0
 2254 025a 2F       		.uleb128 0x2f
 2255 025b 34       		.uleb128 0x34
 2256 025c 00       		.byte	0
 2257 025d 03       		.uleb128 0x3
 2258 025e 08       		.uleb128 0x8
 2259 025f 3A       		.uleb128 0x3a
 2260 0260 0B       		.uleb128 0xb
 2261 0261 3B       		.uleb128 0x3b
 2262 0262 0B       		.uleb128 0xb
 2263 0263 49       		.uleb128 0x49
 2264 0264 13       		.uleb128 0x13
 2265 0265 00       		.byte	0
 2266 0266 00       		.byte	0
 2267 0267 30       		.uleb128 0x30
 2268 0268 34       		.uleb128 0x34
 2269 0269 00       		.byte	0
 2270 026a 31       		.uleb128 0x31
 2271 026b 13       		.uleb128 0x13
 2272 026c 02       		.uleb128 0x2
 2273 026d 06       		.uleb128 0x6
 2274 026e 00       		.byte	0
 2275 026f 00       		.byte	0
 2276 0270 31       		.uleb128 0x31
 2277 0271 1D       		.uleb128 0x1d
 2278 0272 01       		.byte	0x1
ARM GAS  /tmp/ccTtpWue.s 			page 41


 2279 0273 31       		.uleb128 0x31
 2280 0274 13       		.uleb128 0x13
 2281 0275 11       		.uleb128 0x11
 2282 0276 01       		.uleb128 0x1
 2283 0277 12       		.uleb128 0x12
 2284 0278 01       		.uleb128 0x1
 2285 0279 58       		.uleb128 0x58
 2286 027a 0B       		.uleb128 0xb
 2287 027b 59       		.uleb128 0x59
 2288 027c 0B       		.uleb128 0xb
 2289 027d 00       		.byte	0
 2290 027e 00       		.byte	0
 2291 027f 32       		.uleb128 0x32
 2292 0280 0B       		.uleb128 0xb
 2293 0281 01       		.byte	0x1
 2294 0282 11       		.uleb128 0x11
 2295 0283 01       		.uleb128 0x1
 2296 0284 12       		.uleb128 0x12
 2297 0285 01       		.uleb128 0x1
 2298 0286 00       		.byte	0
 2299 0287 00       		.byte	0
 2300 0288 33       		.uleb128 0x33
 2301 0289 2E       		.uleb128 0x2e
 2302 028a 01       		.byte	0x1
 2303 028b 3F       		.uleb128 0x3f
 2304 028c 0C       		.uleb128 0xc
 2305 028d 03       		.uleb128 0x3
 2306 028e 0E       		.uleb128 0xe
 2307 028f 3A       		.uleb128 0x3a
 2308 0290 0B       		.uleb128 0xb
 2309 0291 3B       		.uleb128 0x3b
 2310 0292 0B       		.uleb128 0xb
 2311 0293 27       		.uleb128 0x27
 2312 0294 0C       		.uleb128 0xc
 2313 0295 11       		.uleb128 0x11
 2314 0296 01       		.uleb128 0x1
 2315 0297 12       		.uleb128 0x12
 2316 0298 01       		.uleb128 0x1
 2317 0299 40       		.uleb128 0x40
 2318 029a 06       		.uleb128 0x6
 2319 029b 01       		.uleb128 0x1
 2320 029c 13       		.uleb128 0x13
 2321 029d 00       		.byte	0
 2322 029e 00       		.byte	0
 2323 029f 34       		.uleb128 0x34
 2324 02a0 05       		.uleb128 0x5
 2325 02a1 00       		.byte	0
 2326 02a2 31       		.uleb128 0x31
 2327 02a3 13       		.uleb128 0x13
 2328 02a4 00       		.byte	0
 2329 02a5 00       		.byte	0
 2330 02a6 35       		.uleb128 0x35
 2331 02a7 34       		.uleb128 0x34
 2332 02a8 00       		.byte	0
 2333 02a9 03       		.uleb128 0x3
 2334 02aa 0E       		.uleb128 0xe
 2335 02ab 3A       		.uleb128 0x3a
ARM GAS  /tmp/ccTtpWue.s 			page 42


 2336 02ac 0B       		.uleb128 0xb
 2337 02ad 3B       		.uleb128 0x3b
 2338 02ae 05       		.uleb128 0x5
 2339 02af 49       		.uleb128 0x49
 2340 02b0 13       		.uleb128 0x13
 2341 02b1 3F       		.uleb128 0x3f
 2342 02b2 0C       		.uleb128 0xc
 2343 02b3 3C       		.uleb128 0x3c
 2344 02b4 0C       		.uleb128 0xc
 2345 02b5 00       		.byte	0
 2346 02b6 00       		.byte	0
 2347 02b7 36       		.uleb128 0x36
 2348 02b8 34       		.uleb128 0x34
 2349 02b9 00       		.byte	0
 2350 02ba 03       		.uleb128 0x3
 2351 02bb 08       		.uleb128 0x8
 2352 02bc 3A       		.uleb128 0x3a
 2353 02bd 0B       		.uleb128 0xb
 2354 02be 3B       		.uleb128 0x3b
 2355 02bf 05       		.uleb128 0x5
 2356 02c0 49       		.uleb128 0x49
 2357 02c1 13       		.uleb128 0x13
 2358 02c2 3F       		.uleb128 0x3f
 2359 02c3 0C       		.uleb128 0xc
 2360 02c4 3C       		.uleb128 0x3c
 2361 02c5 0C       		.uleb128 0xc
 2362 02c6 00       		.byte	0
 2363 02c7 00       		.byte	0
 2364 02c8 00       		.byte	0
 2365              		.section	.debug_loc,"",%progbits
 2366              	.Ldebug_loc0:
 2367              	.LLST0:
 2368 0000 00000000 		.4byte	.LFB182
 2369 0004 02000000 		.4byte	.LCFI0
 2370 0008 0200     		.2byte	0x2
 2371 000a 7D       		.byte	0x7d
 2372 000b 00       		.sleb128 0
 2373 000c 02000000 		.4byte	.LCFI0
 2374 0010 4E000000 		.4byte	.LFE182
 2375 0014 0200     		.2byte	0x2
 2376 0016 7D       		.byte	0x7d
 2377 0017 10       		.sleb128 16
 2378 0018 00000000 		.4byte	0
 2379 001c 00000000 		.4byte	0
 2380              	.LLST1:
 2381 0020 00000000 		.4byte	.LVL0
 2382 0024 2C000000 		.4byte	.LVL3
 2383 0028 0100     		.2byte	0x1
 2384 002a 50       		.byte	0x50
 2385 002b 2C000000 		.4byte	.LVL3
 2386 002f 4E000000 		.4byte	.LFE182
 2387 0033 0300     		.2byte	0x3
 2388 0035 75       		.byte	0x75
 2389 0036 58       		.sleb128 -40
 2390 0037 9F       		.byte	0x9f
 2391 0038 00000000 		.4byte	0
 2392 003c 00000000 		.4byte	0
ARM GAS  /tmp/ccTtpWue.s 			page 43


 2393              	.LLST2:
 2394 0040 00000000 		.4byte	.LVL0
 2395 0044 2F000000 		.4byte	.LVL4-1
 2396 0048 0100     		.2byte	0x1
 2397 004a 51       		.byte	0x51
 2398 004b 32000000 		.4byte	.LVL5
 2399 004f 3A000000 		.4byte	.LVL6
 2400 0053 0200     		.2byte	0x2
 2401 0055 74       		.byte	0x74
 2402 0056 20       		.sleb128 32
 2403 0057 3A000000 		.4byte	.LVL6
 2404 005b 3D000000 		.4byte	.LVL7-1
 2405 005f 0100     		.2byte	0x1
 2406 0061 51       		.byte	0x51
 2407 0062 46000000 		.4byte	.LVL8
 2408 0066 4E000000 		.4byte	.LFE182
 2409 006a 0200     		.2byte	0x2
 2410 006c 74       		.byte	0x74
 2411 006d 20       		.sleb128 32
 2412 006e 00000000 		.4byte	0
 2413 0072 00000000 		.4byte	0
 2414              	.LLST3:
 2415 0076 2F000000 		.4byte	.LVL4-1
 2416 007a 4E000000 		.4byte	.LFE182
 2417 007e 0100     		.2byte	0x1
 2418 0080 54       		.byte	0x54
 2419 0081 00000000 		.4byte	0
 2420 0085 00000000 		.4byte	0
 2421              	.LLST5:
 2422 0089 32000000 		.4byte	.LVL5
 2423 008d 3A000000 		.4byte	.LVL6
 2424 0091 0200     		.2byte	0x2
 2425 0093 30       		.byte	0x30
 2426 0094 9F       		.byte	0x9f
 2427 0095 46000000 		.4byte	.LVL8
 2428 0099 4E000000 		.4byte	.LFE182
 2429 009d 0200     		.2byte	0x2
 2430 009f 30       		.byte	0x30
 2431 00a0 9F       		.byte	0x9f
 2432 00a1 00000000 		.4byte	0
 2433 00a5 00000000 		.4byte	0
 2434              	.LLST6:
 2435 00a9 00000000 		.4byte	.LFB183
 2436 00ad 02000000 		.4byte	.LCFI1
 2437 00b1 0200     		.2byte	0x2
 2438 00b3 7D       		.byte	0x7d
 2439 00b4 00       		.sleb128 0
 2440 00b5 02000000 		.4byte	.LCFI1
 2441 00b9 3E000000 		.4byte	.LFE183
 2442 00bd 0200     		.2byte	0x2
 2443 00bf 7D       		.byte	0x7d
 2444 00c0 08       		.sleb128 8
 2445 00c1 00000000 		.4byte	0
 2446 00c5 00000000 		.4byte	0
 2447              	.LLST7:
 2448 00c9 12000000 		.4byte	.LVL10
 2449 00cd 1C000000 		.4byte	.LVL11
ARM GAS  /tmp/ccTtpWue.s 			page 44


 2450 00d1 0200     		.2byte	0x2
 2451 00d3 74       		.byte	0x74
 2452 00d4 18       		.sleb128 24
 2453 00d5 2E000000 		.4byte	.LVL14
 2454 00d9 33000000 		.4byte	.LVL15-1
 2455 00dd 0100     		.2byte	0x1
 2456 00df 52       		.byte	0x52
 2457 00e0 00000000 		.4byte	0
 2458 00e4 00000000 		.4byte	0
 2459              	.LLST8:
 2460 00e8 1C000000 		.4byte	.LVL11
 2461 00ec 22000000 		.4byte	.LVL12
 2462 00f0 0300     		.2byte	0x3
 2463 00f2 72       		.byte	0x72
 2464 00f3 28       		.sleb128 40
 2465 00f4 9F       		.byte	0x9f
 2466 00f5 00000000 		.4byte	0
 2467 00f9 00000000 		.4byte	0
 2468              	.LLST9:
 2469 00fd 1C000000 		.4byte	.LVL11
 2470 0101 2E000000 		.4byte	.LVL14
 2471 0105 0100     		.2byte	0x1
 2472 0107 50       		.byte	0x50
 2473 0108 00000000 		.4byte	0
 2474 010c 00000000 		.4byte	0
 2475              	.LLST10:
 2476 0110 26000000 		.4byte	.LVL13
 2477 0114 2E000000 		.4byte	.LVL14
 2478 0118 0200     		.2byte	0x2
 2479 011a 30       		.byte	0x30
 2480 011b 9F       		.byte	0x9f
 2481 011c 00000000 		.4byte	0
 2482 0120 00000000 		.4byte	0
 2483              	.LLST11:
 2484 0124 00000000 		.4byte	.LFB184
 2485 0128 02000000 		.4byte	.LCFI2
 2486 012c 0200     		.2byte	0x2
 2487 012e 7D       		.byte	0x7d
 2488 012f 00       		.sleb128 0
 2489 0130 02000000 		.4byte	.LCFI2
 2490 0134 14000000 		.4byte	.LFE184
 2491 0138 0200     		.2byte	0x2
 2492 013a 7D       		.byte	0x7d
 2493 013b 08       		.sleb128 8
 2494 013c 00000000 		.4byte	0
 2495 0140 00000000 		.4byte	0
 2496              	.LLST12:
 2497 0144 00000000 		.4byte	.LVL16
 2498 0148 0B000000 		.4byte	.LVL17-1
 2499 014c 0100     		.2byte	0x1
 2500 014e 50       		.byte	0x50
 2501 014f 00000000 		.4byte	0
 2502 0153 00000000 		.4byte	0
 2503              	.LLST13:
 2504 0157 00000000 		.4byte	.LVL16
 2505 015b 0B000000 		.4byte	.LVL17-1
 2506 015f 0100     		.2byte	0x1
ARM GAS  /tmp/ccTtpWue.s 			page 45


 2507 0161 51       		.byte	0x51
 2508 0162 00000000 		.4byte	0
 2509 0166 00000000 		.4byte	0
 2510              		.section	.debug_aranges,"",%progbits
 2511 0000 2C000000 		.4byte	0x2c
 2512 0004 0200     		.2byte	0x2
 2513 0006 00000000 		.4byte	.Ldebug_info0
 2514 000a 04       		.byte	0x4
 2515 000b 00       		.byte	0
 2516 000c 0000     		.2byte	0
 2517 000e 0000     		.2byte	0
 2518 0010 00000000 		.4byte	.LFB182
 2519 0014 4E000000 		.4byte	.LFE182-.LFB182
 2520 0018 00000000 		.4byte	.LFB183
 2521 001c 3E000000 		.4byte	.LFE183-.LFB183
 2522 0020 00000000 		.4byte	.LFB184
 2523 0024 14000000 		.4byte	.LFE184-.LFB184
 2524 0028 00000000 		.4byte	0
 2525 002c 00000000 		.4byte	0
 2526              		.section	.debug_ranges,"",%progbits
 2527              	.Ldebug_ranges0:
 2528 0000 1A000000 		.4byte	.LBB56
 2529 0004 1C000000 		.4byte	.LBE56
 2530 0008 1E000000 		.4byte	.LBB60
 2531 000c 20000000 		.4byte	.LBE60
 2532 0010 22000000 		.4byte	.LBB61
 2533 0014 28000000 		.4byte	.LBE61
 2534 0018 00000000 		.4byte	0
 2535 001c 00000000 		.4byte	0
 2536 0020 32000000 		.4byte	.LBB62
 2537 0024 38000000 		.4byte	.LBE62
 2538 0028 46000000 		.4byte	.LBB71
 2539 002c 4C000000 		.4byte	.LBE71
 2540 0030 00000000 		.4byte	0
 2541 0034 00000000 		.4byte	0
 2542 0038 32000000 		.4byte	.LBB63
 2543 003c 38000000 		.4byte	.LBE63
 2544 0040 46000000 		.4byte	.LBB70
 2545 0044 4C000000 		.4byte	.LBE70
 2546 0048 00000000 		.4byte	0
 2547 004c 00000000 		.4byte	0
 2548 0050 32000000 		.4byte	.LBB64
 2549 0054 38000000 		.4byte	.LBE64
 2550 0058 46000000 		.4byte	.LBB69
 2551 005c 4C000000 		.4byte	.LBE69
 2552 0060 00000000 		.4byte	0
 2553 0064 00000000 		.4byte	0
 2554 0068 32000000 		.4byte	.LBB65
 2555 006c 38000000 		.4byte	.LBE65
 2556 0070 46000000 		.4byte	.LBB68
 2557 0074 4C000000 		.4byte	.LBE68
 2558 0078 00000000 		.4byte	0
 2559 007c 00000000 		.4byte	0
 2560 0080 1C000000 		.4byte	.LBB78
 2561 0084 20000000 		.4byte	.LBE78
 2562 0088 22000000 		.4byte	.LBB81
 2563 008c 24000000 		.4byte	.LBE81
ARM GAS  /tmp/ccTtpWue.s 			page 46


 2564 0090 00000000 		.4byte	0
 2565 0094 00000000 		.4byte	0
 2566 0098 1C000000 		.4byte	.LBB79
 2567 009c 20000000 		.4byte	.LBE79
 2568 00a0 22000000 		.4byte	.LBB80
 2569 00a4 24000000 		.4byte	.LBE80
 2570 00a8 00000000 		.4byte	0
 2571 00ac 00000000 		.4byte	0
 2572 00b0 00000000 		.4byte	.LFB182
 2573 00b4 4E000000 		.4byte	.LFE182
 2574 00b8 00000000 		.4byte	.LFB183
 2575 00bc 3E000000 		.4byte	.LFE183
 2576 00c0 00000000 		.4byte	.LFB184
 2577 00c4 14000000 		.4byte	.LFE184
 2578 00c8 00000000 		.4byte	0
 2579 00cc 00000000 		.4byte	0
 2580              		.section	.debug_line,"",%progbits
 2581              	.Ldebug_line0:
 2582 0000 61030000 		.section	.debug_str,"MS",%progbits,1
 2582      02008302 
 2582      00000201 
 2582      FB0E0D00 
 2582      01010101 
 2583              	.LASF44:
 2584 0000 63685F74 		.ascii	"ch_threads_list\000"
 2584      68726561 
 2584      64735F6C 
 2584      69737400 
 2585              	.LASF45:
 2586 0010 74687265 		.ascii	"threads_queue_t\000"
 2586      6164735F 
 2586      71756575 
 2586      655F7400 
 2587              	.LASF34:
 2588 0020 705F7761 		.ascii	"p_waiting\000"
 2588      6974696E 
 2588      6700
 2589              	.LASF86:
 2590 002a 77746D74 		.ascii	"wtmtxp\000"
 2590      787000
 2591              	.LASF80:
 2592 0031 746D5F63 		.ascii	"tm_calibration_t\000"
 2592      616C6962 
 2592      72617469 
 2592      6F6E5F74 
 2592      00
 2593              	.LASF95:
 2594 0042 63686172 		.ascii	"char\000"
 2594      00
 2595              	.LASF106:
 2596 0047 71756575 		.ascii	"queue_fifo_remove\000"
 2596      655F6669 
 2596      666F5F72 
 2596      656D6F76 
 2596      6500
 2597              	.LASF75:
 2598 0059 72656761 		.ascii	"regarm_t\000"
ARM GAS  /tmp/ccTtpWue.s 			page 47


 2598      726D5F74 
 2598      00
 2599              	.LASF26:
 2600 0062 705F7072 		.ascii	"p_prio\000"
 2600      696F00
 2601              	.LASF22:
 2602 0069 73797374 		.ascii	"systime_t\000"
 2602      696D655F 
 2602      7400
 2603              	.LASF93:
 2604 0073 6D5F6F77 		.ascii	"m_owner\000"
 2604      6E657200 
 2605              	.LASF89:
 2606 007b 735F7175 		.ascii	"s_queue\000"
 2606      65756500 
 2607              	.LASF35:
 2608 0083 705F6D73 		.ascii	"p_msgqueue\000"
 2608      67717565 
 2608      756500
 2609              	.LASF0:
 2610 008e 756E7369 		.ascii	"unsigned int\000"
 2610      676E6564 
 2610      20696E74 
 2610      00
 2611              	.LASF42:
 2612 009b 74687265 		.ascii	"threads_list_t\000"
 2612      6164735F 
 2612      6C697374 
 2612      5F7400
 2613              	.LASF109:
 2614 00aa 63684D73 		.ascii	"chMsgSend\000"
 2614      6753656E 
 2614      6400
 2615              	.LASF83:
 2616 00b4 77746F62 		.ascii	"wtobjp\000"
 2616      6A7000
 2617              	.LASF98:
 2618 00bb 706F7274 		.ascii	"port_lock\000"
 2618      5F6C6F63 
 2618      6B00
 2619              	.LASF72:
 2620 00c5 76746C69 		.ascii	"vtlist\000"
 2620      737400
 2621              	.LASF48:
 2622 00cc 63685F72 		.ascii	"ch_ready_list\000"
 2622      65616479 
 2622      5F6C6973 
 2622      7400
 2623              	.LASF74:
 2624 00da 69646C65 		.ascii	"idle_thread_wa\000"
 2624      5F746872 
 2624      6561645F 
 2624      776100
 2625              	.LASF87:
 2626 00e9 65776D61 		.ascii	"ewmask\000"
 2626      736B00
 2627              	.LASF46:
ARM GAS  /tmp/ccTtpWue.s 			page 48


 2628 00f0 63685F74 		.ascii	"ch_threads_queue\000"
 2628      68726561 
 2628      64735F71 
 2628      75657565 
 2628      00
 2629              	.LASF55:
 2630 0101 76746675 		.ascii	"vtfunc_t\000"
 2630      6E635F74 
 2630      00
 2631              	.LASF115:
 2632 010a 63684D73 		.ascii	"chMsgRelease\000"
 2632      6752656C 
 2632      65617365 
 2632      00
 2633              	.LASF90:
 2634 0117 735F636E 		.ascii	"s_cnt\000"
 2634      7400
 2635              	.LASF67:
 2636 011d 63685F73 		.ascii	"ch_system_debug\000"
 2636      79737465 
 2636      6D5F6465 
 2636      62756700 
 2637              	.LASF9:
 2638 012d 75696E74 		.ascii	"uint32_t\000"
 2638      33325F74 
 2638      00
 2639              	.LASF20:
 2640 0136 6576656E 		.ascii	"eventmask_t\000"
 2640      746D6173 
 2640      6B5F7400 
 2641              	.LASF50:
 2642 0142 725F7072 		.ascii	"r_prio\000"
 2642      696F00
 2643              	.LASF62:
 2644 0149 76745F70 		.ascii	"vt_par\000"
 2644      617200
 2645              	.LASF88:
 2646 0150 63685F73 		.ascii	"ch_semaphore\000"
 2646      656D6170 
 2646      686F7265 
 2646      00
 2647              	.LASF18:
 2648 015d 74707269 		.ascii	"tprio_t\000"
 2648      6F5F7400 
 2649              	.LASF57:
 2650 0165 63685F76 		.ascii	"ch_virtual_timer\000"
 2650      69727475 
 2650      616C5F74 
 2650      696D6572 
 2650      00
 2651              	.LASF13:
 2652 0176 6C6F6E67 		.ascii	"long long unsigned int\000"
 2652      206C6F6E 
 2652      6720756E 
 2652      7369676E 
 2652      65642069 
 2653              	.LASF21:
ARM GAS  /tmp/ccTtpWue.s 			page 49


 2654 018d 636E745F 		.ascii	"cnt_t\000"
 2654      7400
 2655              	.LASF104:
 2656 0193 63685379 		.ascii	"chSysUnlock\000"
 2656      73556E6C 
 2656      6F636B00 
 2657              	.LASF28:
 2658 019f 705F6E65 		.ascii	"p_newer\000"
 2658      77657200 
 2659              	.LASF103:
 2660 01a7 76616C75 		.ascii	"value\000"
 2660      6500
 2661              	.LASF64:
 2662 01ad 63685F76 		.ascii	"ch_virtual_timers_list\000"
 2662      69727475 
 2662      616C5F74 
 2662      696D6572 
 2662      735F6C69 
 2663              	.LASF23:
 2664 01c4 74687265 		.ascii	"thread_t\000"
 2664      61645F74 
 2664      00
 2665              	.LASF81:
 2666 01cd 7264796D 		.ascii	"rdymsg\000"
 2666      736700
 2667              	.LASF79:
 2668 01d4 6F666673 		.ascii	"offset\000"
 2668      657400
 2669              	.LASF97:
 2670 01db 5F426F6F 		.ascii	"_Bool\000"
 2670      6C00
 2671              	.LASF91:
 2672 01e1 63685F6D 		.ascii	"ch_mutex\000"
 2672      75746578 
 2672      00
 2673              	.LASF100:
 2674 01ea 63685379 		.ascii	"chSysLock\000"
 2674      734C6F63 
 2674      6B00
 2675              	.LASF30:
 2676 01f4 705F6E61 		.ascii	"p_name\000"
 2676      6D6500
 2677              	.LASF60:
 2678 01fb 76745F64 		.ascii	"vt_delta\000"
 2678      656C7461 
 2678      00
 2679              	.LASF41:
 2680 0204 74687265 		.ascii	"thread_reference_t\000"
 2680      61645F72 
 2680      65666572 
 2680      656E6365 
 2680      5F7400
 2681              	.LASF65:
 2682 0217 76745F6C 		.ascii	"vt_lasttime\000"
 2682      61737474 
 2682      696D6500 
 2683              	.LASF16:
ARM GAS  /tmp/ccTtpWue.s 			page 50


 2684 0223 74737461 		.ascii	"tstate_t\000"
 2684      74655F74 
 2684      00
 2685              	.LASF29:
 2686 022c 705F6F6C 		.ascii	"p_older\000"
 2686      64657200 
 2687              	.LASF31:
 2688 0234 705F7374 		.ascii	"p_state\000"
 2688      61746500 
 2689              	.LASF4:
 2690 023c 75696E74 		.ascii	"uint8_t\000"
 2690      385F7400 
 2691              	.LASF40:
 2692 0244 705F6D70 		.ascii	"p_mpool\000"
 2692      6F6F6C00 
 2693              	.LASF38:
 2694 024c 705F6D74 		.ascii	"p_mtxlist\000"
 2694      786C6973 
 2694      7400
 2695              	.LASF43:
 2696 0256 63685F74 		.ascii	"ch_thread\000"
 2696      68726561 
 2696      6400
 2697              	.LASF66:
 2698 0260 73797374 		.ascii	"system_debug_t\000"
 2698      656D5F64 
 2698      65627567 
 2698      5F7400
 2699              	.LASF11:
 2700 026f 6C6F6E67 		.ascii	"long long int\000"
 2700      206C6F6E 
 2700      6720696E 
 2700      7400
 2701              	.LASF49:
 2702 027d 725F7175 		.ascii	"r_queue\000"
 2702      65756500 
 2703              	.LASF52:
 2704 0285 725F6E65 		.ascii	"r_newer\000"
 2704      77657200 
 2705              	.LASF19:
 2706 028d 6D73675F 		.ascii	"msg_t\000"
 2706      7400
 2707              	.LASF110:
 2708 0293 63684D73 		.ascii	"chMsgWait\000"
 2708      67576169 
 2708      7400
 2709              	.LASF77:
 2710 029d 636F6E74 		.ascii	"context\000"
 2710      65787400 
 2711              	.LASF32:
 2712 02a5 705F666C 		.ascii	"p_flags\000"
 2712      61677300 
 2713              	.LASF56:
 2714 02ad 76697274 		.ascii	"virtual_timer_t\000"
 2714      75616C5F 
 2714      74696D65 
 2714      725F7400 
ARM GAS  /tmp/ccTtpWue.s 			page 51


 2715              	.LASF114:
 2716 02bd 2F686F6D 		.ascii	"/home/madog/Documents/proyectos/CYCLE/repos/harvest"
 2716      652F6D61 
 2716      646F672F 
 2716      446F6375 
 2716      6D656E74 
 2717 02f0 65722F73 		.ascii	"er/src\000"
 2717      726300
 2718              	.LASF53:
 2719 02f7 725F6F6C 		.ascii	"r_older\000"
 2719      64657200 
 2720              	.LASF68:
 2721 02ff 70616E69 		.ascii	"panic_msg\000"
 2721      635F6D73 
 2721      6700
 2722              	.LASF36:
 2723 0309 705F6D73 		.ascii	"p_msg\000"
 2723      6700
 2724              	.LASF15:
 2725 030f 746D6F64 		.ascii	"tmode_t\000"
 2725      655F7400 
 2726              	.LASF73:
 2727 0317 6D61696E 		.ascii	"mainthread\000"
 2727      74687265 
 2727      616400
 2728              	.LASF5:
 2729 0322 75696E74 		.ascii	"uint16_t\000"
 2729      31365F74 
 2729      00
 2730              	.LASF14:
 2731 032b 7274636E 		.ascii	"rtcnt_t\000"
 2731      745F7400 
 2732              	.LASF39:
 2733 0333 705F7265 		.ascii	"p_realprio\000"
 2733      616C7072 
 2733      696F00
 2734              	.LASF3:
 2735 033e 73686F72 		.ascii	"short int\000"
 2735      7420696E 
 2735      7400
 2736              	.LASF54:
 2737 0348 725F6375 		.ascii	"r_current\000"
 2737      7272656E 
 2737      7400
 2738              	.LASF37:
 2739 0352 705F6570 		.ascii	"p_epending\000"
 2739      656E6469 
 2739      6E6700
 2740              	.LASF92:
 2741 035d 6D5F7175 		.ascii	"m_queue\000"
 2741      65756500 
 2742              	.LASF8:
 2743 0365 6C6F6E67 		.ascii	"long int\000"
 2743      20696E74 
 2743      00
 2744              	.LASF78:
 2745 036e 706F7274 		.ascii	"port_intctx\000"
ARM GAS  /tmp/ccTtpWue.s 			page 52


 2745      5F696E74 
 2745      63747800 
 2746              	.LASF111:
 2747 037a 49544D5F 		.ascii	"ITM_RxBuffer\000"
 2747      52784275 
 2747      66666572 
 2747      00
 2748              	.LASF70:
 2749 0387 63685F73 		.ascii	"ch_system\000"
 2749      79737465 
 2749      6D00
 2750              	.LASF102:
 2751 0391 71756575 		.ascii	"queue_insert\000"
 2751      655F696E 
 2751      73657274 
 2751      00
 2752              	.LASF101:
 2753 039e 5F5F7365 		.ascii	"__set_BASEPRI\000"
 2753      745F4241 
 2753      53455052 
 2753      4900
 2754              	.LASF24:
 2755 03ac 705F6E65 		.ascii	"p_next\000"
 2755      787400
 2756              	.LASF12:
 2757 03b3 75696E74 		.ascii	"uint64_t\000"
 2757      36345F74 
 2757      00
 2758              	.LASF27:
 2759 03bc 705F6374 		.ascii	"p_ctx\000"
 2759      7800
 2760              	.LASF71:
 2761 03c2 726C6973 		.ascii	"rlist\000"
 2761      7400
 2762              	.LASF113:
 2763 03c8 2E2E2F2E 		.ascii	"../../../resources/chibios/ChibiOS_16.1.8/os/rt/src"
 2763      2E2F2E2E 
 2763      2F726573 
 2763      6F757263 
 2763      65732F63 
 2764 03fb 2F63686D 		.ascii	"/chmsg.c\000"
 2764      73672E63 
 2764      00
 2765              	.LASF25:
 2766 0404 705F7072 		.ascii	"p_prev\000"
 2766      657600
 2767              	.LASF17:
 2768 040b 74726566 		.ascii	"trefs_t\000"
 2768      735F7400 
 2769              	.LASF10:
 2770 0413 6C6F6E67 		.ascii	"long unsigned int\000"
 2770      20756E73 
 2770      69676E65 
 2770      6420696E 
 2770      7400
 2771              	.LASF47:
 2772 0425 72656164 		.ascii	"ready_list_t\000"
ARM GAS  /tmp/ccTtpWue.s 			page 53


 2772      795F6C69 
 2772      73745F74 
 2772      00
 2773              	.LASF7:
 2774 0432 696E7433 		.ascii	"int32_t\000"
 2774      325F7400 
 2775              	.LASF85:
 2776 043a 77747365 		.ascii	"wtsemp\000"
 2776      6D7000
 2777              	.LASF112:
 2778 0441 474E5520 		.ascii	"GNU C 4.6.1\000"
 2778      4320342E 
 2778      362E3100 
 2779              	.LASF96:
 2780 044d 6D757465 		.ascii	"mutex_t\000"
 2780      785F7400 
 2781              	.LASF2:
 2782 0455 756E7369 		.ascii	"unsigned char\000"
 2782      676E6564 
 2782      20636861 
 2782      7200
 2783              	.LASF63:
 2784 0463 76697274 		.ascii	"virtual_timers_list_t\000"
 2784      75616C5F 
 2784      74696D65 
 2784      72735F6C 
 2784      6973745F 
 2785              	.LASF33:
 2786 0479 705F7265 		.ascii	"p_refs\000"
 2786      667300
 2787              	.LASF108:
 2788 0480 63684D73 		.ascii	"chMsgReleaseS\000"
 2788      6752656C 
 2788      65617365 
 2788      5300
 2789              	.LASF105:
 2790 048e 63684D73 		.ascii	"chMsgIsPendingI\000"
 2790      67497350 
 2790      656E6469 
 2790      6E674900 
 2791              	.LASF58:
 2792 049e 76745F6E 		.ascii	"vt_next\000"
 2792      65787400 
 2793              	.LASF69:
 2794 04a6 63685F73 		.ascii	"ch_system_t\000"
 2794      79737465 
 2794      6D5F7400 
 2795              	.LASF84:
 2796 04b2 77747472 		.ascii	"wttrp\000"
 2796      7000
 2797              	.LASF94:
 2798 04b8 6D5F6E65 		.ascii	"m_next\000"
 2798      787400
 2799              	.LASF1:
 2800 04bf 7369676E 		.ascii	"signed char\000"
 2800      65642063 
 2800      68617200 
ARM GAS  /tmp/ccTtpWue.s 			page 54


 2801              	.LASF6:
 2802 04cb 73686F72 		.ascii	"short unsigned int\000"
 2802      7420756E 
 2802      7369676E 
 2802      65642069 
 2802      6E7400
 2803              	.LASF51:
 2804 04de 725F6374 		.ascii	"r_ctx\000"
 2804      7800
 2805              	.LASF76:
 2806 04e4 73746B61 		.ascii	"stkalign_t\000"
 2806      6C69676E 
 2806      5F7400
 2807              	.LASF107:
 2808 04ef 5F5F6675 		.ascii	"__func__\000"
 2808      6E635F5F 
 2808      00
 2809              	.LASF61:
 2810 04f8 76745F66 		.ascii	"vt_func\000"
 2810      756E6300 
 2811              	.LASF99:
 2812 0500 706F7274 		.ascii	"port_unlock\000"
 2812      5F756E6C 
 2812      6F636B00 
 2813              	.LASF59:
 2814 050c 76745F70 		.ascii	"vt_prev\000"
 2814      72657600 
 2815              	.LASF82:
 2816 0514 65786974 		.ascii	"exitcode\000"
 2816      636F6465 
 2816      00
 2817              		.ident	"GCC: (Sourcery CodeBench Lite 2011.09-69) 4.6.1"
ARM GAS  /tmp/ccTtpWue.s 			page 55


DEFINED SYMBOLS
                            *ABS*:00000000 chmsg.c
     /tmp/ccTtpWue.s:19     .text.chMsgSend:00000000 $t
     /tmp/ccTtpWue.s:25     .text.chMsgSend:00000000 chMsgSend
     /tmp/ccTtpWue.s:154    .text.chMsgWait:00000000 $t
     /tmp/ccTtpWue.s:160    .text.chMsgWait:00000000 chMsgWait
     /tmp/ccTtpWue.s:255    .text.chMsgRelease:00000000 $t
     /tmp/ccTtpWue.s:261    .text.chMsgRelease:00000000 chMsgRelease
                     .debug_frame:00000010 $d

UNDEFINED SYMBOLS
ch
chSchGoSleepS
chSchReadyI
chSchWakeupS
