ARM GAS  /tmp/ccTtpWue.s 			page 1


   1              		.syntax unified
   2              		.cpu cortex-m3
   3              		.fpu softvfp
   4              		.eabi_attribute 20, 1
   5              		.eabi_attribute 21, 1
   6              		.eabi_attribute 23, 3
   7              		.eabi_attribute 24, 1
   8              		.eabi_attribute 25, 1
   9              		.eabi_attribute 26, 1
  10              		.eabi_attribute 30, 2
  11              		.eabi_attribute 34, 1
  12              		.eabi_attribute 18, 4
  13              		.thumb
  14              		.file	"chmsg.c"
  15              		.text
  16              	.Ltext0:
  17              		.cfi_sections	.debug_frame
  18              		.section	.text.chMsgSend,"ax",%progbits
  19              		.align	2
  20              		.p2align 4,,15
  21              		.global	chMsgSend
  22              		.thumb
  23              		.thumb_func
  24              		.type	chMsgSend, %function
  25              	chMsgSend:
  26              	.LFB182:
  27              		.file 1 "../../../resources/chibios/ChibiOS_16.1.8/os/rt/src/chmsg.c"
  28              		.loc 1 87 0
  29              		.cfi_startproc
  30              		@ args = 0, pretend = 0, frame = 0
  31              		@ frame_needed = 0, uses_anonymous_args = 0
  32              	.LVL0:
  33 0000 70B5     		push	{r4, r5, r6, lr}
  34              	.LCFI0:
  35              		.cfi_def_cfa_offset 16
  36              		.cfi_offset 14, -4
  37              		.cfi_offset 6, -8
  38              		.cfi_offset 5, -12
  39              		.cfi_offset 4, -16
  40              		.loc 1 88 0
  41 0002 40F20004 		movw	r4, #:lower16:ch
  42 0006 C0F20004 		movt	r4, #:upper16:ch
  43 000a A469     		ldr	r4, [r4, #24]
  44              	.LVL1:
  45              	.LBB52:
  46              	.LBB53:
  47              	.LBB54:
  48              	.LBB55:
  49              		.file 2 "../../../resources/chibios/ChibiOS_16.1.8/os/ext/CMSIS/include/core_cmFunc.h"
  50              		.loc 2 548 0
  51 000c 2023     		movs	r3, #32
  52              	@ 548 "../../../resources/chibios/ChibiOS_16.1.8/os/ext/CMSIS/include/core_cmFunc.h" 1
  53 000e 83F31188 		MSR basepri, r3
  54              	@ 0 "" 2
  55              		.thumb
  56              	.LBE55:
  57              	.LBE54:
ARM GAS  /tmp/ccTtpWue.s 			page 2


  58              	.LBE53:
  59              	.LBE52:
  60              		.loc 1 94 0
  61 0012 00F12805 		add	r5, r0, #40
  62 0016 2562     		str	r5, [r4, #32]
  63              	.LVL2:
  64              		.loc 1 96 0
  65 0018 067F     		ldrb	r6, [r0, #28]	@ zero_extendqisi2
  66              	.LBB56:
  67              	.LBB57:
  68              		.file 3 "../../../resources/chibios/ChibiOS_16.1.8/os/rt/include/chschd.h"
  69              		.loc 3 666 0
  70 001a C26A     		ldr	r2, [r0, #44]
  71              	.LBE57:
  72              	.LBE56:
  73              		.loc 1 96 0
  74 001c 0E2E     		cmp	r6, #14
  75              	.LBB60:
  76              	.LBB58:
  77              		.loc 3 665 0
  78 001e 2560     		str	r5, [r4, #0]
  79              	.LBE58:
  80              	.LBE60:
  81              		.loc 1 93 0
  82 0020 2163     		str	r1, [r4, #48]
  83              	.LBB61:
  84              	.LBB59:
  85              		.loc 3 666 0
  86 0022 6260     		str	r2, [r4, #4]
  87              		.loc 3 667 0
  88 0024 1460     		str	r4, [r2, #0]
  89              		.loc 3 668 0
  90 0026 C462     		str	r4, [r0, #44]
  91              	.LBE59:
  92              	.LBE61:
  93              		.loc 1 96 0
  94 0028 07D0     		beq	.L4
  95              		.loc 1 99 0
  96 002a 0C20     		movs	r0, #12
  97              	.LVL3:
  98 002c FFF7FEFF 		bl	chSchGoSleepS
  99              	.LVL4:
 100              		.loc 1 100 0
 101 0030 206A     		ldr	r0, [r4, #32]
 102              	.LVL5:
 103              	.LBB62:
 104              	.LBB63:
 105              	.LBB64:
 106              	.LBB65:
 107              	.LBB66:
 108              		.loc 2 548 0
 109 0032 0021     		movs	r1, #0
 110              	@ 548 "../../../resources/chibios/ChibiOS_16.1.8/os/ext/CMSIS/include/core_cmFunc.h" 1
 111 0034 81F31188 		MSR basepri, r1
 112              	@ 0 "" 2
 113              		.thumb
 114              	.LBE66:
ARM GAS  /tmp/ccTtpWue.s 			page 3


 115              	.LBE65:
 116              	.LBE64:
 117              	.LBE63:
 118              	.LBE62:
 119              		.loc 1 104 0
 120 0038 70BD     		pop	{r4, r5, r6, pc}
 121              	.LVL6:
 122              	.L4:
 123              		.loc 1 97 0
 124 003a FFF7FEFF 		bl	chSchReadyI
 125              	.LVL7:
 126              		.loc 1 99 0
 127 003e 0C20     		movs	r0, #12
 128 0040 FFF7FEFF 		bl	chSchGoSleepS
 129              		.loc 1 100 0
 130 0044 206A     		ldr	r0, [r4, #32]
 131              	.LVL8:
 132              	.LBB71:
 133              	.LBB70:
 134              	.LBB69:
 135              	.LBB68:
 136              	.LBB67:
 137              		.loc 2 548 0
 138 0046 0021     		movs	r1, #0
 139              	@ 548 "../../../resources/chibios/ChibiOS_16.1.8/os/ext/CMSIS/include/core_cmFunc.h" 1
 140 0048 81F31188 		MSR basepri, r1
 141              	@ 0 "" 2
 142              		.thumb
 143              	.LBE67:
 144              	.LBE68:
 145              	.LBE69:
 146              	.LBE70:
 147              	.LBE71:
 148              		.loc 1 104 0
 149 004c 70BD     		pop	{r4, r5, r6, pc}
 150              		.cfi_endproc
 151              	.LFE182:
 152              		.size	chMsgSend, .-chMsgSend
 153 004e 00BF     		.section	.text.chMsgWait,"ax",%progbits
 154              		.align	2
 155              		.p2align 4,,15
 156              		.global	chMsgWait
 157              		.thumb
 158              		.thumb_func
 159              		.type	chMsgWait, %function
 160              	chMsgWait:
 161              	.LFB183:
 162              		.loc 1 120 0
 163              		.cfi_startproc
 164              		@ args = 0, pretend = 0, frame = 0
 165              		@ frame_needed = 0, uses_anonymous_args = 0
 166              	.LVL9:
 167 0000 10B5     		push	{r4, lr}
 168              	.LCFI1:
 169              		.cfi_def_cfa_offset 8
 170              		.cfi_offset 14, -4
 171              		.cfi_offset 4, -8
ARM GAS  /tmp/ccTtpWue.s 			page 4


 172              	.LBB72:
 173              	.LBB73:
 174              	.LBB74:
 175              	.LBB75:
 176              		.loc 2 548 0
 177 0002 2023     		movs	r3, #32
 178              	@ 548 "../../../resources/chibios/ChibiOS_16.1.8/os/ext/CMSIS/include/core_cmFunc.h" 1
 179 0004 83F31188 		MSR basepri, r3
 180              	@ 0 "" 2
 181              		.thumb
 182              	.LBE75:
 183              	.LBE74:
 184              	.LBE73:
 185              	.LBE72:
 186              		.loc 1 124 0
 187 0008 40F20004 		movw	r4, #:lower16:ch
 188 000c C0F20004 		movt	r4, #:upper16:ch
 189 0010 A269     		ldr	r2, [r4, #24]
 190              	.LVL10:
 191              	.LBB76:
 192              	.LBB77:
 193              		.file 4 "../../../resources/chibios/ChibiOS_16.1.8/os/rt/include/chmsg.h"
 194              		.loc 4 83 0
 195 0012 1346     		mov	r3, r2
 196 0014 53F8280F 		ldr	r0, [r3, #40]!
 197              	.LBE77:
 198              	.LBE76:
 199              		.loc 1 124 0
 200 0018 9842     		cmp	r0, r3
 201 001a 08D0     		beq	.L7
 202              	.LVL11:
 203              	.L6:
 204              	.LBB78:
 205              	.LBB79:
 206              		.loc 3 674 0
 207 001c 0168     		ldr	r1, [r0, #0]
 208 001e 9162     		str	r1, [r2, #40]
 209              	.LBE79:
 210              	.LBE78:
 211              		.loc 1 128 0
 212 0020 0D22     		movs	r2, #13
 213              	.LVL12:
 214              	.LBB81:
 215              	.LBB80:
 216              		.loc 3 675 0
 217 0022 4B60     		str	r3, [r1, #4]
 218              	.LBE80:
 219              	.LBE81:
 220              		.loc 1 128 0
 221 0024 0277     		strb	r2, [r0, #28]
 222              	.LVL13:
 223              	.LBB82:
 224              	.LBB83:
 225              	.LBB84:
 226              	.LBB85:
 227              	.LBB86:
 228              		.loc 2 548 0
ARM GAS  /tmp/ccTtpWue.s 			page 5


 229 0026 0021     		movs	r1, #0
 230              	@ 548 "../../../resources/chibios/ChibiOS_16.1.8/os/ext/CMSIS/include/core_cmFunc.h" 1
 231 0028 81F31188 		MSR basepri, r1
 232              	@ 0 "" 2
 233              		.thumb
 234              	.LBE86:
 235              	.LBE85:
 236              	.LBE84:
 237              	.LBE83:
 238              	.LBE82:
 239              		.loc 1 132 0
 240 002c 10BD     		pop	{r4, pc}
 241              	.LVL14:
 242              	.L7:
 243              		.loc 1 125 0
 244 002e 0E20     		movs	r0, #14
 245 0030 FFF7FEFF 		bl	chSchGoSleepS
 246              	.LVL15:
 247 0034 A269     		ldr	r2, [r4, #24]
 248 0036 1346     		mov	r3, r2
 249 0038 53F8280F 		ldr	r0, [r3, #40]!
 250 003c EEE7     		b	.L6
 251              		.cfi_endproc
 252              	.LFE183:
 253              		.size	chMsgWait, .-chMsgWait
 254 003e 00BF     		.section	.text.chMsgRelease,"ax",%progbits
 255              		.align	2
 256              		.p2align 4,,15
 257              		.global	chMsgRelease
 258              		.thumb
 259              		.thumb_func
 260              		.type	chMsgRelease, %function
 261              	chMsgRelease:
 262              	.LFB184:
 263              		.loc 1 144 0
 264              		.cfi_startproc
 265              		@ args = 0, pretend = 0, frame = 0
 266              		@ frame_needed = 0, uses_anonymous_args = 0
 267              	.LVL16:
 268 0000 08B5     		push	{r3, lr}
 269              	.LCFI2:
 270              		.cfi_def_cfa_offset 8
 271              		.cfi_offset 14, -4
 272              		.cfi_offset 3, -8
 273              	.LBB87:
 274              	.LBB88:
 275              	.LBB89:
 276              	.LBB90:
 277              		.loc 2 548 0
 278 0002 2022     		movs	r2, #32
 279              	@ 548 "../../../resources/chibios/ChibiOS_16.1.8/os/ext/CMSIS/include/core_cmFunc.h" 1
 280 0004 82F31188 		MSR basepri, r2
 281              	@ 0 "" 2
 282              		.thumb
 283              	.LBE90:
 284              	.LBE89:
 285              	.LBE88:
ARM GAS  /tmp/ccTtpWue.s 			page 6


 286              	.LBE87:
 287              	.LBB91:
 288              	.LBB92:
 289              		.loc 4 115 0
 290 0008 FFF7FEFF 		bl	chSchWakeupS
 291              	.LVL17:
 292              	.LBE92:
 293              	.LBE91:
 294              	.LBB93:
 295              	.LBB94:
 296              	.LBB95:
 297              	.LBB96:
 298              	.LBB97:
 299              		.loc 2 548 0
 300 000c 0023     		movs	r3, #0
 301              	@ 548 "../../../resources/chibios/ChibiOS_16.1.8/os/ext/CMSIS/include/core_cmFunc.h" 1
 302 000e 83F31188 		MSR basepri, r3
 303              	@ 0 "" 2
 304              		.thumb
 305              	.LBE97:
 306              	.LBE96:
 307              	.LBE95:
 308              	.LBE94:
 309              	.LBE93:
 310              		.loc 1 150 0
 311 0012 08BD     		pop	{r3, pc}
 312              		.cfi_endproc
 313              	.LFE184:
 314              		.size	chMsgRelease, .-chMsgRelease
 315 0014 AFF30080 		.text
 315      AFF30080 
 315      AFF30080 
 316              	.Letext0:
 317              		.file 5 "/home/madog/programs/CodeSourcery/Sourcery_CodeBench_Lite_for_ARM_EABI/bin/../lib/gcc/arm
 318              		.file 6 "../../../resources/chibios/ChibiOS_16.1.8/os/rt/ports/ARMCMx/compilers/GCC/chtypes.h"
 319              		.file 7 "../../../resources/chibios/ChibiOS_16.1.8/os/rt/include/chsystypes.h"
 320              		.file 8 "../../../resources/chibios/ChibiOS_16.1.8/os/rt/ports/ARMCMx/chcore.h"
 321              		.file 9 "../../../resources/chibios/ChibiOS_16.1.8/os/rt/ports/ARMCMx/chcore_v7m.h"
 322              		.file 10 "../../../resources/chibios/ChibiOS_16.1.8/os/rt/include/chtm.h"
 323              		.file 11 "../../../resources/chibios/ChibiOS_16.1.8/os/rt/include/chsem.h"
 324              		.file 12 "../../../resources/chibios/ChibiOS_16.1.8/os/rt/include/chmtx.h"
 325              		.file 13 "../../../resources/chibios/ChibiOS_16.1.8/os/rt/include/chsys.h"
 326              		.file 14 "../../../resources/chibios/ChibiOS_16.1.8/os/ext/CMSIS/include/core_cm3.h"