ARM GAS  /tmp/ccHz812R.s 			page 1


   1              		.syntax unified
   2              		.cpu cortex-m3
   3              		.fpu softvfp
   4              		.eabi_attribute 20, 1
   5              		.eabi_attribute 21, 1
   6              		.eabi_attribute 23, 3
   7              		.eabi_attribute 24, 1
   8              		.eabi_attribute 25, 1
   9              		.eabi_attribute 26, 1
  10              		.eabi_attribute 30, 2
  11              		.eabi_attribute 34, 1
  12              		.eabi_attribute 18, 4
  13              		.thumb
  14              		.file	"chmtx.c"
  15              		.text
  16              	.Ltext0:
  17              		.cfi_sections	.debug_frame
  18              		.section	.text.chMtxObjectInit,"ax",%progbits
  19              		.align	2
  20              		.p2align 4,,15
  21              		.global	chMtxObjectInit
  22              		.thumb
  23              		.thumb_func
  24              		.type	chMtxObjectInit, %function
  25              	chMtxObjectInit:
  26              	.LFB182:
  27              		.file 1 "../../../resources/chibios/ChibiOS_16.1.8/os/rt/src/chmtx.c"
  28              		.loc 1 103 0
  29              		.cfi_startproc
  30              		@ args = 0, pretend = 0, frame = 0
  31              		@ frame_needed = 0, uses_anonymous_args = 0
  32              		@ link register save eliminated.
  33              	.LVL0:
  34              		.loc 1 108 0
  35 0000 0023     		movs	r3, #0
  36              	.LBB103:
  37              	.LBB104:
  38              		.file 2 "../../../resources/chibios/ChibiOS_16.1.8/os/rt/include/chschd.h"
  39              		.loc 2 604 0
  40 0002 0060     		str	r0, [r0, #0]
  41              		.loc 2 605 0
  42 0004 4060     		str	r0, [r0, #4]
  43              	.LBE104:
  44              	.LBE103:
  45              		.loc 1 108 0
  46 0006 8360     		str	r3, [r0, #8]
  47              		.loc 1 112 0
  48 0008 7047     		bx	lr
  49              		.cfi_endproc
  50              	.LFE182:
  51              		.size	chMtxObjectInit, .-chMtxObjectInit
  52 000a 00BFAFF3 		.section	.text.chMtxLockS,"ax",%progbits
  52      0080
  53              		.align	2
  54              		.p2align 4,,15
  55              		.global	chMtxLockS
  56              		.thumb
ARM GAS  /tmp/ccHz812R.s 			page 2


  57              		.thumb_func
  58              		.type	chMtxLockS, %function
  59              	chMtxLockS:
  60              	.LFB184:
  61              		.loc 1 139 0
  62              		.cfi_startproc
  63              		@ args = 0, pretend = 0, frame = 0
  64              		@ frame_needed = 0, uses_anonymous_args = 0
  65              	.LVL1:
  66 0000 F8B5     		push	{r3, r4, r5, r6, r7, lr}
  67              	.LCFI0:
  68              		.cfi_def_cfa_offset 24
  69              		.cfi_offset 14, -4
  70              		.cfi_offset 7, -8
  71              		.cfi_offset 6, -12
  72              		.cfi_offset 5, -16
  73              		.cfi_offset 4, -20
  74              		.cfi_offset 3, -24
  75              		.loc 1 140 0
  76 0002 40F20002 		movw	r2, #:lower16:ch
  77              		.loc 1 146 0
  78 0006 8368     		ldr	r3, [r0, #8]
  79              		.loc 1 140 0
  80 0008 C0F20002 		movt	r2, #:upper16:ch
  81              		.loc 1 139 0
  82 000c 0546     		mov	r5, r0
  83              		.loc 1 140 0
  84 000e 9469     		ldr	r4, [r2, #24]
  85              	.LVL2:
  86              		.loc 1 146 0
  87 0010 002B     		cmp	r3, #0
  88 0012 51D0     		beq	.L3
  89              	.LVL3:
  90              	.LBB105:
  91              		.loc 1 165 0 discriminator 1
  92 0014 A168     		ldr	r1, [r4, #8]
  93 0016 9868     		ldr	r0, [r3, #8]
  94              	.LVL4:
  95 0018 8142     		cmp	r1, r0
  96 001a 06D9     		bls	.L4
  97              	.LVL5:
  98              	.L18:
  99              		.loc 1 170 0
 100 001c 1A7F     		ldrb	r2, [r3, #28]	@ zero_extendqisi2
 101              		.loc 1 167 0
 102 001e 9960     		str	r1, [r3, #8]
 103              		.loc 1 170 0
 104 0020 062A     		cmp	r2, #6
 105 0022 31D0     		beq	.L6
 106 0024 072A     		cmp	r2, #7
 107 0026 1CD0     		beq	.L7
 108 0028 92B1     		cbz	r2, .L5
 109              	.LVL6:
 110              	.L4:
 111              		.loc 2 653 0
 112 002a 2B46     		mov	r3, r5
 113              	.LVL7:
ARM GAS  /tmp/ccHz812R.s 			page 3


 114              	.L14:
 115              	.LBB106:
 116              	.LBB107:
 117              		.loc 2 655 0
 118 002c 1B68     		ldr	r3, [r3, #0]
 119              	.LVL8:
 120              		.loc 2 656 0
 121 002e 9D42     		cmp	r5, r3
 122 0030 03D0     		beq	.L13
 123 0032 9868     		ldr	r0, [r3, #8]
 124 0034 A268     		ldr	r2, [r4, #8]
 125 0036 9042     		cmp	r0, r2
 126 0038 F8D2     		bcs	.L14
 127              	.L13:
 128              		.loc 2 658 0
 129 003a 5968     		ldr	r1, [r3, #4]
 130              	.LBE107:
 131              	.LBE106:
 132              		.loc 1 214 0
 133 003c 0620     		movs	r0, #6
 134              	.LBB109:
 135              	.LBB108:
 136              		.loc 2 657 0
 137 003e 2360     		str	r3, [r4, #0]
 138              		.loc 2 658 0
 139 0040 6160     		str	r1, [r4, #4]
 140              		.loc 2 659 0
 141 0042 0C60     		str	r4, [r1, #0]
 142              		.loc 2 660 0
 143 0044 5C60     		str	r4, [r3, #4]
 144              	.LBE108:
 145              	.LBE109:
 146              		.loc 1 213 0
 147 0046 2562     		str	r5, [r4, #32]
 148              	.LBE105:
 149              		.loc 1 236 0
 150 0048 BDE8F840 		pop	{r3, r4, r5, r6, r7, lr}
 151              	.LBB130:
 152              		.loc 1 214 0
 153 004c FFF7FEBF 		b	chSchGoSleepS
 154              	.LVL9:
 155              	.L5:
 156              	.LBB110:
 157              	.LBB111:
 158              		.loc 2 691 0
 159 0050 93E80600 		ldmia	r3, {r1, r2}
 160 0054 1160     		str	r1, [r2, #0]
 161              	.LBE111:
 162              	.LBE110:
 163              		.loc 1 202 0
 164 0056 1846     		mov	r0, r3
 165              	.LBB113:
 166              	.LBB112:
 167              		.loc 2 692 0
 168 0058 1B68     		ldr	r3, [r3, #0]
 169              	.LVL10:
 170 005a 5A60     		str	r2, [r3, #4]
ARM GAS  /tmp/ccHz812R.s 			page 4


 171              	.LBE112:
 172              	.LBE113:
 173              		.loc 1 202 0
 174 005c FFF7FEFF 		bl	chSchReadyI
 175              	.LVL11:
 176              		.loc 1 203 0
 177 0060 E3E7     		b	.L4
 178              	.LVL12:
 179              	.L7:
 180              	.LBB114:
 181              	.LBB115:
 182              		.loc 2 691 0
 183 0062 5868     		ldr	r0, [r3, #4]
 184 0064 1F68     		ldr	r7, [r3, #0]
 185              	.LBE115:
 186              	.LBE114:
 187              		.loc 1 193 0
 188 0066 1E6A     		ldr	r6, [r3, #32]
 189              	.LVL13:
 190              	.LBB118:
 191              	.LBB116:
 192              		.loc 2 691 0
 193 0068 0760     		str	r7, [r0, #0]
 194              		.loc 2 692 0
 195 006a 1F68     		ldr	r7, [r3, #0]
 196              	.LBE116:
 197              	.LBE118:
 198              		.loc 2 653 0
 199 006c 3246     		mov	r2, r6
 200              	.LBB119:
 201              	.LBB117:
 202              		.loc 2 692 0
 203 006e 7860     		str	r0, [r7, #4]
 204              	.LVL14:
 205              	.L12:
 206              	.LBE117:
 207              	.LBE119:
 208              	.LBB120:
 209              	.LBB121:
 210              		.loc 2 655 0
 211 0070 1268     		ldr	r2, [r2, #0]
 212              	.LVL15:
 213              		.loc 2 656 0
 214 0072 9642     		cmp	r6, r2
 215 0074 02D0     		beq	.L11
 216 0076 9068     		ldr	r0, [r2, #8]
 217 0078 8842     		cmp	r0, r1
 218 007a F9D2     		bcs	.L12
 219              	.L11:
 220              		.loc 2 658 0
 221 007c 5168     		ldr	r1, [r2, #4]
 222              		.loc 2 657 0
 223 007e 1A60     		str	r2, [r3, #0]
 224              		.loc 2 658 0
 225 0080 5960     		str	r1, [r3, #4]
 226              		.loc 2 659 0
 227 0082 0B60     		str	r3, [r1, #0]
ARM GAS  /tmp/ccHz812R.s 			page 5


 228              		.loc 2 660 0
 229 0084 5360     		str	r3, [r2, #4]
 230 0086 D0E7     		b	.L4
 231              	.LVL16:
 232              	.L6:
 233              	.LBE121:
 234              	.LBE120:
 235              	.LBB122:
 236              	.LBB123:
 237              		.loc 2 691 0
 238 0088 5868     		ldr	r0, [r3, #4]
 239 008a 1F68     		ldr	r7, [r3, #0]
 240              	.LBE123:
 241              	.LBE122:
 242              		.loc 1 173 0
 243 008c 1E6A     		ldr	r6, [r3, #32]
 244              	.LVL17:
 245              	.LBB126:
 246              	.LBB124:
 247              		.loc 2 691 0
 248 008e 0760     		str	r7, [r0, #0]
 249              		.loc 2 692 0
 250 0090 1F68     		ldr	r7, [r3, #0]
 251              	.LBE124:
 252              	.LBE126:
 253              		.loc 2 653 0
 254 0092 3246     		mov	r2, r6
 255              	.LBB127:
 256              	.LBB125:
 257              		.loc 2 692 0
 258 0094 7860     		str	r0, [r7, #4]
 259              	.LVL18:
 260              	.L9:
 261              	.LBE125:
 262              	.LBE127:
 263              	.LBB128:
 264              	.LBB129:
 265              		.loc 2 655 0
 266 0096 1268     		ldr	r2, [r2, #0]
 267              	.LVL19:
 268              		.loc 2 656 0
 269 0098 9642     		cmp	r6, r2
 270 009a 02D0     		beq	.L8
 271 009c 9068     		ldr	r0, [r2, #8]
 272 009e 8842     		cmp	r0, r1
 273 00a0 F9D2     		bcs	.L9
 274              	.L8:
 275              		.loc 2 658 0
 276 00a2 5168     		ldr	r1, [r2, #4]
 277              		.loc 2 657 0
 278 00a4 1A60     		str	r2, [r3, #0]
 279              		.loc 2 658 0
 280 00a6 5960     		str	r1, [r3, #4]
 281              		.loc 2 659 0
 282 00a8 0B60     		str	r3, [r1, #0]
 283              		.loc 2 660 0
 284 00aa 5360     		str	r3, [r2, #4]
ARM GAS  /tmp/ccHz812R.s 			page 6


 285              	.LBE129:
 286              	.LBE128:
 287              		.loc 1 174 0
 288 00ac B368     		ldr	r3, [r6, #8]
 289              	.LVL20:
 290              		.loc 1 165 0
 291 00ae A168     		ldr	r1, [r4, #8]
 292 00b0 9A68     		ldr	r2, [r3, #8]
 293              	.LVL21:
 294 00b2 8A42     		cmp	r2, r1
 295 00b4 B2D3     		bcc	.L18
 296 00b6 B8E7     		b	.L4
 297              	.LVL22:
 298              	.L3:
 299              	.LBE130:
 300              		.loc 1 233 0
 301 00b8 A36B     		ldr	r3, [r4, #56]
 302              		.loc 1 232 0
 303 00ba 8460     		str	r4, [r0, #8]
 304              		.loc 1 233 0
 305 00bc C360     		str	r3, [r0, #12]
 306              		.loc 1 234 0
 307 00be A063     		str	r0, [r4, #56]
 308              		.loc 1 236 0
 309 00c0 F8BD     		pop	{r3, r4, r5, r6, r7, pc}
 310              		.cfi_endproc
 311              	.LFE184:
 312              		.size	chMtxLockS, .-chMtxLockS
 313 00c2 00BFAFF3 		.section	.text.chMtxLock,"ax",%progbits
 313      0080AFF3 
 313      0080AFF3 
 313      0080
 314              		.align	2
 315              		.p2align 4,,15
 316              		.global	chMtxLock
 317              		.thumb
 318              		.thumb_func
 319              		.type	chMtxLock, %function
 320              	chMtxLock:
 321              	.LFB183:
 322              		.loc 1 123 0
 323              		.cfi_startproc
 324              		@ args = 0, pretend = 0, frame = 0
 325              		@ frame_needed = 0, uses_anonymous_args = 0
 326              	.LVL23:
 327 0000 08B5     		push	{r3, lr}
 328              	.LCFI1:
 329              		.cfi_def_cfa_offset 8
 330              		.cfi_offset 14, -4
 331              		.cfi_offset 3, -8
 332              	.LBB131:
 333              	.LBB132:
 334              	.LBB133:
 335              	.LBB134:
 336              		.file 3 "../../../resources/chibios/ChibiOS_16.1.8/os/ext/CMSIS/include/core_cmFunc.h"
 337              		.loc 3 548 0
 338 0002 2021     		movs	r1, #32
ARM GAS  /tmp/ccHz812R.s 			page 7


 339              	@ 548 "../../../resources/chibios/ChibiOS_16.1.8/os/ext/CMSIS/include/core_cmFunc.h" 1
 340 0004 81F31188 		MSR basepri, r1
 341              	@ 0 "" 2
 342              		.thumb
 343              	.LBE134:
 344              	.LBE133:
 345              	.LBE132:
 346              	.LBE131:
 347              		.loc 1 126 0
 348 0008 FFF7FEFF 		bl	chMtxLockS
 349              	.LVL24:
 350              	.LBB135:
 351              	.LBB136:
 352              	.LBB137:
 353              	.LBB138:
 354              	.LBB139:
 355              		.loc 3 548 0
 356 000c 0023     		movs	r3, #0
 357              	@ 548 "../../../resources/chibios/ChibiOS_16.1.8/os/ext/CMSIS/include/core_cmFunc.h" 1
 358 000e 83F31188 		MSR basepri, r3
 359              	@ 0 "" 2
 360              		.thumb
 361              	.LBE139:
 362              	.LBE138:
 363              	.LBE137:
 364              	.LBE136:
 365              	.LBE135:
 366              		.loc 1 128 0
 367 0012 08BD     		pop	{r3, pc}
 368              		.cfi_endproc
 369              	.LFE183:
 370              		.size	chMtxLock, .-chMtxLock
 371 0014 AFF30080 		.section	.text.chMtxTryLock,"ax",%progbits
 371      AFF30080 
 371      AFF30080 
 372              		.align	2
 373              		.p2align 4,,15
 374              		.global	chMtxTryLock
 375              		.thumb
 376              		.thumb_func
 377              		.type	chMtxTryLock, %function
 378              	chMtxTryLock:
 379              	.LFB185:
 380              		.loc 1 255 0
 381              		.cfi_startproc
 382              		@ args = 0, pretend = 0, frame = 0
 383              		@ frame_needed = 0, uses_anonymous_args = 0
 384              		@ link register save eliminated.
 385              	.LVL25:
 386              		.loc 1 255 0
 387 0000 0346     		mov	r3, r0
 388              	.LBB140:
 389              	.LBB141:
 390              	.LBB142:
 391              	.LBB143:
 392              		.loc 3 548 0
 393 0002 2020     		movs	r0, #32
ARM GAS  /tmp/ccHz812R.s 			page 8


 394              	.LVL26:
 395              	@ 548 "../../../resources/chibios/ChibiOS_16.1.8/os/ext/CMSIS/include/core_cmFunc.h" 1
 396 0004 80F31188 		MSR basepri, r0
 397              	@ 0 "" 2
 398              	.LVL27:
 399              		.thumb
 400              	.LBE143:
 401              	.LBE142:
 402              	.LBE141:
 403              	.LBE140:
 404              	.LBB144:
 405              	.LBB145:
 406              		.loc 1 287 0
 407 0008 9A68     		ldr	r2, [r3, #8]
 408              		.loc 1 297 0
 409 000a 0020     		movs	r0, #0
 410              		.loc 1 287 0
 411 000c 1AB1     		cbz	r2, .L28
 412              	.LVL28:
 413              	.LBE145:
 414              	.LBE144:
 415              	.LBB147:
 416              	.LBB148:
 417              	.LBB149:
 418              	.LBB150:
 419              	.LBB151:
 420              		.loc 3 548 0
 421 000e 0023     		movs	r3, #0
 422              	.LVL29:
 423              	@ 548 "../../../resources/chibios/ChibiOS_16.1.8/os/ext/CMSIS/include/core_cmFunc.h" 1
 424 0010 83F31188 		MSR basepri, r3
 425              	@ 0 "" 2
 426              		.thumb
 427              	.LBE151:
 428              	.LBE150:
 429              	.LBE149:
 430              	.LBE148:
 431              	.LBE147:
 432              		.loc 1 263 0
 433 0014 7047     		bx	lr
 434              	.LVL30:
 435              	.L28:
 436              	.LBB156:
 437              	.LBB146:
 438              		.loc 1 305 0
 439 0016 40F2000C 		movw	ip, #:lower16:ch
 440 001a C0F2000C 		movt	ip, #:upper16:ch
 441 001e DCF81820 		ldr	r2, [ip, #24]
 442              		.loc 1 308 0
 443 0022 0120     		movs	r0, #1
 444              		.loc 1 306 0
 445 0024 916B     		ldr	r1, [r2, #56]
 446              		.loc 1 305 0
 447 0026 9A60     		str	r2, [r3, #8]
 448              		.loc 1 306 0
 449 0028 D960     		str	r1, [r3, #12]
 450              		.loc 1 307 0
ARM GAS  /tmp/ccHz812R.s 			page 9


 451 002a 9363     		str	r3, [r2, #56]
 452              	.LVL31:
 453              	.LBE146:
 454              	.LBE156:
 455              	.LBB157:
 456              	.LBB155:
 457              	.LBB154:
 458              	.LBB153:
 459              	.LBB152:
 460              		.loc 3 548 0
 461 002c 0023     		movs	r3, #0
 462              	.LVL32:
 463              	@ 548 "../../../resources/chibios/ChibiOS_16.1.8/os/ext/CMSIS/include/core_cmFunc.h" 1
 464 002e 83F31188 		MSR basepri, r3
 465              	@ 0 "" 2
 466              		.thumb
 467              	.LBE152:
 468              	.LBE153:
 469              	.LBE154:
 470              	.LBE155:
 471              	.LBE157:
 472              		.loc 1 263 0
 473 0032 7047     		bx	lr
 474              		.cfi_endproc
 475              	.LFE185:
 476              		.size	chMtxTryLock, .-chMtxTryLock
 477 0034 AFF30080 		.section	.text.chMtxTryLockS,"ax",%progbits
 477      AFF30080 
 477      AFF30080 
 478              		.align	2
 479              		.p2align 4,,15
 480              		.global	chMtxTryLockS
 481              		.thumb
 482              		.thumb_func
 483              		.type	chMtxTryLockS, %function
 484              	chMtxTryLockS:
 485              	.LFB186:
 486              		.loc 1 282 0
 487              		.cfi_startproc
 488              		@ args = 0, pretend = 0, frame = 0
 489              		@ frame_needed = 0, uses_anonymous_args = 0
 490              		@ link register save eliminated.
 491              	.LVL33:
 492              		.loc 1 287 0
 493 0000 8268     		ldr	r2, [r0, #8]
 494              		.loc 1 282 0
 495 0002 0346     		mov	r3, r0
 496              		.loc 1 287 0
 497 0004 0AB1     		cbz	r2, .L32
 498              		.loc 1 297 0
 499 0006 0020     		movs	r0, #0
 500              	.LVL34:
 501              		.loc 1 309 0
 502 0008 7047     		bx	lr
 503              	.L32:
 504              		.loc 1 305 0
 505 000a 40F20000 		movw	r0, #:lower16:ch
ARM GAS  /tmp/ccHz812R.s 			page 10


 506 000e C0F20000 		movt	r0, #:upper16:ch
 507 0012 8269     		ldr	r2, [r0, #24]
 508              		.loc 1 308 0
 509 0014 0120     		movs	r0, #1
 510              		.loc 1 306 0
 511 0016 916B     		ldr	r1, [r2, #56]
 512              		.loc 1 305 0
 513 0018 9A60     		str	r2, [r3, #8]
 514              		.loc 1 306 0
 515 001a D960     		str	r1, [r3, #12]
 516              		.loc 1 307 0
 517 001c 9363     		str	r3, [r2, #56]
 518              		.loc 1 308 0
 519 001e 7047     		bx	lr
 520              		.cfi_endproc
 521              	.LFE186:
 522              		.size	chMtxTryLockS, .-chMtxTryLockS
 523              		.section	.text.chMtxUnlock,"ax",%progbits
 524              		.align	2
 525              		.p2align 4,,15
 526              		.global	chMtxUnlock
 527              		.thumb
 528              		.thumb_func
 529              		.type	chMtxUnlock, %function
 530              	chMtxUnlock:
 531              	.LFB187:
 532              		.loc 1 323 0
 533              		.cfi_startproc
 534              		@ args = 0, pretend = 0, frame = 0
 535              		@ frame_needed = 0, uses_anonymous_args = 0
 536              	.LVL35:
 537              		.loc 1 324 0
 538 0000 40F20001 		movw	r1, #:lower16:ch
 539 0004 C0F20001 		movt	r1, #:upper16:ch
 540              		.loc 1 323 0
 541 0008 38B5     		push	{r3, r4, r5, lr}
 542              	.LCFI2:
 543              		.cfi_def_cfa_offset 16
 544              		.cfi_offset 14, -4
 545              		.cfi_offset 5, -8
 546              		.cfi_offset 4, -12
 547              		.cfi_offset 3, -16
 548              	.LBB158:
 549              	.LBB159:
 550              	.LBB160:
 551              	.LBB161:
 552              		.loc 3 548 0
 553 000a 2022     		movs	r2, #32
 554              	.LBE161:
 555              	.LBE160:
 556              	.LBE159:
 557              	.LBE158:
 558              		.loc 1 323 0
 559 000c 0346     		mov	r3, r0
 560              		.loc 1 324 0
 561 000e 8869     		ldr	r0, [r1, #24]
 562              	.LVL36:
ARM GAS  /tmp/ccHz812R.s 			page 11


 563              	.LBB165:
 564              	.LBB164:
 565              	.LBB163:
 566              	.LBB162:
 567              		.loc 3 548 0
 568              	@ 548 "../../../resources/chibios/ChibiOS_16.1.8/os/ext/CMSIS/include/core_cmFunc.h" 1
 569 0010 82F31188 		MSR basepri, r2
 570              	@ 0 "" 2
 571              		.thumb
 572              	.LBE162:
 573              	.LBE163:
 574              	.LBE164:
 575              	.LBE165:
 576              	.LBB166:
 577              	.LBB167:
 578              	.LBB168:
 579              	.LBB169:
 580              		.loc 2 631 0
 581 0014 1A68     		ldr	r2, [r3, #0]
 582              	.LBE169:
 583              	.LBE168:
 584              	.LBE167:
 585              	.LBE166:
 586              		.loc 1 344 0
 587 0016 D968     		ldr	r1, [r3, #12]
 588              	.LVL37:
 589              		.loc 1 347 0
 590 0018 9342     		cmp	r3, r2
 591              		.loc 1 344 0
 592 001a 8163     		str	r1, [r0, #56]
 593              	.LVL38:
 594              		.loc 1 347 0
 595 001c 1CD0     		beq	.L34
 596              	.LBB170:
 597              		.loc 1 352 0
 598 001e C56B     		ldr	r5, [r0, #60]
 599              	.LVL39:
 600              		.loc 1 354 0
 601 0020 49B1     		cbz	r1, .L35
 602              	.LVL40:
 603              	.L39:
 604              	.LBB171:
 605              	.LBB172:
 606              	.LBB173:
 607              	.LBB174:
 608              		.loc 2 631 0
 609 0022 0C68     		ldr	r4, [r1, #0]
 610              	.LBE174:
 611              	.LBE173:
 612              	.LBE172:
 613              	.LBE171:
 614              		.loc 1 358 0
 615 0024 A142     		cmp	r1, r4
 616 0026 03D0     		beq	.L36
 617              		.loc 1 358 0 is_stmt 0 discriminator 1
 618 0028 A468     		ldr	r4, [r4, #8]
 619 002a A542     		cmp	r5, r4
ARM GAS  /tmp/ccHz812R.s 			page 12


 620 002c 38BF     		it	cc
 621 002e 2546     		movcc	r5, r4
 622              	.LVL41:
 623              	.L36:
 624              		.loc 1 362 0 is_stmt 1
 625 0030 C968     		ldr	r1, [r1, #12]
 626              	.LVL42:
 627              		.loc 1 354 0
 628 0032 0029     		cmp	r1, #0
 629 0034 F5D1     		bne	.L39
 630              	.L35:
 631              	.LBB175:
 632              	.LBB176:
 633              		.loc 2 674 0
 634 0036 1168     		ldr	r1, [r2, #0]
 635              	.LVL43:
 636              	.LBE176:
 637              	.LBE175:
 638              		.loc 1 376 0
 639 0038 946B     		ldr	r4, [r2, #56]
 640              		.loc 1 367 0
 641 003a 8560     		str	r5, [r0, #8]
 642              	.LVL44:
 643              	.LBB179:
 644              	.LBB177:
 645              		.loc 2 674 0
 646 003c 1960     		str	r1, [r3, #0]
 647              	.LBE177:
 648              	.LBE179:
 649              		.loc 1 383 0
 650 003e 1046     		mov	r0, r2
 651              	.LBB180:
 652              	.LBB178:
 653              		.loc 2 675 0
 654 0040 4B60     		str	r3, [r1, #4]
 655              	.LBE178:
 656              	.LBE180:
 657              		.loc 1 375 0
 658 0042 9A60     		str	r2, [r3, #8]
 659              		.loc 1 376 0
 660 0044 DC60     		str	r4, [r3, #12]
 661              		.loc 1 377 0
 662 0046 9363     		str	r3, [r2, #56]
 663              		.loc 1 383 0
 664 0048 FFF7FEFF 		bl	chSchReadyI
 665              	.LVL45:
 666              		.loc 1 384 0
 667 004c FFF7FEFF 		bl	chSchRescheduleS
 668              	.LVL46:
 669              	.LBE170:
 670              	.LBB181:
 671              	.LBB182:
 672              	.LBB183:
 673              	.LBB184:
 674              	.LBB185:
 675              		.loc 3 548 0
 676 0050 0023     		movs	r3, #0
ARM GAS  /tmp/ccHz812R.s 			page 13


 677              	@ 548 "../../../resources/chibios/ChibiOS_16.1.8/os/ext/CMSIS/include/core_cmFunc.h" 1
 678 0052 83F31188 		MSR basepri, r3
 679              	@ 0 "" 2
 680              		.thumb
 681              	.LBE185:
 682              	.LBE184:
 683              	.LBE183:
 684              	.LBE182:
 685              	.LBE181:
 686              		.loc 1 394 0
 687 0056 38BD     		pop	{r3, r4, r5, pc}
 688              	.LVL47:
 689              	.L34:
 690              		.loc 1 387 0
 691 0058 0020     		movs	r0, #0
 692              	.LVL48:
 693 005a 9860     		str	r0, [r3, #8]
 694              	.LVL49:
 695              	.LBB190:
 696              	.LBB189:
 697              	.LBB188:
 698              	.LBB187:
 699              	.LBB186:
 700              		.loc 3 548 0
 701 005c 0023     		movs	r3, #0
 702              	.LVL50:
 703              	@ 548 "../../../resources/chibios/ChibiOS_16.1.8/os/ext/CMSIS/include/core_cmFunc.h" 1
 704 005e 83F31188 		MSR basepri, r3
 705              	@ 0 "" 2
 706              		.thumb
 707              	.LBE186:
 708              	.LBE187:
 709              	.LBE188:
 710              	.LBE189:
 711              	.LBE190:
 712              		.loc 1 394 0
 713 0062 38BD     		pop	{r3, r4, r5, pc}
 714              		.cfi_endproc
 715              	.LFE187:
 716              		.size	chMtxUnlock, .-chMtxUnlock
 717 0064 AFF30080 		.section	.text.chMtxUnlockS,"ax",%progbits
 717      AFF30080 
 717      AFF30080 
 718              		.align	2
 719              		.p2align 4,,15
 720              		.global	chMtxUnlockS
 721              		.thumb
 722              		.thumb_func
 723              		.type	chMtxUnlockS, %function
 724              	chMtxUnlockS:
 725              	.LFB188:
 726              		.loc 1 410 0
 727              		.cfi_startproc
 728              		@ args = 0, pretend = 0, frame = 0
 729              		@ frame_needed = 0, uses_anonymous_args = 0
 730              		@ link register save eliminated.
 731              	.LVL51:
ARM GAS  /tmp/ccHz812R.s 			page 14


 732              		.loc 1 411 0
 733 0000 40F20002 		movw	r2, #:lower16:ch
 734 0004 C0F20002 		movt	r2, #:upper16:ch
 735              		.loc 1 410 0
 736 0008 70B4     		push	{r4, r5, r6}
 737              	.LCFI3:
 738              		.cfi_def_cfa_offset 12
 739              		.cfi_offset 6, -4
 740              		.cfi_offset 5, -8
 741              		.cfi_offset 4, -12
 742              		.loc 1 411 0
 743 000a 9669     		ldr	r6, [r2, #24]
 744              	.LVL52:
 745              	.LBB191:
 746              	.LBB192:
 747              	.LBB193:
 748              	.LBB194:
 749              		.loc 2 631 0
 750 000c 0268     		ldr	r2, [r0, #0]
 751              	.LVL53:
 752              	.LBE194:
 753              	.LBE193:
 754              	.LBE192:
 755              	.LBE191:
 756              		.loc 1 430 0
 757 000e C168     		ldr	r1, [r0, #12]
 758              		.loc 1 433 0
 759 0010 9042     		cmp	r0, r2
 760              		.loc 1 410 0
 761 0012 0346     		mov	r3, r0
 762              		.loc 1 430 0
 763 0014 B163     		str	r1, [r6, #56]
 764              	.LVL54:
 765              		.loc 1 433 0
 766 0016 17D0     		beq	.L42
 767              	.LVL55:
 768              	.LBB195:
 769              		.loc 1 438 0
 770 0018 F56B     		ldr	r5, [r6, #60]
 771              	.LVL56:
 772              		.loc 1 440 0
 773 001a 49B1     		cbz	r1, .L43
 774              	.LVL57:
 775              	.L46:
 776              	.LBB196:
 777              	.LBB197:
 778              	.LBB198:
 779              	.LBB199:
 780              		.loc 2 631 0
 781 001c 0868     		ldr	r0, [r1, #0]
 782              	.LBE199:
 783              	.LBE198:
 784              	.LBE197:
 785              	.LBE196:
 786              		.loc 1 444 0
 787 001e 8142     		cmp	r1, r0
 788 0020 03D0     		beq	.L44
ARM GAS  /tmp/ccHz812R.s 			page 15


 789              		.loc 1 444 0 is_stmt 0 discriminator 1
 790 0022 8068     		ldr	r0, [r0, #8]
 791 0024 8542     		cmp	r5, r0
 792 0026 38BF     		it	cc
 793 0028 0546     		movcc	r5, r0
 794              	.LVL58:
 795              	.L44:
 796              		.loc 1 448 0 is_stmt 1
 797 002a C968     		ldr	r1, [r1, #12]
 798              	.LVL59:
 799              		.loc 1 440 0
 800 002c 0029     		cmp	r1, #0
 801 002e F5D1     		bne	.L46
 802              	.L43:
 803              	.LBB200:
 804              	.LBB201:
 805              		.loc 2 674 0
 806 0030 1168     		ldr	r1, [r2, #0]
 807              	.LVL60:
 808              	.LBE201:
 809              	.LBE200:
 810              		.loc 1 462 0
 811 0032 946B     		ldr	r4, [r2, #56]
 812              		.loc 1 464 0
 813 0034 1046     		mov	r0, r2
 814              		.loc 1 453 0
 815 0036 B560     		str	r5, [r6, #8]
 816              	.LVL61:
 817              	.LBB203:
 818              	.LBB202:
 819              		.loc 2 674 0
 820 0038 1960     		str	r1, [r3, #0]
 821              		.loc 2 675 0
 822 003a 4B60     		str	r3, [r1, #4]
 823              	.LBE202:
 824              	.LBE203:
 825              		.loc 1 461 0
 826 003c 9A60     		str	r2, [r3, #8]
 827              		.loc 1 462 0
 828 003e DC60     		str	r4, [r3, #12]
 829              		.loc 1 463 0
 830 0040 9363     		str	r3, [r2, #56]
 831              	.LBE195:
 832              		.loc 1 472 0
 833 0042 70BC     		pop	{r4, r5, r6}
 834              	.LBB204:
 835              		.loc 1 464 0
 836 0044 FFF7FEBF 		b	chSchReadyI
 837              	.LVL62:
 838              	.L42:
 839              	.LBE204:
 840              		.loc 1 467 0
 841 0048 0023     		movs	r3, #0
 842 004a 8360     		str	r3, [r0, #8]
 843              		.loc 1 472 0
 844 004c 70BC     		pop	{r4, r5, r6}
 845 004e 7047     		bx	lr
ARM GAS  /tmp/ccHz812R.s 			page 16


 846              		.cfi_endproc
 847              	.LFE188:
 848              		.size	chMtxUnlockS, .-chMtxUnlockS
 849              		.section	.text.chMtxUnlockAll,"ax",%progbits
 850              		.align	2
 851              		.p2align 4,,15
 852              		.global	chMtxUnlockAll
 853              		.thumb
 854              		.thumb_func
 855              		.type	chMtxUnlockAll, %function
 856              	chMtxUnlockAll:
 857              	.LFB189:
 858              		.loc 1 485 0
 859              		.cfi_startproc
 860              		@ args = 0, pretend = 0, frame = 0
 861              		@ frame_needed = 0, uses_anonymous_args = 0
 862              		.loc 1 486 0
 863 0000 40F20000 		movw	r0, #:lower16:ch
 864 0004 C0F20000 		movt	r0, #:upper16:ch
 865              		.loc 1 485 0
 866 0008 70B5     		push	{r4, r5, r6, lr}
 867              	.LCFI4:
 868              		.cfi_def_cfa_offset 16
 869              		.cfi_offset 14, -4
 870              		.cfi_offset 6, -8
 871              		.cfi_offset 5, -12
 872              		.cfi_offset 4, -16
 873              	.LBB205:
 874              	.LBB206:
 875              	.LBB207:
 876              	.LBB208:
 877              		.loc 3 548 0
 878 000a 2023     		movs	r3, #32
 879              	.LBE208:
 880              	.LBE207:
 881              	.LBE206:
 882              	.LBE205:
 883              		.loc 1 486 0
 884 000c 8469     		ldr	r4, [r0, #24]
 885              	.LVL63:
 886              	.LBB212:
 887              	.LBB211:
 888              	.LBB210:
 889              	.LBB209:
 890              		.loc 3 548 0
 891              	@ 548 "../../../resources/chibios/ChibiOS_16.1.8/os/ext/CMSIS/include/core_cmFunc.h" 1
 892 000e 83F31188 		MSR basepri, r3
 893              	@ 0 "" 2
 894              		.thumb
 895              	.LBE209:
 896              	.LBE210:
 897              	.LBE211:
 898              	.LBE212:
 899              		.loc 1 489 0
 900 0012 A36B     		ldr	r3, [r4, #56]
 901 0014 C3B1     		cbz	r3, .L49
 902              	.LBB213:
ARM GAS  /tmp/ccHz812R.s 			page 17


 903              		.loc 1 507 0
 904 0016 0025     		movs	r5, #0
 905              	.LVL64:
 906              	.L53:
 907              	.LBB214:
 908              	.LBB215:
 909              	.LBB216:
 910              	.LBB217:
 911              		.loc 2 631 0
 912 0018 1A68     		ldr	r2, [r3, #0]
 913              	.LBE217:
 914              	.LBE216:
 915              	.LBE215:
 916              	.LBE214:
 917              		.loc 1 492 0
 918 001a D968     		ldr	r1, [r3, #12]
 919              		.loc 1 493 0
 920 001c 9342     		cmp	r3, r2
 921              		.loc 1 492 0
 922 001e A163     		str	r1, [r4, #56]
 923              	.LVL65:
 924              	.LBB218:
 925              		.loc 1 501 0
 926 0020 1046     		mov	r0, r2
 927              	.LBE218:
 928              		.loc 1 507 0
 929 0022 08BF     		it	eq
 930 0024 9D60     		streq	r5, [r3, #8]
 931              		.loc 1 493 0
 932 0026 08D0     		beq	.L51
 933              	.LVL66:
 934              	.LBB223:
 935              	.LBB219:
 936              	.LBB220:
 937              		.loc 2 674 0
 938 0028 1168     		ldr	r1, [r2, #0]
 939              	.LBE220:
 940              	.LBE219:
 941              		.loc 1 499 0
 942 002a 966B     		ldr	r6, [r2, #56]
 943              	.LBB222:
 944              	.LBB221:
 945              		.loc 2 674 0
 946 002c 1960     		str	r1, [r3, #0]
 947              		.loc 2 675 0
 948 002e 4B60     		str	r3, [r1, #4]
 949              	.LBE221:
 950              	.LBE222:
 951              		.loc 1 498 0
 952 0030 9A60     		str	r2, [r3, #8]
 953              		.loc 1 499 0
 954 0032 DE60     		str	r6, [r3, #12]
 955              		.loc 1 500 0
 956 0034 9363     		str	r3, [r2, #56]
 957              		.loc 1 501 0
 958 0036 FFF7FEFF 		bl	chSchReadyI
 959              	.LVL67:
ARM GAS  /tmp/ccHz812R.s 			page 18


 960              	.L51:
 961              	.LBE223:
 962              	.LBE213:
 963              		.loc 1 509 0
 964 003a A36B     		ldr	r3, [r4, #56]
 965 003c 002B     		cmp	r3, #0
 966 003e EBD1     		bne	.L53
 967              		.loc 1 510 0
 968 0040 E26B     		ldr	r2, [r4, #60]
 969 0042 A260     		str	r2, [r4, #8]
 970              		.loc 1 511 0
 971 0044 FFF7FEFF 		bl	chSchRescheduleS
 972              	.L49:
 973              	.LVL68:
 974              	.LBB224:
 975              	.LBB225:
 976              	.LBB226:
 977              	.LBB227:
 978              	.LBB228:
 979              		.loc 3 548 0
 980 0048 0023     		movs	r3, #0
 981              	@ 548 "../../../resources/chibios/ChibiOS_16.1.8/os/ext/CMSIS/include/core_cmFunc.h" 1
 982 004a 83F31188 		MSR basepri, r3
 983              	@ 0 "" 2
 984              		.thumb
 985              	.LBE228:
 986              	.LBE227:
 987              	.LBE226:
 988              	.LBE225:
 989              	.LBE224:
 990              		.loc 1 514 0
 991 004e 70BD     		pop	{r4, r5, r6, pc}
 992              		.cfi_endproc
 993              	.LFE189:
 994              		.size	chMtxUnlockAll, .-chMtxUnlockAll
 995              		.text
 996              	.Letext0:
 997              		.file 4 "/home/madog/programs/CodeSourcery/Sourcery_CodeBench_Lite_for_ARM_EABI/bin/../lib/gcc/arm
 998              		.file 5 "../../../resources/chibios/ChibiOS_16.1.8/os/rt/ports/ARMCMx/compilers/GCC/chtypes.h"
 999              		.file 6 "../../../resources/chibios/ChibiOS_16.1.8/os/rt/include/chsystypes.h"
 1000              		.file 7 "../../../resources/chibios/ChibiOS_16.1.8/os/rt/ports/ARMCMx/chcore.h"
 1001              		.file 8 "../../../resources/chibios/ChibiOS_16.1.8/os/rt/ports/ARMCMx/chcore_v7m.h"
 1002              		.file 9 "../../../resources/chibios/ChibiOS_16.1.8/os/rt/include/chtm.h"
 1003              		.file 10 "../../../resources/chibios/ChibiOS_16.1.8/os/rt/include/chsem.h"
 1004              		.file 11 "../../../resources/chibios/ChibiOS_16.1.8/os/rt/include/chmtx.h"
 1005              		.file 12 "../../../resources/chibios/ChibiOS_16.1.8/os/rt/include/chsys.h"
 1006              		.file 13 "../../../resources/chibios/ChibiOS_16.1.8/os/ext/CMSIS/include/core_cm3.h"
 1007              		.section	.debug_info,"",%progbits
 1008              	.Ldebug_info0:
 1009 0000 A20F0000 		.4byte	0xfa2
 1010 0004 0200     		.2byte	0x2
 1011 0006 00000000 		.4byte	.Ldebug_abbrev0
 1012 000a 04       		.byte	0x4
 1013 000b 01       		.uleb128 0x1
 1014 000c C6040000 		.4byte	.LASF120
 1015 0010 01       		.byte	0x1
 1016 0011 B4000000 		.4byte	.LASF121
ARM GAS  /tmp/ccHz812R.s 			page 19


 1017 0015 43030000 		.4byte	.LASF122
 1018 0019 00000000 		.4byte	0
 1019 001d 00000000 		.4byte	0
 1020 0021 F0020000 		.4byte	.Ldebug_ranges0+0x2f0
 1021 0025 00000000 		.4byte	.Ldebug_line0
 1022 0029 02       		.uleb128 0x2
 1023 002a 04       		.byte	0x4
 1024 002b 05       		.byte	0x5
 1025 002c 696E7400 		.ascii	"int\000"
 1026 0030 03       		.uleb128 0x3
 1027 0031 04       		.byte	0x4
 1028 0032 07       		.byte	0x7
 1029 0033 98000000 		.4byte	.LASF0
 1030 0037 03       		.uleb128 0x3
 1031 0038 01       		.byte	0x1
 1032 0039 06       		.byte	0x6
 1033 003a 31050000 		.4byte	.LASF1
 1034 003e 04       		.uleb128 0x4
 1035 003f C0020000 		.4byte	.LASF4
 1036 0043 04       		.byte	0x4
 1037 0044 2A       		.byte	0x2a
 1038 0045 49000000 		.4byte	0x49
 1039 0049 03       		.uleb128 0x3
 1040 004a 01       		.byte	0x1
 1041 004b 08       		.byte	0x8
 1042 004c E5040000 		.4byte	.LASF2
 1043 0050 03       		.uleb128 0x3
 1044 0051 02       		.byte	0x2
 1045 0052 05       		.byte	0x5
 1046 0053 E6030000 		.4byte	.LASF3
 1047 0057 04       		.uleb128 0x4
 1048 0058 BC030000 		.4byte	.LASF5
 1049 005c 04       		.byte	0x4
 1050 005d 36       		.byte	0x36
 1051 005e 62000000 		.4byte	0x62
 1052 0062 03       		.uleb128 0x3
 1053 0063 02       		.byte	0x2
 1054 0064 07       		.byte	0x7
 1055 0065 3D050000 		.4byte	.LASF6
 1056 0069 04       		.uleb128 0x4
 1057 006a B7040000 		.4byte	.LASF7
 1058 006e 04       		.byte	0x4
 1059 006f 4F       		.byte	0x4f
 1060 0070 74000000 		.4byte	0x74
 1061 0074 03       		.uleb128 0x3
 1062 0075 04       		.byte	0x4
 1063 0076 05       		.byte	0x5
 1064 0077 0D040000 		.4byte	.LASF8
 1065 007b 04       		.uleb128 0x4
 1066 007c 69010000 		.4byte	.LASF9
 1067 0080 04       		.byte	0x4
 1068 0081 50       		.byte	0x50
 1069 0082 86000000 		.4byte	0x86
 1070 0086 03       		.uleb128 0x3
 1071 0087 04       		.byte	0x4
 1072 0088 07       		.byte	0x7
 1073 0089 98040000 		.4byte	.LASF10
ARM GAS  /tmp/ccHz812R.s 			page 20


 1074 008d 03       		.uleb128 0x3
 1075 008e 08       		.byte	0x8
 1076 008f 05       		.byte	0x5
 1077 0090 F3020000 		.4byte	.LASF11
 1078 0094 04       		.uleb128 0x4
 1079 0095 4E040000 		.4byte	.LASF12
 1080 0099 04       		.byte	0x4
 1081 009a 78       		.byte	0x78
 1082 009b 9F000000 		.4byte	0x9f
 1083 009f 03       		.uleb128 0x3
 1084 00a0 08       		.byte	0x8
 1085 00a1 07       		.byte	0x7
 1086 00a2 B2010000 		.4byte	.LASF13
 1087 00a6 04       		.uleb128 0x4
 1088 00a7 C5030000 		.4byte	.LASF14
 1089 00ab 05       		.byte	0x5
 1090 00ac 39       		.byte	0x39
 1091 00ad 7B000000 		.4byte	0x7b
 1092 00b1 04       		.uleb128 0x4
 1093 00b2 A9030000 		.4byte	.LASF15
 1094 00b6 05       		.byte	0x5
 1095 00b7 3C       		.byte	0x3c
 1096 00b8 3E000000 		.4byte	0x3e
 1097 00bc 04       		.uleb128 0x4
 1098 00bd A7020000 		.4byte	.LASF16
 1099 00c1 05       		.byte	0x5
 1100 00c2 3D       		.byte	0x3d
 1101 00c3 3E000000 		.4byte	0x3e
 1102 00c7 04       		.uleb128 0x4
 1103 00c8 90040000 		.4byte	.LASF17
 1104 00cc 05       		.byte	0x5
 1105 00cd 3E       		.byte	0x3e
 1106 00ce 3E000000 		.4byte	0x3e
 1107 00d2 04       		.uleb128 0x4
 1108 00d3 99010000 		.4byte	.LASF18
 1109 00d7 05       		.byte	0x5
 1110 00d8 40       		.byte	0x40
 1111 00d9 7B000000 		.4byte	0x7b
 1112 00dd 04       		.uleb128 0x4
 1113 00de 1D030000 		.4byte	.LASF19
 1114 00e2 05       		.byte	0x5
 1115 00e3 41       		.byte	0x41
 1116 00e4 69000000 		.4byte	0x69
 1117 00e8 04       		.uleb128 0x4
 1118 00e9 72010000 		.4byte	.LASF20
 1119 00ed 05       		.byte	0x5
 1120 00ee 43       		.byte	0x43
 1121 00ef 7B000000 		.4byte	0x7b
 1122 00f3 04       		.uleb128 0x4
 1123 00f4 E1010000 		.4byte	.LASF21
 1124 00f8 05       		.byte	0x5
 1125 00f9 45       		.byte	0x45
 1126 00fa 69000000 		.4byte	0x69
 1127 00fe 04       		.uleb128 0x4
 1128 00ff 73000000 		.4byte	.LASF22
 1129 0103 06       		.byte	0x6
 1130 0104 35       		.byte	0x35
ARM GAS  /tmp/ccHz812R.s 			page 21


 1131 0105 57000000 		.4byte	0x57
 1132 0109 04       		.uleb128 0x4
 1133 010a 18020000 		.4byte	.LASF23
 1134 010e 06       		.byte	0x6
 1135 010f 3F       		.byte	0x3f
 1136 0110 14010000 		.4byte	0x114
 1137 0114 05       		.uleb128 0x5
 1138 0115 DA020000 		.4byte	.LASF43
 1139 0119 44       		.byte	0x44
 1140 011a 02       		.byte	0x2
 1141 011b C2       		.byte	0xc2
 1142 011c 25020000 		.4byte	0x225
 1143 0120 06       		.uleb128 0x6
 1144 0121 47040000 		.4byte	.LASF24
 1145 0125 02       		.byte	0x2
 1146 0126 C3       		.byte	0xc3
 1147 0127 30020000 		.4byte	0x230
 1148 012b 02       		.byte	0x2
 1149 012c 23       		.byte	0x23
 1150 012d 00       		.uleb128 0
 1151 012e 06       		.uleb128 0x6
 1152 012f 89040000 		.4byte	.LASF25
 1153 0133 02       		.byte	0x2
 1154 0134 C5       		.byte	0xc5
 1155 0135 30020000 		.4byte	0x230
 1156 0139 02       		.byte	0x2
 1157 013a 23       		.byte	0x23
 1158 013b 04       		.uleb128 0x4
 1159 013c 06       		.uleb128 0x6
 1160 013d 6C000000 		.4byte	.LASF26
 1161 0141 02       		.byte	0x2
 1162 0142 C7       		.byte	0xc7
 1163 0143 D2000000 		.4byte	0xd2
 1164 0147 02       		.byte	0x2
 1165 0148 23       		.byte	0x23
 1166 0149 08       		.uleb128 0x8
 1167 014a 06       		.uleb128 0x6
 1168 014b 57040000 		.4byte	.LASF27
 1169 014f 02       		.byte	0x2
 1170 0150 C8       		.byte	0xc8
 1171 0151 8C040000 		.4byte	0x48c
 1172 0155 02       		.byte	0x2
 1173 0156 23       		.byte	0x23
 1174 0157 0C       		.uleb128 0xc
 1175 0158 06       		.uleb128 0x6
 1176 0159 F3010000 		.4byte	.LASF28
 1177 015d 02       		.byte	0x2
 1178 015e CA       		.byte	0xca
 1179 015f 30020000 		.4byte	0x230
 1180 0163 02       		.byte	0x2
 1181 0164 23       		.byte	0x23
 1182 0165 10       		.uleb128 0x10
 1183 0166 06       		.uleb128 0x6
 1184 0167 B0020000 		.4byte	.LASF29
 1185 016b 02       		.byte	0x2
 1186 016c CB       		.byte	0xcb
 1187 016d 30020000 		.4byte	0x230
ARM GAS  /tmp/ccHz812R.s 			page 22


 1188 0171 02       		.byte	0x2
 1189 0172 23       		.byte	0x23
 1190 0173 14       		.uleb128 0x14
 1191 0174 06       		.uleb128 0x6
 1192 0175 57020000 		.4byte	.LASF30
 1193 0179 02       		.byte	0x2
 1194 017a D2       		.byte	0xd2
 1195 017b 2B060000 		.4byte	0x62b
 1196 017f 02       		.byte	0x2
 1197 0180 23       		.byte	0x23
 1198 0181 18       		.uleb128 0x18
 1199 0182 06       		.uleb128 0x6
 1200 0183 B8020000 		.4byte	.LASF31
 1201 0187 02       		.byte	0x2
 1202 0188 DD       		.byte	0xdd
 1203 0189 BC000000 		.4byte	0xbc
 1204 018d 02       		.byte	0x2
 1205 018e 23       		.byte	0x23
 1206 018f 1C       		.uleb128 0x1c
 1207 0190 06       		.uleb128 0x6
 1208 0191 2B030000 		.4byte	.LASF32
 1209 0195 02       		.byte	0x2
 1210 0196 E1       		.byte	0xe1
 1211 0197 B1000000 		.4byte	0xb1
 1212 019b 02       		.byte	0x2
 1213 019c 23       		.byte	0x23
 1214 019d 1D       		.uleb128 0x1d
 1215 019e 06       		.uleb128 0x6
 1216 019f 09050000 		.4byte	.LASF33
 1217 01a3 02       		.byte	0x2
 1218 01a4 E6       		.byte	0xe6
 1219 01a5 C7000000 		.4byte	0xc7
 1220 01a9 02       		.byte	0x2
 1221 01aa 23       		.byte	0x23
 1222 01ab 1E       		.uleb128 0x1e
 1223 01ac 07       		.uleb128 0x7
 1224 01ad 705F7500 		.ascii	"p_u\000"
 1225 01b1 02       		.byte	0x2
 1226 01b2 3101     		.2byte	0x131
 1227 01b4 5C050000 		.4byte	0x55c
 1228 01b8 02       		.byte	0x2
 1229 01b9 23       		.byte	0x23
 1230 01ba 20       		.uleb128 0x20
 1231 01bb 08       		.uleb128 0x8
 1232 01bc 20000000 		.4byte	.LASF34
 1233 01c0 02       		.byte	0x2
 1234 01c1 3601     		.2byte	0x136
 1235 01c3 36020000 		.4byte	0x236
 1236 01c7 02       		.byte	0x2
 1237 01c8 23       		.byte	0x23
 1238 01c9 24       		.uleb128 0x24
 1239 01ca 08       		.uleb128 0x8
 1240 01cb 8D000000 		.4byte	.LASF35
 1241 01cf 02       		.byte	0x2
 1242 01d0 3C01     		.2byte	0x13c
 1243 01d2 5C020000 		.4byte	0x25c
 1244 01d6 02       		.byte	0x2
ARM GAS  /tmp/ccHz812R.s 			page 23


 1245 01d7 23       		.byte	0x23
 1246 01d8 28       		.uleb128 0x28
 1247 01d9 08       		.uleb128 0x8
 1248 01da A3030000 		.4byte	.LASF36
 1249 01de 02       		.byte	0x2
 1250 01df 4001     		.2byte	0x140
 1251 01e1 DD000000 		.4byte	0xdd
 1252 01e5 02       		.byte	0x2
 1253 01e6 23       		.byte	0x23
 1254 01e7 30       		.uleb128 0x30
 1255 01e8 08       		.uleb128 0x8
 1256 01e9 FA030000 		.4byte	.LASF37
 1257 01ed 02       		.byte	0x2
 1258 01ee 4601     		.2byte	0x146
 1259 01f0 E8000000 		.4byte	0xe8
 1260 01f4 02       		.byte	0x2
 1261 01f5 23       		.byte	0x23
 1262 01f6 34       		.uleb128 0x34
 1263 01f7 08       		.uleb128 0x8
 1264 01f8 D0020000 		.4byte	.LASF38
 1265 01fc 02       		.byte	0x2
 1266 01fd 4D01     		.2byte	0x14d
 1267 01ff 25060000 		.4byte	0x625
 1268 0203 02       		.byte	0x2
 1269 0204 23       		.byte	0x23
 1270 0205 38       		.uleb128 0x38
 1271 0206 08       		.uleb128 0x8
 1272 0207 DB030000 		.4byte	.LASF39
 1273 020b 02       		.byte	0x2
 1274 020c 5101     		.2byte	0x151
 1275 020e D2000000 		.4byte	0xd2
 1276 0212 02       		.byte	0x2
 1277 0213 23       		.byte	0x23
 1278 0214 3C       		.uleb128 0x3c
 1279 0215 08       		.uleb128 0x8
 1280 0216 C8020000 		.4byte	.LASF40
 1281 021a 02       		.byte	0x2
 1282 021b 5801     		.2byte	0x158
 1283 021d 20030000 		.4byte	0x320
 1284 0221 02       		.byte	0x2
 1285 0222 23       		.byte	0x23
 1286 0223 40       		.uleb128 0x40
 1287 0224 00       		.byte	0
 1288 0225 04       		.uleb128 0x4
 1289 0226 79020000 		.4byte	.LASF41
 1290 022a 06       		.byte	0x6
 1291 022b 44       		.byte	0x44
 1292 022c 30020000 		.4byte	0x230
 1293 0230 09       		.uleb128 0x9
 1294 0231 04       		.byte	0x4
 1295 0232 09010000 		.4byte	0x109
 1296 0236 04       		.uleb128 0x4
 1297 0237 A5000000 		.4byte	.LASF42
 1298 023b 06       		.byte	0x6
 1299 023c 49       		.byte	0x49
 1300 023d 41020000 		.4byte	0x241
 1301 0241 05       		.uleb128 0x5
ARM GAS  /tmp/ccHz812R.s 			page 24


 1302 0242 00000000 		.4byte	.LASF44
 1303 0246 04       		.byte	0x4
 1304 0247 02       		.byte	0x2
 1305 0248 B0       		.byte	0xb0
 1306 0249 5C020000 		.4byte	0x25c
 1307 024d 06       		.uleb128 0x6
 1308 024e 47040000 		.4byte	.LASF24
 1309 0252 02       		.byte	0x2
 1310 0253 B1       		.byte	0xb1
 1311 0254 30020000 		.4byte	0x230
 1312 0258 02       		.byte	0x2
 1313 0259 23       		.byte	0x23
 1314 025a 00       		.uleb128 0
 1315 025b 00       		.byte	0
 1316 025c 04       		.uleb128 0x4
 1317 025d 10000000 		.4byte	.LASF45
 1318 0261 06       		.byte	0x6
 1319 0262 50       		.byte	0x50
 1320 0263 67020000 		.4byte	0x267
 1321 0267 05       		.uleb128 0x5
 1322 0268 2C010000 		.4byte	.LASF46
 1323 026c 08       		.byte	0x8
 1324 026d 02       		.byte	0x2
 1325 026e B7       		.byte	0xb7
 1326 026f 90020000 		.4byte	0x290
 1327 0273 06       		.uleb128 0x6
 1328 0274 47040000 		.4byte	.LASF24
 1329 0278 02       		.byte	0x2
 1330 0279 B8       		.byte	0xb8
 1331 027a 30020000 		.4byte	0x230
 1332 027e 02       		.byte	0x2
 1333 027f 23       		.byte	0x23
 1334 0280 00       		.uleb128 0
 1335 0281 06       		.uleb128 0x6
 1336 0282 89040000 		.4byte	.LASF25
 1337 0286 02       		.byte	0x2
 1338 0287 B9       		.byte	0xb9
 1339 0288 30020000 		.4byte	0x230
 1340 028c 02       		.byte	0x2
 1341 028d 23       		.byte	0x23
 1342 028e 04       		.uleb128 0x4
 1343 028f 00       		.byte	0
 1344 0290 04       		.uleb128 0x4
 1345 0291 AA040000 		.4byte	.LASF47
 1346 0295 06       		.byte	0x6
 1347 0296 57       		.byte	0x57
 1348 0297 9B020000 		.4byte	0x29b
 1349 029b 0A       		.uleb128 0xa
 1350 029c 08010000 		.4byte	.LASF48
 1351 02a0 1C       		.byte	0x1c
 1352 02a1 02       		.byte	0x2
 1353 02a2 9001     		.2byte	0x190
 1354 02a4 03030000 		.4byte	0x303
 1355 02a8 08       		.uleb128 0x8
 1356 02a9 01030000 		.4byte	.LASF49
 1357 02ad 02       		.byte	0x2
 1358 02ae 9101     		.2byte	0x191
ARM GAS  /tmp/ccHz812R.s 			page 25


 1359 02b0 5C020000 		.4byte	0x25c
 1360 02b4 02       		.byte	0x2
 1361 02b5 23       		.byte	0x23
 1362 02b6 00       		.uleb128 0
 1363 02b7 08       		.uleb128 0x8
 1364 02b8 7E010000 		.4byte	.LASF50
 1365 02bc 02       		.byte	0x2
 1366 02bd 9201     		.2byte	0x192
 1367 02bf D2000000 		.4byte	0xd2
 1368 02c3 02       		.byte	0x2
 1369 02c4 23       		.byte	0x23
 1370 02c5 08       		.uleb128 0x8
 1371 02c6 08       		.uleb128 0x8
 1372 02c7 50050000 		.4byte	.LASF51
 1373 02cb 02       		.byte	0x2
 1374 02cc 9401     		.2byte	0x194
 1375 02ce 8C040000 		.4byte	0x48c
 1376 02d2 02       		.byte	0x2
 1377 02d3 23       		.byte	0x23
 1378 02d4 0C       		.uleb128 0xc
 1379 02d5 08       		.uleb128 0x8
 1380 02d6 15030000 		.4byte	.LASF52
 1381 02da 02       		.byte	0x2
 1382 02db 9701     		.2byte	0x197
 1383 02dd 30020000 		.4byte	0x230
 1384 02e1 02       		.byte	0x2
 1385 02e2 23       		.byte	0x23
 1386 02e3 10       		.uleb128 0x10
 1387 02e4 08       		.uleb128 0x8
 1388 02e5 7D030000 		.4byte	.LASF53
 1389 02e9 02       		.byte	0x2
 1390 02ea 9801     		.2byte	0x198
 1391 02ec 30020000 		.4byte	0x230
 1392 02f0 02       		.byte	0x2
 1393 02f1 23       		.byte	0x23
 1394 02f2 14       		.uleb128 0x14
 1395 02f3 08       		.uleb128 0x8
 1396 02f4 F0030000 		.4byte	.LASF54
 1397 02f8 02       		.byte	0x2
 1398 02f9 9B01     		.2byte	0x19b
 1399 02fb 30020000 		.4byte	0x230
 1400 02ff 02       		.byte	0x2
 1401 0300 23       		.byte	0x23
 1402 0301 18       		.uleb128 0x18
 1403 0302 00       		.byte	0
 1404 0303 04       		.uleb128 0x4
 1405 0304 3D010000 		.4byte	.LASF55
 1406 0308 06       		.byte	0x6
 1407 0309 5C       		.byte	0x5c
 1408 030a 0E030000 		.4byte	0x30e
 1409 030e 09       		.uleb128 0x9
 1410 030f 04       		.byte	0x4
 1411 0310 14030000 		.4byte	0x314
 1412 0314 0B       		.uleb128 0xb
 1413 0315 01       		.byte	0x1
 1414 0316 20030000 		.4byte	0x320
 1415 031a 0C       		.uleb128 0xc
ARM GAS  /tmp/ccHz812R.s 			page 26


 1416 031b 20030000 		.4byte	0x320
 1417 031f 00       		.byte	0
 1418 0320 0D       		.uleb128 0xd
 1419 0321 04       		.byte	0x4
 1420 0322 04       		.uleb128 0x4
 1421 0323 33030000 		.4byte	.LASF56
 1422 0327 06       		.byte	0x6
 1423 0328 61       		.byte	0x61
 1424 0329 2D030000 		.4byte	0x32d
 1425 032d 0A       		.uleb128 0xa
 1426 032e A1010000 		.4byte	.LASF57
 1427 0332 14       		.byte	0x14
 1428 0333 02       		.byte	0x2
 1429 0334 6B01     		.2byte	0x16b
 1430 0336 86030000 		.4byte	0x386
 1431 033a 08       		.uleb128 0x8
 1432 033b 10050000 		.4byte	.LASF58
 1433 033f 02       		.byte	0x2
 1434 0340 6C01     		.2byte	0x16c
 1435 0342 3D060000 		.4byte	0x63d
 1436 0346 02       		.byte	0x2
 1437 0347 23       		.byte	0x23
 1438 0348 00       		.uleb128 0
 1439 0349 08       		.uleb128 0x8
 1440 034a 7E050000 		.4byte	.LASF59
 1441 034e 02       		.byte	0x2
 1442 034f 6D01     		.2byte	0x16d
 1443 0351 3D060000 		.4byte	0x63d
 1444 0355 02       		.byte	0x2
 1445 0356 23       		.byte	0x23
 1446 0357 04       		.uleb128 0x4
 1447 0358 08       		.uleb128 0x8
 1448 0359 70020000 		.4byte	.LASF60
 1449 035d 02       		.byte	0x2
 1450 035e 6E01     		.2byte	0x16e
 1451 0360 FE000000 		.4byte	0xfe
 1452 0364 02       		.byte	0x2
 1453 0365 23       		.byte	0x23
 1454 0366 08       		.uleb128 0x8
 1455 0367 08       		.uleb128 0x8
 1456 0368 6A050000 		.4byte	.LASF61
 1457 036c 02       		.byte	0x2
 1458 036d 6F01     		.2byte	0x16f
 1459 036f 03030000 		.4byte	0x303
 1460 0373 02       		.byte	0x2
 1461 0374 23       		.byte	0x23
 1462 0375 0C       		.uleb128 0xc
 1463 0376 08       		.uleb128 0x8
 1464 0377 85010000 		.4byte	.LASF62
 1465 037b 02       		.byte	0x2
 1466 037c 7101     		.2byte	0x171
 1467 037e 20030000 		.4byte	0x320
 1468 0382 02       		.byte	0x2
 1469 0383 23       		.byte	0x23
 1470 0384 10       		.uleb128 0x10
 1471 0385 00       		.byte	0
 1472 0386 04       		.uleb128 0x4
ARM GAS  /tmp/ccHz812R.s 			page 27


 1473 0387 F3040000 		.4byte	.LASF63
 1474 038b 06       		.byte	0x6
 1475 038c 66       		.byte	0x66
 1476 038d 91030000 		.4byte	0x391
 1477 0391 0A       		.uleb128 0xa
 1478 0392 01020000 		.4byte	.LASF64
 1479 0396 0C       		.byte	0xc
 1480 0397 02       		.byte	0x2
 1481 0398 7B01     		.2byte	0x17b
 1482 039a DB030000 		.4byte	0x3db
 1483 039e 08       		.uleb128 0x8
 1484 039f 10050000 		.4byte	.LASF58
 1485 03a3 02       		.byte	0x2
 1486 03a4 7C01     		.2byte	0x17c
 1487 03a6 3D060000 		.4byte	0x63d
 1488 03aa 02       		.byte	0x2
 1489 03ab 23       		.byte	0x23
 1490 03ac 00       		.uleb128 0
 1491 03ad 08       		.uleb128 0x8
 1492 03ae 7E050000 		.4byte	.LASF59
 1493 03b2 02       		.byte	0x2
 1494 03b3 7E01     		.2byte	0x17e
 1495 03b5 3D060000 		.4byte	0x63d
 1496 03b9 02       		.byte	0x2
 1497 03ba 23       		.byte	0x23
 1498 03bb 04       		.uleb128 0x4
 1499 03bc 08       		.uleb128 0x8
 1500 03bd 70020000 		.4byte	.LASF60
 1501 03c1 02       		.byte	0x2
 1502 03c2 8001     		.2byte	0x180
 1503 03c4 FE000000 		.4byte	0xfe
 1504 03c8 02       		.byte	0x2
 1505 03c9 23       		.byte	0x23
 1506 03ca 08       		.uleb128 0x8
 1507 03cb 08       		.uleb128 0x8
 1508 03cc 8C020000 		.4byte	.LASF65
 1509 03d0 02       		.byte	0x2
 1510 03d1 8801     		.2byte	0x188
 1511 03d3 FE000000 		.4byte	0xfe
 1512 03d7 02       		.byte	0x2
 1513 03d8 23       		.byte	0x23
 1514 03d9 0A       		.uleb128 0xa
 1515 03da 00       		.byte	0
 1516 03db 04       		.uleb128 0x4
 1517 03dc E4020000 		.4byte	.LASF66
 1518 03e0 06       		.byte	0x6
 1519 03e1 6B       		.byte	0x6b
 1520 03e2 E6030000 		.4byte	0x3e6
 1521 03e6 0A       		.uleb128 0xa
 1522 03e7 4C010000 		.4byte	.LASF67
 1523 03eb 04       		.byte	0x4
 1524 03ec 02       		.byte	0x2
 1525 03ed A201     		.2byte	0x1a2
 1526 03ef 03040000 		.4byte	0x403
 1527 03f3 08       		.uleb128 0x8
 1528 03f4 85030000 		.4byte	.LASF68
 1529 03f8 02       		.byte	0x2
ARM GAS  /tmp/ccHz812R.s 			page 28


 1530 03f9 AA01     		.2byte	0x1aa
 1531 03fb 43060000 		.4byte	0x643
 1532 03ff 02       		.byte	0x2
 1533 0400 23       		.byte	0x23
 1534 0401 00       		.uleb128 0
 1535 0402 00       		.byte	0
 1536 0403 04       		.uleb128 0x4
 1537 0404 18050000 		.4byte	.LASF69
 1538 0408 06       		.byte	0x6
 1539 0409 70       		.byte	0x70
 1540 040a 0E040000 		.4byte	0x40e
 1541 040e 0E       		.uleb128 0xe
 1542 040f 2F040000 		.4byte	.LASF70
 1543 0413 5001     		.2byte	0x150
 1544 0415 02       		.byte	0x2
 1545 0416 C201     		.2byte	0x1c2
 1546 0418 76040000 		.4byte	0x476
 1547 041c 08       		.uleb128 0x8
 1548 041d 5D040000 		.4byte	.LASF71
 1549 0421 02       		.byte	0x2
 1550 0422 C601     		.2byte	0x1c6
 1551 0424 90020000 		.4byte	0x290
 1552 0428 02       		.byte	0x2
 1553 0429 23       		.byte	0x23
 1554 042a 00       		.uleb128 0
 1555 042b 08       		.uleb128 0x8
 1556 042c 01010000 		.4byte	.LASF72
 1557 0430 02       		.byte	0x2
 1558 0431 CA01     		.2byte	0x1ca
 1559 0433 86030000 		.4byte	0x386
 1560 0437 02       		.byte	0x2
 1561 0438 23       		.byte	0x23
 1562 0439 1C       		.uleb128 0x1c
 1563 043a 07       		.uleb128 0x7
 1564 043b 64626700 		.ascii	"dbg\000"
 1565 043f 02       		.byte	0x2
 1566 0440 CE01     		.2byte	0x1ce
 1567 0442 DB030000 		.4byte	0x3db
 1568 0446 02       		.byte	0x2
 1569 0447 23       		.byte	0x23
 1570 0448 28       		.uleb128 0x28
 1571 0449 08       		.uleb128 0x8
 1572 044a B1030000 		.4byte	.LASF73
 1573 044e 02       		.byte	0x2
 1574 044f D201     		.2byte	0x1d2
 1575 0451 09010000 		.4byte	0x109
 1576 0455 02       		.byte	0x2
 1577 0456 23       		.byte	0x23
 1578 0457 2C       		.uleb128 0x2c
 1579 0458 07       		.uleb128 0x7
 1580 0459 746D00   		.ascii	"tm\000"
 1581 045c 02       		.byte	0x2
 1582 045d D701     		.2byte	0x1d7
 1583 045f 51050000 		.4byte	0x551
 1584 0463 02       		.byte	0x2
 1585 0464 23       		.byte	0x23
 1586 0465 70       		.uleb128 0x70
ARM GAS  /tmp/ccHz812R.s 			page 29


 1587 0466 08       		.uleb128 0x8
 1588 0467 16010000 		.4byte	.LASF74
 1589 046b 02       		.byte	0x2
 1590 046c E301     		.2byte	0x1e3
 1591 046e 48060000 		.4byte	0x648
 1592 0472 02       		.byte	0x2
 1593 0473 23       		.byte	0x23
 1594 0474 78       		.uleb128 0x78
 1595 0475 00       		.byte	0
 1596 0476 04       		.uleb128 0x4
 1597 0477 63000000 		.4byte	.LASF75
 1598 047b 07       		.byte	0x7
 1599 047c 65       		.byte	0x65
 1600 047d 20030000 		.4byte	0x320
 1601 0481 04       		.uleb128 0x4
 1602 0482 56050000 		.4byte	.LASF76
 1603 0486 07       		.byte	0x7
 1604 0487 6D       		.byte	0x6d
 1605 0488 94000000 		.4byte	0x94
 1606 048c 05       		.uleb128 0x5
 1607 048d 23030000 		.4byte	.LASF77
 1608 0491 04       		.byte	0x4
 1609 0492 07       		.byte	0x7
 1610 0493 89       		.byte	0x89
 1611 0494 A7040000 		.4byte	0x4a7
 1612 0498 0F       		.uleb128 0xf
 1613 0499 72313300 		.ascii	"r13\000"
 1614 049d 07       		.byte	0x7
 1615 049e 8A       		.byte	0x8a
 1616 049f 34050000 		.4byte	0x534
 1617 04a3 02       		.byte	0x2
 1618 04a4 23       		.byte	0x23
 1619 04a5 00       		.uleb128 0
 1620 04a6 00       		.byte	0
 1621 04a7 05       		.uleb128 0x5
 1622 04a8 16040000 		.4byte	.LASF78
 1623 04ac 24       		.byte	0x24
 1624 04ad 08       		.byte	0x8
 1625 04ae FD       		.byte	0xfd
 1626 04af 34050000 		.4byte	0x534
 1627 04b3 07       		.uleb128 0x7
 1628 04b4 723400   		.ascii	"r4\000"
 1629 04b7 08       		.byte	0x8
 1630 04b8 1001     		.2byte	0x110
 1631 04ba 76040000 		.4byte	0x476
 1632 04be 02       		.byte	0x2
 1633 04bf 23       		.byte	0x23
 1634 04c0 00       		.uleb128 0
 1635 04c1 07       		.uleb128 0x7
 1636 04c2 723500   		.ascii	"r5\000"
 1637 04c5 08       		.byte	0x8
 1638 04c6 1101     		.2byte	0x111
 1639 04c8 76040000 		.4byte	0x476
 1640 04cc 02       		.byte	0x2
 1641 04cd 23       		.byte	0x23
 1642 04ce 04       		.uleb128 0x4
 1643 04cf 07       		.uleb128 0x7
ARM GAS  /tmp/ccHz812R.s 			page 30


 1644 04d0 723600   		.ascii	"r6\000"
 1645 04d3 08       		.byte	0x8
 1646 04d4 1201     		.2byte	0x112
 1647 04d6 76040000 		.4byte	0x476
 1648 04da 02       		.byte	0x2
 1649 04db 23       		.byte	0x23
 1650 04dc 08       		.uleb128 0x8
 1651 04dd 07       		.uleb128 0x7
 1652 04de 723700   		.ascii	"r7\000"
 1653 04e1 08       		.byte	0x8
 1654 04e2 1301     		.2byte	0x113
 1655 04e4 76040000 		.4byte	0x476
 1656 04e8 02       		.byte	0x2
 1657 04e9 23       		.byte	0x23
 1658 04ea 0C       		.uleb128 0xc
 1659 04eb 07       		.uleb128 0x7
 1660 04ec 723800   		.ascii	"r8\000"
 1661 04ef 08       		.byte	0x8
 1662 04f0 1401     		.2byte	0x114
 1663 04f2 76040000 		.4byte	0x476
 1664 04f6 02       		.byte	0x2
 1665 04f7 23       		.byte	0x23
 1666 04f8 10       		.uleb128 0x10
 1667 04f9 07       		.uleb128 0x7
 1668 04fa 723900   		.ascii	"r9\000"
 1669 04fd 08       		.byte	0x8
 1670 04fe 1501     		.2byte	0x115
 1671 0500 76040000 		.4byte	0x476
 1672 0504 02       		.byte	0x2
 1673 0505 23       		.byte	0x23
 1674 0506 14       		.uleb128 0x14
 1675 0507 07       		.uleb128 0x7
 1676 0508 72313000 		.ascii	"r10\000"
 1677 050c 08       		.byte	0x8
 1678 050d 1601     		.2byte	0x116
 1679 050f 76040000 		.4byte	0x476
 1680 0513 02       		.byte	0x2
 1681 0514 23       		.byte	0x23
 1682 0515 18       		.uleb128 0x18
 1683 0516 07       		.uleb128 0x7
 1684 0517 72313100 		.ascii	"r11\000"
 1685 051b 08       		.byte	0x8
 1686 051c 1701     		.2byte	0x117
 1687 051e 76040000 		.4byte	0x476
 1688 0522 02       		.byte	0x2
 1689 0523 23       		.byte	0x23
 1690 0524 1C       		.uleb128 0x1c
 1691 0525 07       		.uleb128 0x7
 1692 0526 6C7200   		.ascii	"lr\000"
 1693 0529 08       		.byte	0x8
 1694 052a 1801     		.2byte	0x118
 1695 052c 76040000 		.4byte	0x476
 1696 0530 02       		.byte	0x2
 1697 0531 23       		.byte	0x23
 1698 0532 20       		.uleb128 0x20
 1699 0533 00       		.byte	0
 1700 0534 09       		.uleb128 0x9
ARM GAS  /tmp/ccHz812R.s 			page 31


 1701 0535 04       		.byte	0x4
 1702 0536 A7040000 		.4byte	0x4a7
 1703 053a 10       		.uleb128 0x10
 1704 053b 04       		.byte	0x4
 1705 053c 09       		.byte	0x9
 1706 053d 38       		.byte	0x38
 1707 053e 51050000 		.4byte	0x551
 1708 0542 06       		.uleb128 0x6
 1709 0543 28020000 		.4byte	.LASF79
 1710 0547 09       		.byte	0x9
 1711 0548 3C       		.byte	0x3c
 1712 0549 A6000000 		.4byte	0xa6
 1713 054d 02       		.byte	0x2
 1714 054e 23       		.byte	0x23
 1715 054f 00       		.uleb128 0
 1716 0550 00       		.byte	0
 1717 0551 04       		.uleb128 0x4
 1718 0552 31000000 		.4byte	.LASF80
 1719 0556 09       		.byte	0x9
 1720 0557 3D       		.byte	0x3d
 1721 0558 3A050000 		.4byte	0x53a
 1722 055c 11       		.uleb128 0x11
 1723 055d 04       		.byte	0x4
 1724 055e 02       		.byte	0x2
 1725 055f FA       		.byte	0xfa
 1726 0560 B9050000 		.4byte	0x5b9
 1727 0564 12       		.uleb128 0x12
 1728 0565 21020000 		.4byte	.LASF81
 1729 0569 02       		.byte	0x2
 1730 056a 0101     		.2byte	0x101
 1731 056c DD000000 		.4byte	0xdd
 1732 0570 12       		.uleb128 0x12
 1733 0571 86050000 		.4byte	.LASF82
 1734 0575 02       		.byte	0x2
 1735 0576 0801     		.2byte	0x108
 1736 0578 DD000000 		.4byte	0xdd
 1737 057c 12       		.uleb128 0x12
 1738 057d F0000000 		.4byte	.LASF83
 1739 0581 02       		.byte	0x2
 1740 0582 0F01     		.2byte	0x10f
 1741 0584 20030000 		.4byte	0x320
 1742 0588 12       		.uleb128 0x12
 1743 0589 24050000 		.4byte	.LASF84
 1744 058d 02       		.byte	0x2
 1745 058e 1601     		.2byte	0x116
 1746 0590 B9050000 		.4byte	0x5b9
 1747 0594 12       		.uleb128 0x12
 1748 0595 BF040000 		.4byte	.LASF85
 1749 0599 02       		.byte	0x2
 1750 059a 1E01     		.2byte	0x11e
 1751 059c E8050000 		.4byte	0x5e8
 1752 05a0 12       		.uleb128 0x12
 1753 05a1 2A000000 		.4byte	.LASF86
 1754 05a5 02       		.byte	0x2
 1755 05a6 2701     		.2byte	0x127
 1756 05a8 25060000 		.4byte	0x625
 1757 05ac 12       		.uleb128 0x12
ARM GAS  /tmp/ccHz812R.s 			page 32


 1758 05ad 25010000 		.4byte	.LASF87
 1759 05b1 02       		.byte	0x2
 1760 05b2 2F01     		.2byte	0x12f
 1761 05b4 E8000000 		.4byte	0xe8
 1762 05b8 00       		.byte	0
 1763 05b9 09       		.uleb128 0x9
 1764 05ba 04       		.byte	0x4
 1765 05bb 25020000 		.4byte	0x225
 1766 05bf 05       		.uleb128 0x5
 1767 05c0 8C010000 		.4byte	.LASF88
 1768 05c4 0C       		.byte	0xc
 1769 05c5 0A       		.byte	0xa
 1770 05c6 34       		.byte	0x34
 1771 05c7 E8050000 		.4byte	0x5e8
 1772 05cb 06       		.uleb128 0x6
 1773 05cc 85000000 		.4byte	.LASF89
 1774 05d0 0A       		.byte	0xa
 1775 05d1 35       		.byte	0x35
 1776 05d2 5C020000 		.4byte	0x25c
 1777 05d6 02       		.byte	0x2
 1778 05d7 23       		.byte	0x23
 1779 05d8 00       		.uleb128 0
 1780 05d9 06       		.uleb128 0x6
 1781 05da 46010000 		.4byte	.LASF90
 1782 05de 0A       		.byte	0xa
 1783 05df 37       		.byte	0x37
 1784 05e0 F3000000 		.4byte	0xf3
 1785 05e4 02       		.byte	0x2
 1786 05e5 23       		.byte	0x23
 1787 05e6 08       		.uleb128 0x8
 1788 05e7 00       		.byte	0
 1789 05e8 09       		.uleb128 0x9
 1790 05e9 04       		.byte	0x4
 1791 05ea BF050000 		.4byte	0x5bf
 1792 05ee 05       		.uleb128 0x5
 1793 05ef 44020000 		.4byte	.LASF91
 1794 05f3 10       		.byte	0x10
 1795 05f4 0B       		.byte	0xb
 1796 05f5 39       		.byte	0x39
 1797 05f6 25060000 		.4byte	0x625
 1798 05fa 06       		.uleb128 0x6
 1799 05fb 05040000 		.4byte	.LASF92
 1800 05ff 0B       		.byte	0xb
 1801 0600 3A       		.byte	0x3a
 1802 0601 5C020000 		.4byte	0x25c
 1803 0605 02       		.byte	0x2
 1804 0606 23       		.byte	0x23
 1805 0607 00       		.uleb128 0
 1806 0608 06       		.uleb128 0x6
 1807 0609 7D000000 		.4byte	.LASF93
 1808 060d 0B       		.byte	0xb
 1809 060e 3C       		.byte	0x3c
 1810 060f 30020000 		.4byte	0x230
 1811 0613 02       		.byte	0x2
 1812 0614 23       		.byte	0x23
 1813 0615 08       		.uleb128 0x8
 1814 0616 06       		.uleb128 0x6
ARM GAS  /tmp/ccHz812R.s 			page 33


 1815 0617 2A050000 		.4byte	.LASF94
 1816 061b 0B       		.byte	0xb
 1817 061c 3E       		.byte	0x3e
 1818 061d 63060000 		.4byte	0x663
 1819 0621 02       		.byte	0x2
 1820 0622 23       		.byte	0x23
 1821 0623 0C       		.uleb128 0xc
 1822 0624 00       		.byte	0
 1823 0625 09       		.uleb128 0x9
 1824 0626 04       		.byte	0x4
 1825 0627 EE050000 		.4byte	0x5ee
 1826 062b 09       		.uleb128 0x9
 1827 062c 04       		.byte	0x4
 1828 062d 31060000 		.4byte	0x631
 1829 0631 13       		.uleb128 0x13
 1830 0632 36060000 		.4byte	0x636
 1831 0636 03       		.uleb128 0x3
 1832 0637 01       		.byte	0x1
 1833 0638 08       		.byte	0x8
 1834 0639 4C000000 		.4byte	.LASF95
 1835 063d 09       		.uleb128 0x9
 1836 063e 04       		.byte	0x4
 1837 063f 22030000 		.4byte	0x322
 1838 0643 14       		.uleb128 0x14
 1839 0644 2B060000 		.4byte	0x62b
 1840 0648 15       		.uleb128 0x15
 1841 0649 81040000 		.4byte	0x481
 1842 064d 58060000 		.4byte	0x658
 1843 0651 16       		.uleb128 0x16
 1844 0652 30000000 		.4byte	0x30
 1845 0656 1A       		.byte	0x1a
 1846 0657 00       		.byte	0
 1847 0658 04       		.uleb128 0x4
 1848 0659 D2040000 		.4byte	.LASF96
 1849 065d 0B       		.byte	0xb
 1850 065e 34       		.byte	0x34
 1851 065f EE050000 		.4byte	0x5ee
 1852 0663 09       		.uleb128 0x9
 1853 0664 04       		.byte	0x4
 1854 0665 58060000 		.4byte	0x658
 1855 0669 03       		.uleb128 0x3
 1856 066a 01       		.byte	0x1
 1857 066b 02       		.byte	0x2
 1858 066c 3E020000 		.4byte	.LASF97
 1859 0670 17       		.uleb128 0x17
 1860 0671 39040000 		.4byte	.LASF101
 1861 0675 03       		.byte	0x3
 1862 0676 2202     		.2byte	0x222
 1863 0678 01       		.byte	0x1
 1864 0679 03       		.byte	0x3
 1865 067a 8B060000 		.4byte	0x68b
 1866 067e 18       		.uleb128 0x18
 1867 067f FB010000 		.4byte	.LASF100
 1868 0683 03       		.byte	0x3
 1869 0684 2202     		.2byte	0x222
 1870 0686 7B000000 		.4byte	0x7b
 1871 068a 00       		.byte	0
ARM GAS  /tmp/ccHz812R.s 			page 34


 1872 068b 19       		.uleb128 0x19
 1873 068c F7000000 		.4byte	.LASF98
 1874 0690 08       		.byte	0x8
 1875 0691 C801     		.2byte	0x1c8
 1876 0693 01       		.byte	0x1
 1877 0694 03       		.byte	0x3
 1878 0695 19       		.uleb128 0x19
 1879 0696 72050000 		.4byte	.LASF99
 1880 069a 08       		.byte	0x8
 1881 069b E001     		.2byte	0x1e0
 1882 069d 01       		.byte	0x1
 1883 069e 03       		.byte	0x3
 1884 069f 1A       		.uleb128 0x1a
 1885 06a0 98020000 		.4byte	.LASF103
 1886 06a4 02       		.byte	0x2
 1887 06a5 7502     		.2byte	0x275
 1888 06a7 01       		.byte	0x1
 1889 06a8 69060000 		.4byte	0x669
 1890 06ac 03       		.byte	0x3
 1891 06ad BE060000 		.4byte	0x6be
 1892 06b1 1B       		.uleb128 0x1b
 1893 06b2 74717000 		.ascii	"tqp\000"
 1894 06b6 02       		.byte	0x2
 1895 06b7 7502     		.2byte	0x275
 1896 06b9 BE060000 		.4byte	0x6be
 1897 06bd 00       		.byte	0
 1898 06be 09       		.uleb128 0x9
 1899 06bf 04       		.byte	0x4
 1900 06c0 C4060000 		.4byte	0x6c4
 1901 06c4 13       		.uleb128 0x13
 1902 06c5 5C020000 		.4byte	0x25c
 1903 06c9 17       		.uleb128 0x17
 1904 06ca DA040000 		.4byte	.LASF102
 1905 06ce 02       		.byte	0x2
 1906 06cf 5A02     		.2byte	0x25a
 1907 06d1 01       		.byte	0x1
 1908 06d2 03       		.byte	0x3
 1909 06d3 E4060000 		.4byte	0x6e4
 1910 06d7 1B       		.uleb128 0x1b
 1911 06d8 74717000 		.ascii	"tqp\000"
 1912 06dc 02       		.byte	0x2
 1913 06dd 5A02     		.2byte	0x25a
 1914 06df E4060000 		.4byte	0x6e4
 1915 06e3 00       		.byte	0
 1916 06e4 09       		.uleb128 0x9
 1917 06e5 04       		.byte	0x4
 1918 06e6 5C020000 		.4byte	0x25c
 1919 06ea 1A       		.uleb128 0x1a
 1920 06eb 63040000 		.4byte	.LASF104
 1921 06ef 02       		.byte	0x2
 1922 06f0 B102     		.2byte	0x2b1
 1923 06f2 01       		.byte	0x1
 1924 06f3 30020000 		.4byte	0x230
 1925 06f7 03       		.byte	0x3
 1926 06f8 08070000 		.4byte	0x708
 1927 06fc 1B       		.uleb128 0x1b
 1928 06fd 747000   		.ascii	"tp\000"
ARM GAS  /tmp/ccHz812R.s 			page 35


 1929 0700 02       		.byte	0x2
 1930 0701 B102     		.2byte	0x2b1
 1931 0703 30020000 		.4byte	0x230
 1932 0707 00       		.byte	0
 1933 0708 17       		.uleb128 0x17
 1934 0709 5E020000 		.4byte	.LASF105
 1935 070d 02       		.byte	0x2
 1936 070e 8B02     		.2byte	0x28b
 1937 0710 01       		.byte	0x1
 1938 0711 03       		.byte	0x3
 1939 0712 39070000 		.4byte	0x739
 1940 0716 1B       		.uleb128 0x1b
 1941 0717 747000   		.ascii	"tp\000"
 1942 071a 02       		.byte	0x2
 1943 071b 8B02     		.2byte	0x28b
 1944 071d 30020000 		.4byte	0x230
 1945 0721 1B       		.uleb128 0x1b
 1946 0722 74717000 		.ascii	"tqp\000"
 1947 0726 02       		.byte	0x2
 1948 0727 8B02     		.2byte	0x28b
 1949 0729 E4060000 		.4byte	0x6e4
 1950 072d 1C       		.uleb128 0x1c
 1951 072e 637000   		.ascii	"cp\000"
 1952 0731 02       		.byte	0x2
 1953 0732 8D02     		.2byte	0x28d
 1954 0734 30020000 		.4byte	0x230
 1955 0738 00       		.byte	0
 1956 0739 19       		.uleb128 0x19
 1957 073a 4D020000 		.4byte	.LASF106
 1958 073e 0C       		.byte	0xc
 1959 073f 5A01     		.2byte	0x15a
 1960 0741 01       		.byte	0x1
 1961 0742 03       		.byte	0x3
 1962 0743 17       		.uleb128 0x17
 1963 0744 E7010000 		.4byte	.LASF107
 1964 0748 0C       		.byte	0xc
 1965 0749 6601     		.2byte	0x166
 1966 074b 01       		.byte	0x1
 1967 074c 03       		.byte	0x3
 1968 074d 60070000 		.4byte	0x760
 1969 0751 1D       		.uleb128 0x1d
 1970 0752 61050000 		.4byte	.LASF108
 1971 0756 70070000 		.4byte	0x770
 1972 075a 01       		.byte	0x1
 1973 075b E7010000 		.4byte	.LASF107
 1974 075f 00       		.byte	0
 1975 0760 15       		.uleb128 0x15
 1976 0761 36060000 		.4byte	0x636
 1977 0765 70070000 		.4byte	0x770
 1978 0769 16       		.uleb128 0x16
 1979 076a 30000000 		.4byte	0x30
 1980 076e 0B       		.byte	0xb
 1981 076f 00       		.byte	0
 1982 0770 13       		.uleb128 0x13
 1983 0771 60070000 		.4byte	0x760
 1984 0775 1E       		.uleb128 0x1e
 1985 0776 01       		.byte	0x1
ARM GAS  /tmp/ccHz812R.s 			page 36


 1986 0777 CD030000 		.4byte	.LASF109
 1987 077b 01       		.byte	0x1
 1988 077c 1A01     		.2byte	0x11a
 1989 077e 01       		.byte	0x1
 1990 077f 69060000 		.4byte	0x669
 1991 0783 01       		.byte	0x1
 1992 0784 A2070000 		.4byte	0x7a2
 1993 0788 1B       		.uleb128 0x1b
 1994 0789 6D7000   		.ascii	"mp\000"
 1995 078c 01       		.byte	0x1
 1996 078d 1A01     		.2byte	0x11a
 1997 078f 63060000 		.4byte	0x663
 1998 0793 1D       		.uleb128 0x1d
 1999 0794 61050000 		.4byte	.LASF108
 2000 0798 B2070000 		.4byte	0x7b2
 2001 079c 01       		.byte	0x1
 2002 079d CD030000 		.4byte	.LASF109
 2003 07a1 00       		.byte	0
 2004 07a2 15       		.uleb128 0x15
 2005 07a3 36060000 		.4byte	0x636
 2006 07a7 B2070000 		.4byte	0x7b2
 2007 07ab 16       		.uleb128 0x16
 2008 07ac 30000000 		.4byte	0x30
 2009 07b0 0D       		.byte	0xd
 2010 07b1 00       		.byte	0
 2011 07b2 13       		.uleb128 0x13
 2012 07b3 A2070000 		.4byte	0x7a2
 2013 07b7 1F       		.uleb128 0x1f
 2014 07b8 8F030000 		.4byte	.LASF110
 2015 07bc 0B       		.byte	0xb
 2016 07bd 80       		.byte	0x80
 2017 07be 01       		.byte	0x1
 2018 07bf 69060000 		.4byte	0x669
 2019 07c3 03       		.byte	0x3
 2020 07c4 D3070000 		.4byte	0x7d3
 2021 07c8 20       		.uleb128 0x20
 2022 07c9 6D7000   		.ascii	"mp\000"
 2023 07cc 0B       		.byte	0xb
 2024 07cd 80       		.byte	0x80
 2025 07ce 63060000 		.4byte	0x663
 2026 07d2 00       		.byte	0
 2027 07d3 1A       		.uleb128 0x1a
 2028 07d4 51000000 		.4byte	.LASF111
 2029 07d8 02       		.byte	0x2
 2030 07d9 9F02     		.2byte	0x29f
 2031 07db 01       		.byte	0x1
 2032 07dc 30020000 		.4byte	0x230
 2033 07e0 03       		.byte	0x3
 2034 07e1 FD070000 		.4byte	0x7fd
 2035 07e5 1B       		.uleb128 0x1b
 2036 07e6 74717000 		.ascii	"tqp\000"
 2037 07ea 02       		.byte	0x2
 2038 07eb 9F02     		.2byte	0x29f
 2039 07ed E4060000 		.4byte	0x6e4
 2040 07f1 1C       		.uleb128 0x1c
 2041 07f2 747000   		.ascii	"tp\000"
 2042 07f5 02       		.byte	0x2
ARM GAS  /tmp/ccHz812R.s 			page 37


 2043 07f6 A002     		.2byte	0x2a0
 2044 07f8 30020000 		.4byte	0x230
 2045 07fc 00       		.byte	0
 2046 07fd 21       		.uleb128 0x21
 2047 07fe 01       		.byte	0x1
 2048 07ff C9010000 		.4byte	.LASF112
 2049 0803 01       		.byte	0x1
 2050 0804 67       		.byte	0x67
 2051 0805 01       		.byte	0x1
 2052 0806 00000000 		.4byte	.LFB182
 2053 080a 0A000000 		.4byte	.LFE182
 2054 080e 02       		.byte	0x2
 2055 080f 7D       		.byte	0x7d
 2056 0810 00       		.sleb128 0
 2057 0811 43080000 		.4byte	0x843
 2058 0815 22       		.uleb128 0x22
 2059 0816 6D7000   		.ascii	"mp\000"
 2060 0819 01       		.byte	0x1
 2061 081a 67       		.byte	0x67
 2062 081b 63060000 		.4byte	0x663
 2063 081f 01       		.byte	0x1
 2064 0820 50       		.byte	0x50
 2065 0821 23       		.uleb128 0x23
 2066 0822 61050000 		.4byte	.LASF108
 2067 0826 53080000 		.4byte	0x853
 2068 082a 01       		.byte	0x1
 2069 082b 24       		.uleb128 0x24
 2070 082c C9060000 		.4byte	0x6c9
 2071 0830 02000000 		.4byte	.LBB103
 2072 0834 06000000 		.4byte	.LBE103
 2073 0838 01       		.byte	0x1
 2074 0839 6B       		.byte	0x6b
 2075 083a 25       		.uleb128 0x25
 2076 083b D7060000 		.4byte	0x6d7
 2077 083f 01       		.byte	0x1
 2078 0840 50       		.byte	0x50
 2079 0841 00       		.byte	0
 2080 0842 00       		.byte	0
 2081 0843 15       		.uleb128 0x15
 2082 0844 36060000 		.4byte	0x636
 2083 0848 53080000 		.4byte	0x853
 2084 084c 16       		.uleb128 0x16
 2085 084d 30000000 		.4byte	0x30
 2086 0851 0F       		.byte	0xf
 2087 0852 00       		.byte	0
 2088 0853 13       		.uleb128 0x13
 2089 0854 43080000 		.4byte	0x843
 2090 0858 26       		.uleb128 0x26
 2091 0859 01       		.byte	0x1
 2092 085a 7E040000 		.4byte	.LASF113
 2093 085e 01       		.byte	0x1
 2094 085f 8B       		.byte	0x8b
 2095 0860 01       		.byte	0x1
 2096 0861 00000000 		.4byte	.LFB184
 2097 0865 C2000000 		.4byte	.LFE184
 2098 0869 00000000 		.4byte	.LLST0
 2099 086d A7090000 		.4byte	0x9a7
ARM GAS  /tmp/ccHz812R.s 			page 38


 2100 0871 27       		.uleb128 0x27
 2101 0872 6D7000   		.ascii	"mp\000"
 2102 0875 01       		.byte	0x1
 2103 0876 8B       		.byte	0x8b
 2104 0877 63060000 		.4byte	0x663
 2105 087b 20000000 		.4byte	.LLST1
 2106 087f 28       		.uleb128 0x28
 2107 0880 63747000 		.ascii	"ctp\000"
 2108 0884 01       		.byte	0x1
 2109 0885 8C       		.byte	0x8c
 2110 0886 30020000 		.4byte	0x230
 2111 088a 3E000000 		.4byte	.LLST2
 2112 088e 23       		.uleb128 0x23
 2113 088f 61050000 		.4byte	.LASF108
 2114 0893 B7090000 		.4byte	0x9b7
 2115 0897 01       		.byte	0x1
 2116 0898 29       		.uleb128 0x29
 2117 0899 00000000 		.4byte	.Ldebug_ranges0+0
 2118 089d 28       		.uleb128 0x28
 2119 089e 747000   		.ascii	"tp\000"
 2120 08a1 01       		.byte	0x1
 2121 08a2 A1       		.byte	0xa1
 2122 08a3 30020000 		.4byte	0x230
 2123 08a7 5D000000 		.4byte	.LLST3
 2124 08ab 2A       		.uleb128 0x2a
 2125 08ac 08070000 		.4byte	0x708
 2126 08b0 2C000000 		.4byte	.LBB106
 2127 08b4 18000000 		.4byte	.Ldebug_ranges0+0x18
 2128 08b8 01       		.byte	0x1
 2129 08b9 D4       		.byte	0xd4
 2130 08ba E0080000 		.4byte	0x8e0
 2131 08be 2B       		.uleb128 0x2b
 2132 08bf 21070000 		.4byte	0x721
 2133 08c3 B5000000 		.4byte	.LLST4
 2134 08c7 2B       		.uleb128 0x2b
 2135 08c8 16070000 		.4byte	0x716
 2136 08cc C8000000 		.4byte	.LLST5
 2137 08d0 29       		.uleb128 0x29
 2138 08d1 30000000 		.4byte	.Ldebug_ranges0+0x30
 2139 08d5 2C       		.uleb128 0x2c
 2140 08d6 2D070000 		.4byte	0x72d
 2141 08da DB000000 		.4byte	.LLST6
 2142 08de 00       		.byte	0
 2143 08df 00       		.byte	0
 2144 08e0 2A       		.uleb128 0x2a
 2145 08e1 EA060000 		.4byte	0x6ea
 2146 08e5 50000000 		.4byte	.LBB110
 2147 08e9 48000000 		.4byte	.Ldebug_ranges0+0x48
 2148 08ed 01       		.byte	0x1
 2149 08ee CA       		.byte	0xca
 2150 08ef FD080000 		.4byte	0x8fd
 2151 08f3 2B       		.uleb128 0x2b
 2152 08f4 FC060000 		.4byte	0x6fc
 2153 08f8 F9000000 		.4byte	.LLST7
 2154 08fc 00       		.byte	0
 2155 08fd 2A       		.uleb128 0x2a
 2156 08fe EA060000 		.4byte	0x6ea
ARM GAS  /tmp/ccHz812R.s 			page 39


 2157 0902 62000000 		.4byte	.LBB114
 2158 0906 60000000 		.4byte	.Ldebug_ranges0+0x60
 2159 090a 01       		.byte	0x1
 2160 090b C1       		.byte	0xc1
 2161 090c 1A090000 		.4byte	0x91a
 2162 0910 2B       		.uleb128 0x2b
 2163 0911 FC060000 		.4byte	0x6fc
 2164 0915 17010000 		.4byte	.LLST8
 2165 0919 00       		.byte	0
 2166 091a 2D       		.uleb128 0x2d
 2167 091b 08070000 		.4byte	0x708
 2168 091f 70000000 		.4byte	.LBB120
 2169 0923 88000000 		.4byte	.LBE120
 2170 0927 01       		.byte	0x1
 2171 0928 C1       		.byte	0xc1
 2172 0929 53090000 		.4byte	0x953
 2173 092d 2B       		.uleb128 0x2b
 2174 092e 21070000 		.4byte	0x721
 2175 0932 2A010000 		.4byte	.LLST9
 2176 0936 2B       		.uleb128 0x2b
 2177 0937 16070000 		.4byte	0x716
 2178 093b 3E010000 		.4byte	.LLST10
 2179 093f 2E       		.uleb128 0x2e
 2180 0940 70000000 		.4byte	.LBB121
 2181 0944 88000000 		.4byte	.LBE121
 2182 0948 2C       		.uleb128 0x2c
 2183 0949 2D070000 		.4byte	0x72d
 2184 094d 51010000 		.4byte	.LLST11
 2185 0951 00       		.byte	0
 2186 0952 00       		.byte	0
 2187 0953 2A       		.uleb128 0x2a
 2188 0954 EA060000 		.4byte	0x6ea
 2189 0958 88000000 		.4byte	.LBB122
 2190 095c 80000000 		.4byte	.Ldebug_ranges0+0x80
 2191 0960 01       		.byte	0x1
 2192 0961 AD       		.byte	0xad
 2193 0962 70090000 		.4byte	0x970
 2194 0966 2B       		.uleb128 0x2b
 2195 0967 FC060000 		.4byte	0x6fc
 2196 096b 70010000 		.4byte	.LLST12
 2197 096f 00       		.byte	0
 2198 0970 24       		.uleb128 0x24
 2199 0971 08070000 		.4byte	0x708
 2200 0975 96000000 		.4byte	.LBB128
 2201 0979 AC000000 		.4byte	.LBE128
 2202 097d 01       		.byte	0x1
 2203 097e AD       		.byte	0xad
 2204 097f 2B       		.uleb128 0x2b
 2205 0980 21070000 		.4byte	0x721
 2206 0984 8F010000 		.4byte	.LLST13
 2207 0988 2B       		.uleb128 0x2b
 2208 0989 16070000 		.4byte	0x716
 2209 098d AE010000 		.4byte	.LLST14
 2210 0991 2E       		.uleb128 0x2e
 2211 0992 96000000 		.4byte	.LBB129
 2212 0996 AC000000 		.4byte	.LBE129
 2213 099a 2C       		.uleb128 0x2c
ARM GAS  /tmp/ccHz812R.s 			page 40


 2214 099b 2D070000 		.4byte	0x72d
 2215 099f CD010000 		.4byte	.LLST15
 2216 09a3 00       		.byte	0
 2217 09a4 00       		.byte	0
 2218 09a5 00       		.byte	0
 2219 09a6 00       		.byte	0
 2220 09a7 15       		.uleb128 0x15
 2221 09a8 36060000 		.4byte	0x636
 2222 09ac B7090000 		.4byte	0x9b7
 2223 09b0 16       		.uleb128 0x16
 2224 09b1 30000000 		.4byte	0x30
 2225 09b5 0A       		.byte	0xa
 2226 09b6 00       		.byte	0
 2227 09b7 13       		.uleb128 0x13
 2228 09b8 A7090000 		.4byte	0x9a7
 2229 09bc 26       		.uleb128 0x26
 2230 09bd 01       		.byte	0x1
 2231 09be 42000000 		.4byte	.LASF114
 2232 09c2 01       		.byte	0x1
 2233 09c3 7B       		.byte	0x7b
 2234 09c4 01       		.byte	0x1
 2235 09c5 00000000 		.4byte	.LFB183
 2236 09c9 14000000 		.4byte	.LFE183
 2237 09cd EC010000 		.4byte	.LLST16
 2238 09d1 670A0000 		.4byte	0xa67
 2239 09d5 27       		.uleb128 0x27
 2240 09d6 6D7000   		.ascii	"mp\000"
 2241 09d9 01       		.byte	0x1
 2242 09da 7B       		.byte	0x7b
 2243 09db 63060000 		.4byte	0x663
 2244 09df 0C020000 		.4byte	.LLST17
 2245 09e3 2D       		.uleb128 0x2d
 2246 09e4 39070000 		.4byte	0x739
 2247 09e8 02000000 		.4byte	.LBB131
 2248 09ec 08000000 		.4byte	.LBE131
 2249 09f0 01       		.byte	0x1
 2250 09f1 7D       		.byte	0x7d
 2251 09f2 1F0A0000 		.4byte	0xa1f
 2252 09f6 2F       		.uleb128 0x2f
 2253 09f7 8B060000 		.4byte	0x68b
 2254 09fb 02000000 		.4byte	.LBB132
 2255 09ff 08000000 		.4byte	.LBE132
 2256 0a03 0C       		.byte	0xc
 2257 0a04 5C01     		.2byte	0x15c
 2258 0a06 2F       		.uleb128 0x2f
 2259 0a07 70060000 		.4byte	0x670
 2260 0a0b 02000000 		.4byte	.LBB133
 2261 0a0f 08000000 		.4byte	.LBE133
 2262 0a13 08       		.byte	0x8
 2263 0a14 D001     		.2byte	0x1d0
 2264 0a16 30       		.uleb128 0x30
 2265 0a17 7E060000 		.4byte	0x67e
 2266 0a1b 20       		.byte	0x20
 2267 0a1c 00       		.byte	0
 2268 0a1d 00       		.byte	0
 2269 0a1e 00       		.byte	0
 2270 0a1f 24       		.uleb128 0x24
ARM GAS  /tmp/ccHz812R.s 			page 41


 2271 0a20 43070000 		.4byte	0x743
 2272 0a24 0C000000 		.4byte	.LBB135
 2273 0a28 12000000 		.4byte	.LBE135
 2274 0a2c 01       		.byte	0x1
 2275 0a2d 7F       		.byte	0x7f
 2276 0a2e 2E       		.uleb128 0x2e
 2277 0a2f 0C000000 		.4byte	.LBB136
 2278 0a33 12000000 		.4byte	.LBE136
 2279 0a37 31       		.uleb128 0x31
 2280 0a38 51070000 		.4byte	0x751
 2281 0a3c 2F       		.uleb128 0x2f
 2282 0a3d 95060000 		.4byte	0x695
 2283 0a41 0C000000 		.4byte	.LBB137
 2284 0a45 12000000 		.4byte	.LBE137
 2285 0a49 0C       		.byte	0xc
 2286 0a4a 7301     		.2byte	0x173
 2287 0a4c 2F       		.uleb128 0x2f
 2288 0a4d 70060000 		.4byte	0x670
 2289 0a51 0C000000 		.4byte	.LBB138
 2290 0a55 12000000 		.4byte	.LBE138
 2291 0a59 08       		.byte	0x8
 2292 0a5a E301     		.2byte	0x1e3
 2293 0a5c 30       		.uleb128 0x30
 2294 0a5d 7E060000 		.4byte	0x67e
 2295 0a61 00       		.byte	0
 2296 0a62 00       		.byte	0
 2297 0a63 00       		.byte	0
 2298 0a64 00       		.byte	0
 2299 0a65 00       		.byte	0
 2300 0a66 00       		.byte	0
 2301 0a67 32       		.uleb128 0x32
 2302 0a68 01       		.byte	0x1
 2303 0a69 5C010000 		.4byte	.LASF123
 2304 0a6d 01       		.byte	0x1
 2305 0a6e FF       		.byte	0xff
 2306 0a6f 01       		.byte	0x1
 2307 0a70 69060000 		.4byte	0x669
 2308 0a74 00000000 		.4byte	.LFB185
 2309 0a78 34000000 		.4byte	.LFE185
 2310 0a7c 02       		.byte	0x2
 2311 0a7d 7D       		.byte	0x7d
 2312 0a7e 00       		.sleb128 0
 2313 0a7f 4B0B0000 		.4byte	0xb4b
 2314 0a83 27       		.uleb128 0x27
 2315 0a84 6D7000   		.ascii	"mp\000"
 2316 0a87 01       		.byte	0x1
 2317 0a88 FF       		.byte	0xff
 2318 0a89 63060000 		.4byte	0x663
 2319 0a8d 1F020000 		.4byte	.LLST18
 2320 0a91 33       		.uleb128 0x33
 2321 0a92 6200     		.ascii	"b\000"
 2322 0a94 01       		.byte	0x1
 2323 0a95 0001     		.2byte	0x100
 2324 0a97 69060000 		.4byte	0x669
 2325 0a9b 01       		.byte	0x1
 2326 0a9c 50       		.byte	0x50
 2327 0a9d 34       		.uleb128 0x34
ARM GAS  /tmp/ccHz812R.s 			page 42


 2328 0a9e 39070000 		.4byte	0x739
 2329 0aa2 02000000 		.4byte	.LBB140
 2330 0aa6 08000000 		.4byte	.LBE140
 2331 0aaa 01       		.byte	0x1
 2332 0aab 0201     		.2byte	0x102
 2333 0aad DA0A0000 		.4byte	0xada
 2334 0ab1 2F       		.uleb128 0x2f
 2335 0ab2 8B060000 		.4byte	0x68b
 2336 0ab6 02000000 		.4byte	.LBB141
 2337 0aba 08000000 		.4byte	.LBE141
 2338 0abe 0C       		.byte	0xc
 2339 0abf 5C01     		.2byte	0x15c
 2340 0ac1 2F       		.uleb128 0x2f
 2341 0ac2 70060000 		.4byte	0x670
 2342 0ac6 02000000 		.4byte	.LBB142
 2343 0aca 08000000 		.4byte	.LBE142
 2344 0ace 08       		.byte	0x8
 2345 0acf D001     		.2byte	0x1d0
 2346 0ad1 30       		.uleb128 0x30
 2347 0ad2 7E060000 		.4byte	0x67e
 2348 0ad6 20       		.byte	0x20
 2349 0ad7 00       		.byte	0
 2350 0ad8 00       		.byte	0
 2351 0ad9 00       		.byte	0
 2352 0ada 35       		.uleb128 0x35
 2353 0adb 75070000 		.4byte	0x775
 2354 0adf 08000000 		.4byte	.LBB144
 2355 0ae3 A0000000 		.4byte	.Ldebug_ranges0+0xa0
 2356 0ae7 01       		.byte	0x1
 2357 0ae8 0301     		.2byte	0x103
 2358 0aea 030B0000 		.4byte	0xb03
 2359 0aee 2B       		.uleb128 0x2b
 2360 0aef 88070000 		.4byte	0x788
 2361 0af3 57020000 		.4byte	.LLST19
 2362 0af7 29       		.uleb128 0x29
 2363 0af8 B8000000 		.4byte	.Ldebug_ranges0+0xb8
 2364 0afc 31       		.uleb128 0x31
 2365 0afd 93070000 		.4byte	0x793
 2366 0b01 00       		.byte	0
 2367 0b02 00       		.byte	0
 2368 0b03 36       		.uleb128 0x36
 2369 0b04 43070000 		.4byte	0x743
 2370 0b08 0E000000 		.4byte	.LBB147
 2371 0b0c D0000000 		.4byte	.Ldebug_ranges0+0xd0
 2372 0b10 01       		.byte	0x1
 2373 0b11 0401     		.2byte	0x104
 2374 0b13 29       		.uleb128 0x29
 2375 0b14 E8000000 		.4byte	.Ldebug_ranges0+0xe8
 2376 0b18 31       		.uleb128 0x31
 2377 0b19 51070000 		.4byte	0x751
 2378 0b1d 36       		.uleb128 0x36
 2379 0b1e 95060000 		.4byte	0x695
 2380 0b22 0E000000 		.4byte	.LBB149
 2381 0b26 00010000 		.4byte	.Ldebug_ranges0+0x100
 2382 0b2a 0C       		.byte	0xc
 2383 0b2b 7301     		.2byte	0x173
 2384 0b2d 36       		.uleb128 0x36
ARM GAS  /tmp/ccHz812R.s 			page 43


 2385 0b2e 70060000 		.4byte	0x670
 2386 0b32 0E000000 		.4byte	.LBB150
 2387 0b36 18010000 		.4byte	.Ldebug_ranges0+0x118
 2388 0b3a 08       		.byte	0x8
 2389 0b3b E301     		.2byte	0x1e3
 2390 0b3d 2B       		.uleb128 0x2b
 2391 0b3e 7E060000 		.4byte	0x67e
 2392 0b42 84020000 		.4byte	.LLST20
 2393 0b46 00       		.byte	0
 2394 0b47 00       		.byte	0
 2395 0b48 00       		.byte	0
 2396 0b49 00       		.byte	0
 2397 0b4a 00       		.byte	0
 2398 0b4b 37       		.uleb128 0x37
 2399 0b4c 75070000 		.4byte	0x775
 2400 0b50 00000000 		.4byte	.LFB186
 2401 0b54 20000000 		.4byte	.LFE186
 2402 0b58 02       		.byte	0x2
 2403 0b59 7D       		.byte	0x7d
 2404 0b5a 00       		.sleb128 0
 2405 0b5b 6E0B0000 		.4byte	0xb6e
 2406 0b5f 2B       		.uleb128 0x2b
 2407 0b60 88070000 		.4byte	0x788
 2408 0b64 A4020000 		.4byte	.LLST21
 2409 0b68 31       		.uleb128 0x31
 2410 0b69 93070000 		.4byte	0x793
 2411 0b6d 00       		.byte	0
 2412 0b6e 38       		.uleb128 0x38
 2413 0b6f 01       		.byte	0x1
 2414 0b70 09030000 		.4byte	.LASF115
 2415 0b74 01       		.byte	0x1
 2416 0b75 4301     		.2byte	0x143
 2417 0b77 01       		.byte	0x1
 2418 0b78 00000000 		.4byte	.LFB187
 2419 0b7c 64000000 		.4byte	.LFE187
 2420 0b80 C2020000 		.4byte	.LLST22
 2421 0b84 060D0000 		.4byte	0xd06
 2422 0b88 39       		.uleb128 0x39
 2423 0b89 6D7000   		.ascii	"mp\000"
 2424 0b8c 01       		.byte	0x1
 2425 0b8d 4301     		.2byte	0x143
 2426 0b8f 63060000 		.4byte	0x663
 2427 0b93 E2020000 		.4byte	.LLST23
 2428 0b97 3A       		.uleb128 0x3a
 2429 0b98 63747000 		.ascii	"ctp\000"
 2430 0b9c 01       		.byte	0x1
 2431 0b9d 4401     		.2byte	0x144
 2432 0b9f 30020000 		.4byte	0x230
 2433 0ba3 0B030000 		.4byte	.LLST24
 2434 0ba7 3A       		.uleb128 0x3a
 2435 0ba8 6C6D7000 		.ascii	"lmp\000"
 2436 0bac 01       		.byte	0x1
 2437 0bad 4501     		.2byte	0x145
 2438 0baf 63060000 		.4byte	0x663
 2439 0bb3 2A030000 		.4byte	.LLST25
 2440 0bb7 23       		.uleb128 0x23
 2441 0bb8 61050000 		.4byte	.LASF108
ARM GAS  /tmp/ccHz812R.s 			page 44


 2442 0bbc 060D0000 		.4byte	0xd06
 2443 0bc0 01       		.byte	0x1
 2444 0bc1 35       		.uleb128 0x35
 2445 0bc2 39070000 		.4byte	0x739
 2446 0bc6 0A000000 		.4byte	.LBB158
 2447 0bca 30010000 		.4byte	.Ldebug_ranges0+0x130
 2448 0bce 01       		.byte	0x1
 2449 0bcf 4901     		.2byte	0x149
 2450 0bd1 FE0B0000 		.4byte	0xbfe
 2451 0bd5 36       		.uleb128 0x36
 2452 0bd6 8B060000 		.4byte	0x68b
 2453 0bda 0A000000 		.4byte	.LBB159
 2454 0bde 48010000 		.4byte	.Ldebug_ranges0+0x148
 2455 0be2 0C       		.byte	0xc
 2456 0be3 5C01     		.2byte	0x15c
 2457 0be5 36       		.uleb128 0x36
 2458 0be6 70060000 		.4byte	0x670
 2459 0bea 0A000000 		.4byte	.LBB160
 2460 0bee 60010000 		.4byte	.Ldebug_ranges0+0x160
 2461 0bf2 08       		.byte	0x8
 2462 0bf3 D001     		.2byte	0x1d0
 2463 0bf5 30       		.uleb128 0x30
 2464 0bf6 7E060000 		.4byte	0x67e
 2465 0bfa 20       		.byte	0x20
 2466 0bfb 00       		.byte	0
 2467 0bfc 00       		.byte	0
 2468 0bfd 00       		.byte	0
 2469 0bfe 34       		.uleb128 0x34
 2470 0bff B7070000 		.4byte	0x7b7
 2471 0c03 14000000 		.4byte	.LBB166
 2472 0c07 16000000 		.4byte	.LBE166
 2473 0c0b 01       		.byte	0x1
 2474 0c0c 5B01     		.2byte	0x15b
 2475 0c0e 350C0000 		.4byte	0xc35
 2476 0c12 2B       		.uleb128 0x2b
 2477 0c13 C8070000 		.4byte	0x7c8
 2478 0c17 49030000 		.4byte	.LLST26
 2479 0c1b 24       		.uleb128 0x24
 2480 0c1c 9F060000 		.4byte	0x69f
 2481 0c20 14000000 		.4byte	.LBB168
 2482 0c24 16000000 		.4byte	.LBE168
 2483 0c28 0B       		.byte	0xb
 2484 0c29 84       		.byte	0x84
 2485 0c2a 2B       		.uleb128 0x2b
 2486 0c2b B1060000 		.4byte	0x6b1
 2487 0c2f 49030000 		.4byte	.LLST26
 2488 0c33 00       		.byte	0
 2489 0c34 00       		.byte	0
 2490 0c35 3B       		.uleb128 0x3b
 2491 0c36 1E000000 		.4byte	.LBB170
 2492 0c3a 50000000 		.4byte	.LBE170
 2493 0c3e BE0C0000 		.4byte	0xcbe
 2494 0c42 1C       		.uleb128 0x1c
 2495 0c43 747000   		.ascii	"tp\000"
 2496 0c46 01       		.byte	0x1
 2497 0c47 5C01     		.2byte	0x15c
 2498 0c49 30020000 		.4byte	0x230
ARM GAS  /tmp/ccHz812R.s 			page 45


 2499 0c4d 3C       		.uleb128 0x3c
 2500 0c4e D9010000 		.4byte	.LASF116
 2501 0c52 01       		.byte	0x1
 2502 0c53 6001     		.2byte	0x160
 2503 0c55 D2000000 		.4byte	0xd2
 2504 0c59 67030000 		.4byte	.LLST28
 2505 0c5d 34       		.uleb128 0x34
 2506 0c5e B7070000 		.4byte	0x7b7
 2507 0c62 22000000 		.4byte	.LBB171
 2508 0c66 24000000 		.4byte	.LBE171
 2509 0c6a 01       		.byte	0x1
 2510 0c6b 6601     		.2byte	0x166
 2511 0c6d 940C0000 		.4byte	0xc94
 2512 0c71 2B       		.uleb128 0x2b
 2513 0c72 C8070000 		.4byte	0x7c8
 2514 0c76 7A030000 		.4byte	.LLST29
 2515 0c7a 24       		.uleb128 0x24
 2516 0c7b 9F060000 		.4byte	0x69f
 2517 0c7f 22000000 		.4byte	.LBB173
 2518 0c83 24000000 		.4byte	.LBE173
 2519 0c87 0B       		.byte	0xb
 2520 0c88 84       		.byte	0x84
 2521 0c89 2B       		.uleb128 0x2b
 2522 0c8a B1060000 		.4byte	0x6b1
 2523 0c8e 7A030000 		.4byte	.LLST29
 2524 0c92 00       		.byte	0
 2525 0c93 00       		.byte	0
 2526 0c94 36       		.uleb128 0x36
 2527 0c95 D3070000 		.4byte	0x7d3
 2528 0c99 36000000 		.4byte	.LBB175
 2529 0c9d 78010000 		.4byte	.Ldebug_ranges0+0x178
 2530 0ca1 01       		.byte	0x1
 2531 0ca2 7601     		.2byte	0x176
 2532 0ca4 2B       		.uleb128 0x2b
 2533 0ca5 E5070000 		.4byte	0x7e5
 2534 0ca9 8D030000 		.4byte	.LLST31
 2535 0cad 29       		.uleb128 0x29
 2536 0cae 98010000 		.4byte	.Ldebug_ranges0+0x198
 2537 0cb2 2C       		.uleb128 0x2c
 2538 0cb3 F1070000 		.4byte	0x7f1
 2539 0cb7 A0030000 		.4byte	.LLST32
 2540 0cbb 00       		.byte	0
 2541 0cbc 00       		.byte	0
 2542 0cbd 00       		.byte	0
 2543 0cbe 36       		.uleb128 0x36
 2544 0cbf 43070000 		.4byte	0x743
 2545 0cc3 50000000 		.4byte	.LBB181
 2546 0cc7 B8010000 		.4byte	.Ldebug_ranges0+0x1b8
 2547 0ccb 01       		.byte	0x1
 2548 0ccc 8901     		.2byte	0x189
 2549 0cce 29       		.uleb128 0x29
 2550 0ccf D0010000 		.4byte	.Ldebug_ranges0+0x1d0
 2551 0cd3 31       		.uleb128 0x31
 2552 0cd4 51070000 		.4byte	0x751
 2553 0cd8 36       		.uleb128 0x36
 2554 0cd9 95060000 		.4byte	0x695
 2555 0cdd 50000000 		.4byte	.LBB183
ARM GAS  /tmp/ccHz812R.s 			page 46


 2556 0ce1 E8010000 		.4byte	.Ldebug_ranges0+0x1e8
 2557 0ce5 0C       		.byte	0xc
 2558 0ce6 7301     		.2byte	0x173
 2559 0ce8 36       		.uleb128 0x36
 2560 0ce9 70060000 		.4byte	0x670
 2561 0ced 50000000 		.4byte	.LBB184
 2562 0cf1 00020000 		.4byte	.Ldebug_ranges0+0x200
 2563 0cf5 08       		.byte	0x8
 2564 0cf6 E301     		.2byte	0x1e3
 2565 0cf8 2B       		.uleb128 0x2b
 2566 0cf9 7E060000 		.4byte	0x67e
 2567 0cfd B4030000 		.4byte	.LLST33
 2568 0d01 00       		.byte	0
 2569 0d02 00       		.byte	0
 2570 0d03 00       		.byte	0
 2571 0d04 00       		.byte	0
 2572 0d05 00       		.byte	0
 2573 0d06 13       		.uleb128 0x13
 2574 0d07 60070000 		.4byte	0x760
 2575 0d0b 38       		.uleb128 0x38
 2576 0d0c 01       		.byte	0x1
 2577 0d0d 71040000 		.4byte	.LASF117
 2578 0d11 01       		.byte	0x1
 2579 0d12 9A01     		.2byte	0x19a
 2580 0d14 01       		.byte	0x1
 2581 0d15 00000000 		.4byte	.LFB188
 2582 0d19 50000000 		.4byte	.LFE188
 2583 0d1d D4030000 		.4byte	.LLST34
 2584 0d21 170E0000 		.4byte	0xe17
 2585 0d25 39       		.uleb128 0x39
 2586 0d26 6D7000   		.ascii	"mp\000"
 2587 0d29 01       		.byte	0x1
 2588 0d2a 9A01     		.2byte	0x19a
 2589 0d2c 63060000 		.4byte	0x663
 2590 0d30 F4030000 		.4byte	.LLST35
 2591 0d34 3A       		.uleb128 0x3a
 2592 0d35 63747000 		.ascii	"ctp\000"
 2593 0d39 01       		.byte	0x1
 2594 0d3a 9B01     		.2byte	0x19b
 2595 0d3c 30020000 		.4byte	0x230
 2596 0d40 1D040000 		.4byte	.LLST36
 2597 0d44 3A       		.uleb128 0x3a
 2598 0d45 6C6D7000 		.ascii	"lmp\000"
 2599 0d49 01       		.byte	0x1
 2600 0d4a 9C01     		.2byte	0x19c
 2601 0d4c 63060000 		.4byte	0x663
 2602 0d50 3C040000 		.4byte	.LLST37
 2603 0d54 23       		.uleb128 0x23
 2604 0d55 61050000 		.4byte	.LASF108
 2605 0d59 270E0000 		.4byte	0xe27
 2606 0d5d 01       		.byte	0x1
 2607 0d5e 34       		.uleb128 0x34
 2608 0d5f B7070000 		.4byte	0x7b7
 2609 0d63 0C000000 		.4byte	.LBB191
 2610 0d67 0E000000 		.4byte	.LBE191
 2611 0d6b 01       		.byte	0x1
 2612 0d6c B101     		.2byte	0x1b1
ARM GAS  /tmp/ccHz812R.s 			page 47


 2613 0d6e 950D0000 		.4byte	0xd95
 2614 0d72 2B       		.uleb128 0x2b
 2615 0d73 C8070000 		.4byte	0x7c8
 2616 0d77 5B040000 		.4byte	.LLST38
 2617 0d7b 24       		.uleb128 0x24
 2618 0d7c 9F060000 		.4byte	0x69f
 2619 0d80 0C000000 		.4byte	.LBB193
 2620 0d84 0E000000 		.4byte	.LBE193
 2621 0d88 0B       		.byte	0xb
 2622 0d89 84       		.byte	0x84
 2623 0d8a 2B       		.uleb128 0x2b
 2624 0d8b B1060000 		.4byte	0x6b1
 2625 0d8f 5B040000 		.4byte	.LLST38
 2626 0d93 00       		.byte	0
 2627 0d94 00       		.byte	0
 2628 0d95 29       		.uleb128 0x29
 2629 0d96 18020000 		.4byte	.Ldebug_ranges0+0x218
 2630 0d9a 1C       		.uleb128 0x1c
 2631 0d9b 747000   		.ascii	"tp\000"
 2632 0d9e 01       		.byte	0x1
 2633 0d9f B201     		.2byte	0x1b2
 2634 0da1 30020000 		.4byte	0x230
 2635 0da5 3C       		.uleb128 0x3c
 2636 0da6 D9010000 		.4byte	.LASF116
 2637 0daa 01       		.byte	0x1
 2638 0dab B601     		.2byte	0x1b6
 2639 0dad D2000000 		.4byte	0xd2
 2640 0db1 84040000 		.4byte	.LLST40
 2641 0db5 34       		.uleb128 0x34
 2642 0db6 B7070000 		.4byte	0x7b7
 2643 0dba 1C000000 		.4byte	.LBB196
 2644 0dbe 1E000000 		.4byte	.LBE196
 2645 0dc2 01       		.byte	0x1
 2646 0dc3 BC01     		.2byte	0x1bc
 2647 0dc5 EC0D0000 		.4byte	0xdec
 2648 0dc9 2B       		.uleb128 0x2b
 2649 0dca C8070000 		.4byte	0x7c8
 2650 0dce 97040000 		.4byte	.LLST41
 2651 0dd2 24       		.uleb128 0x24
 2652 0dd3 9F060000 		.4byte	0x69f
 2653 0dd7 1C000000 		.4byte	.LBB198
 2654 0ddb 1E000000 		.4byte	.LBE198
 2655 0ddf 0B       		.byte	0xb
 2656 0de0 84       		.byte	0x84
 2657 0de1 2B       		.uleb128 0x2b
 2658 0de2 B1060000 		.4byte	0x6b1
 2659 0de6 97040000 		.4byte	.LLST41
 2660 0dea 00       		.byte	0
 2661 0deb 00       		.byte	0
 2662 0dec 36       		.uleb128 0x36
 2663 0ded D3070000 		.4byte	0x7d3
 2664 0df1 30000000 		.4byte	.LBB200
 2665 0df5 30020000 		.4byte	.Ldebug_ranges0+0x230
 2666 0df9 01       		.byte	0x1
 2667 0dfa CC01     		.2byte	0x1cc
 2668 0dfc 2B       		.uleb128 0x2b
 2669 0dfd E5070000 		.4byte	0x7e5
ARM GAS  /tmp/ccHz812R.s 			page 48


 2670 0e01 AA040000 		.4byte	.LLST43
 2671 0e05 29       		.uleb128 0x29
 2672 0e06 48020000 		.4byte	.Ldebug_ranges0+0x248
 2673 0e0a 2C       		.uleb128 0x2c
 2674 0e0b F1070000 		.4byte	0x7f1
 2675 0e0f BD040000 		.4byte	.LLST44
 2676 0e13 00       		.byte	0
 2677 0e14 00       		.byte	0
 2678 0e15 00       		.byte	0
 2679 0e16 00       		.byte	0
 2680 0e17 15       		.uleb128 0x15
 2681 0e18 36060000 		.4byte	0x636
 2682 0e1c 270E0000 		.4byte	0xe27
 2683 0e20 16       		.uleb128 0x16
 2684 0e21 30000000 		.4byte	0x30
 2685 0e25 0C       		.byte	0xc
 2686 0e26 00       		.byte	0
 2687 0e27 13       		.uleb128 0x13
 2688 0e28 170E0000 		.4byte	0xe17
 2689 0e2c 38       		.uleb128 0x38
 2690 0e2d 01       		.byte	0x1
 2691 0e2e 2F020000 		.4byte	.LASF118
 2692 0e32 01       		.byte	0x1
 2693 0e33 E501     		.2byte	0x1e5
 2694 0e35 01       		.byte	0x1
 2695 0e36 00000000 		.4byte	.LFB189
 2696 0e3a 50000000 		.4byte	.LFE189
 2697 0e3e D1040000 		.4byte	.LLST45
 2698 0e42 6A0F0000 		.4byte	0xf6a
 2699 0e46 3A       		.uleb128 0x3a
 2700 0e47 63747000 		.ascii	"ctp\000"
 2701 0e4b 01       		.byte	0x1
 2702 0e4c E601     		.2byte	0x1e6
 2703 0e4e 30020000 		.4byte	0x230
 2704 0e52 F1040000 		.4byte	.LLST46
 2705 0e56 35       		.uleb128 0x35
 2706 0e57 39070000 		.4byte	0x739
 2707 0e5b 0A000000 		.4byte	.LBB205
 2708 0e5f 60020000 		.4byte	.Ldebug_ranges0+0x260
 2709 0e63 01       		.byte	0x1
 2710 0e64 E801     		.2byte	0x1e8
 2711 0e66 930E0000 		.4byte	0xe93
 2712 0e6a 36       		.uleb128 0x36
 2713 0e6b 8B060000 		.4byte	0x68b
 2714 0e6f 0A000000 		.4byte	.LBB206
 2715 0e73 78020000 		.4byte	.Ldebug_ranges0+0x278
 2716 0e77 0C       		.byte	0xc
 2717 0e78 5C01     		.2byte	0x15c
 2718 0e7a 36       		.uleb128 0x36
 2719 0e7b 70060000 		.4byte	0x670
 2720 0e7f 0A000000 		.4byte	.LBB207
 2721 0e83 90020000 		.4byte	.Ldebug_ranges0+0x290
 2722 0e87 08       		.byte	0x8
 2723 0e88 D001     		.2byte	0x1d0
 2724 0e8a 30       		.uleb128 0x30
 2725 0e8b 7E060000 		.4byte	0x67e
 2726 0e8f 20       		.byte	0x20
ARM GAS  /tmp/ccHz812R.s 			page 49


 2727 0e90 00       		.byte	0
 2728 0e91 00       		.byte	0
 2729 0e92 00       		.byte	0
 2730 0e93 3B       		.uleb128 0x3b
 2731 0e94 16000000 		.4byte	.LBB213
 2732 0e98 3A000000 		.4byte	.LBE213
 2733 0e9c 210F0000 		.4byte	0xf21
 2734 0ea0 3A       		.uleb128 0x3a
 2735 0ea1 6D7000   		.ascii	"mp\000"
 2736 0ea4 01       		.byte	0x1
 2737 0ea5 EB01     		.2byte	0x1eb
 2738 0ea7 63060000 		.4byte	0x663
 2739 0eab 10050000 		.4byte	.LLST47
 2740 0eaf 34       		.uleb128 0x34
 2741 0eb0 B7070000 		.4byte	0x7b7
 2742 0eb4 18000000 		.4byte	.LBB214
 2743 0eb8 1A000000 		.4byte	.LBE214
 2744 0ebc 01       		.byte	0x1
 2745 0ebd ED01     		.2byte	0x1ed
 2746 0ebf E60E0000 		.4byte	0xee6
 2747 0ec3 2B       		.uleb128 0x2b
 2748 0ec4 C8070000 		.4byte	0x7c8
 2749 0ec8 23050000 		.4byte	.LLST48
 2750 0ecc 24       		.uleb128 0x24
 2751 0ecd 9F060000 		.4byte	0x69f
 2752 0ed1 18000000 		.4byte	.LBB216
 2753 0ed5 1A000000 		.4byte	.LBE216
 2754 0ed9 0B       		.byte	0xb
 2755 0eda 84       		.byte	0x84
 2756 0edb 2B       		.uleb128 0x2b
 2757 0edc B1060000 		.4byte	0x6b1
 2758 0ee0 23050000 		.4byte	.LLST48
 2759 0ee4 00       		.byte	0
 2760 0ee5 00       		.byte	0
 2761 0ee6 29       		.uleb128 0x29
 2762 0ee7 A8020000 		.4byte	.Ldebug_ranges0+0x2a8
 2763 0eeb 1C       		.uleb128 0x1c
 2764 0eec 747000   		.ascii	"tp\000"
 2765 0eef 01       		.byte	0x1
 2766 0ef0 F101     		.2byte	0x1f1
 2767 0ef2 30020000 		.4byte	0x230
 2768 0ef6 36       		.uleb128 0x36
 2769 0ef7 D3070000 		.4byte	0x7d3
 2770 0efb 28000000 		.4byte	.LBB219
 2771 0eff C0020000 		.4byte	.Ldebug_ranges0+0x2c0
 2772 0f03 01       		.byte	0x1
 2773 0f04 F101     		.2byte	0x1f1
 2774 0f06 2B       		.uleb128 0x2b
 2775 0f07 E5070000 		.4byte	0x7e5
 2776 0f0b 36050000 		.4byte	.LLST50
 2777 0f0f 29       		.uleb128 0x29
 2778 0f10 D8020000 		.4byte	.Ldebug_ranges0+0x2d8
 2779 0f14 2C       		.uleb128 0x2c
 2780 0f15 F1070000 		.4byte	0x7f1
 2781 0f19 49050000 		.4byte	.LLST51
 2782 0f1d 00       		.byte	0
 2783 0f1e 00       		.byte	0
ARM GAS  /tmp/ccHz812R.s 			page 50


 2784 0f1f 00       		.byte	0
 2785 0f20 00       		.byte	0
 2786 0f21 2F       		.uleb128 0x2f
 2787 0f22 43070000 		.4byte	0x743
 2788 0f26 48000000 		.4byte	.LBB224
 2789 0f2a 4E000000 		.4byte	.LBE224
 2790 0f2e 01       		.byte	0x1
 2791 0f2f 0102     		.2byte	0x201
 2792 0f31 2E       		.uleb128 0x2e
 2793 0f32 48000000 		.4byte	.LBB225
 2794 0f36 4E000000 		.4byte	.LBE225
 2795 0f3a 31       		.uleb128 0x31
 2796 0f3b 51070000 		.4byte	0x751
 2797 0f3f 2F       		.uleb128 0x2f
 2798 0f40 95060000 		.4byte	0x695
 2799 0f44 48000000 		.4byte	.LBB226
 2800 0f48 4E000000 		.4byte	.LBE226
 2801 0f4c 0C       		.byte	0xc
 2802 0f4d 7301     		.2byte	0x173
 2803 0f4f 2F       		.uleb128 0x2f
 2804 0f50 70060000 		.4byte	0x670
 2805 0f54 48000000 		.4byte	.LBB227
 2806 0f58 4E000000 		.4byte	.LBE227
 2807 0f5c 08       		.byte	0x8
 2808 0f5d E301     		.2byte	0x1e3
 2809 0f5f 30       		.uleb128 0x30
 2810 0f60 7E060000 		.4byte	0x67e
 2811 0f64 00       		.byte	0
 2812 0f65 00       		.byte	0
 2813 0f66 00       		.byte	0
 2814 0f67 00       		.byte	0
 2815 0f68 00       		.byte	0
 2816 0f69 00       		.byte	0
 2817 0f6a 3D       		.uleb128 0x3d
 2818 0f6b 22040000 		.4byte	.LASF119
 2819 0f6f 0D       		.byte	0xd
 2820 0f70 5506     		.2byte	0x655
 2821 0f72 780F0000 		.4byte	0xf78
 2822 0f76 01       		.byte	0x1
 2823 0f77 01       		.byte	0x1
 2824 0f78 14       		.uleb128 0x14
 2825 0f79 69000000 		.4byte	0x69
 2826 0f7d 3E       		.uleb128 0x3e
 2827 0f7e 636800   		.ascii	"ch\000"
 2828 0f81 02       		.byte	0x2
 2829 0f82 0902     		.2byte	0x209
 2830 0f84 03040000 		.4byte	0x403
 2831 0f88 01       		.byte	0x1
 2832 0f89 01       		.byte	0x1
 2833 0f8a 3D       		.uleb128 0x3d
 2834 0f8b 22040000 		.4byte	.LASF119
 2835 0f8f 0D       		.byte	0xd
 2836 0f90 5506     		.2byte	0x655
 2837 0f92 780F0000 		.4byte	0xf78
 2838 0f96 01       		.byte	0x1
 2839 0f97 01       		.byte	0x1
 2840 0f98 3E       		.uleb128 0x3e
ARM GAS  /tmp/ccHz812R.s 			page 51


 2841 0f99 636800   		.ascii	"ch\000"
 2842 0f9c 02       		.byte	0x2
 2843 0f9d 0902     		.2byte	0x209
 2844 0f9f 03040000 		.4byte	0x403
 2845 0fa3 01       		.byte	0x1
 2846 0fa4 01       		.byte	0x1
 2847 0fa5 00       		.byte	0
 2848              		.section	.debug_abbrev,"",%progbits
 2849              	.Ldebug_abbrev0:
 2850 0000 01       		.uleb128 0x1
 2851 0001 11       		.uleb128 0x11
 2852 0002 01       		.byte	0x1
 2853 0003 25       		.uleb128 0x25
 2854 0004 0E       		.uleb128 0xe
 2855 0005 13       		.uleb128 0x13
 2856 0006 0B       		.uleb128 0xb
 2857 0007 03       		.uleb128 0x3
 2858 0008 0E       		.uleb128 0xe
 2859 0009 1B       		.uleb128 0x1b
 2860 000a 0E       		.uleb128 0xe
 2861 000b 11       		.uleb128 0x11
 2862 000c 01       		.uleb128 0x1
 2863 000d 52       		.uleb128 0x52
 2864 000e 01       		.uleb128 0x1
 2865 000f 55       		.uleb128 0x55
 2866 0010 06       		.uleb128 0x6
 2867 0011 10       		.uleb128 0x10
 2868 0012 06       		.uleb128 0x6
 2869 0013 00       		.byte	0
 2870 0014 00       		.byte	0
 2871 0015 02       		.uleb128 0x2
 2872 0016 24       		.uleb128 0x24
 2873 0017 00       		.byte	0
 2874 0018 0B       		.uleb128 0xb
 2875 0019 0B       		.uleb128 0xb
 2876 001a 3E       		.uleb128 0x3e
 2877 001b 0B       		.uleb128 0xb
 2878 001c 03       		.uleb128 0x3
 2879 001d 08       		.uleb128 0x8
 2880 001e 00       		.byte	0
 2881 001f 00       		.byte	0
 2882 0020 03       		.uleb128 0x3
 2883 0021 24       		.uleb128 0x24
 2884 0022 00       		.byte	0
 2885 0023 0B       		.uleb128 0xb
 2886 0024 0B       		.uleb128 0xb
 2887 0025 3E       		.uleb128 0x3e
 2888 0026 0B       		.uleb128 0xb
 2889 0027 03       		.uleb128 0x3
 2890 0028 0E       		.uleb128 0xe
 2891 0029 00       		.byte	0
 2892 002a 00       		.byte	0
 2893 002b 04       		.uleb128 0x4
 2894 002c 16       		.uleb128 0x16
 2895 002d 00       		.byte	0
 2896 002e 03       		.uleb128 0x3
 2897 002f 0E       		.uleb128 0xe
ARM GAS  /tmp/ccHz812R.s 			page 52


 2898 0030 3A       		.uleb128 0x3a
 2899 0031 0B       		.uleb128 0xb
 2900 0032 3B       		.uleb128 0x3b
 2901 0033 0B       		.uleb128 0xb
 2902 0034 49       		.uleb128 0x49
 2903 0035 13       		.uleb128 0x13
 2904 0036 00       		.byte	0
 2905 0037 00       		.byte	0
 2906 0038 05       		.uleb128 0x5
 2907 0039 13       		.uleb128 0x13
 2908 003a 01       		.byte	0x1
 2909 003b 03       		.uleb128 0x3
 2910 003c 0E       		.uleb128 0xe
 2911 003d 0B       		.uleb128 0xb
 2912 003e 0B       		.uleb128 0xb
 2913 003f 3A       		.uleb128 0x3a
 2914 0040 0B       		.uleb128 0xb
 2915 0041 3B       		.uleb128 0x3b
 2916 0042 0B       		.uleb128 0xb
 2917 0043 01       		.uleb128 0x1
 2918 0044 13       		.uleb128 0x13
 2919 0045 00       		.byte	0
 2920 0046 00       		.byte	0
 2921 0047 06       		.uleb128 0x6
 2922 0048 0D       		.uleb128 0xd
 2923 0049 00       		.byte	0
 2924 004a 03       		.uleb128 0x3
 2925 004b 0E       		.uleb128 0xe
 2926 004c 3A       		.uleb128 0x3a
 2927 004d 0B       		.uleb128 0xb
 2928 004e 3B       		.uleb128 0x3b
 2929 004f 0B       		.uleb128 0xb
 2930 0050 49       		.uleb128 0x49
 2931 0051 13       		.uleb128 0x13
 2932 0052 38       		.uleb128 0x38
 2933 0053 0A       		.uleb128 0xa
 2934 0054 00       		.byte	0
 2935 0055 00       		.byte	0
 2936 0056 07       		.uleb128 0x7
 2937 0057 0D       		.uleb128 0xd
 2938 0058 00       		.byte	0
 2939 0059 03       		.uleb128 0x3
 2940 005a 08       		.uleb128 0x8
 2941 005b 3A       		.uleb128 0x3a
 2942 005c 0B       		.uleb128 0xb
 2943 005d 3B       		.uleb128 0x3b
 2944 005e 05       		.uleb128 0x5
 2945 005f 49       		.uleb128 0x49
 2946 0060 13       		.uleb128 0x13
 2947 0061 38       		.uleb128 0x38
 2948 0062 0A       		.uleb128 0xa
 2949 0063 00       		.byte	0
 2950 0064 00       		.byte	0
 2951 0065 08       		.uleb128 0x8
 2952 0066 0D       		.uleb128 0xd
 2953 0067 00       		.byte	0
 2954 0068 03       		.uleb128 0x3
ARM GAS  /tmp/ccHz812R.s 			page 53


 2955 0069 0E       		.uleb128 0xe
 2956 006a 3A       		.uleb128 0x3a
 2957 006b 0B       		.uleb128 0xb
 2958 006c 3B       		.uleb128 0x3b
 2959 006d 05       		.uleb128 0x5
 2960 006e 49       		.uleb128 0x49
 2961 006f 13       		.uleb128 0x13
 2962 0070 38       		.uleb128 0x38
 2963 0071 0A       		.uleb128 0xa
 2964 0072 00       		.byte	0
 2965 0073 00       		.byte	0
 2966 0074 09       		.uleb128 0x9
 2967 0075 0F       		.uleb128 0xf
 2968 0076 00       		.byte	0
 2969 0077 0B       		.uleb128 0xb
 2970 0078 0B       		.uleb128 0xb
 2971 0079 49       		.uleb128 0x49
 2972 007a 13       		.uleb128 0x13
 2973 007b 00       		.byte	0
 2974 007c 00       		.byte	0
 2975 007d 0A       		.uleb128 0xa
 2976 007e 13       		.uleb128 0x13
 2977 007f 01       		.byte	0x1
 2978 0080 03       		.uleb128 0x3
 2979 0081 0E       		.uleb128 0xe
 2980 0082 0B       		.uleb128 0xb
 2981 0083 0B       		.uleb128 0xb
 2982 0084 3A       		.uleb128 0x3a
 2983 0085 0B       		.uleb128 0xb
 2984 0086 3B       		.uleb128 0x3b
 2985 0087 05       		.uleb128 0x5
 2986 0088 01       		.uleb128 0x1
 2987 0089 13       		.uleb128 0x13
 2988 008a 00       		.byte	0
 2989 008b 00       		.byte	0
 2990 008c 0B       		.uleb128 0xb
 2991 008d 15       		.uleb128 0x15
 2992 008e 01       		.byte	0x1
 2993 008f 27       		.uleb128 0x27
 2994 0090 0C       		.uleb128 0xc
 2995 0091 01       		.uleb128 0x1
 2996 0092 13       		.uleb128 0x13
 2997 0093 00       		.byte	0
 2998 0094 00       		.byte	0
 2999 0095 0C       		.uleb128 0xc
 3000 0096 05       		.uleb128 0x5
 3001 0097 00       		.byte	0
 3002 0098 49       		.uleb128 0x49
 3003 0099 13       		.uleb128 0x13
 3004 009a 00       		.byte	0
 3005 009b 00       		.byte	0
 3006 009c 0D       		.uleb128 0xd
 3007 009d 0F       		.uleb128 0xf
 3008 009e 00       		.byte	0
 3009 009f 0B       		.uleb128 0xb
 3010 00a0 0B       		.uleb128 0xb
 3011 00a1 00       		.byte	0
ARM GAS  /tmp/ccHz812R.s 			page 54


 3012 00a2 00       		.byte	0
 3013 00a3 0E       		.uleb128 0xe
 3014 00a4 13       		.uleb128 0x13
 3015 00a5 01       		.byte	0x1
 3016 00a6 03       		.uleb128 0x3
 3017 00a7 0E       		.uleb128 0xe
 3018 00a8 0B       		.uleb128 0xb
 3019 00a9 05       		.uleb128 0x5
 3020 00aa 3A       		.uleb128 0x3a
 3021 00ab 0B       		.uleb128 0xb
 3022 00ac 3B       		.uleb128 0x3b
 3023 00ad 05       		.uleb128 0x5
 3024 00ae 01       		.uleb128 0x1
 3025 00af 13       		.uleb128 0x13
 3026 00b0 00       		.byte	0
 3027 00b1 00       		.byte	0
 3028 00b2 0F       		.uleb128 0xf
 3029 00b3 0D       		.uleb128 0xd
 3030 00b4 00       		.byte	0
 3031 00b5 03       		.uleb128 0x3
 3032 00b6 08       		.uleb128 0x8
 3033 00b7 3A       		.uleb128 0x3a
 3034 00b8 0B       		.uleb128 0xb
 3035 00b9 3B       		.uleb128 0x3b
 3036 00ba 0B       		.uleb128 0xb
 3037 00bb 49       		.uleb128 0x49
 3038 00bc 13       		.uleb128 0x13
 3039 00bd 38       		.uleb128 0x38
 3040 00be 0A       		.uleb128 0xa
 3041 00bf 00       		.byte	0
 3042 00c0 00       		.byte	0
 3043 00c1 10       		.uleb128 0x10
 3044 00c2 13       		.uleb128 0x13
 3045 00c3 01       		.byte	0x1
 3046 00c4 0B       		.uleb128 0xb
 3047 00c5 0B       		.uleb128 0xb
 3048 00c6 3A       		.uleb128 0x3a
 3049 00c7 0B       		.uleb128 0xb
 3050 00c8 3B       		.uleb128 0x3b
 3051 00c9 0B       		.uleb128 0xb
 3052 00ca 01       		.uleb128 0x1
 3053 00cb 13       		.uleb128 0x13
 3054 00cc 00       		.byte	0
 3055 00cd 00       		.byte	0
 3056 00ce 11       		.uleb128 0x11
 3057 00cf 17       		.uleb128 0x17
 3058 00d0 01       		.byte	0x1
 3059 00d1 0B       		.uleb128 0xb
 3060 00d2 0B       		.uleb128 0xb
 3061 00d3 3A       		.uleb128 0x3a
 3062 00d4 0B       		.uleb128 0xb
 3063 00d5 3B       		.uleb128 0x3b
 3064 00d6 0B       		.uleb128 0xb
 3065 00d7 01       		.uleb128 0x1
 3066 00d8 13       		.uleb128 0x13
 3067 00d9 00       		.byte	0
 3068 00da 00       		.byte	0
ARM GAS  /tmp/ccHz812R.s 			page 55


 3069 00db 12       		.uleb128 0x12
 3070 00dc 0D       		.uleb128 0xd
 3071 00dd 00       		.byte	0
 3072 00de 03       		.uleb128 0x3
 3073 00df 0E       		.uleb128 0xe
 3074 00e0 3A       		.uleb128 0x3a
 3075 00e1 0B       		.uleb128 0xb
 3076 00e2 3B       		.uleb128 0x3b
 3077 00e3 05       		.uleb128 0x5
 3078 00e4 49       		.uleb128 0x49
 3079 00e5 13       		.uleb128 0x13
 3080 00e6 00       		.byte	0
 3081 00e7 00       		.byte	0
 3082 00e8 13       		.uleb128 0x13
 3083 00e9 26       		.uleb128 0x26
 3084 00ea 00       		.byte	0
 3085 00eb 49       		.uleb128 0x49
 3086 00ec 13       		.uleb128 0x13
 3087 00ed 00       		.byte	0
 3088 00ee 00       		.byte	0
 3089 00ef 14       		.uleb128 0x14
 3090 00f0 35       		.uleb128 0x35
 3091 00f1 00       		.byte	0
 3092 00f2 49       		.uleb128 0x49
 3093 00f3 13       		.uleb128 0x13
 3094 00f4 00       		.byte	0
 3095 00f5 00       		.byte	0
 3096 00f6 15       		.uleb128 0x15
 3097 00f7 01       		.uleb128 0x1
 3098 00f8 01       		.byte	0x1
 3099 00f9 49       		.uleb128 0x49
 3100 00fa 13       		.uleb128 0x13
 3101 00fb 01       		.uleb128 0x1
 3102 00fc 13       		.uleb128 0x13
 3103 00fd 00       		.byte	0
 3104 00fe 00       		.byte	0
 3105 00ff 16       		.uleb128 0x16
 3106 0100 21       		.uleb128 0x21
 3107 0101 00       		.byte	0
 3108 0102 49       		.uleb128 0x49
 3109 0103 13       		.uleb128 0x13
 3110 0104 2F       		.uleb128 0x2f
 3111 0105 0B       		.uleb128 0xb
 3112 0106 00       		.byte	0
 3113 0107 00       		.byte	0
 3114 0108 17       		.uleb128 0x17
 3115 0109 2E       		.uleb128 0x2e
 3116 010a 01       		.byte	0x1
 3117 010b 03       		.uleb128 0x3
 3118 010c 0E       		.uleb128 0xe
 3119 010d 3A       		.uleb128 0x3a
 3120 010e 0B       		.uleb128 0xb
 3121 010f 3B       		.uleb128 0x3b
 3122 0110 05       		.uleb128 0x5
 3123 0111 27       		.uleb128 0x27
 3124 0112 0C       		.uleb128 0xc
 3125 0113 20       		.uleb128 0x20
ARM GAS  /tmp/ccHz812R.s 			page 56


 3126 0114 0B       		.uleb128 0xb
 3127 0115 01       		.uleb128 0x1
 3128 0116 13       		.uleb128 0x13
 3129 0117 00       		.byte	0
 3130 0118 00       		.byte	0
 3131 0119 18       		.uleb128 0x18
 3132 011a 05       		.uleb128 0x5
 3133 011b 00       		.byte	0
 3134 011c 03       		.uleb128 0x3
 3135 011d 0E       		.uleb128 0xe
 3136 011e 3A       		.uleb128 0x3a
 3137 011f 0B       		.uleb128 0xb
 3138 0120 3B       		.uleb128 0x3b
 3139 0121 05       		.uleb128 0x5
 3140 0122 49       		.uleb128 0x49
 3141 0123 13       		.uleb128 0x13
 3142 0124 00       		.byte	0
 3143 0125 00       		.byte	0
 3144 0126 19       		.uleb128 0x19
 3145 0127 2E       		.uleb128 0x2e
 3146 0128 00       		.byte	0
 3147 0129 03       		.uleb128 0x3
 3148 012a 0E       		.uleb128 0xe
 3149 012b 3A       		.uleb128 0x3a
 3150 012c 0B       		.uleb128 0xb
 3151 012d 3B       		.uleb128 0x3b
 3152 012e 05       		.uleb128 0x5
 3153 012f 27       		.uleb128 0x27
 3154 0130 0C       		.uleb128 0xc
 3155 0131 20       		.uleb128 0x20
 3156 0132 0B       		.uleb128 0xb
 3157 0133 00       		.byte	0
 3158 0134 00       		.byte	0
 3159 0135 1A       		.uleb128 0x1a
 3160 0136 2E       		.uleb128 0x2e
 3161 0137 01       		.byte	0x1
 3162 0138 03       		.uleb128 0x3
 3163 0139 0E       		.uleb128 0xe
 3164 013a 3A       		.uleb128 0x3a
 3165 013b 0B       		.uleb128 0xb
 3166 013c 3B       		.uleb128 0x3b
 3167 013d 05       		.uleb128 0x5
 3168 013e 27       		.uleb128 0x27
 3169 013f 0C       		.uleb128 0xc
 3170 0140 49       		.uleb128 0x49
 3171 0141 13       		.uleb128 0x13
 3172 0142 20       		.uleb128 0x20
 3173 0143 0B       		.uleb128 0xb
 3174 0144 01       		.uleb128 0x1
 3175 0145 13       		.uleb128 0x13
 3176 0146 00       		.byte	0
 3177 0147 00       		.byte	0
 3178 0148 1B       		.uleb128 0x1b
 3179 0149 05       		.uleb128 0x5
 3180 014a 00       		.byte	0
 3181 014b 03       		.uleb128 0x3
 3182 014c 08       		.uleb128 0x8
ARM GAS  /tmp/ccHz812R.s 			page 57


 3183 014d 3A       		.uleb128 0x3a
 3184 014e 0B       		.uleb128 0xb
 3185 014f 3B       		.uleb128 0x3b
 3186 0150 05       		.uleb128 0x5
 3187 0151 49       		.uleb128 0x49
 3188 0152 13       		.uleb128 0x13
 3189 0153 00       		.byte	0
 3190 0154 00       		.byte	0
 3191 0155 1C       		.uleb128 0x1c
 3192 0156 34       		.uleb128 0x34
 3193 0157 00       		.byte	0
 3194 0158 03       		.uleb128 0x3
 3195 0159 08       		.uleb128 0x8
 3196 015a 3A       		.uleb128 0x3a
 3197 015b 0B       		.uleb128 0xb
 3198 015c 3B       		.uleb128 0x3b
 3199 015d 05       		.uleb128 0x5
 3200 015e 49       		.uleb128 0x49
 3201 015f 13       		.uleb128 0x13
 3202 0160 00       		.byte	0
 3203 0161 00       		.byte	0
 3204 0162 1D       		.uleb128 0x1d
 3205 0163 34       		.uleb128 0x34
 3206 0164 00       		.byte	0
 3207 0165 03       		.uleb128 0x3
 3208 0166 0E       		.uleb128 0xe
 3209 0167 49       		.uleb128 0x49
 3210 0168 13       		.uleb128 0x13
 3211 0169 34       		.uleb128 0x34
 3212 016a 0C       		.uleb128 0xc
 3213 016b 1C       		.uleb128 0x1c
 3214 016c 0E       		.uleb128 0xe
 3215 016d 00       		.byte	0
 3216 016e 00       		.byte	0
 3217 016f 1E       		.uleb128 0x1e
 3218 0170 2E       		.uleb128 0x2e
 3219 0171 01       		.byte	0x1
 3220 0172 3F       		.uleb128 0x3f
 3221 0173 0C       		.uleb128 0xc
 3222 0174 03       		.uleb128 0x3
 3223 0175 0E       		.uleb128 0xe
 3224 0176 3A       		.uleb128 0x3a
 3225 0177 0B       		.uleb128 0xb
 3226 0178 3B       		.uleb128 0x3b
 3227 0179 05       		.uleb128 0x5
 3228 017a 27       		.uleb128 0x27
 3229 017b 0C       		.uleb128 0xc
 3230 017c 49       		.uleb128 0x49
 3231 017d 13       		.uleb128 0x13
 3232 017e 20       		.uleb128 0x20
 3233 017f 0B       		.uleb128 0xb
 3234 0180 01       		.uleb128 0x1
 3235 0181 13       		.uleb128 0x13
 3236 0182 00       		.byte	0
 3237 0183 00       		.byte	0
 3238 0184 1F       		.uleb128 0x1f
 3239 0185 2E       		.uleb128 0x2e
ARM GAS  /tmp/ccHz812R.s 			page 58


 3240 0186 01       		.byte	0x1
 3241 0187 03       		.uleb128 0x3
 3242 0188 0E       		.uleb128 0xe
 3243 0189 3A       		.uleb128 0x3a
 3244 018a 0B       		.uleb128 0xb
 3245 018b 3B       		.uleb128 0x3b
 3246 018c 0B       		.uleb128 0xb
 3247 018d 27       		.uleb128 0x27
 3248 018e 0C       		.uleb128 0xc
 3249 018f 49       		.uleb128 0x49
 3250 0190 13       		.uleb128 0x13
 3251 0191 20       		.uleb128 0x20
 3252 0192 0B       		.uleb128 0xb
 3253 0193 01       		.uleb128 0x1
 3254 0194 13       		.uleb128 0x13
 3255 0195 00       		.byte	0
 3256 0196 00       		.byte	0
 3257 0197 20       		.uleb128 0x20
 3258 0198 05       		.uleb128 0x5
 3259 0199 00       		.byte	0
 3260 019a 03       		.uleb128 0x3
 3261 019b 08       		.uleb128 0x8
 3262 019c 3A       		.uleb128 0x3a
 3263 019d 0B       		.uleb128 0xb
 3264 019e 3B       		.uleb128 0x3b
 3265 019f 0B       		.uleb128 0xb
 3266 01a0 49       		.uleb128 0x49
 3267 01a1 13       		.uleb128 0x13
 3268 01a2 00       		.byte	0
 3269 01a3 00       		.byte	0
 3270 01a4 21       		.uleb128 0x21
 3271 01a5 2E       		.uleb128 0x2e
 3272 01a6 01       		.byte	0x1
 3273 01a7 3F       		.uleb128 0x3f
 3274 01a8 0C       		.uleb128 0xc
 3275 01a9 03       		.uleb128 0x3
 3276 01aa 0E       		.uleb128 0xe
 3277 01ab 3A       		.uleb128 0x3a
 3278 01ac 0B       		.uleb128 0xb
 3279 01ad 3B       		.uleb128 0x3b
 3280 01ae 0B       		.uleb128 0xb
 3281 01af 27       		.uleb128 0x27
 3282 01b0 0C       		.uleb128 0xc
 3283 01b1 11       		.uleb128 0x11
 3284 01b2 01       		.uleb128 0x1
 3285 01b3 12       		.uleb128 0x12
 3286 01b4 01       		.uleb128 0x1
 3287 01b5 40       		.uleb128 0x40
 3288 01b6 0A       		.uleb128 0xa
 3289 01b7 01       		.uleb128 0x1
 3290 01b8 13       		.uleb128 0x13
 3291 01b9 00       		.byte	0
 3292 01ba 00       		.byte	0
 3293 01bb 22       		.uleb128 0x22
 3294 01bc 05       		.uleb128 0x5
 3295 01bd 00       		.byte	0
 3296 01be 03       		.uleb128 0x3
ARM GAS  /tmp/ccHz812R.s 			page 59


 3297 01bf 08       		.uleb128 0x8
 3298 01c0 3A       		.uleb128 0x3a
 3299 01c1 0B       		.uleb128 0xb
 3300 01c2 3B       		.uleb128 0x3b
 3301 01c3 0B       		.uleb128 0xb
 3302 01c4 49       		.uleb128 0x49
 3303 01c5 13       		.uleb128 0x13
 3304 01c6 02       		.uleb128 0x2
 3305 01c7 0A       		.uleb128 0xa
 3306 01c8 00       		.byte	0
 3307 01c9 00       		.byte	0
 3308 01ca 23       		.uleb128 0x23
 3309 01cb 34       		.uleb128 0x34
 3310 01cc 00       		.byte	0
 3311 01cd 03       		.uleb128 0x3
 3312 01ce 0E       		.uleb128 0xe
 3313 01cf 49       		.uleb128 0x49
 3314 01d0 13       		.uleb128 0x13
 3315 01d1 34       		.uleb128 0x34
 3316 01d2 0C       		.uleb128 0xc
 3317 01d3 00       		.byte	0
 3318 01d4 00       		.byte	0
 3319 01d5 24       		.uleb128 0x24
 3320 01d6 1D       		.uleb128 0x1d
 3321 01d7 01       		.byte	0x1
 3322 01d8 31       		.uleb128 0x31
 3323 01d9 13       		.uleb128 0x13
 3324 01da 11       		.uleb128 0x11
 3325 01db 01       		.uleb128 0x1
 3326 01dc 12       		.uleb128 0x12
 3327 01dd 01       		.uleb128 0x1
 3328 01de 58       		.uleb128 0x58
 3329 01df 0B       		.uleb128 0xb
 3330 01e0 59       		.uleb128 0x59
 3331 01e1 0B       		.uleb128 0xb
 3332 01e2 00       		.byte	0
 3333 01e3 00       		.byte	0
 3334 01e4 25       		.uleb128 0x25
 3335 01e5 05       		.uleb128 0x5
 3336 01e6 00       		.byte	0
 3337 01e7 31       		.uleb128 0x31
 3338 01e8 13       		.uleb128 0x13
 3339 01e9 02       		.uleb128 0x2
 3340 01ea 0A       		.uleb128 0xa
 3341 01eb 00       		.byte	0
 3342 01ec 00       		.byte	0
 3343 01ed 26       		.uleb128 0x26
 3344 01ee 2E       		.uleb128 0x2e
 3345 01ef 01       		.byte	0x1
 3346 01f0 3F       		.uleb128 0x3f
 3347 01f1 0C       		.uleb128 0xc
 3348 01f2 03       		.uleb128 0x3
 3349 01f3 0E       		.uleb128 0xe
 3350 01f4 3A       		.uleb128 0x3a
 3351 01f5 0B       		.uleb128 0xb
 3352 01f6 3B       		.uleb128 0x3b
 3353 01f7 0B       		.uleb128 0xb
ARM GAS  /tmp/ccHz812R.s 			page 60


 3354 01f8 27       		.uleb128 0x27
 3355 01f9 0C       		.uleb128 0xc
 3356 01fa 11       		.uleb128 0x11
 3357 01fb 01       		.uleb128 0x1
 3358 01fc 12       		.uleb128 0x12
 3359 01fd 01       		.uleb128 0x1
 3360 01fe 40       		.uleb128 0x40
 3361 01ff 06       		.uleb128 0x6
 3362 0200 01       		.uleb128 0x1
 3363 0201 13       		.uleb128 0x13
 3364 0202 00       		.byte	0
 3365 0203 00       		.byte	0
 3366 0204 27       		.uleb128 0x27
 3367 0205 05       		.uleb128 0x5
 3368 0206 00       		.byte	0
 3369 0207 03       		.uleb128 0x3
 3370 0208 08       		.uleb128 0x8
 3371 0209 3A       		.uleb128 0x3a
 3372 020a 0B       		.uleb128 0xb
 3373 020b 3B       		.uleb128 0x3b
 3374 020c 0B       		.uleb128 0xb
 3375 020d 49       		.uleb128 0x49
 3376 020e 13       		.uleb128 0x13
 3377 020f 02       		.uleb128 0x2
 3378 0210 06       		.uleb128 0x6
 3379 0211 00       		.byte	0
 3380 0212 00       		.byte	0
 3381 0213 28       		.uleb128 0x28
 3382 0214 34       		.uleb128 0x34
 3383 0215 00       		.byte	0
 3384 0216 03       		.uleb128 0x3
 3385 0217 08       		.uleb128 0x8
 3386 0218 3A       		.uleb128 0x3a
 3387 0219 0B       		.uleb128 0xb
 3388 021a 3B       		.uleb128 0x3b
 3389 021b 0B       		.uleb128 0xb
 3390 021c 49       		.uleb128 0x49
 3391 021d 13       		.uleb128 0x13
 3392 021e 02       		.uleb128 0x2
 3393 021f 06       		.uleb128 0x6
 3394 0220 00       		.byte	0
 3395 0221 00       		.byte	0
 3396 0222 29       		.uleb128 0x29
 3397 0223 0B       		.uleb128 0xb
 3398 0224 01       		.byte	0x1
 3399 0225 55       		.uleb128 0x55
 3400 0226 06       		.uleb128 0x6
 3401 0227 00       		.byte	0
 3402 0228 00       		.byte	0
 3403 0229 2A       		.uleb128 0x2a
 3404 022a 1D       		.uleb128 0x1d
 3405 022b 01       		.byte	0x1
 3406 022c 31       		.uleb128 0x31
 3407 022d 13       		.uleb128 0x13
 3408 022e 52       		.uleb128 0x52
 3409 022f 01       		.uleb128 0x1
 3410 0230 55       		.uleb128 0x55
ARM GAS  /tmp/ccHz812R.s 			page 61


 3411 0231 06       		.uleb128 0x6
 3412 0232 58       		.uleb128 0x58
 3413 0233 0B       		.uleb128 0xb
 3414 0234 59       		.uleb128 0x59
 3415 0235 0B       		.uleb128 0xb
 3416 0236 01       		.uleb128 0x1
 3417 0237 13       		.uleb128 0x13
 3418 0238 00       		.byte	0
 3419 0239 00       		.byte	0
 3420 023a 2B       		.uleb128 0x2b
 3421 023b 05       		.uleb128 0x5
 3422 023c 00       		.byte	0
 3423 023d 31       		.uleb128 0x31
 3424 023e 13       		.uleb128 0x13
 3425 023f 02       		.uleb128 0x2
 3426 0240 06       		.uleb128 0x6
 3427 0241 00       		.byte	0
 3428 0242 00       		.byte	0
 3429 0243 2C       		.uleb128 0x2c
 3430 0244 34       		.uleb128 0x34
 3431 0245 00       		.byte	0
 3432 0246 31       		.uleb128 0x31
 3433 0247 13       		.uleb128 0x13
 3434 0248 02       		.uleb128 0x2
 3435 0249 06       		.uleb128 0x6
 3436 024a 00       		.byte	0
 3437 024b 00       		.byte	0
 3438 024c 2D       		.uleb128 0x2d
 3439 024d 1D       		.uleb128 0x1d
 3440 024e 01       		.byte	0x1
 3441 024f 31       		.uleb128 0x31
 3442 0250 13       		.uleb128 0x13
 3443 0251 11       		.uleb128 0x11
 3444 0252 01       		.uleb128 0x1
 3445 0253 12       		.uleb128 0x12
 3446 0254 01       		.uleb128 0x1
 3447 0255 58       		.uleb128 0x58
 3448 0256 0B       		.uleb128 0xb
 3449 0257 59       		.uleb128 0x59
 3450 0258 0B       		.uleb128 0xb
 3451 0259 01       		.uleb128 0x1
 3452 025a 13       		.uleb128 0x13
 3453 025b 00       		.byte	0
 3454 025c 00       		.byte	0
 3455 025d 2E       		.uleb128 0x2e
 3456 025e 0B       		.uleb128 0xb
 3457 025f 01       		.byte	0x1
 3458 0260 11       		.uleb128 0x11
 3459 0261 01       		.uleb128 0x1
 3460 0262 12       		.uleb128 0x12
 3461 0263 01       		.uleb128 0x1
 3462 0264 00       		.byte	0
 3463 0265 00       		.byte	0
 3464 0266 2F       		.uleb128 0x2f
 3465 0267 1D       		.uleb128 0x1d
 3466 0268 01       		.byte	0x1
 3467 0269 31       		.uleb128 0x31
ARM GAS  /tmp/ccHz812R.s 			page 62


 3468 026a 13       		.uleb128 0x13
 3469 026b 11       		.uleb128 0x11
 3470 026c 01       		.uleb128 0x1
 3471 026d 12       		.uleb128 0x12
 3472 026e 01       		.uleb128 0x1
 3473 026f 58       		.uleb128 0x58
 3474 0270 0B       		.uleb128 0xb
 3475 0271 59       		.uleb128 0x59
 3476 0272 05       		.uleb128 0x5
 3477 0273 00       		.byte	0
 3478 0274 00       		.byte	0
 3479 0275 30       		.uleb128 0x30
 3480 0276 05       		.uleb128 0x5
 3481 0277 00       		.byte	0
 3482 0278 31       		.uleb128 0x31
 3483 0279 13       		.uleb128 0x13
 3484 027a 1C       		.uleb128 0x1c
 3485 027b 0B       		.uleb128 0xb
 3486 027c 00       		.byte	0
 3487 027d 00       		.byte	0
 3488 027e 31       		.uleb128 0x31
 3489 027f 34       		.uleb128 0x34
 3490 0280 00       		.byte	0
 3491 0281 31       		.uleb128 0x31
 3492 0282 13       		.uleb128 0x13
 3493 0283 00       		.byte	0
 3494 0284 00       		.byte	0
 3495 0285 32       		.uleb128 0x32
 3496 0286 2E       		.uleb128 0x2e
 3497 0287 01       		.byte	0x1
 3498 0288 3F       		.uleb128 0x3f
 3499 0289 0C       		.uleb128 0xc
 3500 028a 03       		.uleb128 0x3
 3501 028b 0E       		.uleb128 0xe
 3502 028c 3A       		.uleb128 0x3a
 3503 028d 0B       		.uleb128 0xb
 3504 028e 3B       		.uleb128 0x3b
 3505 028f 0B       		.uleb128 0xb
 3506 0290 27       		.uleb128 0x27
 3507 0291 0C       		.uleb128 0xc
 3508 0292 49       		.uleb128 0x49
 3509 0293 13       		.uleb128 0x13
 3510 0294 11       		.uleb128 0x11
 3511 0295 01       		.uleb128 0x1
 3512 0296 12       		.uleb128 0x12
 3513 0297 01       		.uleb128 0x1
 3514 0298 40       		.uleb128 0x40
 3515 0299 0A       		.uleb128 0xa
 3516 029a 01       		.uleb128 0x1
 3517 029b 13       		.uleb128 0x13
 3518 029c 00       		.byte	0
 3519 029d 00       		.byte	0
 3520 029e 33       		.uleb128 0x33
 3521 029f 34       		.uleb128 0x34
 3522 02a0 00       		.byte	0
 3523 02a1 03       		.uleb128 0x3
 3524 02a2 08       		.uleb128 0x8
ARM GAS  /tmp/ccHz812R.s 			page 63


 3525 02a3 3A       		.uleb128 0x3a
 3526 02a4 0B       		.uleb128 0xb
 3527 02a5 3B       		.uleb128 0x3b
 3528 02a6 05       		.uleb128 0x5
 3529 02a7 49       		.uleb128 0x49
 3530 02a8 13       		.uleb128 0x13
 3531 02a9 02       		.uleb128 0x2
 3532 02aa 0A       		.uleb128 0xa
 3533 02ab 00       		.byte	0
 3534 02ac 00       		.byte	0
 3535 02ad 34       		.uleb128 0x34
 3536 02ae 1D       		.uleb128 0x1d
 3537 02af 01       		.byte	0x1
 3538 02b0 31       		.uleb128 0x31
 3539 02b1 13       		.uleb128 0x13
 3540 02b2 11       		.uleb128 0x11
 3541 02b3 01       		.uleb128 0x1
 3542 02b4 12       		.uleb128 0x12
 3543 02b5 01       		.uleb128 0x1
 3544 02b6 58       		.uleb128 0x58
 3545 02b7 0B       		.uleb128 0xb
 3546 02b8 59       		.uleb128 0x59
 3547 02b9 05       		.uleb128 0x5
 3548 02ba 01       		.uleb128 0x1
 3549 02bb 13       		.uleb128 0x13
 3550 02bc 00       		.byte	0
 3551 02bd 00       		.byte	0
 3552 02be 35       		.uleb128 0x35
 3553 02bf 1D       		.uleb128 0x1d
 3554 02c0 01       		.byte	0x1
 3555 02c1 31       		.uleb128 0x31
 3556 02c2 13       		.uleb128 0x13
 3557 02c3 52       		.uleb128 0x52
 3558 02c4 01       		.uleb128 0x1
 3559 02c5 55       		.uleb128 0x55
 3560 02c6 06       		.uleb128 0x6
 3561 02c7 58       		.uleb128 0x58
 3562 02c8 0B       		.uleb128 0xb
 3563 02c9 59       		.uleb128 0x59
 3564 02ca 05       		.uleb128 0x5
 3565 02cb 01       		.uleb128 0x1
 3566 02cc 13       		.uleb128 0x13
 3567 02cd 00       		.byte	0
 3568 02ce 00       		.byte	0
 3569 02cf 36       		.uleb128 0x36
 3570 02d0 1D       		.uleb128 0x1d
 3571 02d1 01       		.byte	0x1
 3572 02d2 31       		.uleb128 0x31
 3573 02d3 13       		.uleb128 0x13
 3574 02d4 52       		.uleb128 0x52
 3575 02d5 01       		.uleb128 0x1
 3576 02d6 55       		.uleb128 0x55
 3577 02d7 06       		.uleb128 0x6
 3578 02d8 58       		.uleb128 0x58
 3579 02d9 0B       		.uleb128 0xb
 3580 02da 59       		.uleb128 0x59
 3581 02db 05       		.uleb128 0x5
ARM GAS  /tmp/ccHz812R.s 			page 64


 3582 02dc 00       		.byte	0
 3583 02dd 00       		.byte	0
 3584 02de 37       		.uleb128 0x37
 3585 02df 2E       		.uleb128 0x2e
 3586 02e0 01       		.byte	0x1
 3587 02e1 31       		.uleb128 0x31
 3588 02e2 13       		.uleb128 0x13
 3589 02e3 11       		.uleb128 0x11
 3590 02e4 01       		.uleb128 0x1
 3591 02e5 12       		.uleb128 0x12
 3592 02e6 01       		.uleb128 0x1
 3593 02e7 40       		.uleb128 0x40
 3594 02e8 0A       		.uleb128 0xa
 3595 02e9 01       		.uleb128 0x1
 3596 02ea 13       		.uleb128 0x13
 3597 02eb 00       		.byte	0
 3598 02ec 00       		.byte	0
 3599 02ed 38       		.uleb128 0x38
 3600 02ee 2E       		.uleb128 0x2e
 3601 02ef 01       		.byte	0x1
 3602 02f0 3F       		.uleb128 0x3f
 3603 02f1 0C       		.uleb128 0xc
 3604 02f2 03       		.uleb128 0x3
 3605 02f3 0E       		.uleb128 0xe
 3606 02f4 3A       		.uleb128 0x3a
 3607 02f5 0B       		.uleb128 0xb
 3608 02f6 3B       		.uleb128 0x3b
 3609 02f7 05       		.uleb128 0x5
 3610 02f8 27       		.uleb128 0x27
 3611 02f9 0C       		.uleb128 0xc
 3612 02fa 11       		.uleb128 0x11
 3613 02fb 01       		.uleb128 0x1
 3614 02fc 12       		.uleb128 0x12
 3615 02fd 01       		.uleb128 0x1
 3616 02fe 40       		.uleb128 0x40
 3617 02ff 06       		.uleb128 0x6
 3618 0300 01       		.uleb128 0x1
 3619 0301 13       		.uleb128 0x13
 3620 0302 00       		.byte	0
 3621 0303 00       		.byte	0
 3622 0304 39       		.uleb128 0x39
 3623 0305 05       		.uleb128 0x5
 3624 0306 00       		.byte	0
 3625 0307 03       		.uleb128 0x3
 3626 0308 08       		.uleb128 0x8
 3627 0309 3A       		.uleb128 0x3a
 3628 030a 0B       		.uleb128 0xb
 3629 030b 3B       		.uleb128 0x3b
 3630 030c 05       		.uleb128 0x5
 3631 030d 49       		.uleb128 0x49
 3632 030e 13       		.uleb128 0x13
 3633 030f 02       		.uleb128 0x2
 3634 0310 06       		.uleb128 0x6
 3635 0311 00       		.byte	0
 3636 0312 00       		.byte	0
 3637 0313 3A       		.uleb128 0x3a
 3638 0314 34       		.uleb128 0x34
ARM GAS  /tmp/ccHz812R.s 			page 65


 3639 0315 00       		.byte	0
 3640 0316 03       		.uleb128 0x3
 3641 0317 08       		.uleb128 0x8
 3642 0318 3A       		.uleb128 0x3a
 3643 0319 0B       		.uleb128 0xb
 3644 031a 3B       		.uleb128 0x3b
 3645 031b 05       		.uleb128 0x5
 3646 031c 49       		.uleb128 0x49
 3647 031d 13       		.uleb128 0x13
 3648 031e 02       		.uleb128 0x2
 3649 031f 06       		.uleb128 0x6
 3650 0320 00       		.byte	0
 3651 0321 00       		.byte	0
 3652 0322 3B       		.uleb128 0x3b
 3653 0323 0B       		.uleb128 0xb
 3654 0324 01       		.byte	0x1
 3655 0325 11       		.uleb128 0x11
 3656 0326 01       		.uleb128 0x1
 3657 0327 12       		.uleb128 0x12
 3658 0328 01       		.uleb128 0x1
 3659 0329 01       		.uleb128 0x1
 3660 032a 13       		.uleb128 0x13
 3661 032b 00       		.byte	0
 3662 032c 00       		.byte	0
 3663 032d 3C       		.uleb128 0x3c
 3664 032e 34       		.uleb128 0x34
 3665 032f 00       		.byte	0
 3666 0330 03       		.uleb128 0x3
 3667 0331 0E       		.uleb128 0xe
 3668 0332 3A       		.uleb128 0x3a
 3669 0333 0B       		.uleb128 0xb
 3670 0334 3B       		.uleb128 0x3b
 3671 0335 05       		.uleb128 0x5
 3672 0336 49       		.uleb128 0x49
 3673 0337 13       		.uleb128 0x13
 3674 0338 02       		.uleb128 0x2
 3675 0339 06       		.uleb128 0x6
 3676 033a 00       		.byte	0
 3677 033b 00       		.byte	0
 3678 033c 3D       		.uleb128 0x3d
 3679 033d 34       		.uleb128 0x34
 3680 033e 00       		.byte	0
 3681 033f 03       		.uleb128 0x3
 3682 0340 0E       		.uleb128 0xe
 3683 0341 3A       		.uleb128 0x3a
 3684 0342 0B       		.uleb128 0xb
 3685 0343 3B       		.uleb128 0x3b
 3686 0344 05       		.uleb128 0x5
 3687 0345 49       		.uleb128 0x49
 3688 0346 13       		.uleb128 0x13
 3689 0347 3F       		.uleb128 0x3f
 3690 0348 0C       		.uleb128 0xc
 3691 0349 3C       		.uleb128 0x3c
 3692 034a 0C       		.uleb128 0xc
 3693 034b 00       		.byte	0
 3694 034c 00       		.byte	0
 3695 034d 3E       		.uleb128 0x3e
ARM GAS  /tmp/ccHz812R.s 			page 66


 3696 034e 34       		.uleb128 0x34
 3697 034f 00       		.byte	0
 3698 0350 03       		.uleb128 0x3
 3699 0351 08       		.uleb128 0x8
 3700 0352 3A       		.uleb128 0x3a
 3701 0353 0B       		.uleb128 0xb
 3702 0354 3B       		.uleb128 0x3b
 3703 0355 05       		.uleb128 0x5
 3704 0356 49       		.uleb128 0x49
 3705 0357 13       		.uleb128 0x13
 3706 0358 3F       		.uleb128 0x3f
 3707 0359 0C       		.uleb128 0xc
 3708 035a 3C       		.uleb128 0x3c
 3709 035b 0C       		.uleb128 0xc
 3710 035c 00       		.byte	0
 3711 035d 00       		.byte	0
 3712 035e 00       		.byte	0
 3713              		.section	.debug_loc,"",%progbits
 3714              	.Ldebug_loc0:
 3715              	.LLST0:
 3716 0000 00000000 		.4byte	.LFB184
 3717 0004 02000000 		.4byte	.LCFI0
 3718 0008 0200     		.2byte	0x2
 3719 000a 7D       		.byte	0x7d
 3720 000b 00       		.sleb128 0
 3721 000c 02000000 		.4byte	.LCFI0
 3722 0010 C2000000 		.4byte	.LFE184
 3723 0014 0200     		.2byte	0x2
 3724 0016 7D       		.byte	0x7d
 3725 0017 18       		.sleb128 24
 3726 0018 00000000 		.4byte	0
 3727 001c 00000000 		.4byte	0
 3728              	.LLST1:
 3729 0020 00000000 		.4byte	.LVL1
 3730 0024 18000000 		.4byte	.LVL4
 3731 0028 0100     		.2byte	0x1
 3732 002a 50       		.byte	0x50
 3733 002b 18000000 		.4byte	.LVL4
 3734 002f C2000000 		.4byte	.LFE184
 3735 0033 0100     		.2byte	0x1
 3736 0035 55       		.byte	0x55
 3737 0036 00000000 		.4byte	0
 3738 003a 00000000 		.4byte	0
 3739              	.LLST2:
 3740 003e 10000000 		.4byte	.LVL2
 3741 0042 1C000000 		.4byte	.LVL5
 3742 0046 0200     		.2byte	0x2
 3743 0048 72       		.byte	0x72
 3744 0049 18       		.sleb128 24
 3745 004a 2A000000 		.4byte	.LVL6
 3746 004e C2000000 		.4byte	.LFE184
 3747 0052 0100     		.2byte	0x1
 3748 0054 54       		.byte	0x54
 3749 0055 00000000 		.4byte	0
 3750 0059 00000000 		.4byte	0
 3751              	.LLST3:
 3752 005d 14000000 		.4byte	.LVL3
ARM GAS  /tmp/ccHz812R.s 			page 67


 3753 0061 18000000 		.4byte	.LVL4
 3754 0065 0200     		.2byte	0x2
 3755 0067 70       		.byte	0x70
 3756 0068 08       		.sleb128 8
 3757 0069 18000000 		.4byte	.LVL4
 3758 006d 1C000000 		.4byte	.LVL5
 3759 0071 0200     		.2byte	0x2
 3760 0073 75       		.byte	0x75
 3761 0074 08       		.sleb128 8
 3762 0075 1C000000 		.4byte	.LVL5
 3763 0079 2A000000 		.4byte	.LVL6
 3764 007d 0100     		.2byte	0x1
 3765 007f 53       		.byte	0x53
 3766 0080 50000000 		.4byte	.LVL9
 3767 0084 5A000000 		.4byte	.LVL10
 3768 0088 0100     		.2byte	0x1
 3769 008a 53       		.byte	0x53
 3770 008b 5A000000 		.4byte	.LVL10
 3771 008f 5F000000 		.4byte	.LVL11-1
 3772 0093 0100     		.2byte	0x1
 3773 0095 50       		.byte	0x50
 3774 0096 62000000 		.4byte	.LVL12
 3775 009a AE000000 		.4byte	.LVL20
 3776 009e 0100     		.2byte	0x1
 3777 00a0 53       		.byte	0x53
 3778 00a1 AE000000 		.4byte	.LVL20
 3779 00a5 B8000000 		.4byte	.LVL22
 3780 00a9 0200     		.2byte	0x2
 3781 00ab 76       		.byte	0x76
 3782 00ac 08       		.sleb128 8
 3783 00ad 00000000 		.4byte	0
 3784 00b1 00000000 		.4byte	0
 3785              	.LLST4:
 3786 00b5 2A000000 		.4byte	.LVL6
 3787 00b9 50000000 		.4byte	.LVL9
 3788 00bd 0100     		.2byte	0x1
 3789 00bf 55       		.byte	0x55
 3790 00c0 00000000 		.4byte	0
 3791 00c4 00000000 		.4byte	0
 3792              	.LLST5:
 3793 00c8 2A000000 		.4byte	.LVL6
 3794 00cc 50000000 		.4byte	.LVL9
 3795 00d0 0100     		.2byte	0x1
 3796 00d2 54       		.byte	0x54
 3797 00d3 00000000 		.4byte	0
 3798 00d7 00000000 		.4byte	0
 3799              	.LLST6:
 3800 00db 2A000000 		.4byte	.LVL6
 3801 00df 2C000000 		.4byte	.LVL7
 3802 00e3 0100     		.2byte	0x1
 3803 00e5 55       		.byte	0x55
 3804 00e6 2C000000 		.4byte	.LVL7
 3805 00ea 4F000000 		.4byte	.LVL9-1
 3806 00ee 0100     		.2byte	0x1
 3807 00f0 53       		.byte	0x53
 3808 00f1 00000000 		.4byte	0
 3809 00f5 00000000 		.4byte	0
ARM GAS  /tmp/ccHz812R.s 			page 68


 3810              	.LLST7:
 3811 00f9 50000000 		.4byte	.LVL9
 3812 00fd 5A000000 		.4byte	.LVL10
 3813 0101 0100     		.2byte	0x1
 3814 0103 53       		.byte	0x53
 3815 0104 5A000000 		.4byte	.LVL10
 3816 0108 5F000000 		.4byte	.LVL11-1
 3817 010c 0100     		.2byte	0x1
 3818 010e 50       		.byte	0x50
 3819 010f 00000000 		.4byte	0
 3820 0113 00000000 		.4byte	0
 3821              	.LLST8:
 3822 0117 62000000 		.4byte	.LVL12
 3823 011b 88000000 		.4byte	.LVL16
 3824 011f 0100     		.2byte	0x1
 3825 0121 53       		.byte	0x53
 3826 0122 00000000 		.4byte	0
 3827 0126 00000000 		.4byte	0
 3828              	.LLST9:
 3829 012a 68000000 		.4byte	.LVL13
 3830 012e 88000000 		.4byte	.LVL16
 3831 0132 0200     		.2byte	0x2
 3832 0134 73       		.byte	0x73
 3833 0135 20       		.sleb128 32
 3834 0136 00000000 		.4byte	0
 3835 013a 00000000 		.4byte	0
 3836              	.LLST10:
 3837 013e 68000000 		.4byte	.LVL13
 3838 0142 88000000 		.4byte	.LVL16
 3839 0146 0100     		.2byte	0x1
 3840 0148 53       		.byte	0x53
 3841 0149 00000000 		.4byte	0
 3842 014d 00000000 		.4byte	0
 3843              	.LLST11:
 3844 0151 68000000 		.4byte	.LVL13
 3845 0155 70000000 		.4byte	.LVL14
 3846 0159 0200     		.2byte	0x2
 3847 015b 73       		.byte	0x73
 3848 015c 20       		.sleb128 32
 3849 015d 70000000 		.4byte	.LVL14
 3850 0161 88000000 		.4byte	.LVL16
 3851 0165 0100     		.2byte	0x1
 3852 0167 52       		.byte	0x52
 3853 0168 00000000 		.4byte	0
 3854 016c 00000000 		.4byte	0
 3855              	.LLST12:
 3856 0170 88000000 		.4byte	.LVL16
 3857 0174 AE000000 		.4byte	.LVL20
 3858 0178 0100     		.2byte	0x1
 3859 017a 53       		.byte	0x53
 3860 017b AE000000 		.4byte	.LVL20
 3861 017f B2000000 		.4byte	.LVL21
 3862 0183 0200     		.2byte	0x2
 3863 0185 72       		.byte	0x72
 3864 0186 04       		.sleb128 4
 3865 0187 00000000 		.4byte	0
 3866 018b 00000000 		.4byte	0
ARM GAS  /tmp/ccHz812R.s 			page 69


 3867              	.LLST13:
 3868 018f 8E000000 		.4byte	.LVL17
 3869 0193 AE000000 		.4byte	.LVL20
 3870 0197 0200     		.2byte	0x2
 3871 0199 73       		.byte	0x73
 3872 019a 20       		.sleb128 32
 3873 019b AE000000 		.4byte	.LVL20
 3874 019f B8000000 		.4byte	.LVL22
 3875 01a3 0100     		.2byte	0x1
 3876 01a5 56       		.byte	0x56
 3877 01a6 00000000 		.4byte	0
 3878 01aa 00000000 		.4byte	0
 3879              	.LLST14:
 3880 01ae 8E000000 		.4byte	.LVL17
 3881 01b2 AE000000 		.4byte	.LVL20
 3882 01b6 0100     		.2byte	0x1
 3883 01b8 53       		.byte	0x53
 3884 01b9 AE000000 		.4byte	.LVL20
 3885 01bd B2000000 		.4byte	.LVL21
 3886 01c1 0200     		.2byte	0x2
 3887 01c3 72       		.byte	0x72
 3888 01c4 04       		.sleb128 4
 3889 01c5 00000000 		.4byte	0
 3890 01c9 00000000 		.4byte	0
 3891              	.LLST15:
 3892 01cd 8E000000 		.4byte	.LVL17
 3893 01d1 96000000 		.4byte	.LVL18
 3894 01d5 0200     		.2byte	0x2
 3895 01d7 73       		.byte	0x73
 3896 01d8 20       		.sleb128 32
 3897 01d9 96000000 		.4byte	.LVL18
 3898 01dd B2000000 		.4byte	.LVL21
 3899 01e1 0100     		.2byte	0x1
 3900 01e3 52       		.byte	0x52
 3901 01e4 00000000 		.4byte	0
 3902 01e8 00000000 		.4byte	0
 3903              	.LLST16:
 3904 01ec 00000000 		.4byte	.LFB183
 3905 01f0 02000000 		.4byte	.LCFI1
 3906 01f4 0200     		.2byte	0x2
 3907 01f6 7D       		.byte	0x7d
 3908 01f7 00       		.sleb128 0
 3909 01f8 02000000 		.4byte	.LCFI1
 3910 01fc 14000000 		.4byte	.LFE183
 3911 0200 0200     		.2byte	0x2
 3912 0202 7D       		.byte	0x7d
 3913 0203 08       		.sleb128 8
 3914 0204 00000000 		.4byte	0
 3915 0208 00000000 		.4byte	0
 3916              	.LLST17:
 3917 020c 00000000 		.4byte	.LVL23
 3918 0210 0B000000 		.4byte	.LVL24-1
 3919 0214 0100     		.2byte	0x1
 3920 0216 50       		.byte	0x50
 3921 0217 00000000 		.4byte	0
 3922 021b 00000000 		.4byte	0
 3923              	.LLST18:
ARM GAS  /tmp/ccHz812R.s 			page 70


 3924 021f 00000000 		.4byte	.LVL25
 3925 0223 04000000 		.4byte	.LVL26
 3926 0227 0100     		.2byte	0x1
 3927 0229 50       		.byte	0x50
 3928 022a 04000000 		.4byte	.LVL26
 3929 022e 10000000 		.4byte	.LVL29
 3930 0232 0100     		.2byte	0x1
 3931 0234 53       		.byte	0x53
 3932 0235 16000000 		.4byte	.LVL30
 3933 0239 2E000000 		.4byte	.LVL32
 3934 023d 0100     		.2byte	0x1
 3935 023f 53       		.byte	0x53
 3936 0240 2E000000 		.4byte	.LVL32
 3937 0244 34000000 		.4byte	.LFE185
 3938 0248 0500     		.2byte	0x5
 3939 024a 7C       		.byte	0x7c
 3940 024b 18       		.sleb128 24
 3941 024c 06       		.byte	0x6
 3942 024d 23       		.byte	0x23
 3943 024e 38       		.uleb128 0x38
 3944 024f 00000000 		.4byte	0
 3945 0253 00000000 		.4byte	0
 3946              	.LLST19:
 3947 0257 08000000 		.4byte	.LVL27
 3948 025b 10000000 		.4byte	.LVL29
 3949 025f 0100     		.2byte	0x1
 3950 0261 53       		.byte	0x53
 3951 0262 16000000 		.4byte	.LVL30
 3952 0266 2E000000 		.4byte	.LVL32
 3953 026a 0100     		.2byte	0x1
 3954 026c 53       		.byte	0x53
 3955 026d 2E000000 		.4byte	.LVL32
 3956 0271 34000000 		.4byte	.LFE185
 3957 0275 0500     		.2byte	0x5
 3958 0277 7C       		.byte	0x7c
 3959 0278 18       		.sleb128 24
 3960 0279 06       		.byte	0x6
 3961 027a 23       		.byte	0x23
 3962 027b 38       		.uleb128 0x38
 3963 027c 00000000 		.4byte	0
 3964 0280 00000000 		.4byte	0
 3965              	.LLST20:
 3966 0284 0E000000 		.4byte	.LVL28
 3967 0288 16000000 		.4byte	.LVL30
 3968 028c 0200     		.2byte	0x2
 3969 028e 30       		.byte	0x30
 3970 028f 9F       		.byte	0x9f
 3971 0290 2C000000 		.4byte	.LVL31
 3972 0294 34000000 		.4byte	.LFE185
 3973 0298 0200     		.2byte	0x2
 3974 029a 30       		.byte	0x30
 3975 029b 9F       		.byte	0x9f
 3976 029c 00000000 		.4byte	0
 3977 02a0 00000000 		.4byte	0
 3978              	.LLST21:
 3979 02a4 00000000 		.4byte	.LVL33
 3980 02a8 08000000 		.4byte	.LVL34
ARM GAS  /tmp/ccHz812R.s 			page 71


 3981 02ac 0100     		.2byte	0x1
 3982 02ae 50       		.byte	0x50
 3983 02af 08000000 		.4byte	.LVL34
 3984 02b3 20000000 		.4byte	.LFE186
 3985 02b7 0100     		.2byte	0x1
 3986 02b9 53       		.byte	0x53
 3987 02ba 00000000 		.4byte	0
 3988 02be 00000000 		.4byte	0
 3989              	.LLST22:
 3990 02c2 00000000 		.4byte	.LFB187
 3991 02c6 0A000000 		.4byte	.LCFI2
 3992 02ca 0200     		.2byte	0x2
 3993 02cc 7D       		.byte	0x7d
 3994 02cd 00       		.sleb128 0
 3995 02ce 0A000000 		.4byte	.LCFI2
 3996 02d2 64000000 		.4byte	.LFE187
 3997 02d6 0200     		.2byte	0x2
 3998 02d8 7D       		.byte	0x7d
 3999 02d9 10       		.sleb128 16
 4000 02da 00000000 		.4byte	0
 4001 02de 00000000 		.4byte	0
 4002              	.LLST23:
 4003 02e2 00000000 		.4byte	.LVL35
 4004 02e6 10000000 		.4byte	.LVL36
 4005 02ea 0100     		.2byte	0x1
 4006 02ec 50       		.byte	0x50
 4007 02ed 10000000 		.4byte	.LVL36
 4008 02f1 4B000000 		.4byte	.LVL45-1
 4009 02f5 0100     		.2byte	0x1
 4010 02f7 53       		.byte	0x53
 4011 02f8 58000000 		.4byte	.LVL47
 4012 02fc 5E000000 		.4byte	.LVL50
 4013 0300 0100     		.2byte	0x1
 4014 0302 53       		.byte	0x53
 4015 0303 00000000 		.4byte	0
 4016 0307 00000000 		.4byte	0
 4017              	.LLST24:
 4018 030b 10000000 		.4byte	.LVL36
 4019 030f 18000000 		.4byte	.LVL37
 4020 0313 0200     		.2byte	0x2
 4021 0315 71       		.byte	0x71
 4022 0316 18       		.sleb128 24
 4023 0317 58000000 		.4byte	.LVL47
 4024 031b 5A000000 		.4byte	.LVL48
 4025 031f 0100     		.2byte	0x1
 4026 0321 50       		.byte	0x50
 4027 0322 00000000 		.4byte	0
 4028 0326 00000000 		.4byte	0
 4029              	.LLST25:
 4030 032a 20000000 		.4byte	.LVL39
 4031 032e 22000000 		.4byte	.LVL40
 4032 0332 0200     		.2byte	0x2
 4033 0334 73       		.byte	0x73
 4034 0335 0C       		.sleb128 12
 4035 0336 22000000 		.4byte	.LVL40
 4036 033a 38000000 		.4byte	.LVL43
 4037 033e 0100     		.2byte	0x1
ARM GAS  /tmp/ccHz812R.s 			page 72


 4038 0340 51       		.byte	0x51
 4039 0341 00000000 		.4byte	0
 4040 0345 00000000 		.4byte	0
 4041              	.LLST26:
 4042 0349 1C000000 		.4byte	.LVL38
 4043 034d 4B000000 		.4byte	.LVL45-1
 4044 0351 0100     		.2byte	0x1
 4045 0353 53       		.byte	0x53
 4046 0354 58000000 		.4byte	.LVL47
 4047 0358 5E000000 		.4byte	.LVL50
 4048 035c 0100     		.2byte	0x1
 4049 035e 53       		.byte	0x53
 4050 035f 00000000 		.4byte	0
 4051 0363 00000000 		.4byte	0
 4052              	.LLST28:
 4053 0367 22000000 		.4byte	.LVL40
 4054 036b 58000000 		.4byte	.LVL47
 4055 036f 0100     		.2byte	0x1
 4056 0371 55       		.byte	0x55
 4057 0372 00000000 		.4byte	0
 4058 0376 00000000 		.4byte	0
 4059              	.LLST29:
 4060 037a 22000000 		.4byte	.LVL40
 4061 037e 32000000 		.4byte	.LVL42
 4062 0382 0100     		.2byte	0x1
 4063 0384 51       		.byte	0x51
 4064 0385 00000000 		.4byte	0
 4065 0389 00000000 		.4byte	0
 4066              	.LLST31:
 4067 038d 3C000000 		.4byte	.LVL44
 4068 0391 4B000000 		.4byte	.LVL45-1
 4069 0395 0100     		.2byte	0x1
 4070 0397 53       		.byte	0x53
 4071 0398 00000000 		.4byte	0
 4072 039c 00000000 		.4byte	0
 4073              	.LLST32:
 4074 03a0 3C000000 		.4byte	.LVL44
 4075 03a4 4B000000 		.4byte	.LVL45-1
 4076 03a8 0200     		.2byte	0x2
 4077 03aa 73       		.byte	0x73
 4078 03ab 00       		.sleb128 0
 4079 03ac 00000000 		.4byte	0
 4080 03b0 00000000 		.4byte	0
 4081              	.LLST33:
 4082 03b4 50000000 		.4byte	.LVL46
 4083 03b8 58000000 		.4byte	.LVL47
 4084 03bc 0200     		.2byte	0x2
 4085 03be 30       		.byte	0x30
 4086 03bf 9F       		.byte	0x9f
 4087 03c0 5C000000 		.4byte	.LVL49
 4088 03c4 64000000 		.4byte	.LFE187
 4089 03c8 0200     		.2byte	0x2
 4090 03ca 30       		.byte	0x30
 4091 03cb 9F       		.byte	0x9f
 4092 03cc 00000000 		.4byte	0
 4093 03d0 00000000 		.4byte	0
 4094              	.LLST34:
ARM GAS  /tmp/ccHz812R.s 			page 73


 4095 03d4 00000000 		.4byte	.LFB188
 4096 03d8 0A000000 		.4byte	.LCFI3
 4097 03dc 0200     		.2byte	0x2
 4098 03de 7D       		.byte	0x7d
 4099 03df 00       		.sleb128 0
 4100 03e0 0A000000 		.4byte	.LCFI3
 4101 03e4 50000000 		.4byte	.LFE188
 4102 03e8 0200     		.2byte	0x2
 4103 03ea 7D       		.byte	0x7d
 4104 03eb 0C       		.sleb128 12
 4105 03ec 00000000 		.4byte	0
 4106 03f0 00000000 		.4byte	0
 4107              	.LLST35:
 4108 03f4 00000000 		.4byte	.LVL51
 4109 03f8 18000000 		.4byte	.LVL55
 4110 03fc 0100     		.2byte	0x1
 4111 03fe 50       		.byte	0x50
 4112 03ff 1C000000 		.4byte	.LVL57
 4113 0403 47000000 		.4byte	.LVL62-1
 4114 0407 0100     		.2byte	0x1
 4115 0409 53       		.byte	0x53
 4116 040a 48000000 		.4byte	.LVL62
 4117 040e 50000000 		.4byte	.LFE188
 4118 0412 0100     		.2byte	0x1
 4119 0414 50       		.byte	0x50
 4120 0415 00000000 		.4byte	0
 4121 0419 00000000 		.4byte	0
 4122              	.LLST36:
 4123 041d 0C000000 		.4byte	.LVL52
 4124 0421 0E000000 		.4byte	.LVL53
 4125 0425 0200     		.2byte	0x2
 4126 0427 72       		.byte	0x72
 4127 0428 18       		.sleb128 24
 4128 0429 47000000 		.4byte	.LVL62-1
 4129 042d 50000000 		.4byte	.LFE188
 4130 0431 0100     		.2byte	0x1
 4131 0433 56       		.byte	0x56
 4132 0434 00000000 		.4byte	0
 4133 0438 00000000 		.4byte	0
 4134              	.LLST37:
 4135 043c 1A000000 		.4byte	.LVL56
 4136 0440 1C000000 		.4byte	.LVL57
 4137 0444 0200     		.2byte	0x2
 4138 0446 70       		.byte	0x70
 4139 0447 0C       		.sleb128 12
 4140 0448 1C000000 		.4byte	.LVL57
 4141 044c 32000000 		.4byte	.LVL60
 4142 0450 0100     		.2byte	0x1
 4143 0452 51       		.byte	0x51
 4144 0453 00000000 		.4byte	0
 4145 0457 00000000 		.4byte	0
 4146              	.LLST38:
 4147 045b 16000000 		.4byte	.LVL54
 4148 045f 1C000000 		.4byte	.LVL57
 4149 0463 0100     		.2byte	0x1
 4150 0465 50       		.byte	0x50
 4151 0466 1C000000 		.4byte	.LVL57
ARM GAS  /tmp/ccHz812R.s 			page 74


 4152 046a 47000000 		.4byte	.LVL62-1
 4153 046e 0100     		.2byte	0x1
 4154 0470 53       		.byte	0x53
 4155 0471 48000000 		.4byte	.LVL62
 4156 0475 50000000 		.4byte	.LFE188
 4157 0479 0100     		.2byte	0x1
 4158 047b 50       		.byte	0x50
 4159 047c 00000000 		.4byte	0
 4160 0480 00000000 		.4byte	0
 4161              	.LLST40:
 4162 0484 1C000000 		.4byte	.LVL57
 4163 0488 48000000 		.4byte	.LVL62
 4164 048c 0100     		.2byte	0x1
 4165 048e 55       		.byte	0x55
 4166 048f 00000000 		.4byte	0
 4167 0493 00000000 		.4byte	0
 4168              	.LLST41:
 4169 0497 1C000000 		.4byte	.LVL57
 4170 049b 2C000000 		.4byte	.LVL59
 4171 049f 0100     		.2byte	0x1
 4172 04a1 51       		.byte	0x51
 4173 04a2 00000000 		.4byte	0
 4174 04a6 00000000 		.4byte	0
 4175              	.LLST43:
 4176 04aa 38000000 		.4byte	.LVL61
 4177 04ae 47000000 		.4byte	.LVL62-1
 4178 04b2 0100     		.2byte	0x1
 4179 04b4 53       		.byte	0x53
 4180 04b5 00000000 		.4byte	0
 4181 04b9 00000000 		.4byte	0
 4182              	.LLST44:
 4183 04bd 38000000 		.4byte	.LVL61
 4184 04c1 47000000 		.4byte	.LVL62-1
 4185 04c5 0200     		.2byte	0x2
 4186 04c7 73       		.byte	0x73
 4187 04c8 00       		.sleb128 0
 4188 04c9 00000000 		.4byte	0
 4189 04cd 00000000 		.4byte	0
 4190              	.LLST45:
 4191 04d1 00000000 		.4byte	.LFB189
 4192 04d5 0A000000 		.4byte	.LCFI4
 4193 04d9 0200     		.2byte	0x2
 4194 04db 7D       		.byte	0x7d
 4195 04dc 00       		.sleb128 0
 4196 04dd 0A000000 		.4byte	.LCFI4
 4197 04e1 50000000 		.4byte	.LFE189
 4198 04e5 0200     		.2byte	0x2
 4199 04e7 7D       		.byte	0x7d
 4200 04e8 10       		.sleb128 16
 4201 04e9 00000000 		.4byte	0
 4202 04ed 00000000 		.4byte	0
 4203              	.LLST46:
 4204 04f1 0E000000 		.4byte	.LVL63
 4205 04f5 18000000 		.4byte	.LVL64
 4206 04f9 0200     		.2byte	0x2
 4207 04fb 70       		.byte	0x70
 4208 04fc 18       		.sleb128 24
ARM GAS  /tmp/ccHz812R.s 			page 75


 4209 04fd 18000000 		.4byte	.LVL64
 4210 0501 50000000 		.4byte	.LFE189
 4211 0505 0100     		.2byte	0x1
 4212 0507 54       		.byte	0x54
 4213 0508 00000000 		.4byte	0
 4214 050c 00000000 		.4byte	0
 4215              	.LLST47:
 4216 0510 18000000 		.4byte	.LVL64
 4217 0514 39000000 		.4byte	.LVL67-1
 4218 0518 0100     		.2byte	0x1
 4219 051a 53       		.byte	0x53
 4220 051b 00000000 		.4byte	0
 4221 051f 00000000 		.4byte	0
 4222              	.LLST48:
 4223 0523 20000000 		.4byte	.LVL65
 4224 0527 39000000 		.4byte	.LVL67-1
 4225 052b 0100     		.2byte	0x1
 4226 052d 53       		.byte	0x53
 4227 052e 00000000 		.4byte	0
 4228 0532 00000000 		.4byte	0
 4229              	.LLST50:
 4230 0536 28000000 		.4byte	.LVL66
 4231 053a 39000000 		.4byte	.LVL67-1
 4232 053e 0100     		.2byte	0x1
 4233 0540 53       		.byte	0x53
 4234 0541 00000000 		.4byte	0
 4235 0545 00000000 		.4byte	0
 4236              	.LLST51:
 4237 0549 28000000 		.4byte	.LVL66
 4238 054d 39000000 		.4byte	.LVL67-1
 4239 0551 0200     		.2byte	0x2
 4240 0553 73       		.byte	0x73
 4241 0554 00       		.sleb128 0
 4242 0555 00000000 		.4byte	0
 4243 0559 00000000 		.4byte	0
 4244              		.section	.debug_aranges,"",%progbits
 4245 0000 54000000 		.4byte	0x54
 4246 0004 0200     		.2byte	0x2
 4247 0006 00000000 		.4byte	.Ldebug_info0
 4248 000a 04       		.byte	0x4
 4249 000b 00       		.byte	0
 4250 000c 0000     		.2byte	0
 4251 000e 0000     		.2byte	0
 4252 0010 00000000 		.4byte	.LFB182
 4253 0014 0A000000 		.4byte	.LFE182-.LFB182
 4254 0018 00000000 		.4byte	.LFB184
 4255 001c C2000000 		.4byte	.LFE184-.LFB184
 4256 0020 00000000 		.4byte	.LFB183
 4257 0024 14000000 		.4byte	.LFE183-.LFB183
 4258 0028 00000000 		.4byte	.LFB185
 4259 002c 34000000 		.4byte	.LFE185-.LFB185
 4260 0030 00000000 		.4byte	.LFB186
 4261 0034 20000000 		.4byte	.LFE186-.LFB186
 4262 0038 00000000 		.4byte	.LFB187
 4263 003c 64000000 		.4byte	.LFE187-.LFB187
 4264 0040 00000000 		.4byte	.LFB188
 4265 0044 50000000 		.4byte	.LFE188-.LFB188
ARM GAS  /tmp/ccHz812R.s 			page 76


 4266 0048 00000000 		.4byte	.LFB189
 4267 004c 50000000 		.4byte	.LFE189-.LFB189
 4268 0050 00000000 		.4byte	0
 4269 0054 00000000 		.4byte	0
 4270              		.section	.debug_ranges,"",%progbits
 4271              	.Ldebug_ranges0:
 4272 0000 14000000 		.4byte	.LBB105
 4273 0004 48000000 		.4byte	.LBE105
 4274 0008 4C000000 		.4byte	.LBB130
 4275 000c B8000000 		.4byte	.LBE130
 4276 0010 00000000 		.4byte	0
 4277 0014 00000000 		.4byte	0
 4278 0018 2C000000 		.4byte	.LBB106
 4279 001c 3C000000 		.4byte	.LBE106
 4280 0020 3E000000 		.4byte	.LBB109
 4281 0024 46000000 		.4byte	.LBE109
 4282 0028 00000000 		.4byte	0
 4283 002c 00000000 		.4byte	0
 4284 0030 2C000000 		.4byte	.LBB107
 4285 0034 3C000000 		.4byte	.LBE107
 4286 0038 3E000000 		.4byte	.LBB108
 4287 003c 46000000 		.4byte	.LBE108
 4288 0040 00000000 		.4byte	0
 4289 0044 00000000 		.4byte	0
 4290 0048 50000000 		.4byte	.LBB110
 4291 004c 56000000 		.4byte	.LBE110
 4292 0050 58000000 		.4byte	.LBB113
 4293 0054 5C000000 		.4byte	.LBE113
 4294 0058 00000000 		.4byte	0
 4295 005c 00000000 		.4byte	0
 4296 0060 62000000 		.4byte	.LBB114
 4297 0064 66000000 		.4byte	.LBE114
 4298 0068 68000000 		.4byte	.LBB118
 4299 006c 6C000000 		.4byte	.LBE118
 4300 0070 6E000000 		.4byte	.LBB119
 4301 0074 70000000 		.4byte	.LBE119
 4302 0078 00000000 		.4byte	0
 4303 007c 00000000 		.4byte	0
 4304 0080 88000000 		.4byte	.LBB122
 4305 0084 8C000000 		.4byte	.LBE122
 4306 0088 8E000000 		.4byte	.LBB126
 4307 008c 92000000 		.4byte	.LBE126
 4308 0090 94000000 		.4byte	.LBB127
 4309 0094 96000000 		.4byte	.LBE127
 4310 0098 00000000 		.4byte	0
 4311 009c 00000000 		.4byte	0
 4312 00a0 08000000 		.4byte	.LBB144
 4313 00a4 0E000000 		.4byte	.LBE144
 4314 00a8 16000000 		.4byte	.LBB156
 4315 00ac 2C000000 		.4byte	.LBE156
 4316 00b0 00000000 		.4byte	0
 4317 00b4 00000000 		.4byte	0
 4318 00b8 08000000 		.4byte	.LBB145
 4319 00bc 0E000000 		.4byte	.LBE145
 4320 00c0 16000000 		.4byte	.LBB146
 4321 00c4 2C000000 		.4byte	.LBE146
 4322 00c8 00000000 		.4byte	0
ARM GAS  /tmp/ccHz812R.s 			page 77


 4323 00cc 00000000 		.4byte	0
 4324 00d0 0E000000 		.4byte	.LBB147
 4325 00d4 14000000 		.4byte	.LBE147
 4326 00d8 2C000000 		.4byte	.LBB157
 4327 00dc 32000000 		.4byte	.LBE157
 4328 00e0 00000000 		.4byte	0
 4329 00e4 00000000 		.4byte	0
 4330 00e8 0E000000 		.4byte	.LBB148
 4331 00ec 14000000 		.4byte	.LBE148
 4332 00f0 2C000000 		.4byte	.LBB155
 4333 00f4 32000000 		.4byte	.LBE155
 4334 00f8 00000000 		.4byte	0
 4335 00fc 00000000 		.4byte	0
 4336 0100 0E000000 		.4byte	.LBB149
 4337 0104 14000000 		.4byte	.LBE149
 4338 0108 2C000000 		.4byte	.LBB154
 4339 010c 32000000 		.4byte	.LBE154
 4340 0110 00000000 		.4byte	0
 4341 0114 00000000 		.4byte	0
 4342 0118 0E000000 		.4byte	.LBB150
 4343 011c 14000000 		.4byte	.LBE150
 4344 0120 2C000000 		.4byte	.LBB153
 4345 0124 32000000 		.4byte	.LBE153
 4346 0128 00000000 		.4byte	0
 4347 012c 00000000 		.4byte	0
 4348 0130 0A000000 		.4byte	.LBB158
 4349 0134 0C000000 		.4byte	.LBE158
 4350 0138 10000000 		.4byte	.LBB165
 4351 013c 14000000 		.4byte	.LBE165
 4352 0140 00000000 		.4byte	0
 4353 0144 00000000 		.4byte	0
 4354 0148 0A000000 		.4byte	.LBB159
 4355 014c 0C000000 		.4byte	.LBE159
 4356 0150 10000000 		.4byte	.LBB164
 4357 0154 14000000 		.4byte	.LBE164
 4358 0158 00000000 		.4byte	0
 4359 015c 00000000 		.4byte	0
 4360 0160 0A000000 		.4byte	.LBB160
 4361 0164 0C000000 		.4byte	.LBE160
 4362 0168 10000000 		.4byte	.LBB163
 4363 016c 14000000 		.4byte	.LBE163
 4364 0170 00000000 		.4byte	0
 4365 0174 00000000 		.4byte	0
 4366 0178 36000000 		.4byte	.LBB175
 4367 017c 38000000 		.4byte	.LBE175
 4368 0180 3C000000 		.4byte	.LBB179
 4369 0184 3E000000 		.4byte	.LBE179
 4370 0188 40000000 		.4byte	.LBB180
 4371 018c 42000000 		.4byte	.LBE180
 4372 0190 00000000 		.4byte	0
 4373 0194 00000000 		.4byte	0
 4374 0198 36000000 		.4byte	.LBB176
 4375 019c 38000000 		.4byte	.LBE176
 4376 01a0 3C000000 		.4byte	.LBB177
 4377 01a4 3E000000 		.4byte	.LBE177
 4378 01a8 40000000 		.4byte	.LBB178
 4379 01ac 42000000 		.4byte	.LBE178
ARM GAS  /tmp/ccHz812R.s 			page 78


 4380 01b0 00000000 		.4byte	0
 4381 01b4 00000000 		.4byte	0
 4382 01b8 50000000 		.4byte	.LBB181
 4383 01bc 56000000 		.4byte	.LBE181
 4384 01c0 5C000000 		.4byte	.LBB190
 4385 01c4 62000000 		.4byte	.LBE190
 4386 01c8 00000000 		.4byte	0
 4387 01cc 00000000 		.4byte	0
 4388 01d0 50000000 		.4byte	.LBB182
 4389 01d4 56000000 		.4byte	.LBE182
 4390 01d8 5C000000 		.4byte	.LBB189
 4391 01dc 62000000 		.4byte	.LBE189
 4392 01e0 00000000 		.4byte	0
 4393 01e4 00000000 		.4byte	0
 4394 01e8 50000000 		.4byte	.LBB183
 4395 01ec 56000000 		.4byte	.LBE183
 4396 01f0 5C000000 		.4byte	.LBB188
 4397 01f4 62000000 		.4byte	.LBE188
 4398 01f8 00000000 		.4byte	0
 4399 01fc 00000000 		.4byte	0
 4400 0200 50000000 		.4byte	.LBB184
 4401 0204 56000000 		.4byte	.LBE184
 4402 0208 5C000000 		.4byte	.LBB187
 4403 020c 62000000 		.4byte	.LBE187
 4404 0210 00000000 		.4byte	0
 4405 0214 00000000 		.4byte	0
 4406 0218 18000000 		.4byte	.LBB195
 4407 021c 42000000 		.4byte	.LBE195
 4408 0220 44000000 		.4byte	.LBB204
 4409 0224 48000000 		.4byte	.LBE204
 4410 0228 00000000 		.4byte	0
 4411 022c 00000000 		.4byte	0
 4412 0230 30000000 		.4byte	.LBB200
 4413 0234 32000000 		.4byte	.LBE200
 4414 0238 38000000 		.4byte	.LBB203
 4415 023c 3C000000 		.4byte	.LBE203
 4416 0240 00000000 		.4byte	0
 4417 0244 00000000 		.4byte	0
 4418 0248 30000000 		.4byte	.LBB201
 4419 024c 32000000 		.4byte	.LBE201
 4420 0250 38000000 		.4byte	.LBB202
 4421 0254 3C000000 		.4byte	.LBE202
 4422 0258 00000000 		.4byte	0
 4423 025c 00000000 		.4byte	0
 4424 0260 0A000000 		.4byte	.LBB205
 4425 0264 0C000000 		.4byte	.LBE205
 4426 0268 0E000000 		.4byte	.LBB212
 4427 026c 12000000 		.4byte	.LBE212
 4428 0270 00000000 		.4byte	0
 4429 0274 00000000 		.4byte	0
 4430 0278 0A000000 		.4byte	.LBB206
 4431 027c 0C000000 		.4byte	.LBE206
 4432 0280 0E000000 		.4byte	.LBB211
 4433 0284 12000000 		.4byte	.LBE211
 4434 0288 00000000 		.4byte	0
 4435 028c 00000000 		.4byte	0
 4436 0290 0A000000 		.4byte	.LBB207
ARM GAS  /tmp/ccHz812R.s 			page 79


 4437 0294 0C000000 		.4byte	.LBE207
 4438 0298 0E000000 		.4byte	.LBB210
 4439 029c 12000000 		.4byte	.LBE210
 4440 02a0 00000000 		.4byte	0
 4441 02a4 00000000 		.4byte	0
 4442 02a8 20000000 		.4byte	.LBB218
 4443 02ac 22000000 		.4byte	.LBE218
 4444 02b0 28000000 		.4byte	.LBB223
 4445 02b4 3A000000 		.4byte	.LBE223
 4446 02b8 00000000 		.4byte	0
 4447 02bc 00000000 		.4byte	0
 4448 02c0 28000000 		.4byte	.LBB219
 4449 02c4 2A000000 		.4byte	.LBE219
 4450 02c8 2C000000 		.4byte	.LBB222
 4451 02cc 30000000 		.4byte	.LBE222
 4452 02d0 00000000 		.4byte	0
 4453 02d4 00000000 		.4byte	0
 4454 02d8 28000000 		.4byte	.LBB220
 4455 02dc 2A000000 		.4byte	.LBE220
 4456 02e0 2C000000 		.4byte	.LBB221
 4457 02e4 30000000 		.4byte	.LBE221
 4458 02e8 00000000 		.4byte	0
 4459 02ec 00000000 		.4byte	0
 4460 02f0 00000000 		.4byte	.LFB182
 4461 02f4 0A000000 		.4byte	.LFE182
 4462 02f8 00000000 		.4byte	.LFB184
 4463 02fc C2000000 		.4byte	.LFE184
 4464 0300 00000000 		.4byte	.LFB183
 4465 0304 14000000 		.4byte	.LFE183
 4466 0308 00000000 		.4byte	.LFB185
 4467 030c 34000000 		.4byte	.LFE185
 4468 0310 00000000 		.4byte	.LFB186
 4469 0314 20000000 		.4byte	.LFE186
 4470 0318 00000000 		.4byte	.LFB187
 4471 031c 64000000 		.4byte	.LFE187
 4472 0320 00000000 		.4byte	.LFB188
 4473 0324 50000000 		.4byte	.LFE188
 4474 0328 00000000 		.4byte	.LFB189
 4475 032c 50000000 		.4byte	.LFE189
 4476 0330 00000000 		.4byte	0
 4477 0334 00000000 		.4byte	0
 4478              		.section	.debug_line,"",%progbits
 4479              	.Ldebug_line0:
 4480 0000 3A050000 		.section	.debug_str,"MS",%progbits,1
 4480      02007802 
 4480      00000201 
 4480      FB0E0D00 
 4480      01010101 
 4481              	.LASF44:
 4482 0000 63685F74 		.ascii	"ch_threads_list\000"
 4482      68726561 
 4482      64735F6C 
 4482      69737400 
 4483              	.LASF45:
 4484 0010 74687265 		.ascii	"threads_queue_t\000"
 4484      6164735F 
 4484      71756575 
ARM GAS  /tmp/ccHz812R.s 			page 80


 4484      655F7400 
 4485              	.LASF34:
 4486 0020 705F7761 		.ascii	"p_waiting\000"
 4486      6974696E 
 4486      6700
 4487              	.LASF86:
 4488 002a 77746D74 		.ascii	"wtmtxp\000"
 4488      787000
 4489              	.LASF80:
 4490 0031 746D5F63 		.ascii	"tm_calibration_t\000"
 4490      616C6962 
 4490      72617469 
 4490      6F6E5F74 
 4490      00
 4491              	.LASF114:
 4492 0042 63684D74 		.ascii	"chMtxLock\000"
 4492      784C6F63 
 4492      6B00
 4493              	.LASF95:
 4494 004c 63686172 		.ascii	"char\000"
 4494      00
 4495              	.LASF111:
 4496 0051 71756575 		.ascii	"queue_fifo_remove\000"
 4496      655F6669 
 4496      666F5F72 
 4496      656D6F76 
 4496      6500
 4497              	.LASF75:
 4498 0063 72656761 		.ascii	"regarm_t\000"
 4498      726D5F74 
 4498      00
 4499              	.LASF26:
 4500 006c 705F7072 		.ascii	"p_prio\000"
 4500      696F00
 4501              	.LASF22:
 4502 0073 73797374 		.ascii	"systime_t\000"
 4502      696D655F 
 4502      7400
 4503              	.LASF93:
 4504 007d 6D5F6F77 		.ascii	"m_owner\000"
 4504      6E657200 
 4505              	.LASF89:
 4506 0085 735F7175 		.ascii	"s_queue\000"
 4506      65756500 
 4507              	.LASF35:
 4508 008d 705F6D73 		.ascii	"p_msgqueue\000"
 4508      67717565 
 4508      756500
 4509              	.LASF0:
 4510 0098 756E7369 		.ascii	"unsigned int\000"
 4510      676E6564 
 4510      20696E74 
 4510      00
 4511              	.LASF42:
 4512 00a5 74687265 		.ascii	"threads_list_t\000"
 4512      6164735F 
 4512      6C697374 
ARM GAS  /tmp/ccHz812R.s 			page 81


 4512      5F7400
 4513              	.LASF121:
 4514 00b4 2E2E2F2E 		.ascii	"../../../resources/chibios/ChibiOS_16.1.8/os/rt/src"
 4514      2E2F2E2E 
 4514      2F726573 
 4514      6F757263 
 4514      65732F63 
 4515 00e7 2F63686D 		.ascii	"/chmtx.c\000"
 4515      74782E63 
 4515      00
 4516              	.LASF83:
 4517 00f0 77746F62 		.ascii	"wtobjp\000"
 4517      6A7000
 4518              	.LASF98:
 4519 00f7 706F7274 		.ascii	"port_lock\000"
 4519      5F6C6F63 
 4519      6B00
 4520              	.LASF72:
 4521 0101 76746C69 		.ascii	"vtlist\000"
 4521      737400
 4522              	.LASF48:
 4523 0108 63685F72 		.ascii	"ch_ready_list\000"
 4523      65616479 
 4523      5F6C6973 
 4523      7400
 4524              	.LASF74:
 4525 0116 69646C65 		.ascii	"idle_thread_wa\000"
 4525      5F746872 
 4525      6561645F 
 4525      776100
 4526              	.LASF87:
 4527 0125 65776D61 		.ascii	"ewmask\000"
 4527      736B00
 4528              	.LASF46:
 4529 012c 63685F74 		.ascii	"ch_threads_queue\000"
 4529      68726561 
 4529      64735F71 
 4529      75657565 
 4529      00
 4530              	.LASF55:
 4531 013d 76746675 		.ascii	"vtfunc_t\000"
 4531      6E635F74 
 4531      00
 4532              	.LASF90:
 4533 0146 735F636E 		.ascii	"s_cnt\000"
 4533      7400
 4534              	.LASF67:
 4535 014c 63685F73 		.ascii	"ch_system_debug\000"
 4535      79737465 
 4535      6D5F6465 
 4535      62756700 
 4536              	.LASF123:
 4537 015c 63684D74 		.ascii	"chMtxTryLock\000"
 4537      78547279 
 4537      4C6F636B 
 4537      00
 4538              	.LASF9:
ARM GAS  /tmp/ccHz812R.s 			page 82


 4539 0169 75696E74 		.ascii	"uint32_t\000"
 4539      33325F74 
 4539      00
 4540              	.LASF20:
 4541 0172 6576656E 		.ascii	"eventmask_t\000"
 4541      746D6173 
 4541      6B5F7400 
 4542              	.LASF50:
 4543 017e 725F7072 		.ascii	"r_prio\000"
 4543      696F00
 4544              	.LASF62:
 4545 0185 76745F70 		.ascii	"vt_par\000"
 4545      617200
 4546              	.LASF88:
 4547 018c 63685F73 		.ascii	"ch_semaphore\000"
 4547      656D6170 
 4547      686F7265 
 4547      00
 4548              	.LASF18:
 4549 0199 74707269 		.ascii	"tprio_t\000"
 4549      6F5F7400 
 4550              	.LASF57:
 4551 01a1 63685F76 		.ascii	"ch_virtual_timer\000"
 4551      69727475 
 4551      616C5F74 
 4551      696D6572 
 4551      00
 4552              	.LASF13:
 4553 01b2 6C6F6E67 		.ascii	"long long unsigned int\000"
 4553      206C6F6E 
 4553      6720756E 
 4553      7369676E 
 4553      65642069 
 4554              	.LASF112:
 4555 01c9 63684D74 		.ascii	"chMtxObjectInit\000"
 4555      784F626A 
 4555      65637449 
 4555      6E697400 
 4556              	.LASF116:
 4557 01d9 6E657770 		.ascii	"newprio\000"
 4557      72696F00 
 4558              	.LASF21:
 4559 01e1 636E745F 		.ascii	"cnt_t\000"
 4559      7400
 4560              	.LASF107:
 4561 01e7 63685379 		.ascii	"chSysUnlock\000"
 4561      73556E6C 
 4561      6F636B00 
 4562              	.LASF28:
 4563 01f3 705F6E65 		.ascii	"p_newer\000"
 4563      77657200 
 4564              	.LASF100:
 4565 01fb 76616C75 		.ascii	"value\000"
 4565      6500
 4566              	.LASF64:
 4567 0201 63685F76 		.ascii	"ch_virtual_timers_list\000"
 4567      69727475 
ARM GAS  /tmp/ccHz812R.s 			page 83


 4567      616C5F74 
 4567      696D6572 
 4567      735F6C69 
 4568              	.LASF23:
 4569 0218 74687265 		.ascii	"thread_t\000"
 4569      61645F74 
 4569      00
 4570              	.LASF81:
 4571 0221 7264796D 		.ascii	"rdymsg\000"
 4571      736700
 4572              	.LASF79:
 4573 0228 6F666673 		.ascii	"offset\000"
 4573      657400
 4574              	.LASF118:
 4575 022f 63684D74 		.ascii	"chMtxUnlockAll\000"
 4575      78556E6C 
 4575      6F636B41 
 4575      6C6C00
 4576              	.LASF97:
 4577 023e 5F426F6F 		.ascii	"_Bool\000"
 4577      6C00
 4578              	.LASF91:
 4579 0244 63685F6D 		.ascii	"ch_mutex\000"
 4579      75746578 
 4579      00
 4580              	.LASF106:
 4581 024d 63685379 		.ascii	"chSysLock\000"
 4581      734C6F63 
 4581      6B00
 4582              	.LASF30:
 4583 0257 705F6E61 		.ascii	"p_name\000"
 4583      6D6500
 4584              	.LASF105:
 4585 025e 71756575 		.ascii	"queue_prio_insert\000"
 4585      655F7072 
 4585      696F5F69 
 4585      6E736572 
 4585      7400
 4586              	.LASF60:
 4587 0270 76745F64 		.ascii	"vt_delta\000"
 4587      656C7461 
 4587      00
 4588              	.LASF41:
 4589 0279 74687265 		.ascii	"thread_reference_t\000"
 4589      61645F72 
 4589      65666572 
 4589      656E6365 
 4589      5F7400
 4590              	.LASF65:
 4591 028c 76745F6C 		.ascii	"vt_lasttime\000"
 4591      61737474 
 4591      696D6500 
 4592              	.LASF103:
 4593 0298 71756575 		.ascii	"queue_notempty\000"
 4593      655F6E6F 
 4593      74656D70 
 4593      747900
ARM GAS  /tmp/ccHz812R.s 			page 84


 4594              	.LASF16:
 4595 02a7 74737461 		.ascii	"tstate_t\000"
 4595      74655F74 
 4595      00
 4596              	.LASF29:
 4597 02b0 705F6F6C 		.ascii	"p_older\000"
 4597      64657200 
 4598              	.LASF31:
 4599 02b8 705F7374 		.ascii	"p_state\000"
 4599      61746500 
 4600              	.LASF4:
 4601 02c0 75696E74 		.ascii	"uint8_t\000"
 4601      385F7400 
 4602              	.LASF40:
 4603 02c8 705F6D70 		.ascii	"p_mpool\000"
 4603      6F6F6C00 
 4604              	.LASF38:
 4605 02d0 705F6D74 		.ascii	"p_mtxlist\000"
 4605      786C6973 
 4605      7400
 4606              	.LASF43:
 4607 02da 63685F74 		.ascii	"ch_thread\000"
 4607      68726561 
 4607      6400
 4608              	.LASF66:
 4609 02e4 73797374 		.ascii	"system_debug_t\000"
 4609      656D5F64 
 4609      65627567 
 4609      5F7400
 4610              	.LASF11:
 4611 02f3 6C6F6E67 		.ascii	"long long int\000"
 4611      206C6F6E 
 4611      6720696E 
 4611      7400
 4612              	.LASF49:
 4613 0301 725F7175 		.ascii	"r_queue\000"
 4613      65756500 
 4614              	.LASF115:
 4615 0309 63684D74 		.ascii	"chMtxUnlock\000"
 4615      78556E6C 
 4615      6F636B00 
 4616              	.LASF52:
 4617 0315 725F6E65 		.ascii	"r_newer\000"
 4617      77657200 
 4618              	.LASF19:
 4619 031d 6D73675F 		.ascii	"msg_t\000"
 4619      7400
 4620              	.LASF77:
 4621 0323 636F6E74 		.ascii	"context\000"
 4621      65787400 
 4622              	.LASF32:
 4623 032b 705F666C 		.ascii	"p_flags\000"
 4623      61677300 
 4624              	.LASF56:
 4625 0333 76697274 		.ascii	"virtual_timer_t\000"
 4625      75616C5F 
 4625      74696D65 
ARM GAS  /tmp/ccHz812R.s 			page 85


 4625      725F7400 
 4626              	.LASF122:
 4627 0343 2F686F6D 		.ascii	"/home/madog/Documents/proyectos/CYCLE/repos/harvest"
 4627      652F6D61 
 4627      646F672F 
 4627      446F6375 
 4627      6D656E74 
 4628 0376 65722F73 		.ascii	"er/src\000"
 4628      726300
 4629              	.LASF53:
 4630 037d 725F6F6C 		.ascii	"r_older\000"
 4630      64657200 
 4631              	.LASF68:
 4632 0385 70616E69 		.ascii	"panic_msg\000"
 4632      635F6D73 
 4632      6700
 4633              	.LASF110:
 4634 038f 63684D74 		.ascii	"chMtxQueueNotEmptyS\000"
 4634      78517565 
 4634      75654E6F 
 4634      74456D70 
 4634      74795300 
 4635              	.LASF36:
 4636 03a3 705F6D73 		.ascii	"p_msg\000"
 4636      6700
 4637              	.LASF15:
 4638 03a9 746D6F64 		.ascii	"tmode_t\000"
 4638      655F7400 
 4639              	.LASF73:
 4640 03b1 6D61696E 		.ascii	"mainthread\000"
 4640      74687265 
 4640      616400
 4641              	.LASF5:
 4642 03bc 75696E74 		.ascii	"uint16_t\000"
 4642      31365F74 
 4642      00
 4643              	.LASF14:
 4644 03c5 7274636E 		.ascii	"rtcnt_t\000"
 4644      745F7400 
 4645              	.LASF109:
 4646 03cd 63684D74 		.ascii	"chMtxTryLockS\000"
 4646      78547279 
 4646      4C6F636B 
 4646      5300
 4647              	.LASF39:
 4648 03db 705F7265 		.ascii	"p_realprio\000"
 4648      616C7072 
 4648      696F00
 4649              	.LASF3:
 4650 03e6 73686F72 		.ascii	"short int\000"
 4650      7420696E 
 4650      7400
 4651              	.LASF54:
 4652 03f0 725F6375 		.ascii	"r_current\000"
 4652      7272656E 
 4652      7400
 4653              	.LASF37:
ARM GAS  /tmp/ccHz812R.s 			page 86


 4654 03fa 705F6570 		.ascii	"p_epending\000"
 4654      656E6469 
 4654      6E6700
 4655              	.LASF92:
 4656 0405 6D5F7175 		.ascii	"m_queue\000"
 4656      65756500 
 4657              	.LASF8:
 4658 040d 6C6F6E67 		.ascii	"long int\000"
 4658      20696E74 
 4658      00
 4659              	.LASF78:
 4660 0416 706F7274 		.ascii	"port_intctx\000"
 4660      5F696E74 
 4660      63747800 
 4661              	.LASF119:
 4662 0422 49544D5F 		.ascii	"ITM_RxBuffer\000"
 4662      52784275 
 4662      66666572 
 4662      00
 4663              	.LASF70:
 4664 042f 63685F73 		.ascii	"ch_system\000"
 4664      79737465 
 4664      6D00
 4665              	.LASF101:
 4666 0439 5F5F7365 		.ascii	"__set_BASEPRI\000"
 4666      745F4241 
 4666      53455052 
 4666      4900
 4667              	.LASF24:
 4668 0447 705F6E65 		.ascii	"p_next\000"
 4668      787400
 4669              	.LASF12:
 4670 044e 75696E74 		.ascii	"uint64_t\000"
 4670      36345F74 
 4670      00
 4671              	.LASF27:
 4672 0457 705F6374 		.ascii	"p_ctx\000"
 4672      7800
 4673              	.LASF71:
 4674 045d 726C6973 		.ascii	"rlist\000"
 4674      7400
 4675              	.LASF104:
 4676 0463 71756575 		.ascii	"queue_dequeue\000"
 4676      655F6465 
 4676      71756575 
 4676      6500
 4677              	.LASF117:
 4678 0471 63684D74 		.ascii	"chMtxUnlockS\000"
 4678      78556E6C 
 4678      6F636B53 
 4678      00
 4679              	.LASF113:
 4680 047e 63684D74 		.ascii	"chMtxLockS\000"
 4680      784C6F63 
 4680      6B5300
 4681              	.LASF25:
 4682 0489 705F7072 		.ascii	"p_prev\000"
ARM GAS  /tmp/ccHz812R.s 			page 87


 4682      657600
 4683              	.LASF17:
 4684 0490 74726566 		.ascii	"trefs_t\000"
 4684      735F7400 
 4685              	.LASF10:
 4686 0498 6C6F6E67 		.ascii	"long unsigned int\000"
 4686      20756E73 
 4686      69676E65 
 4686      6420696E 
 4686      7400
 4687              	.LASF47:
 4688 04aa 72656164 		.ascii	"ready_list_t\000"
 4688      795F6C69 
 4688      73745F74 
 4688      00
 4689              	.LASF7:
 4690 04b7 696E7433 		.ascii	"int32_t\000"
 4690      325F7400 
 4691              	.LASF85:
 4692 04bf 77747365 		.ascii	"wtsemp\000"
 4692      6D7000
 4693              	.LASF120:
 4694 04c6 474E5520 		.ascii	"GNU C 4.6.1\000"
 4694      4320342E 
 4694      362E3100 
 4695              	.LASF96:
 4696 04d2 6D757465 		.ascii	"mutex_t\000"
 4696      785F7400 
 4697              	.LASF102:
 4698 04da 71756575 		.ascii	"queue_init\000"
 4698      655F696E 
 4698      697400
 4699              	.LASF2:
 4700 04e5 756E7369 		.ascii	"unsigned char\000"
 4700      676E6564 
 4700      20636861 
 4700      7200
 4701              	.LASF63:
 4702 04f3 76697274 		.ascii	"virtual_timers_list_t\000"
 4702      75616C5F 
 4702      74696D65 
 4702      72735F6C 
 4702      6973745F 
 4703              	.LASF33:
 4704 0509 705F7265 		.ascii	"p_refs\000"
 4704      667300
 4705              	.LASF58:
 4706 0510 76745F6E 		.ascii	"vt_next\000"
 4706      65787400 
 4707              	.LASF69:
 4708 0518 63685F73 		.ascii	"ch_system_t\000"
 4708      79737465 
 4708      6D5F7400 
 4709              	.LASF84:
 4710 0524 77747472 		.ascii	"wttrp\000"
 4710      7000
 4711              	.LASF94:
ARM GAS  /tmp/ccHz812R.s 			page 88


 4712 052a 6D5F6E65 		.ascii	"m_next\000"
 4712      787400
 4713              	.LASF1:
 4714 0531 7369676E 		.ascii	"signed char\000"
 4714      65642063 
 4714      68617200 
 4715              	.LASF6:
 4716 053d 73686F72 		.ascii	"short unsigned int\000"
 4716      7420756E 
 4716      7369676E 
 4716      65642069 
 4716      6E7400
 4717              	.LASF51:
 4718 0550 725F6374 		.ascii	"r_ctx\000"
 4718      7800
 4719              	.LASF76:
 4720 0556 73746B61 		.ascii	"stkalign_t\000"
 4720      6C69676E 
 4720      5F7400
 4721              	.LASF108:
 4722 0561 5F5F6675 		.ascii	"__func__\000"
 4722      6E635F5F 
 4722      00
 4723              	.LASF61:
 4724 056a 76745F66 		.ascii	"vt_func\000"
 4724      756E6300 
 4725              	.LASF99:
 4726 0572 706F7274 		.ascii	"port_unlock\000"
 4726      5F756E6C 
 4726      6F636B00 
 4727              	.LASF59:
 4728 057e 76745F70 		.ascii	"vt_prev\000"
 4728      72657600 
 4729              	.LASF82:
 4730 0586 65786974 		.ascii	"exitcode\000"
 4730      636F6465 
 4730      00
 4731              		.ident	"GCC: (Sourcery CodeBench Lite 2011.09-69) 4.6.1"
ARM GAS  /tmp/ccHz812R.s 			page 89


DEFINED SYMBOLS
                            *ABS*:00000000 chmtx.c
     /tmp/ccHz812R.s:19     .text.chMtxObjectInit:00000000 $t
     /tmp/ccHz812R.s:25     .text.chMtxObjectInit:00000000 chMtxObjectInit
     /tmp/ccHz812R.s:53     .text.chMtxLockS:00000000 $t
     /tmp/ccHz812R.s:59     .text.chMtxLockS:00000000 chMtxLockS
     /tmp/ccHz812R.s:314    .text.chMtxLock:00000000 $t
     /tmp/ccHz812R.s:320    .text.chMtxLock:00000000 chMtxLock
     /tmp/ccHz812R.s:372    .text.chMtxTryLock:00000000 $t
     /tmp/ccHz812R.s:378    .text.chMtxTryLock:00000000 chMtxTryLock
     /tmp/ccHz812R.s:478    .text.chMtxTryLockS:00000000 $t
     /tmp/ccHz812R.s:484    .text.chMtxTryLockS:00000000 chMtxTryLockS
     /tmp/ccHz812R.s:524    .text.chMtxUnlock:00000000 $t
     /tmp/ccHz812R.s:530    .text.chMtxUnlock:00000000 chMtxUnlock
     /tmp/ccHz812R.s:718    .text.chMtxUnlockS:00000000 $t
     /tmp/ccHz812R.s:724    .text.chMtxUnlockS:00000000 chMtxUnlockS
     /tmp/ccHz812R.s:850    .text.chMtxUnlockAll:00000000 $t
     /tmp/ccHz812R.s:856    .text.chMtxUnlockAll:00000000 chMtxUnlockAll
                     .debug_frame:00000010 $d

UNDEFINED SYMBOLS
ch
chSchGoSleepS
chSchReadyI
chSchRescheduleS
