ARM GAS  /tmp/ccHz812R.s 			page 1


   1              		.syntax unified
   2              		.cpu cortex-m3
   3              		.fpu softvfp
   4              		.eabi_attribute 20, 1
   5              		.eabi_attribute 21, 1
   6              		.eabi_attribute 23, 3
   7              		.eabi_attribute 24, 1
   8              		.eabi_attribute 25, 1
   9              		.eabi_attribute 26, 1
  10              		.eabi_attribute 30, 2
  11              		.eabi_attribute 34, 1
  12              		.eabi_attribute 18, 4
  13              		.thumb
  14              		.file	"chmtx.c"
  15              		.text
  16              	.Ltext0:
  17              		.cfi_sections	.debug_frame
  18              		.section	.text.chMtxObjectInit,"ax",%progbits
  19              		.align	2
  20              		.p2align 4,,15
  21              		.global	chMtxObjectInit
  22              		.thumb
  23              		.thumb_func
  24              		.type	chMtxObjectInit, %function
  25              	chMtxObjectInit:
  26              	.LFB182:
  27              		.file 1 "../../../resources/chibios/ChibiOS_16.1.8/os/rt/src/chmtx.c"
  28              		.loc 1 103 0
  29              		.cfi_startproc
  30              		@ args = 0, pretend = 0, frame = 0
  31              		@ frame_needed = 0, uses_anonymous_args = 0
  32              		@ link register save eliminated.
  33              	.LVL0:
  34              		.loc 1 108 0
  35 0000 0023     		movs	r3, #0
  36              	.LBB103:
  37              	.LBB104:
  38              		.file 2 "../../../resources/chibios/ChibiOS_16.1.8/os/rt/include/chschd.h"
  39              		.loc 2 604 0
  40 0002 0060     		str	r0, [r0, #0]
  41              		.loc 2 605 0
  42 0004 4060     		str	r0, [r0, #4]
  43              	.LBE104:
  44              	.LBE103:
  45              		.loc 1 108 0
  46 0006 8360     		str	r3, [r0, #8]
  47              		.loc 1 112 0
  48 0008 7047     		bx	lr
  49              		.cfi_endproc
  50              	.LFE182:
  51              		.size	chMtxObjectInit, .-chMtxObjectInit
  52 000a 00BFAFF3 		.section	.text.chMtxLockS,"ax",%progbits
  52      0080
  53              		.align	2
  54              		.p2align 4,,15
  55              		.global	chMtxLockS
  56              		.thumb
ARM GAS  /tmp/ccHz812R.s 			page 2


  57              		.thumb_func
  58              		.type	chMtxLockS, %function
  59              	chMtxLockS:
  60              	.LFB184:
  61              		.loc 1 139 0
  62              		.cfi_startproc
  63              		@ args = 0, pretend = 0, frame = 0
  64              		@ frame_needed = 0, uses_anonymous_args = 0
  65              	.LVL1:
  66 0000 F8B5     		push	{r3, r4, r5, r6, r7, lr}
  67              	.LCFI0:
  68              		.cfi_def_cfa_offset 24
  69              		.cfi_offset 14, -4
  70              		.cfi_offset 7, -8
  71              		.cfi_offset 6, -12
  72              		.cfi_offset 5, -16
  73              		.cfi_offset 4, -20
  74              		.cfi_offset 3, -24
  75              		.loc 1 140 0
  76 0002 40F20002 		movw	r2, #:lower16:ch
  77              		.loc 1 146 0
  78 0006 8368     		ldr	r3, [r0, #8]
  79              		.loc 1 140 0
  80 0008 C0F20002 		movt	r2, #:upper16:ch
  81              		.loc 1 139 0
  82 000c 0546     		mov	r5, r0
  83              		.loc 1 140 0
  84 000e 9469     		ldr	r4, [r2, #24]
  85              	.LVL2:
  86              		.loc 1 146 0
  87 0010 002B     		cmp	r3, #0
  88 0012 51D0     		beq	.L3
  89              	.LVL3:
  90              	.LBB105:
  91              		.loc 1 165 0 discriminator 1
  92 0014 A168     		ldr	r1, [r4, #8]
  93 0016 9868     		ldr	r0, [r3, #8]
  94              	.LVL4:
  95 0018 8142     		cmp	r1, r0
  96 001a 06D9     		bls	.L4
  97              	.LVL5:
  98              	.L18:
  99              		.loc 1 170 0
 100 001c 1A7F     		ldrb	r2, [r3, #28]	@ zero_extendqisi2
 101              		.loc 1 167 0
 102 001e 9960     		str	r1, [r3, #8]
 103              		.loc 1 170 0
 104 0020 062A     		cmp	r2, #6
 105 0022 31D0     		beq	.L6
 106 0024 072A     		cmp	r2, #7
 107 0026 1CD0     		beq	.L7
 108 0028 92B1     		cbz	r2, .L5
 109              	.LVL6:
 110              	.L4:
 111              		.loc 2 653 0
 112 002a 2B46     		mov	r3, r5
 113              	.LVL7:
ARM GAS  /tmp/ccHz812R.s 			page 3


 114              	.L14:
 115              	.LBB106:
 116              	.LBB107:
 117              		.loc 2 655 0
 118 002c 1B68     		ldr	r3, [r3, #0]
 119              	.LVL8:
 120              		.loc 2 656 0
 121 002e 9D42     		cmp	r5, r3
 122 0030 03D0     		beq	.L13
 123 0032 9868     		ldr	r0, [r3, #8]
 124 0034 A268     		ldr	r2, [r4, #8]
 125 0036 9042     		cmp	r0, r2
 126 0038 F8D2     		bcs	.L14
 127              	.L13:
 128              		.loc 2 658 0
 129 003a 5968     		ldr	r1, [r3, #4]
 130              	.LBE107:
 131              	.LBE106:
 132              		.loc 1 214 0
 133 003c 0620     		movs	r0, #6
 134              	.LBB109:
 135              	.LBB108:
 136              		.loc 2 657 0
 137 003e 2360     		str	r3, [r4, #0]
 138              		.loc 2 658 0
 139 0040 6160     		str	r1, [r4, #4]
 140              		.loc 2 659 0
 141 0042 0C60     		str	r4, [r1, #0]
 142              		.loc 2 660 0
 143 0044 5C60     		str	r4, [r3, #4]
 144              	.LBE108:
 145              	.LBE109:
 146              		.loc 1 213 0
 147 0046 2562     		str	r5, [r4, #32]
 148              	.LBE105:
 149              		.loc 1 236 0
 150 0048 BDE8F840 		pop	{r3, r4, r5, r6, r7, lr}
 151              	.LBB130:
 152              		.loc 1 214 0
 153 004c FFF7FEBF 		b	chSchGoSleepS
 154              	.LVL9:
 155              	.L5:
 156              	.LBB110:
 157              	.LBB111:
 158              		.loc 2 691 0
 159 0050 93E80600 		ldmia	r3, {r1, r2}
 160 0054 1160     		str	r1, [r2, #0]
 161              	.LBE111:
 162              	.LBE110:
 163              		.loc 1 202 0
 164 0056 1846     		mov	r0, r3
 165              	.LBB113:
 166              	.LBB112:
 167              		.loc 2 692 0
 168 0058 1B68     		ldr	r3, [r3, #0]
 169              	.LVL10:
 170 005a 5A60     		str	r2, [r3, #4]
ARM GAS  /tmp/ccHz812R.s 			page 4


 171              	.LBE112:
 172              	.LBE113:
 173              		.loc 1 202 0
 174 005c FFF7FEFF 		bl	chSchReadyI
 175              	.LVL11:
 176              		.loc 1 203 0
 177 0060 E3E7     		b	.L4
 178              	.LVL12:
 179              	.L7:
 180              	.LBB114:
 181              	.LBB115:
 182              		.loc 2 691 0
 183 0062 5868     		ldr	r0, [r3, #4]
 184 0064 1F68     		ldr	r7, [r3, #0]
 185              	.LBE115:
 186              	.LBE114:
 187              		.loc 1 193 0
 188 0066 1E6A     		ldr	r6, [r3, #32]
 189              	.LVL13:
 190              	.LBB118:
 191              	.LBB116:
 192              		.loc 2 691 0
 193 0068 0760     		str	r7, [r0, #0]
 194              		.loc 2 692 0
 195 006a 1F68     		ldr	r7, [r3, #0]
 196              	.LBE116:
 197              	.LBE118:
 198              		.loc 2 653 0
 199 006c 3246     		mov	r2, r6
 200              	.LBB119:
 201              	.LBB117:
 202              		.loc 2 692 0
 203 006e 7860     		str	r0, [r7, #4]
 204              	.LVL14:
 205              	.L12:
 206              	.LBE117:
 207              	.LBE119:
 208              	.LBB120:
 209              	.LBB121:
 210              		.loc 2 655 0
 211 0070 1268     		ldr	r2, [r2, #0]
 212              	.LVL15:
 213              		.loc 2 656 0
 214 0072 9642     		cmp	r6, r2
 215 0074 02D0     		beq	.L11
 216 0076 9068     		ldr	r0, [r2, #8]
 217 0078 8842     		cmp	r0, r1
 218 007a F9D2     		bcs	.L12
 219              	.L11:
 220              		.loc 2 658 0
 221 007c 5168     		ldr	r1, [r2, #4]
 222              		.loc 2 657 0
 223 007e 1A60     		str	r2, [r3, #0]
 224              		.loc 2 658 0
 225 0080 5960     		str	r1, [r3, #4]
 226              		.loc 2 659 0
 227 0082 0B60     		str	r3, [r1, #0]
ARM GAS  /tmp/ccHz812R.s 			page 5


 228              		.loc 2 660 0
 229 0084 5360     		str	r3, [r2, #4]
 230 0086 D0E7     		b	.L4
 231              	.LVL16:
 232              	.L6:
 233              	.LBE121:
 234              	.LBE120:
 235              	.LBB122:
 236              	.LBB123:
 237              		.loc 2 691 0
 238 0088 5868     		ldr	r0, [r3, #4]
 239 008a 1F68     		ldr	r7, [r3, #0]
 240              	.LBE123:
 241              	.LBE122:
 242              		.loc 1 173 0
 243 008c 1E6A     		ldr	r6, [r3, #32]
 244              	.LVL17:
 245              	.LBB126:
 246              	.LBB124:
 247              		.loc 2 691 0
 248 008e 0760     		str	r7, [r0, #0]
 249              		.loc 2 692 0
 250 0090 1F68     		ldr	r7, [r3, #0]
 251              	.LBE124:
 252              	.LBE126:
 253              		.loc 2 653 0
 254 0092 3246     		mov	r2, r6
 255              	.LBB127:
 256              	.LBB125:
 257              		.loc 2 692 0
 258 0094 7860     		str	r0, [r7, #4]
 259              	.LVL18:
 260              	.L9:
 261              	.LBE125:
 262              	.LBE127:
 263              	.LBB128:
 264              	.LBB129:
 265              		.loc 2 655 0
 266 0096 1268     		ldr	r2, [r2, #0]
 267              	.LVL19:
 268              		.loc 2 656 0
 269 0098 9642     		cmp	r6, r2
 270 009a 02D0     		beq	.L8
 271 009c 9068     		ldr	r0, [r2, #8]
 272 009e 8842     		cmp	r0, r1
 273 00a0 F9D2     		bcs	.L9
 274              	.L8:
 275              		.loc 2 658 0
 276 00a2 5168     		ldr	r1, [r2, #4]
 277              		.loc 2 657 0
 278 00a4 1A60     		str	r2, [r3, #0]
 279              		.loc 2 658 0
 280 00a6 5960     		str	r1, [r3, #4]
 281              		.loc 2 659 0
 282 00a8 0B60     		str	r3, [r1, #0]
 283              		.loc 2 660 0
 284 00aa 5360     		str	r3, [r2, #4]
ARM GAS  /tmp/ccHz812R.s 			page 6


 285              	.LBE129:
 286              	.LBE128:
 287              		.loc 1 174 0
 288 00ac B368     		ldr	r3, [r6, #8]
 289              	.LVL20:
 290              		.loc 1 165 0
 291 00ae A168     		ldr	r1, [r4, #8]
 292 00b0 9A68     		ldr	r2, [r3, #8]
 293              	.LVL21:
 294 00b2 8A42     		cmp	r2, r1
 295 00b4 B2D3     		bcc	.L18
 296 00b6 B8E7     		b	.L4
 297              	.LVL22:
 298              	.L3:
 299              	.LBE130:
 300              		.loc 1 233 0
 301 00b8 A36B     		ldr	r3, [r4, #56]
 302              		.loc 1 232 0
 303 00ba 8460     		str	r4, [r0, #8]
 304              		.loc 1 233 0
 305 00bc C360     		str	r3, [r0, #12]
 306              		.loc 1 234 0
 307 00be A063     		str	r0, [r4, #56]
 308              		.loc 1 236 0
 309 00c0 F8BD     		pop	{r3, r4, r5, r6, r7, pc}
 310              		.cfi_endproc
 311              	.LFE184:
 312              		.size	chMtxLockS, .-chMtxLockS
 313 00c2 00BFAFF3 		.section	.text.chMtxLock,"ax",%progbits
 313      0080AFF3 
 313      0080AFF3 
 313      0080
 314              		.align	2
 315              		.p2align 4,,15
 316              		.global	chMtxLock
 317              		.thumb
 318              		.thumb_func
 319              		.type	chMtxLock, %function
 320              	chMtxLock:
 321              	.LFB183:
 322              		.loc 1 123 0
 323              		.cfi_startproc
 324              		@ args = 0, pretend = 0, frame = 0
 325              		@ frame_needed = 0, uses_anonymous_args = 0
 326              	.LVL23:
 327 0000 08B5     		push	{r3, lr}
 328              	.LCFI1:
 329              		.cfi_def_cfa_offset 8
 330              		.cfi_offset 14, -4
 331              		.cfi_offset 3, -8
 332              	.LBB131:
 333              	.LBB132:
 334              	.LBB133:
 335              	.LBB134:
 336              		.file 3 "../../../resources/chibios/ChibiOS_16.1.8/os/ext/CMSIS/include/core_cmFunc.h"
 337              		.loc 3 548 0
 338 0002 2021     		movs	r1, #32
ARM GAS  /tmp/ccHz812R.s 			page 7


 339              	@ 548 "../../../resources/chibios/ChibiOS_16.1.8/os/ext/CMSIS/include/core_cmFunc.h" 1
 340 0004 81F31188 		MSR basepri, r1
 341              	@ 0 "" 2
 342              		.thumb
 343              	.LBE134:
 344              	.LBE133:
 345              	.LBE132:
 346              	.LBE131:
 347              		.loc 1 126 0
 348 0008 FFF7FEFF 		bl	chMtxLockS
 349              	.LVL24:
 350              	.LBB135:
 351              	.LBB136:
 352              	.LBB137:
 353              	.LBB138:
 354              	.LBB139:
 355              		.loc 3 548 0
 356 000c 0023     		movs	r3, #0
 357              	@ 548 "../../../resources/chibios/ChibiOS_16.1.8/os/ext/CMSIS/include/core_cmFunc.h" 1
 358 000e 83F31188 		MSR basepri, r3
 359              	@ 0 "" 2
 360              		.thumb
 361              	.LBE139:
 362              	.LBE138:
 363              	.LBE137:
 364              	.LBE136:
 365              	.LBE135:
 366              		.loc 1 128 0
 367 0012 08BD     		pop	{r3, pc}
 368              		.cfi_endproc
 369              	.LFE183:
 370              		.size	chMtxLock, .-chMtxLock
 371 0014 AFF30080 		.section	.text.chMtxTryLock,"ax",%progbits
 371      AFF30080 
 371      AFF30080 
 372              		.align	2
 373              		.p2align 4,,15
 374              		.global	chMtxTryLock
 375              		.thumb
 376              		.thumb_func
 377              		.type	chMtxTryLock, %function
 378              	chMtxTryLock:
 379              	.LFB185:
 380              		.loc 1 255 0
 381              		.cfi_startproc
 382              		@ args = 0, pretend = 0, frame = 0
 383              		@ frame_needed = 0, uses_anonymous_args = 0
 384              		@ link register save eliminated.
 385              	.LVL25:
 386              		.loc 1 255 0
 387 0000 0346     		mov	r3, r0
 388              	.LBB140:
 389              	.LBB141:
 390              	.LBB142:
 391              	.LBB143:
 392              		.loc 3 548 0
 393 0002 2020     		movs	r0, #32
ARM GAS  /tmp/ccHz812R.s 			page 8


 394              	.LVL26:
 395              	@ 548 "../../../resources/chibios/ChibiOS_16.1.8/os/ext/CMSIS/include/core_cmFunc.h" 1
 396 0004 80F31188 		MSR basepri, r0
 397              	@ 0 "" 2
 398              	.LVL27:
 399              		.thumb
 400              	.LBE143:
 401              	.LBE142:
 402              	.LBE141:
 403              	.LBE140:
 404              	.LBB144:
 405              	.LBB145:
 406              		.loc 1 287 0
 407 0008 9A68     		ldr	r2, [r3, #8]
 408              		.loc 1 297 0
 409 000a 0020     		movs	r0, #0
 410              		.loc 1 287 0
 411 000c 1AB1     		cbz	r2, .L28
 412              	.LVL28:
 413              	.LBE145:
 414              	.LBE144:
 415              	.LBB147:
 416              	.LBB148:
 417              	.LBB149:
 418              	.LBB150:
 419              	.LBB151:
 420              		.loc 3 548 0
 421 000e 0023     		movs	r3, #0
 422              	.LVL29:
 423              	@ 548 "../../../resources/chibios/ChibiOS_16.1.8/os/ext/CMSIS/include/core_cmFunc.h" 1
 424 0010 83F31188 		MSR basepri, r3
 425              	@ 0 "" 2
 426              		.thumb
 427              	.LBE151:
 428              	.LBE150:
 429              	.LBE149:
 430              	.LBE148:
 431              	.LBE147:
 432              		.loc 1 263 0
 433 0014 7047     		bx	lr
 434              	.LVL30:
 435              	.L28:
 436              	.LBB156:
 437              	.LBB146:
 438              		.loc 1 305 0
 439 0016 40F2000C 		movw	ip, #:lower16:ch
 440 001a C0F2000C 		movt	ip, #:upper16:ch
 441 001e DCF81820 		ldr	r2, [ip, #24]
 442              		.loc 1 308 0
 443 0022 0120     		movs	r0, #1
 444              		.loc 1 306 0
 445 0024 916B     		ldr	r1, [r2, #56]
 446              		.loc 1 305 0
 447 0026 9A60     		str	r2, [r3, #8]
 448              		.loc 1 306 0
 449 0028 D960     		str	r1, [r3, #12]
 450              		.loc 1 307 0
ARM GAS  /tmp/ccHz812R.s 			page 9


 451 002a 9363     		str	r3, [r2, #56]
 452              	.LVL31:
 453              	.LBE146:
 454              	.LBE156:
 455              	.LBB157:
 456              	.LBB155:
 457              	.LBB154:
 458              	.LBB153:
 459              	.LBB152:
 460              		.loc 3 548 0
 461 002c 0023     		movs	r3, #0
 462              	.LVL32:
 463              	@ 548 "../../../resources/chibios/ChibiOS_16.1.8/os/ext/CMSIS/include/core_cmFunc.h" 1
 464 002e 83F31188 		MSR basepri, r3
 465              	@ 0 "" 2
 466              		.thumb
 467              	.LBE152:
 468              	.LBE153:
 469              	.LBE154:
 470              	.LBE155:
 471              	.LBE157:
 472              		.loc 1 263 0
 473 0032 7047     		bx	lr
 474              		.cfi_endproc
 475              	.LFE185:
 476              		.size	chMtxTryLock, .-chMtxTryLock
 477 0034 AFF30080 		.section	.text.chMtxTryLockS,"ax",%progbits
 477      AFF30080 
 477      AFF30080 
 478              		.align	2
 479              		.p2align 4,,15
 480              		.global	chMtxTryLockS
 481              		.thumb
 482              		.thumb_func
 483              		.type	chMtxTryLockS, %function
 484              	chMtxTryLockS:
 485              	.LFB186:
 486              		.loc 1 282 0
 487              		.cfi_startproc
 488              		@ args = 0, pretend = 0, frame = 0
 489              		@ frame_needed = 0, uses_anonymous_args = 0
 490              		@ link register save eliminated.
 491              	.LVL33:
 492              		.loc 1 287 0
 493 0000 8268     		ldr	r2, [r0, #8]
 494              		.loc 1 282 0
 495 0002 0346     		mov	r3, r0
 496              		.loc 1 287 0
 497 0004 0AB1     		cbz	r2, .L32
 498              		.loc 1 297 0
 499 0006 0020     		movs	r0, #0
 500              	.LVL34:
 501              		.loc 1 309 0
 502 0008 7047     		bx	lr
 503              	.L32:
 504              		.loc 1 305 0
 505 000a 40F20000 		movw	r0, #:lower16:ch
ARM GAS  /tmp/ccHz812R.s 			page 10


 506 000e C0F20000 		movt	r0, #:upper16:ch
 507 0012 8269     		ldr	r2, [r0, #24]
 508              		.loc 1 308 0
 509 0014 0120     		movs	r0, #1
 510              		.loc 1 306 0
 511 0016 916B     		ldr	r1, [r2, #56]
 512              		.loc 1 305 0
 513 0018 9A60     		str	r2, [r3, #8]
 514              		.loc 1 306 0
 515 001a D960     		str	r1, [r3, #12]
 516              		.loc 1 307 0
 517 001c 9363     		str	r3, [r2, #56]
 518              		.loc 1 308 0
 519 001e 7047     		bx	lr
 520              		.cfi_endproc
 521              	.LFE186:
 522              		.size	chMtxTryLockS, .-chMtxTryLockS
 523              		.section	.text.chMtxUnlock,"ax",%progbits
 524              		.align	2
 525              		.p2align 4,,15
 526              		.global	chMtxUnlock
 527              		.thumb
 528              		.thumb_func
 529              		.type	chMtxUnlock, %function
 530              	chMtxUnlock:
 531              	.LFB187:
 532              		.loc 1 323 0
 533              		.cfi_startproc
 534              		@ args = 0, pretend = 0, frame = 0
 535              		@ frame_needed = 0, uses_anonymous_args = 0
 536              	.LVL35:
 537              		.loc 1 324 0
 538 0000 40F20001 		movw	r1, #:lower16:ch
 539 0004 C0F20001 		movt	r1, #:upper16:ch
 540              		.loc 1 323 0
 541 0008 38B5     		push	{r3, r4, r5, lr}
 542              	.LCFI2:
 543              		.cfi_def_cfa_offset 16
 544              		.cfi_offset 14, -4
 545              		.cfi_offset 5, -8
 546              		.cfi_offset 4, -12
 547              		.cfi_offset 3, -16
 548              	.LBB158:
 549              	.LBB159:
 550              	.LBB160:
 551              	.LBB161:
 552              		.loc 3 548 0
 553 000a 2022     		movs	r2, #32
 554              	.LBE161:
 555              	.LBE160:
 556              	.LBE159:
 557              	.LBE158:
 558              		.loc 1 323 0
 559 000c 0346     		mov	r3, r0
 560              		.loc 1 324 0
 561 000e 8869     		ldr	r0, [r1, #24]
 562              	.LVL36:
ARM GAS  /tmp/ccHz812R.s 			page 11


 563              	.LBB165:
 564              	.LBB164:
 565              	.LBB163:
 566              	.LBB162:
 567              		.loc 3 548 0
 568              	@ 548 "../../../resources/chibios/ChibiOS_16.1.8/os/ext/CMSIS/include/core_cmFunc.h" 1
 569 0010 82F31188 		MSR basepri, r2
 570              	@ 0 "" 2
 571              		.thumb
 572              	.LBE162:
 573              	.LBE163:
 574              	.LBE164:
 575              	.LBE165:
 576              	.LBB166:
 577              	.LBB167:
 578              	.LBB168:
 579              	.LBB169:
 580              		.loc 2 631 0
 581 0014 1A68     		ldr	r2, [r3, #0]
 582              	.LBE169:
 583              	.LBE168:
 584              	.LBE167:
 585              	.LBE166:
 586              		.loc 1 344 0
 587 0016 D968     		ldr	r1, [r3, #12]
 588              	.LVL37:
 589              		.loc 1 347 0
 590 0018 9342     		cmp	r3, r2
 591              		.loc 1 344 0
 592 001a 8163     		str	r1, [r0, #56]
 593              	.LVL38:
 594              		.loc 1 347 0
 595 001c 1CD0     		beq	.L34
 596              	.LBB170:
 597              		.loc 1 352 0
 598 001e C56B     		ldr	r5, [r0, #60]
 599              	.LVL39:
 600              		.loc 1 354 0
 601 0020 49B1     		cbz	r1, .L35
 602              	.LVL40:
 603              	.L39:
 604              	.LBB171:
 605              	.LBB172:
 606              	.LBB173:
 607              	.LBB174:
 608              		.loc 2 631 0
 609 0022 0C68     		ldr	r4, [r1, #0]
 610              	.LBE174:
 611              	.LBE173:
 612              	.LBE172:
 613              	.LBE171:
 614              		.loc 1 358 0
 615 0024 A142     		cmp	r1, r4
 616 0026 03D0     		beq	.L36
 617              		.loc 1 358 0 is_stmt 0 discriminator 1
 618 0028 A468     		ldr	r4, [r4, #8]
 619 002a A542     		cmp	r5, r4
ARM GAS  /tmp/ccHz812R.s 			page 12


 620 002c 38BF     		it	cc
 621 002e 2546     		movcc	r5, r4
 622              	.LVL41:
 623              	.L36:
 624              		.loc 1 362 0 is_stmt 1
 625 0030 C968     		ldr	r1, [r1, #12]
 626              	.LVL42:
 627              		.loc 1 354 0
 628 0032 0029     		cmp	r1, #0
 629 0034 F5D1     		bne	.L39
 630              	.L35:
 631              	.LBB175:
 632              	.LBB176:
 633              		.loc 2 674 0
 634 0036 1168     		ldr	r1, [r2, #0]
 635              	.LVL43:
 636              	.LBE176:
 637              	.LBE175:
 638              		.loc 1 376 0
 639 0038 946B     		ldr	r4, [r2, #56]
 640              		.loc 1 367 0
 641 003a 8560     		str	r5, [r0, #8]
 642              	.LVL44:
 643              	.LBB179:
 644              	.LBB177:
 645              		.loc 2 674 0
 646 003c 1960     		str	r1, [r3, #0]
 647              	.LBE177:
 648              	.LBE179:
 649              		.loc 1 383 0
 650 003e 1046     		mov	r0, r2
 651              	.LBB180:
 652              	.LBB178:
 653              		.loc 2 675 0
 654 0040 4B60     		str	r3, [r1, #4]
 655              	.LBE178:
 656              	.LBE180:
 657              		.loc 1 375 0
 658 0042 9A60     		str	r2, [r3, #8]
 659              		.loc 1 376 0
 660 0044 DC60     		str	r4, [r3, #12]
 661              		.loc 1 377 0
 662 0046 9363     		str	r3, [r2, #56]
 663              		.loc 1 383 0
 664 0048 FFF7FEFF 		bl	chSchReadyI
 665              	.LVL45:
 666              		.loc 1 384 0
 667 004c FFF7FEFF 		bl	chSchRescheduleS
 668              	.LVL46:
 669              	.LBE170:
 670              	.LBB181:
 671              	.LBB182:
 672              	.LBB183:
 673              	.LBB184:
 674              	.LBB185:
 675              		.loc 3 548 0
 676 0050 0023     		movs	r3, #0
ARM GAS  /tmp/ccHz812R.s 			page 13


 677              	@ 548 "../../../resources/chibios/ChibiOS_16.1.8/os/ext/CMSIS/include/core_cmFunc.h" 1
 678 0052 83F31188 		MSR basepri, r3
 679              	@ 0 "" 2
 680              		.thumb
 681              	.LBE185:
 682              	.LBE184:
 683              	.LBE183:
 684              	.LBE182:
 685              	.LBE181:
 686              		.loc 1 394 0
 687 0056 38BD     		pop	{r3, r4, r5, pc}
 688              	.LVL47:
 689              	.L34:
 690              		.loc 1 387 0
 691 0058 0020     		movs	r0, #0
 692              	.LVL48:
 693 005a 9860     		str	r0, [r3, #8]
 694              	.LVL49:
 695              	.LBB190:
 696              	.LBB189:
 697              	.LBB188:
 698              	.LBB187:
 699              	.LBB186:
 700              		.loc 3 548 0
 701 005c 0023     		movs	r3, #0
 702              	.LVL50:
 703              	@ 548 "../../../resources/chibios/ChibiOS_16.1.8/os/ext/CMSIS/include/core_cmFunc.h" 1
 704 005e 83F31188 		MSR basepri, r3
 705              	@ 0 "" 2
 706              		.thumb
 707              	.LBE186:
 708              	.LBE187:
 709              	.LBE188:
 710              	.LBE189:
 711              	.LBE190:
 712              		.loc 1 394 0
 713 0062 38BD     		pop	{r3, r4, r5, pc}
 714              		.cfi_endproc
 715              	.LFE187:
 716              		.size	chMtxUnlock, .-chMtxUnlock
 717 0064 AFF30080 		.section	.text.chMtxUnlockS,"ax",%progbits
 717      AFF30080 
 717      AFF30080 
 718              		.align	2
 719              		.p2align 4,,15
 720              		.global	chMtxUnlockS
 721              		.thumb
 722              		.thumb_func
 723              		.type	chMtxUnlockS, %function
 724              	chMtxUnlockS:
 725              	.LFB188:
 726              		.loc 1 410 0
 727              		.cfi_startproc
 728              		@ args = 0, pretend = 0, frame = 0
 729              		@ frame_needed = 0, uses_anonymous_args = 0
 730              		@ link register save eliminated.
 731              	.LVL51:
ARM GAS  /tmp/ccHz812R.s 			page 14


 732              		.loc 1 411 0
 733 0000 40F20002 		movw	r2, #:lower16:ch
 734 0004 C0F20002 		movt	r2, #:upper16:ch
 735              		.loc 1 410 0
 736 0008 70B4     		push	{r4, r5, r6}
 737              	.LCFI3:
 738              		.cfi_def_cfa_offset 12
 739              		.cfi_offset 6, -4
 740              		.cfi_offset 5, -8
 741              		.cfi_offset 4, -12
 742              		.loc 1 411 0
 743 000a 9669     		ldr	r6, [r2, #24]
 744              	.LVL52:
 745              	.LBB191:
 746              	.LBB192:
 747              	.LBB193:
 748              	.LBB194:
 749              		.loc 2 631 0
 750 000c 0268     		ldr	r2, [r0, #0]
 751              	.LVL53:
 752              	.LBE194:
 753              	.LBE193:
 754              	.LBE192:
 755              	.LBE191:
 756              		.loc 1 430 0
 757 000e C168     		ldr	r1, [r0, #12]
 758              		.loc 1 433 0
 759 0010 9042     		cmp	r0, r2
 760              		.loc 1 410 0
 761 0012 0346     		mov	r3, r0
 762              		.loc 1 430 0
 763 0014 B163     		str	r1, [r6, #56]
 764              	.LVL54:
 765              		.loc 1 433 0
 766 0016 17D0     		beq	.L42
 767              	.LVL55:
 768              	.LBB195:
 769              		.loc 1 438 0
 770 0018 F56B     		ldr	r5, [r6, #60]
 771              	.LVL56:
 772              		.loc 1 440 0
 773 001a 49B1     		cbz	r1, .L43
 774              	.LVL57:
 775              	.L46:
 776              	.LBB196:
 777              	.LBB197:
 778              	.LBB198:
 779              	.LBB199:
 780              		.loc 2 631 0
 781 001c 0868     		ldr	r0, [r1, #0]
 782              	.LBE199:
 783              	.LBE198:
 784              	.LBE197:
 785              	.LBE196:
 786              		.loc 1 444 0
 787 001e 8142     		cmp	r1, r0
 788 0020 03D0     		beq	.L44
ARM GAS  /tmp/ccHz812R.s 			page 15


 789              		.loc 1 444 0 is_stmt 0 discriminator 1
 790 0022 8068     		ldr	r0, [r0, #8]
 791 0024 8542     		cmp	r5, r0
 792 0026 38BF     		it	cc
 793 0028 0546     		movcc	r5, r0
 794              	.LVL58:
 795              	.L44:
 796              		.loc 1 448 0 is_stmt 1
 797 002a C968     		ldr	r1, [r1, #12]
 798              	.LVL59:
 799              		.loc 1 440 0
 800 002c 0029     		cmp	r1, #0
 801 002e F5D1     		bne	.L46
 802              	.L43:
 803              	.LBB200:
 804              	.LBB201:
 805              		.loc 2 674 0
 806 0030 1168     		ldr	r1, [r2, #0]
 807              	.LVL60:
 808              	.LBE201:
 809              	.LBE200:
 810              		.loc 1 462 0
 811 0032 946B     		ldr	r4, [r2, #56]
 812              		.loc 1 464 0
 813 0034 1046     		mov	r0, r2
 814              		.loc 1 453 0
 815 0036 B560     		str	r5, [r6, #8]
 816              	.LVL61:
 817              	.LBB203:
 818              	.LBB202:
 819              		.loc 2 674 0
 820 0038 1960     		str	r1, [r3, #0]
 821              		.loc 2 675 0
 822 003a 4B60     		str	r3, [r1, #4]
 823              	.LBE202:
 824              	.LBE203:
 825              		.loc 1 461 0
 826 003c 9A60     		str	r2, [r3, #8]
 827              		.loc 1 462 0
 828 003e DC60     		str	r4, [r3, #12]
 829              		.loc 1 463 0
 830 0040 9363     		str	r3, [r2, #56]
 831              	.LBE195:
 832              		.loc 1 472 0
 833 0042 70BC     		pop	{r4, r5, r6}
 834              	.LBB204:
 835              		.loc 1 464 0
 836 0044 FFF7FEBF 		b	chSchReadyI
 837              	.LVL62:
 838              	.L42:
 839              	.LBE204:
 840              		.loc 1 467 0
 841 0048 0023     		movs	r3, #0
 842 004a 8360     		str	r3, [r0, #8]
 843              		.loc 1 472 0
 844 004c 70BC     		pop	{r4, r5, r6}
 845 004e 7047     		bx	lr
ARM GAS  /tmp/ccHz812R.s 			page 16


 846              		.cfi_endproc
 847              	.LFE188:
 848              		.size	chMtxUnlockS, .-chMtxUnlockS
 849              		.section	.text.chMtxUnlockAll,"ax",%progbits
 850              		.align	2
 851              		.p2align 4,,15
 852              		.global	chMtxUnlockAll
 853              		.thumb
 854              		.thumb_func
 855              		.type	chMtxUnlockAll, %function
 856              	chMtxUnlockAll:
 857              	.LFB189:
 858              		.loc 1 485 0
 859              		.cfi_startproc
 860              		@ args = 0, pretend = 0, frame = 0
 861              		@ frame_needed = 0, uses_anonymous_args = 0
 862              		.loc 1 486 0
 863 0000 40F20000 		movw	r0, #:lower16:ch
 864 0004 C0F20000 		movt	r0, #:upper16:ch
 865              		.loc 1 485 0
 866 0008 70B5     		push	{r4, r5, r6, lr}
 867              	.LCFI4:
 868              		.cfi_def_cfa_offset 16
 869              		.cfi_offset 14, -4
 870              		.cfi_offset 6, -8
 871              		.cfi_offset 5, -12
 872              		.cfi_offset 4, -16
 873              	.LBB205:
 874              	.LBB206:
 875              	.LBB207:
 876              	.LBB208:
 877              		.loc 3 548 0
 878 000a 2023     		movs	r3, #32
 879              	.LBE208:
 880              	.LBE207:
 881              	.LBE206:
 882              	.LBE205:
 883              		.loc 1 486 0
 884 000c 8469     		ldr	r4, [r0, #24]
 885              	.LVL63:
 886              	.LBB212:
 887              	.LBB211:
 888              	.LBB210:
 889              	.LBB209:
 890              		.loc 3 548 0
 891              	@ 548 "../../../resources/chibios/ChibiOS_16.1.8/os/ext/CMSIS/include/core_cmFunc.h" 1
 892 000e 83F31188 		MSR basepri, r3
 893              	@ 0 "" 2
 894              		.thumb
 895              	.LBE209:
 896              	.LBE210:
 897              	.LBE211:
 898              	.LBE212:
 899              		.loc 1 489 0
 900 0012 A36B     		ldr	r3, [r4, #56]
 901 0014 C3B1     		cbz	r3, .L49
 902              	.LBB213:
ARM GAS  /tmp/ccHz812R.s 			page 17


 903              		.loc 1 507 0
 904 0016 0025     		movs	r5, #0
 905              	.LVL64:
 906              	.L53:
 907              	.LBB214:
 908              	.LBB215:
 909              	.LBB216:
 910              	.LBB217:
 911              		.loc 2 631 0
 912 0018 1A68     		ldr	r2, [r3, #0]
 913              	.LBE217:
 914              	.LBE216:
 915              	.LBE215:
 916              	.LBE214:
 917              		.loc 1 492 0
 918 001a D968     		ldr	r1, [r3, #12]
 919              		.loc 1 493 0
 920 001c 9342     		cmp	r3, r2
 921              		.loc 1 492 0
 922 001e A163     		str	r1, [r4, #56]
 923              	.LVL65:
 924              	.LBB218:
 925              		.loc 1 501 0
 926 0020 1046     		mov	r0, r2
 927              	.LBE218:
 928              		.loc 1 507 0
 929 0022 08BF     		it	eq
 930 0024 9D60     		streq	r5, [r3, #8]
 931              		.loc 1 493 0
 932 0026 08D0     		beq	.L51
 933              	.LVL66:
 934              	.LBB223:
 935              	.LBB219:
 936              	.LBB220:
 937              		.loc 2 674 0
 938 0028 1168     		ldr	r1, [r2, #0]
 939              	.LBE220:
 940              	.LBE219:
 941              		.loc 1 499 0
 942 002a 966B     		ldr	r6, [r2, #56]
 943              	.LBB222:
 944              	.LBB221:
 945              		.loc 2 674 0
 946 002c 1960     		str	r1, [r3, #0]
 947              		.loc 2 675 0
 948 002e 4B60     		str	r3, [r1, #4]
 949              	.LBE221:
 950              	.LBE222:
 951              		.loc 1 498 0
 952 0030 9A60     		str	r2, [r3, #8]
 953              		.loc 1 499 0
 954 0032 DE60     		str	r6, [r3, #12]
 955              		.loc 1 500 0
 956 0034 9363     		str	r3, [r2, #56]
 957              		.loc 1 501 0
 958 0036 FFF7FEFF 		bl	chSchReadyI
 959              	.LVL67:
ARM GAS  /tmp/ccHz812R.s 			page 18


 960              	.L51:
 961              	.LBE223:
 962              	.LBE213:
 963              		.loc 1 509 0
 964 003a A36B     		ldr	r3, [r4, #56]
 965 003c 002B     		cmp	r3, #0
 966 003e EBD1     		bne	.L53
 967              		.loc 1 510 0
 968 0040 E26B     		ldr	r2, [r4, #60]
 969 0042 A260     		str	r2, [r4, #8]
 970              		.loc 1 511 0
 971 0044 FFF7FEFF 		bl	chSchRescheduleS
 972              	.L49:
 973              	.LVL68:
 974              	.LBB224:
 975              	.LBB225:
 976              	.LBB226:
 977              	.LBB227:
 978              	.LBB228:
 979              		.loc 3 548 0
 980 0048 0023     		movs	r3, #0
 981              	@ 548 "../../../resources/chibios/ChibiOS_16.1.8/os/ext/CMSIS/include/core_cmFunc.h" 1
 982 004a 83F31188 		MSR basepri, r3
 983              	@ 0 "" 2
 984              		.thumb
 985              	.LBE228:
 986              	.LBE227:
 987              	.LBE226:
 988              	.LBE225:
 989              	.LBE224:
 990              		.loc 1 514 0
 991 004e 70BD     		pop	{r4, r5, r6, pc}
 992              		.cfi_endproc
 993              	.LFE189:
 994              		.size	chMtxUnlockAll, .-chMtxUnlockAll
 995              		.text
 996              	.Letext0:
 997              		.file 4 "/home/madog/programs/CodeSourcery/Sourcery_CodeBench_Lite_for_ARM_EABI/bin/../lib/gcc/arm
 998              		.file 5 "../../../resources/chibios/ChibiOS_16.1.8/os/rt/ports/ARMCMx/compilers/GCC/chtypes.h"
 999              		.file 6 "../../../resources/chibios/ChibiOS_16.1.8/os/rt/include/chsystypes.h"
 1000              		.file 7 "../../../resources/chibios/ChibiOS_16.1.8/os/rt/ports/ARMCMx/chcore.h"
 1001              		.file 8 "../../../resources/chibios/ChibiOS_16.1.8/os/rt/ports/ARMCMx/chcore_v7m.h"
 1002              		.file 9 "../../../resources/chibios/ChibiOS_16.1.8/os/rt/include/chtm.h"
 1003              		.file 10 "../../../resources/chibios/ChibiOS_16.1.8/os/rt/include/chsem.h"
 1004              		.file 11 "../../../resources/chibios/ChibiOS_16.1.8/os/rt/include/chmtx.h"
 1005              		.file 12 "../../../resources/chibios/ChibiOS_16.1.8/os/rt/include/chsys.h"
 1006              		.file 13 "../../../resources/chibios/ChibiOS_16.1.8/os/ext/CMSIS/include/core_cm3.h"