ARM GAS  /tmp/cc0nWktl.s 			page 1


   1              		.syntax unified
   2              		.cpu cortex-m3
   3              		.fpu softvfp
   4              		.eabi_attribute 20, 1
   5              		.eabi_attribute 21, 1
   6              		.eabi_attribute 23, 3
   7              		.eabi_attribute 24, 1
   8              		.eabi_attribute 25, 1
   9              		.eabi_attribute 26, 1
  10              		.eabi_attribute 30, 2
  11              		.eabi_attribute 34, 1
  12              		.eabi_attribute 18, 4
  13              		.thumb
  14              		.file	"chqueues.c"
  15              		.text
  16              	.Ltext0:
  17              		.cfi_sections	.debug_frame
  18              		.section	.text.chIQObjectInit,"ax",%progbits
  19              		.align	2
  20              		.p2align 4,,15
  21              		.global	chIQObjectInit
  22              		.thumb
  23              		.thumb_func
  24              		.type	chIQObjectInit, %function
  25              	chIQObjectInit:
  26              	.LFB182:
  27              		.file 1 "../../../resources/chibios/ChibiOS_16.1.8/os/rt/src/chqueues.c"
  28              		.loc 1 88 0
  29              		.cfi_startproc
  30              		@ args = 4, pretend = 0, frame = 0
  31              		@ frame_needed = 0, uses_anonymous_args = 0
  32              		@ link register save eliminated.
  33              	.LVL0:
  34 0000 10B4     		push	{r4}
  35              	.LCFI0:
  36              		.cfi_def_cfa_offset 4
  37              		.cfi_offset 4, -4
  38              		.loc 1 96 0
  39 0002 C361     		str	r3, [r0, #28]
  40              		.loc 1 97 0
  41 0004 019B     		ldr	r3, [sp, #4]
  42              	.LVL1:
  43              		.loc 1 95 0
  44 0006 8A18     		adds	r2, r1, r2
  45              	.LVL2:
  46              		.loc 1 91 0
  47 0008 0024     		movs	r4, #0
  48              	.LBB108:
  49              	.LBB109:
  50              	.LBB110:
  51              		.file 2 "../../../resources/chibios/ChibiOS_16.1.8/os/rt/include/chschd.h"
  52              		.loc 2 604 0
  53 000a 0060     		str	r0, [r0, #0]
  54              		.loc 2 605 0
  55 000c 4060     		str	r0, [r0, #4]
  56              	.LBE110:
  57              	.LBE109:
ARM GAS  /tmp/cc0nWktl.s 			page 2


  58              	.LBE108:
  59              		.loc 1 91 0
  60 000e 8460     		str	r4, [r0, #8]
  61              		.loc 1 92 0
  62 0010 C160     		str	r1, [r0, #12]
  63              		.loc 1 93 0
  64 0012 8161     		str	r1, [r0, #24]
  65              		.loc 1 94 0
  66 0014 4161     		str	r1, [r0, #20]
  67              		.loc 1 95 0
  68 0016 0261     		str	r2, [r0, #16]
  69              		.loc 1 97 0
  70 0018 0362     		str	r3, [r0, #32]
  71              		.loc 1 98 0
  72 001a 10BC     		pop	{r4}
  73 001c 7047     		bx	lr
  74              		.cfi_endproc
  75              	.LFE182:
  76              		.size	chIQObjectInit, .-chIQObjectInit
  77 001e 00BF     		.section	.text.chIQResetI,"ax",%progbits
  78              		.align	2
  79              		.p2align 4,,15
  80              		.global	chIQResetI
  81              		.thumb
  82              		.thumb_func
  83              		.type	chIQResetI, %function
  84              	chIQResetI:
  85              	.LFB183:
  86              		.loc 1 111 0
  87              		.cfi_startproc
  88              		@ args = 0, pretend = 0, frame = 0
  89              		@ frame_needed = 0, uses_anonymous_args = 0
  90              		@ link register save eliminated.
  91              	.LVL3:
  92              		.loc 1 115 0
  93 0000 C168     		ldr	r1, [r0, #12]
  94              		.loc 1 117 0
  95 0002 0022     		movs	r2, #0
  96              		.loc 1 115 0
  97 0004 8161     		str	r1, [r0, #24]
  98              		.loc 1 116 0
  99 0006 4161     		str	r1, [r0, #20]
 100              		.loc 1 118 0
 101 0008 6FF00101 		mvn	r1, #1
 102              		.loc 1 117 0
 103 000c 8260     		str	r2, [r0, #8]
 104              		.loc 1 119 0
 105              		.loc 1 118 0
 106 000e FFF7FEBF 		b	chThdDequeueAllI
 107              	.LVL4:
 108              		.cfi_endproc
 109              	.LFE183:
 110              		.size	chIQResetI, .-chIQResetI
 111 0012 00BFAFF3 		.section	.text.chIQPutI,"ax",%progbits
 111      0080AFF3 
 111      0080AFF3 
 111      0080
ARM GAS  /tmp/cc0nWktl.s 			page 3


 112              		.align	2
 113              		.p2align 4,,15
 114              		.global	chIQPutI
 115              		.thumb
 116              		.thumb_func
 117              		.type	chIQPutI, %function
 118              	chIQPutI:
 119              	.LFB184:
 120              		.loc 1 134 0
 121              		.cfi_startproc
 122              		@ args = 0, pretend = 0, frame = 0
 123              		@ frame_needed = 0, uses_anonymous_args = 0
 124              	.LVL5:
 125 0000 08B5     		push	{r3, lr}
 126              	.LCFI1:
 127              		.cfi_def_cfa_offset 8
 128              		.cfi_offset 14, -4
 129              		.cfi_offset 3, -8
 130              	.LBB111:
 131              	.LBB112:
 132              		.file 3 "../../../resources/chibios/ChibiOS_16.1.8/os/rt/include/chqueues.h"
 133              		.loc 3 325 0
 134 0002 8269     		ldr	r2, [r0, #24]
 135 0004 4369     		ldr	r3, [r0, #20]
 136 0006 9342     		cmp	r3, r2
 137 0008 0FD0     		beq	.L10
 138              	.L4:
 139              	.LBE112:
 140              	.LBE111:
 141              		.loc 1 142 0
 142 000a 8268     		ldr	r2, [r0, #8]
 143 000c 0132     		adds	r2, r2, #1
 144 000e 8260     		str	r2, [r0, #8]
 145              		.loc 1 143 0
 146 0010 03F8011B 		strb	r1, [r3], #1
 147              		.loc 1 144 0
 148 0014 0169     		ldr	r1, [r0, #16]
 149              	.LVL6:
 150              		.loc 1 143 0
 151 0016 4361     		str	r3, [r0, #20]
 152              		.loc 1 144 0
 153 0018 8B42     		cmp	r3, r1
 154 001a 01D3     		bcc	.L7
 155              		.loc 1 145 0
 156 001c C368     		ldr	r3, [r0, #12]
 157 001e 4361     		str	r3, [r0, #20]
 158              	.L7:
 159              		.loc 1 148 0
 160 0020 0021     		movs	r1, #0
 161 0022 FFF7FEFF 		bl	chThdDequeueNextI
 162              	.LVL7:
 163              		.loc 1 150 0
 164 0026 0020     		movs	r0, #0
 165 0028 08BD     		pop	{r3, pc}
 166              	.LVL8:
 167              	.L10:
 168              	.LBB114:
ARM GAS  /tmp/cc0nWktl.s 			page 4


 169              	.LBB113:
 170              		.loc 3 325 0
 171 002a 8268     		ldr	r2, [r0, #8]
 172 002c 002A     		cmp	r2, #0
 173 002e ECD0     		beq	.L4
 174              		.loc 1 139 0
 175 0030 6FF00300 		mvn	r0, #3
 176              	.LVL9:
 177              	.LBE113:
 178              	.LBE114:
 179              		.loc 1 151 0
 180 0034 08BD     		pop	{r3, pc}
 181              		.cfi_endproc
 182              	.LFE184:
 183              		.size	chIQPutI, .-chIQPutI
 184 0036 00BFAFF3 		.section	.text.chIQGetTimeout,"ax",%progbits
 184      0080AFF3 
 184      0080
 185              		.align	2
 186              		.p2align 4,,15
 187              		.global	chIQGetTimeout
 188              		.thumb
 189              		.thumb_func
 190              		.type	chIQGetTimeout, %function
 191              	chIQGetTimeout:
 192              	.LFB185:
 193              		.loc 1 173 0
 194              		.cfi_startproc
 195              		@ args = 0, pretend = 0, frame = 0
 196              		@ frame_needed = 0, uses_anonymous_args = 0
 197              	.LVL10:
 198 0000 70B5     		push	{r4, r5, r6, lr}
 199              	.LCFI2:
 200              		.cfi_def_cfa_offset 16
 201              		.cfi_offset 14, -4
 202              		.cfi_offset 6, -8
 203              		.cfi_offset 5, -12
 204              		.cfi_offset 4, -16
 205              	.LBB115:
 206              	.LBB116:
 207              	.LBB117:
 208              	.LBB118:
 209              		.file 4 "../../../resources/chibios/ChibiOS_16.1.8/os/ext/CMSIS/include/core_cmFunc.h"
 210              		.loc 4 548 0
 211 0002 2023     		movs	r3, #32
 212              	.LBE118:
 213              	.LBE117:
 214              	.LBE116:
 215              	.LBE115:
 216              		.loc 1 173 0
 217 0004 0446     		mov	r4, r0
 218 0006 0E46     		mov	r6, r1
 219              	.LBB122:
 220              	.LBB121:
 221              	.LBB120:
 222              	.LBB119:
 223              		.loc 4 548 0
ARM GAS  /tmp/cc0nWktl.s 			page 5


 224              	@ 548 "../../../resources/chibios/ChibiOS_16.1.8/os/ext/CMSIS/include/core_cmFunc.h" 1
 225 0008 83F31188 		MSR basepri, r3
 226              	@ 0 "" 2
 227              		.thumb
 228              	.LBE119:
 229              	.LBE120:
 230              	.LBE121:
 231              	.LBE122:
 232              		.loc 1 177 0
 233 000c C369     		ldr	r3, [r0, #28]
 234 000e 03B1     		cbz	r3, .L17
 235              		.loc 1 178 0
 236 0010 9847     		blx	r3
 237              	.LVL11:
 238              	.L17:
 239              	.LBB123:
 240              	.LBB124:
 241              		.loc 3 307 0 discriminator 1
 242 0012 A568     		ldr	r5, [r4, #8]
 243              	.LBE124:
 244              	.LBE123:
 245              	.LBB125:
 246              		.loc 1 182 0 discriminator 1
 247 0014 2046     		mov	r0, r4
 248 0016 3146     		mov	r1, r6
 249              	.LBE125:
 250              		.loc 1 181 0 discriminator 1
 251 0018 35B9     		cbnz	r5, .L19
 252              	.LBB131:
 253              		.loc 1 182 0
 254 001a FFF7FEFF 		bl	chThdEnqueueTimeoutS
 255              	.LVL12:
 256              		.loc 1 183 0
 257 001e 0028     		cmp	r0, #0
 258 0020 F7DA     		bge	.L17
 259              	.LVL13:
 260              	.LBB126:
 261              	.LBB127:
 262              	.LBB128:
 263              	.LBB129:
 264              	.LBB130:
 265              		.loc 4 548 0
 266              	@ 548 "../../../resources/chibios/ChibiOS_16.1.8/os/ext/CMSIS/include/core_cmFunc.h" 1
 267 0022 85F31188 		MSR basepri, r5
 268              	@ 0 "" 2
 269              		.thumb
 270              	.LBE130:
 271              	.LBE129:
 272              	.LBE128:
 273              	.LBE127:
 274              	.LBE126:
 275              		.loc 1 185 0
 276 0026 70BD     		pop	{r4, r5, r6, pc}
 277              	.LVL14:
 278              	.L19:
 279              	.LBE131:
 280              		.loc 1 189 0
ARM GAS  /tmp/cc0nWktl.s 			page 6


 281 0028 A168     		ldr	r1, [r4, #8]
 282              		.loc 1 190 0
 283 002a A369     		ldr	r3, [r4, #24]
 284              		.loc 1 189 0
 285 002c 481E     		subs	r0, r1, #1
 286 002e A060     		str	r0, [r4, #8]
 287              		.loc 1 190 0
 288 0030 13F8010B 		ldrb	r0, [r3], #1	@ zero_extendqisi2
 289              	.LVL15:
 290              		.loc 1 191 0
 291 0034 2269     		ldr	r2, [r4, #16]
 292              		.loc 1 190 0
 293 0036 A361     		str	r3, [r4, #24]
 294              		.loc 1 191 0
 295 0038 9342     		cmp	r3, r2
 296              		.loc 1 192 0
 297 003a 24BF     		itt	cs
 298 003c E368     		ldrcs	r3, [r4, #12]
 299 003e A361     		strcs	r3, [r4, #24]
 300              	.LVL16:
 301              	.LBB132:
 302              	.LBB133:
 303              	.LBB134:
 304              	.LBB135:
 305              	.LBB136:
 306              		.loc 4 548 0
 307 0040 0021     		movs	r1, #0
 308              	@ 548 "../../../resources/chibios/ChibiOS_16.1.8/os/ext/CMSIS/include/core_cmFunc.h" 1
 309 0042 81F31188 		MSR basepri, r1
 310              	@ 0 "" 2
 311              		.thumb
 312              	.LBE136:
 313              	.LBE135:
 314              	.LBE134:
 315              	.LBE133:
 316              	.LBE132:
 317              		.loc 1 197 0
 318 0046 70BD     		pop	{r4, r5, r6, pc}
 319              		.cfi_endproc
 320              	.LFE185:
 321              		.size	chIQGetTimeout, .-chIQGetTimeout
 322 0048 AFF30080 		.section	.text.chIQReadTimeout,"ax",%progbits
 322      AFF30080 
 323              		.align	2
 324              		.p2align 4,,15
 325              		.global	chIQReadTimeout
 326              		.thumb
 327              		.thumb_func
 328              		.type	chIQReadTimeout, %function
 329              	chIQReadTimeout:
 330              	.LFB186:
 331              		.loc 1 224 0
 332              		.cfi_startproc
 333              		@ args = 0, pretend = 0, frame = 8
 334              		@ frame_needed = 0, uses_anonymous_args = 0
 335              	.LVL17:
 336 0000 2DE9F04F 		push	{r4, r5, r6, r7, r8, r9, sl, fp, lr}
ARM GAS  /tmp/cc0nWktl.s 			page 7


 337              	.LCFI3:
 338              		.cfi_def_cfa_offset 36
 339              		.cfi_offset 14, -4
 340              		.cfi_offset 11, -8
 341              		.cfi_offset 10, -12
 342              		.cfi_offset 9, -16
 343              		.cfi_offset 8, -20
 344              		.cfi_offset 7, -24
 345              		.cfi_offset 6, -28
 346              		.cfi_offset 5, -32
 347              		.cfi_offset 4, -36
 348 0004 83B0     		sub	sp, sp, #12
 349              	.LCFI4:
 350              		.cfi_def_cfa_offset 48
 351              		.loc 1 224 0
 352 0006 0446     		mov	r4, r0
 353 0008 0191     		str	r1, [sp, #4]
 354 000a 1546     		mov	r5, r2
 355 000c 1F46     		mov	r7, r3
 356              		.loc 1 225 0
 357 000e D0F81C90 		ldr	r9, [r0, #28]
 358              	.LVL18:
 359              	.LBB137:
 360              	.LBB138:
 361              	.LBB139:
 362              	.LBB140:
 363              		.loc 4 548 0
 364 0012 4FF0200B 		mov	fp, #32
 365              	@ 548 "../../../resources/chibios/ChibiOS_16.1.8/os/ext/CMSIS/include/core_cmFunc.h" 1
 366 0016 8BF31188 		MSR basepri, fp
 367              	@ 0 "" 2
 368              		.loc 1 226 0
 369              		.thumb
 370 001a 4FF00008 		mov	r8, #0
 371              	.LBE140:
 372              	.LBE139:
 373              	.LBE138:
 374              	.LBE137:
 375              	.LBB141:
 376              	.LBB142:
 377              	.LBB143:
 378              	.LBB144:
 379              	.LBB145:
 380              		.loc 4 548 0
 381 001e C246     		mov	sl, r8
 382              	.LVL19:
 383              	.L26:
 384              	.LBE145:
 385              	.LBE144:
 386              	.LBE143:
 387              	.LBE142:
 388              	.LBE141:
 389              		.loc 1 232 0
 390 0020 B9F1000F 		cmp	r9, #0
 391 0024 01D0     		beq	.L27
 392              		.loc 1 233 0
 393 0026 2046     		mov	r0, r4
ARM GAS  /tmp/cc0nWktl.s 			page 8


 394 0028 C847     		blx	r9
 395              	.L27:
 396              	.LVL20:
 397              	.LBB150:
 398              	.LBB151:
 399              		.loc 3 307 0 discriminator 1
 400 002a A668     		ldr	r6, [r4, #8]
 401              	.LBE151:
 402              	.LBE150:
 403              		.loc 1 237 0 discriminator 1
 404 002c 2046     		mov	r0, r4
 405 002e 3946     		mov	r1, r7
 406              		.loc 1 236 0 discriminator 1
 407 0030 4EB9     		cbnz	r6, .L29
 408              		.loc 1 237 0
 409 0032 FFF7FEFF 		bl	chThdEnqueueTimeoutS
 410 0036 0028     		cmp	r0, #0
 411 0038 F7D0     		beq	.L27
 412              	.LVL21:
 413              	.LBB152:
 414              	.LBB153:
 415              	.LBB154:
 416              	.LBB155:
 417              	.LBB156:
 418              		.loc 4 548 0
 419              	@ 548 "../../../resources/chibios/ChibiOS_16.1.8/os/ext/CMSIS/include/core_cmFunc.h" 1
 420 003a 86F31188 		MSR basepri, r6
 421              	@ 0 "" 2
 422              	.LVL22:
 423              		.thumb
 424              	.L23:
 425              	.LBE156:
 426              	.LBE155:
 427              	.LBE154:
 428              	.LBE153:
 429              	.LBE152:
 430              		.loc 1 257 0
 431 003e 4046     		mov	r0, r8
 432 0040 03B0     		add	sp, sp, #12
 433 0042 BDE8F08F 		pop	{r4, r5, r6, r7, r8, r9, sl, fp, pc}
 434              	.L29:
 435              		.loc 1 243 0
 436 0046 A168     		ldr	r1, [r4, #8]
 437              		.loc 1 244 0
 438 0048 A369     		ldr	r3, [r4, #24]
 439              		.loc 1 243 0
 440 004a 4A1E     		subs	r2, r1, #1
 441 004c A260     		str	r2, [r4, #8]
 442              		.loc 1 244 0
 443 004e 13F8010B 		ldrb	r0, [r3], #1	@ zero_extendqisi2
 444 0052 0199     		ldr	r1, [sp, #4]
 445 0054 01F80800 		strb	r0, [r1, r8]
 446              		.loc 1 245 0
 447 0058 2269     		ldr	r2, [r4, #16]
 448              		.loc 1 244 0
 449 005a A361     		str	r3, [r4, #24]
 450              		.loc 1 245 0
ARM GAS  /tmp/cc0nWktl.s 			page 9


 451 005c 9342     		cmp	r3, r2
 452              		.loc 1 246 0
 453 005e 24BF     		itt	cs
 454 0060 E368     		ldrcs	r3, [r4, #12]
 455 0062 A361     		strcs	r3, [r4, #24]
 456              	.LVL23:
 457              	.LBB157:
 458              	.LBB149:
 459              	.LBB148:
 460              	.LBB147:
 461              	.LBB146:
 462              		.loc 4 548 0
 463              	@ 548 "../../../resources/chibios/ChibiOS_16.1.8/os/ext/CMSIS/include/core_cmFunc.h" 1
 464 0064 8AF31188 		MSR basepri, sl
 465              	@ 0 "" 2
 466              		.thumb
 467              	.LBE146:
 468              	.LBE147:
 469              	.LBE148:
 470              	.LBE149:
 471              	.LBE157:
 472              		.loc 1 250 0
 473 0068 08F10108 		add	r8, r8, #1
 474              	.LVL24:
 475              		.loc 1 251 0
 476 006c A845     		cmp	r8, r5
 477 006e E6D0     		beq	.L23
 478              	.LVL25:
 479              	.LBB158:
 480              	.LBB159:
 481              	.LBB160:
 482              	.LBB161:
 483              		.loc 4 548 0
 484              	@ 548 "../../../resources/chibios/ChibiOS_16.1.8/os/ext/CMSIS/include/core_cmFunc.h" 1
 485 0070 8BF31188 		MSR basepri, fp
 486              	@ 0 "" 2
 487              		.thumb
 488 0074 D4E7     		b	.L26
 489              	.LBE161:
 490              	.LBE160:
 491              	.LBE159:
 492              	.LBE158:
 493              		.cfi_endproc
 494              	.LFE186:
 495              		.size	chIQReadTimeout, .-chIQReadTimeout
 496 0076 00BFAFF3 		.section	.text.chOQObjectInit,"ax",%progbits
 496      0080AFF3 
 496      0080
 497              		.align	2
 498              		.p2align 4,,15
 499              		.global	chOQObjectInit
 500              		.thumb
 501              		.thumb_func
 502              		.type	chOQObjectInit, %function
 503              	chOQObjectInit:
 504              	.LFB187:
 505              		.loc 1 276 0
ARM GAS  /tmp/cc0nWktl.s 			page 10


 506              		.cfi_startproc
 507              		@ args = 4, pretend = 0, frame = 0
 508              		@ frame_needed = 0, uses_anonymous_args = 0
 509              		@ link register save eliminated.
 510              	.LVL26:
 511 0000 10B4     		push	{r4}
 512              	.LCFI5:
 513              		.cfi_def_cfa_offset 4
 514              		.cfi_offset 4, -4
 515              		.loc 1 284 0
 516 0002 C361     		str	r3, [r0, #28]
 517              		.loc 1 285 0
 518 0004 019B     		ldr	r3, [sp, #4]
 519              	.LVL27:
 520              		.loc 1 283 0
 521 0006 8C18     		adds	r4, r1, r2
 522              	.LBB162:
 523              	.LBB163:
 524              	.LBB164:
 525              		.loc 2 604 0
 526 0008 0060     		str	r0, [r0, #0]
 527              		.loc 2 605 0
 528 000a 4060     		str	r0, [r0, #4]
 529              	.LBE164:
 530              	.LBE163:
 531              	.LBE162:
 532              		.loc 1 279 0
 533 000c 8260     		str	r2, [r0, #8]
 534              		.loc 1 280 0
 535 000e C160     		str	r1, [r0, #12]
 536              		.loc 1 281 0
 537 0010 8161     		str	r1, [r0, #24]
 538              		.loc 1 282 0
 539 0012 4161     		str	r1, [r0, #20]
 540              		.loc 1 283 0
 541 0014 0461     		str	r4, [r0, #16]
 542              		.loc 1 285 0
 543 0016 0362     		str	r3, [r0, #32]
 544              		.loc 1 286 0
 545 0018 10BC     		pop	{r4}
 546 001a 7047     		bx	lr
 547              		.cfi_endproc
 548              	.LFE187:
 549              		.size	chOQObjectInit, .-chOQObjectInit
 550 001c AFF30080 		.section	.text.chOQResetI,"ax",%progbits
 551              		.align	2
 552              		.p2align 4,,15
 553              		.global	chOQResetI
 554              		.thumb
 555              		.thumb_func
 556              		.type	chOQResetI, %function
 557              	chOQResetI:
 558              	.LFB188:
 559              		.loc 1 299 0
 560              		.cfi_startproc
 561              		@ args = 0, pretend = 0, frame = 0
 562              		@ frame_needed = 0, uses_anonymous_args = 0
ARM GAS  /tmp/cc0nWktl.s 			page 11


 563              		@ link register save eliminated.
 564              	.LVL28:
 565              		.loc 1 303 0
 566 0000 C268     		ldr	r2, [r0, #12]
 567              		.loc 1 305 0
 568 0002 0169     		ldr	r1, [r0, #16]
 569              		.loc 1 303 0
 570 0004 8261     		str	r2, [r0, #24]
 571              		.loc 1 305 0
 572 0006 891A     		subs	r1, r1, r2
 573 0008 8160     		str	r1, [r0, #8]
 574              		.loc 1 306 0
 575 000a 6FF00101 		mvn	r1, #1
 576              		.loc 1 304 0
 577 000e 4261     		str	r2, [r0, #20]
 578              		.loc 1 307 0
 579              		.loc 1 306 0
 580 0010 FFF7FEBF 		b	chThdDequeueAllI
 581              	.LVL29:
 582              		.cfi_endproc
 583              	.LFE188:
 584              		.size	chOQResetI, .-chOQResetI
 585 0014 AFF30080 		.section	.text.chOQPutTimeout,"ax",%progbits
 585      AFF30080 
 585      AFF30080 
 586              		.align	2
 587              		.p2align 4,,15
 588              		.global	chOQPutTimeout
 589              		.thumb
 590              		.thumb_func
 591              		.type	chOQPutTimeout, %function
 592              	chOQPutTimeout:
 593              	.LFB189:
 594              		.loc 1 331 0
 595              		.cfi_startproc
 596              		@ args = 0, pretend = 0, frame = 0
 597              		@ frame_needed = 0, uses_anonymous_args = 0
 598              	.LVL30:
 599 0000 F8B5     		push	{r3, r4, r5, r6, r7, lr}
 600              	.LCFI6:
 601              		.cfi_def_cfa_offset 24
 602              		.cfi_offset 14, -4
 603              		.cfi_offset 7, -8
 604              		.cfi_offset 6, -12
 605              		.cfi_offset 5, -16
 606              		.cfi_offset 4, -20
 607              		.cfi_offset 3, -24
 608              		.loc 1 331 0
 609 0002 0446     		mov	r4, r0
 610 0004 0D46     		mov	r5, r1
 611 0006 1746     		mov	r7, r2
 612              	.LBB165:
 613              	.LBB166:
 614              	.LBB167:
 615              	.LBB168:
 616              		.loc 4 548 0
 617 0008 2023     		movs	r3, #32
ARM GAS  /tmp/cc0nWktl.s 			page 12


 618              	@ 548 "../../../resources/chibios/ChibiOS_16.1.8/os/ext/CMSIS/include/core_cmFunc.h" 1
 619 000a 83F31188 		MSR basepri, r3
 620              	@ 0 "" 2
 621              	.LVL31:
 622              		.thumb
 623              	.L33:
 624              	.LBE168:
 625              	.LBE167:
 626              	.LBE166:
 627              	.LBE165:
 628              	.LBB169:
 629              	.LBB170:
 630              		.loc 3 411 0 discriminator 1
 631 000e A668     		ldr	r6, [r4, #8]
 632              	.LBE170:
 633              	.LBE169:
 634              	.LBB171:
 635              		.loc 1 335 0 discriminator 1
 636 0010 2046     		mov	r0, r4
 637 0012 3946     		mov	r1, r7
 638              	.LBE171:
 639              		.loc 1 334 0 discriminator 1
 640 0014 36B9     		cbnz	r6, .L39
 641              	.LBB177:
 642              		.loc 1 335 0
 643 0016 FFF7FEFF 		bl	chThdEnqueueTimeoutS
 644              	.LVL32:
 645              		.loc 1 336 0
 646 001a 0028     		cmp	r0, #0
 647 001c F7DA     		bge	.L33
 648              	.LVL33:
 649              	.LBB172:
 650              	.LBB173:
 651              	.LBB174:
 652              	.LBB175:
 653              	.LBB176:
 654              		.loc 4 548 0
 655              	@ 548 "../../../resources/chibios/ChibiOS_16.1.8/os/ext/CMSIS/include/core_cmFunc.h" 1
 656 001e 86F31188 		MSR basepri, r6
 657              	@ 0 "" 2
 658              		.thumb
 659              	.LBE176:
 660              	.LBE175:
 661              	.LBE174:
 662              	.LBE173:
 663              	.LBE172:
 664              		.loc 1 338 0
 665 0022 F8BD     		pop	{r3, r4, r5, r6, r7, pc}
 666              	.LVL34:
 667              	.L39:
 668              	.LBE177:
 669              		.loc 1 342 0
 670 0024 A368     		ldr	r3, [r4, #8]
 671              		.loc 1 343 0
 672 0026 6069     		ldr	r0, [r4, #20]
 673              		.loc 1 342 0
 674 0028 591E     		subs	r1, r3, #1
ARM GAS  /tmp/cc0nWktl.s 			page 13


 675 002a A160     		str	r1, [r4, #8]
 676              		.loc 1 343 0
 677 002c 00F8015B 		strb	r5, [r0], #1
 678              		.loc 1 344 0
 679 0030 2269     		ldr	r2, [r4, #16]
 680              		.loc 1 343 0
 681 0032 6061     		str	r0, [r4, #20]
 682              		.loc 1 344 0
 683 0034 9042     		cmp	r0, r2
 684              		.loc 1 345 0
 685 0036 28BF     		it	cs
 686 0038 E068     		ldrcs	r0, [r4, #12]
 687              		.loc 1 348 0
 688 003a E369     		ldr	r3, [r4, #28]
 689              		.loc 1 345 0
 690 003c 28BF     		it	cs
 691 003e 6061     		strcs	r0, [r4, #20]
 692              		.loc 1 348 0
 693 0040 0BB1     		cbz	r3, .L37
 694              		.loc 1 349 0
 695 0042 2046     		mov	r0, r4
 696 0044 9847     		blx	r3
 697              	.L37:
 698              	.LVL35:
 699              	.LBB178:
 700              	.LBB179:
 701              	.LBB180:
 702              	.LBB181:
 703              	.LBB182:
 704              		.loc 4 548 0
 705 0046 0020     		movs	r0, #0
 706              	@ 548 "../../../resources/chibios/ChibiOS_16.1.8/os/ext/CMSIS/include/core_cmFunc.h" 1
 707 0048 80F31188 		MSR basepri, r0
 708              	@ 0 "" 2
 709              		.thumb
 710              	.LBE182:
 711              	.LBE181:
 712              	.LBE180:
 713              	.LBE179:
 714              	.LBE178:
 715              		.loc 1 354 0
 716 004c F8BD     		pop	{r3, r4, r5, r6, r7, pc}
 717              		.cfi_endproc
 718              	.LFE189:
 719              		.size	chOQPutTimeout, .-chOQPutTimeout
 720 004e 00BF     		.section	.text.chOQGetI,"ax",%progbits
 721              		.align	2
 722              		.p2align 4,,15
 723              		.global	chOQGetI
 724              		.thumb
 725              		.thumb_func
 726              		.type	chOQGetI, %function
 727              	chOQGetI:
 728              	.LFB190:
 729              		.loc 1 366 0
 730              		.cfi_startproc
 731              		@ args = 0, pretend = 0, frame = 0
ARM GAS  /tmp/cc0nWktl.s 			page 14


 732              		@ frame_needed = 0, uses_anonymous_args = 0
 733              	.LVL36:
 734              	.LBB183:
 735              	.LBB184:
 736              		.loc 3 393 0
 737 0000 8369     		ldr	r3, [r0, #24]
 738 0002 4269     		ldr	r2, [r0, #20]
 739              	.LBE184:
 740              	.LBE183:
 741              		.loc 1 366 0
 742 0004 10B5     		push	{r4, lr}
 743              	.LCFI7:
 744              		.cfi_def_cfa_offset 8
 745              		.cfi_offset 14, -4
 746              		.cfi_offset 4, -8
 747              	.LBB187:
 748              	.LBB185:
 749              		.loc 3 393 0
 750 0006 9A42     		cmp	r2, r3
 751 0008 0FD0     		beq	.L46
 752              	.L41:
 753              	.LBE185:
 754              	.LBE187:
 755              		.loc 1 375 0
 756 000a 8168     		ldr	r1, [r0, #8]
 757              		.loc 1 377 0
 758 000c 0269     		ldr	r2, [r0, #16]
 759              		.loc 1 375 0
 760 000e 4C1C     		adds	r4, r1, #1
 761 0010 8460     		str	r4, [r0, #8]
 762              		.loc 1 376 0
 763 0012 13F8014B 		ldrb	r4, [r3], #1	@ zero_extendqisi2
 764              	.LVL37:
 765              		.loc 1 377 0
 766 0016 9342     		cmp	r3, r2
 767              		.loc 1 376 0
 768 0018 8361     		str	r3, [r0, #24]
 769              		.loc 1 377 0
 770 001a 01D3     		bcc	.L44
 771              		.loc 1 378 0
 772 001c C368     		ldr	r3, [r0, #12]
 773 001e 8361     		str	r3, [r0, #24]
 774              	.L44:
 775              		.loc 1 381 0
 776 0020 0021     		movs	r1, #0
 777 0022 FFF7FEFF 		bl	chThdDequeueNextI
 778              	.LVL38:
 779              		.loc 1 383 0
 780 0026 2046     		mov	r0, r4
 781 0028 10BD     		pop	{r4, pc}
 782              	.LVL39:
 783              	.L46:
 784              	.LBB188:
 785              	.LBB186:
 786              		.loc 3 393 0
 787 002a 8168     		ldr	r1, [r0, #8]
 788 002c 0029     		cmp	r1, #0
ARM GAS  /tmp/cc0nWktl.s 			page 15


 789 002e ECD0     		beq	.L41
 790              		.loc 1 372 0
 791 0030 6FF00200 		mvn	r0, #2
 792              	.LVL40:
 793              	.LBE186:
 794              	.LBE188:
 795              		.loc 1 384 0
 796 0034 10BD     		pop	{r4, pc}
 797              		.cfi_endproc
 798              	.LFE190:
 799              		.size	chOQGetI, .-chOQGetI
 800 0036 00BFAFF3 		.section	.text.chOQWriteTimeout,"ax",%progbits
 800      0080AFF3 
 800      0080
 801              		.align	2
 802              		.p2align 4,,15
 803              		.global	chOQWriteTimeout
 804              		.thumb
 805              		.thumb_func
 806              		.type	chOQWriteTimeout, %function
 807              	chOQWriteTimeout:
 808              	.LFB191:
 809              		.loc 1 411 0
 810              		.cfi_startproc
 811              		@ args = 0, pretend = 0, frame = 8
 812              		@ frame_needed = 0, uses_anonymous_args = 0
 813              	.LVL41:
 814 0000 2DE9F04F 		push	{r4, r5, r6, r7, r8, r9, sl, fp, lr}
 815              	.LCFI8:
 816              		.cfi_def_cfa_offset 36
 817              		.cfi_offset 14, -4
 818              		.cfi_offset 11, -8
 819              		.cfi_offset 10, -12
 820              		.cfi_offset 9, -16
 821              		.cfi_offset 8, -20
 822              		.cfi_offset 7, -24
 823              		.cfi_offset 6, -28
 824              		.cfi_offset 5, -32
 825              		.cfi_offset 4, -36
 826 0004 83B0     		sub	sp, sp, #12
 827              	.LCFI9:
 828              		.cfi_def_cfa_offset 48
 829              		.loc 1 411 0
 830 0006 0446     		mov	r4, r0
 831 0008 0D46     		mov	r5, r1
 832 000a 1646     		mov	r6, r2
 833 000c 0193     		str	r3, [sp, #4]
 834              		.loc 1 412 0
 835 000e D0F81C90 		ldr	r9, [r0, #28]
 836              	.LVL42:
 837              	.LBB189:
 838              	.LBB190:
 839              	.LBB191:
 840              	.LBB192:
 841              		.loc 4 548 0
 842 0012 4FF0200B 		mov	fp, #32
 843              	@ 548 "../../../resources/chibios/ChibiOS_16.1.8/os/ext/CMSIS/include/core_cmFunc.h" 1
ARM GAS  /tmp/cc0nWktl.s 			page 16


 844 0016 8BF31188 		MSR basepri, fp
 845              	@ 0 "" 2
 846              		.loc 1 413 0
 847              		.thumb
 848 001a 4FF00008 		mov	r8, #0
 849              	.LBE192:
 850              	.LBE191:
 851              	.LBE190:
 852              	.LBE189:
 853              	.LBB193:
 854              	.LBB194:
 855              	.LBB195:
 856              	.LBB196:
 857              	.LBB197:
 858              		.loc 4 548 0
 859 001e C246     		mov	sl, r8
 860              	.LVL43:
 861              	.L56:
 862              	.LBE197:
 863              	.LBE196:
 864              	.LBE195:
 865              	.LBE194:
 866              	.LBE193:
 867              	.LBB202:
 868              	.LBB203:
 869              		.loc 3 411 0 discriminator 1
 870 0020 A768     		ldr	r7, [r4, #8]
 871              	.LBE203:
 872              	.LBE202:
 873              		.loc 1 433 0 discriminator 1
 874 0022 2046     		mov	r0, r4
 875              		.loc 1 419 0 discriminator 1
 876 0024 EFB1     		cbz	r7, .L51
 877              	.L57:
 878              		.loc 1 426 0
 879 0026 A168     		ldr	r1, [r4, #8]
 880              		.loc 1 427 0
 881 0028 6369     		ldr	r3, [r4, #20]
 882              		.loc 1 426 0
 883 002a 4A1E     		subs	r2, r1, #1
 884 002c A260     		str	r2, [r4, #8]
 885              		.loc 1 427 0
 886 002e 2978     		ldrb	r1, [r5, #0]	@ zero_extendqisi2
 887 0030 03F8011B 		strb	r1, [r3], #1
 888              		.loc 1 428 0
 889 0034 2269     		ldr	r2, [r4, #16]
 890              		.loc 1 427 0
 891 0036 6361     		str	r3, [r4, #20]
 892              	.LVL44:
 893              		.loc 1 428 0
 894 0038 9342     		cmp	r3, r2
 895              		.loc 1 429 0
 896 003a 24BF     		itt	cs
 897 003c E368     		ldrcs	r3, [r4, #12]
 898 003e 6361     		strcs	r3, [r4, #20]
 899              		.loc 1 432 0
 900 0040 B9F1000F 		cmp	r9, #0
ARM GAS  /tmp/cc0nWktl.s 			page 17


 901 0044 00D0     		beq	.L53
 902              		.loc 1 433 0
 903 0046 C847     		blx	r9
 904              	.L53:
 905              	.LVL45:
 906              	.LBB205:
 907              	.LBB201:
 908              	.LBB200:
 909              	.LBB199:
 910              	.LBB198:
 911              		.loc 4 548 0
 912              	@ 548 "../../../resources/chibios/ChibiOS_16.1.8/os/ext/CMSIS/include/core_cmFunc.h" 1
 913 0048 8AF31188 		MSR basepri, sl
 914              	@ 0 "" 2
 915              		.thumb
 916              	.LBE198:
 917              	.LBE199:
 918              	.LBE200:
 919              	.LBE201:
 920              	.LBE205:
 921              		.loc 1 438 0
 922 004c 013E     		subs	r6, r6, #1
 923              	.LVL46:
 924              		.loc 1 437 0
 925 004e 08F10108 		add	r8, r8, #1
 926              	.LVL47:
 927              		.loc 1 438 0
 928 0052 0ED0     		beq	.L50
 929              		.loc 1 427 0
 930 0054 0135     		adds	r5, r5, #1
 931              	.LVL48:
 932              	.LBB206:
 933              	.LBB207:
 934              	.LBB208:
 935              	.LBB209:
 936              		.loc 4 548 0
 937              	@ 548 "../../../resources/chibios/ChibiOS_16.1.8/os/ext/CMSIS/include/core_cmFunc.h" 1
 938 0056 8BF31188 		MSR basepri, fp
 939              	@ 0 "" 2
 940              	.LVL49:
 941              		.thumb
 942              	.LBE209:
 943              	.LBE208:
 944              	.LBE207:
 945              	.LBE206:
 946              	.LBB210:
 947              	.LBB204:
 948              		.loc 3 411 0
 949 005a A768     		ldr	r7, [r4, #8]
 950              	.LBE204:
 951              	.LBE210:
 952              		.loc 1 433 0
 953 005c 2046     		mov	r0, r4
 954              		.loc 1 419 0
 955 005e 002F     		cmp	r7, #0
 956 0060 E1D1     		bne	.L57
 957              	.LVL50:
ARM GAS  /tmp/cc0nWktl.s 			page 18


 958              	.L51:
 959              		.loc 1 420 0
 960 0062 2046     		mov	r0, r4
 961 0064 0199     		ldr	r1, [sp, #4]
 962 0066 FFF7FEFF 		bl	chThdEnqueueTimeoutS
 963 006a 0028     		cmp	r0, #0
 964 006c D8D0     		beq	.L56
 965              	.LVL51:
 966              	.LBB211:
 967              	.LBB212:
 968              	.LBB213:
 969              	.LBB214:
 970              	.LBB215:
 971              		.loc 4 548 0
 972              	@ 548 "../../../resources/chibios/ChibiOS_16.1.8/os/ext/CMSIS/include/core_cmFunc.h" 1
 973 006e 87F31188 		MSR basepri, r7
 974              	@ 0 "" 2
 975              	.LVL52:
 976              		.thumb
 977              	.L50:
 978              	.LBE215:
 979              	.LBE214:
 980              	.LBE213:
 981              	.LBE212:
 982              	.LBE211:
 983              		.loc 1 443 0
 984 0072 4046     		mov	r0, r8
 985 0074 03B0     		add	sp, sp, #12
 986 0076 BDE8F08F 		pop	{r4, r5, r6, r7, r8, r9, sl, fp, pc}
 987              		.cfi_endproc
 988              	.LFE191:
 989              		.size	chOQWriteTimeout, .-chOQWriteTimeout
 990 007a 00BFAFF3 		.text
 990      0080
 991              	.Letext0:
 992              		.file 5 "/home/madog/programs/CodeSourcery/Sourcery_CodeBench_Lite_for_ARM_EABI/bin/../lib/gcc/arm
 993              		.file 6 "/home/madog/programs/CodeSourcery/Sourcery_CodeBench_Lite_for_ARM_EABI/bin/../lib/gcc/arm
 994              		.file 7 "../../../resources/chibios/ChibiOS_16.1.8/os/rt/ports/ARMCMx/compilers/GCC/chtypes.h"
 995              		.file 8 "../../../resources/chibios/ChibiOS_16.1.8/os/rt/include/chsystypes.h"
 996              		.file 9 "../../../resources/chibios/ChibiOS_16.1.8/os/rt/ports/ARMCMx/chcore.h"
 997              		.file 10 "../../../resources/chibios/ChibiOS_16.1.8/os/rt/ports/ARMCMx/chcore_v7m.h"
 998              		.file 11 "../../../resources/chibios/ChibiOS_16.1.8/os/rt/include/chtm.h"
 999              		.file 12 "../../../resources/chibios/ChibiOS_16.1.8/os/rt/include/chsem.h"
 1000              		.file 13 "../../../resources/chibios/ChibiOS_16.1.8/os/rt/include/chmtx.h"
 1001              		.file 14 "../../../resources/chibios/ChibiOS_16.1.8/os/rt/include/chthreads.h"
 1002              		.file 15 "../../../resources/chibios/ChibiOS_16.1.8/os/rt/include/chsys.h"
 1003              		.file 16 "../../../resources/chibios/ChibiOS_16.1.8/os/ext/CMSIS/include/core_cm3.h"
 1004              		.section	.debug_info,"",%progbits
 1005              	.Ldebug_info0:
 1006 0000 EF100000 		.4byte	0x10ef
 1007 0004 0200     		.2byte	0x2
 1008 0006 00000000 		.4byte	.Ldebug_abbrev0
 1009 000a 04       		.byte	0x4
 1010 000b 01       		.uleb128 0x1
 1011 000c 44050000 		.4byte	.LASF141
 1012 0010 01       		.byte	0x1
 1013 0011 D9000000 		.4byte	.LASF142
ARM GAS  /tmp/cc0nWktl.s 			page 19


 1014 0015 A1030000 		.4byte	.LASF143
 1015 0019 00000000 		.4byte	0
 1016 001d 00000000 		.4byte	0
 1017 0021 88010000 		.4byte	.Ldebug_ranges0+0x188
 1018 0025 00000000 		.4byte	.Ldebug_line0
 1019 0029 02       		.uleb128 0x2
 1020 002a 04       		.byte	0x4
 1021 002b 05       		.byte	0x5
 1022 002c 696E7400 		.ascii	"int\000"
 1023 0030 03       		.uleb128 0x3
 1024 0031 7D020000 		.4byte	.LASF2
 1025 0035 05       		.byte	0x5
 1026 0036 D4       		.byte	0xd4
 1027 0037 3B000000 		.4byte	0x3b
 1028 003b 04       		.uleb128 0x4
 1029 003c 04       		.byte	0x4
 1030 003d 07       		.byte	0x7
 1031 003e 9B000000 		.4byte	.LASF0
 1032 0042 04       		.uleb128 0x4
 1033 0043 01       		.byte	0x1
 1034 0044 06       		.byte	0x6
 1035 0045 CF050000 		.4byte	.LASF1
 1036 0049 03       		.uleb128 0x3
 1037 004a 04030000 		.4byte	.LASF3
 1038 004e 06       		.byte	0x6
 1039 004f 2A       		.byte	0x2a
 1040 0050 54000000 		.4byte	0x54
 1041 0054 04       		.uleb128 0x4
 1042 0055 01       		.byte	0x1
 1043 0056 08       		.byte	0x8
 1044 0057 63050000 		.4byte	.LASF4
 1045 005b 04       		.uleb128 0x4
 1046 005c 02       		.byte	0x2
 1047 005d 05       		.byte	0x5
 1048 005e 71040000 		.4byte	.LASF5
 1049 0062 03       		.uleb128 0x3
 1050 0063 44040000 		.4byte	.LASF6
 1051 0067 06       		.byte	0x6
 1052 0068 36       		.byte	0x36
 1053 0069 6D000000 		.4byte	0x6d
 1054 006d 04       		.uleb128 0x4
 1055 006e 02       		.byte	0x2
 1056 006f 07       		.byte	0x7
 1057 0070 E4050000 		.4byte	.LASF7
 1058 0074 03       		.uleb128 0x3
 1059 0075 35050000 		.4byte	.LASF8
 1060 0079 06       		.byte	0x6
 1061 007a 4F       		.byte	0x4f
 1062 007b 7F000000 		.4byte	0x7f
 1063 007f 04       		.uleb128 0x4
 1064 0080 04       		.byte	0x4
 1065 0081 05       		.byte	0x5
 1066 0082 98040000 		.4byte	.LASF9
 1067 0086 03       		.uleb128 0x3
 1068 0087 B7010000 		.4byte	.LASF10
 1069 008b 06       		.byte	0x6
 1070 008c 50       		.byte	0x50
ARM GAS  /tmp/cc0nWktl.s 			page 20


 1071 008d 91000000 		.4byte	0x91
 1072 0091 04       		.uleb128 0x4
 1073 0092 04       		.byte	0x4
 1074 0093 07       		.byte	0x7
 1075 0094 16050000 		.4byte	.LASF11
 1076 0098 04       		.uleb128 0x4
 1077 0099 08       		.byte	0x8
 1078 009a 05       		.byte	0x5
 1079 009b 45030000 		.4byte	.LASF12
 1080 009f 03       		.uleb128 0x3
 1081 00a0 D9040000 		.4byte	.LASF13
 1082 00a4 06       		.byte	0x6
 1083 00a5 78       		.byte	0x78
 1084 00a6 AA000000 		.4byte	0xaa
 1085 00aa 04       		.uleb128 0x4
 1086 00ab 08       		.byte	0x8
 1087 00ac 07       		.byte	0x7
 1088 00ad 15020000 		.4byte	.LASF14
 1089 00b1 03       		.uleb128 0x3
 1090 00b2 55040000 		.4byte	.LASF15
 1091 00b6 07       		.byte	0x7
 1092 00b7 39       		.byte	0x39
 1093 00b8 86000000 		.4byte	0x86
 1094 00bc 03       		.uleb128 0x3
 1095 00bd 22040000 		.4byte	.LASF16
 1096 00c1 07       		.byte	0x7
 1097 00c2 3C       		.byte	0x3c
 1098 00c3 49000000 		.4byte	0x49
 1099 00c7 03       		.uleb128 0x3
 1100 00c8 EB020000 		.4byte	.LASF17
 1101 00cc 07       		.byte	0x7
 1102 00cd 3D       		.byte	0x3d
 1103 00ce 49000000 		.4byte	0x49
 1104 00d2 03       		.uleb128 0x3
 1105 00d3 0E050000 		.4byte	.LASF18
 1106 00d7 07       		.byte	0x7
 1107 00d8 3E       		.byte	0x3e
 1108 00d9 49000000 		.4byte	0x49
 1109 00dd 03       		.uleb128 0x3
 1110 00de FC010000 		.4byte	.LASF19
 1111 00e2 07       		.byte	0x7
 1112 00e3 40       		.byte	0x40
 1113 00e4 86000000 		.4byte	0x86
 1114 00e8 03       		.uleb128 0x3
 1115 00e9 6C030000 		.4byte	.LASF20
 1116 00ed 07       		.byte	0x7
 1117 00ee 41       		.byte	0x41
 1118 00ef 74000000 		.4byte	0x74
 1119 00f3 03       		.uleb128 0x3
 1120 00f4 D5010000 		.4byte	.LASF21
 1121 00f8 07       		.byte	0x7
 1122 00f9 43       		.byte	0x43
 1123 00fa 86000000 		.4byte	0x86
 1124 00fe 03       		.uleb128 0x3
 1125 00ff 3D020000 		.4byte	.LASF22
 1126 0103 07       		.byte	0x7
 1127 0104 45       		.byte	0x45
ARM GAS  /tmp/cc0nWktl.s 			page 21


 1128 0105 74000000 		.4byte	0x74
 1129 0109 03       		.uleb128 0x3
 1130 010a 6B000000 		.4byte	.LASF23
 1131 010e 08       		.byte	0x8
 1132 010f 35       		.byte	0x35
 1133 0110 62000000 		.4byte	0x62
 1134 0114 03       		.uleb128 0x3
 1135 0115 74020000 		.4byte	.LASF24
 1136 0119 08       		.byte	0x8
 1137 011a 3F       		.byte	0x3f
 1138 011b 1F010000 		.4byte	0x11f
 1139 011f 05       		.uleb128 0x5
 1140 0120 2C030000 		.4byte	.LASF44
 1141 0124 44       		.byte	0x44
 1142 0125 02       		.byte	0x2
 1143 0126 C2       		.byte	0xc2
 1144 0127 30020000 		.4byte	0x230
 1145 012b 06       		.uleb128 0x6
 1146 012c D2040000 		.4byte	.LASF25
 1147 0130 02       		.byte	0x2
 1148 0131 C3       		.byte	0xc3
 1149 0132 3B020000 		.4byte	0x23b
 1150 0136 02       		.byte	0x2
 1151 0137 23       		.byte	0x23
 1152 0138 00       		.uleb128 0
 1153 0139 06       		.uleb128 0x6
 1154 013a 07050000 		.4byte	.LASF26
 1155 013e 02       		.byte	0x2
 1156 013f C5       		.byte	0xc5
 1157 0140 3B020000 		.4byte	0x23b
 1158 0144 02       		.byte	0x2
 1159 0145 23       		.byte	0x23
 1160 0146 04       		.uleb128 0x4
 1161 0147 06       		.uleb128 0x6
 1162 0148 5F000000 		.4byte	.LASF27
 1163 014c 02       		.byte	0x2
 1164 014d C7       		.byte	0xc7
 1165 014e DD000000 		.4byte	0xdd
 1166 0152 02       		.byte	0x2
 1167 0153 23       		.byte	0x23
 1168 0154 08       		.uleb128 0x8
 1169 0155 06       		.uleb128 0x6
 1170 0156 E2040000 		.4byte	.LASF28
 1171 015a 02       		.byte	0x2
 1172 015b C8       		.byte	0xc8
 1173 015c 97040000 		.4byte	0x497
 1174 0160 02       		.byte	0x2
 1175 0161 23       		.byte	0x23
 1176 0162 0C       		.uleb128 0xc
 1177 0163 06       		.uleb128 0x6
 1178 0164 4F020000 		.4byte	.LASF29
 1179 0168 02       		.byte	0x2
 1180 0169 CA       		.byte	0xca
 1181 016a 3B020000 		.4byte	0x23b
 1182 016e 02       		.byte	0x2
 1183 016f 23       		.byte	0x23
 1184 0170 10       		.uleb128 0x10
ARM GAS  /tmp/cc0nWktl.s 			page 22


 1185 0171 06       		.uleb128 0x6
 1186 0172 F4020000 		.4byte	.LASF30
 1187 0176 02       		.byte	0x2
 1188 0177 CB       		.byte	0xcb
 1189 0178 3B020000 		.4byte	0x23b
 1190 017c 02       		.byte	0x2
 1191 017d 23       		.byte	0x23
 1192 017e 14       		.uleb128 0x14
 1193 017f 06       		.uleb128 0x6
 1194 0180 B4020000 		.4byte	.LASF31
 1195 0184 02       		.byte	0x2
 1196 0185 D2       		.byte	0xd2
 1197 0186 36060000 		.4byte	0x636
 1198 018a 02       		.byte	0x2
 1199 018b 23       		.byte	0x23
 1200 018c 18       		.uleb128 0x18
 1201 018d 06       		.uleb128 0x6
 1202 018e FC020000 		.4byte	.LASF32
 1203 0192 02       		.byte	0x2
 1204 0193 DD       		.byte	0xdd
 1205 0194 C7000000 		.4byte	0xc7
 1206 0198 02       		.byte	0x2
 1207 0199 23       		.byte	0x23
 1208 019a 1C       		.uleb128 0x1c
 1209 019b 06       		.uleb128 0x6
 1210 019c 7A030000 		.4byte	.LASF33
 1211 01a0 02       		.byte	0x2
 1212 01a1 E1       		.byte	0xe1
 1213 01a2 BC000000 		.4byte	0xbc
 1214 01a6 02       		.byte	0x2
 1215 01a7 23       		.byte	0x23
 1216 01a8 1D       		.uleb128 0x1d
 1217 01a9 06       		.uleb128 0x6
 1218 01aa 87050000 		.4byte	.LASF34
 1219 01ae 02       		.byte	0x2
 1220 01af E6       		.byte	0xe6
 1221 01b0 D2000000 		.4byte	0xd2
 1222 01b4 02       		.byte	0x2
 1223 01b5 23       		.byte	0x23
 1224 01b6 1E       		.uleb128 0x1e
 1225 01b7 07       		.uleb128 0x7
 1226 01b8 705F7500 		.ascii	"p_u\000"
 1227 01bc 02       		.byte	0x2
 1228 01bd 3101     		.2byte	0x131
 1229 01bf 67050000 		.4byte	0x567
 1230 01c3 02       		.byte	0x2
 1231 01c4 23       		.byte	0x23
 1232 01c5 20       		.uleb128 0x20
 1233 01c6 08       		.uleb128 0x8
 1234 01c7 20000000 		.4byte	.LASF35
 1235 01cb 02       		.byte	0x2
 1236 01cc 3601     		.2byte	0x136
 1237 01ce 41020000 		.4byte	0x241
 1238 01d2 02       		.byte	0x2
 1239 01d3 23       		.byte	0x23
 1240 01d4 24       		.uleb128 0x24
 1241 01d5 08       		.uleb128 0x8
ARM GAS  /tmp/cc0nWktl.s 			page 23


 1242 01d6 90000000 		.4byte	.LASF36
 1243 01da 02       		.byte	0x2
 1244 01db 3C01     		.2byte	0x13c
 1245 01dd 67020000 		.4byte	0x267
 1246 01e1 02       		.byte	0x2
 1247 01e2 23       		.byte	0x23
 1248 01e3 28       		.uleb128 0x28
 1249 01e4 08       		.uleb128 0x8
 1250 01e5 1C040000 		.4byte	.LASF37
 1251 01e9 02       		.byte	0x2
 1252 01ea 4001     		.2byte	0x140
 1253 01ec E8000000 		.4byte	0xe8
 1254 01f0 02       		.byte	0x2
 1255 01f1 23       		.byte	0x23
 1256 01f2 30       		.uleb128 0x30
 1257 01f3 08       		.uleb128 0x8
 1258 01f4 85040000 		.4byte	.LASF38
 1259 01f8 02       		.byte	0x2
 1260 01f9 4601     		.2byte	0x146
 1261 01fb F3000000 		.4byte	0xf3
 1262 01ff 02       		.byte	0x2
 1263 0200 23       		.byte	0x23
 1264 0201 34       		.uleb128 0x34
 1265 0202 08       		.uleb128 0x8
 1266 0203 22030000 		.4byte	.LASF39
 1267 0207 02       		.byte	0x2
 1268 0208 4D01     		.2byte	0x14d
 1269 020a 30060000 		.4byte	0x630
 1270 020e 02       		.byte	0x2
 1271 020f 23       		.byte	0x23
 1272 0210 38       		.uleb128 0x38
 1273 0211 08       		.uleb128 0x8
 1274 0212 66040000 		.4byte	.LASF40
 1275 0216 02       		.byte	0x2
 1276 0217 5101     		.2byte	0x151
 1277 0219 DD000000 		.4byte	0xdd
 1278 021d 02       		.byte	0x2
 1279 021e 23       		.byte	0x23
 1280 021f 3C       		.uleb128 0x3c
 1281 0220 08       		.uleb128 0x8
 1282 0221 1A030000 		.4byte	.LASF41
 1283 0225 02       		.byte	0x2
 1284 0226 5801     		.2byte	0x158
 1285 0228 2B030000 		.4byte	0x32b
 1286 022c 02       		.byte	0x2
 1287 022d 23       		.byte	0x23
 1288 022e 40       		.uleb128 0x40
 1289 022f 00       		.byte	0
 1290 0230 03       		.uleb128 0x3
 1291 0231 C4020000 		.4byte	.LASF42
 1292 0235 08       		.byte	0x8
 1293 0236 44       		.byte	0x44
 1294 0237 3B020000 		.4byte	0x23b
 1295 023b 09       		.uleb128 0x9
 1296 023c 04       		.byte	0x4
 1297 023d 14010000 		.4byte	0x114
 1298 0241 03       		.uleb128 0x3
ARM GAS  /tmp/cc0nWktl.s 			page 24


 1299 0242 B8000000 		.4byte	.LASF43
 1300 0246 08       		.byte	0x8
 1301 0247 49       		.byte	0x49
 1302 0248 4C020000 		.4byte	0x24c
 1303 024c 05       		.uleb128 0x5
 1304 024d 00000000 		.4byte	.LASF45
 1305 0251 04       		.byte	0x4
 1306 0252 02       		.byte	0x2
 1307 0253 B0       		.byte	0xb0
 1308 0254 67020000 		.4byte	0x267
 1309 0258 06       		.uleb128 0x6
 1310 0259 D2040000 		.4byte	.LASF25
 1311 025d 02       		.byte	0x2
 1312 025e B1       		.byte	0xb1
 1313 025f 3B020000 		.4byte	0x23b
 1314 0263 02       		.byte	0x2
 1315 0264 23       		.byte	0x23
 1316 0265 00       		.uleb128 0
 1317 0266 00       		.byte	0
 1318 0267 03       		.uleb128 0x3
 1319 0268 10000000 		.4byte	.LASF46
 1320 026c 08       		.byte	0x8
 1321 026d 50       		.byte	0x50
 1322 026e 72020000 		.4byte	0x272
 1323 0272 05       		.uleb128 0x5
 1324 0273 70010000 		.4byte	.LASF47
 1325 0277 08       		.byte	0x8
 1326 0278 02       		.byte	0x2
 1327 0279 B7       		.byte	0xb7
 1328 027a 9B020000 		.4byte	0x29b
 1329 027e 06       		.uleb128 0x6
 1330 027f D2040000 		.4byte	.LASF25
 1331 0283 02       		.byte	0x2
 1332 0284 B8       		.byte	0xb8
 1333 0285 3B020000 		.4byte	0x23b
 1334 0289 02       		.byte	0x2
 1335 028a 23       		.byte	0x23
 1336 028b 00       		.uleb128 0
 1337 028c 06       		.uleb128 0x6
 1338 028d 07050000 		.4byte	.LASF26
 1339 0291 02       		.byte	0x2
 1340 0292 B9       		.byte	0xb9
 1341 0293 3B020000 		.4byte	0x23b
 1342 0297 02       		.byte	0x2
 1343 0298 23       		.byte	0x23
 1344 0299 04       		.uleb128 0x4
 1345 029a 00       		.byte	0
 1346 029b 03       		.uleb128 0x3
 1347 029c 28050000 		.4byte	.LASF48
 1348 02a0 08       		.byte	0x8
 1349 02a1 57       		.byte	0x57
 1350 02a2 A6020000 		.4byte	0x2a6
 1351 02a6 0A       		.uleb128 0xa
 1352 02a7 37010000 		.4byte	.LASF49
 1353 02ab 1C       		.byte	0x1c
 1354 02ac 02       		.byte	0x2
 1355 02ad 9001     		.2byte	0x190
ARM GAS  /tmp/cc0nWktl.s 			page 25


 1356 02af 0E030000 		.4byte	0x30e
 1357 02b3 08       		.uleb128 0x8
 1358 02b4 5C030000 		.4byte	.LASF50
 1359 02b8 02       		.byte	0x2
 1360 02b9 9101     		.2byte	0x191
 1361 02bb 67020000 		.4byte	0x267
 1362 02bf 02       		.byte	0x2
 1363 02c0 23       		.byte	0x23
 1364 02c1 00       		.uleb128 0
 1365 02c2 08       		.uleb128 0x8
 1366 02c3 E1010000 		.4byte	.LASF51
 1367 02c7 02       		.byte	0x2
 1368 02c8 9201     		.2byte	0x192
 1369 02ca DD000000 		.4byte	0xdd
 1370 02ce 02       		.byte	0x2
 1371 02cf 23       		.byte	0x23
 1372 02d0 08       		.uleb128 0x8
 1373 02d1 08       		.uleb128 0x8
 1374 02d2 F7050000 		.4byte	.LASF52
 1375 02d6 02       		.byte	0x2
 1376 02d7 9401     		.2byte	0x194
 1377 02d9 97040000 		.4byte	0x497
 1378 02dd 02       		.byte	0x2
 1379 02de 23       		.byte	0x23
 1380 02df 0C       		.uleb128 0xc
 1381 02e0 08       		.uleb128 0x8
 1382 02e1 64030000 		.4byte	.LASF53
 1383 02e5 02       		.byte	0x2
 1384 02e6 9701     		.2byte	0x197
 1385 02e8 3B020000 		.4byte	0x23b
 1386 02ec 02       		.byte	0x2
 1387 02ed 23       		.byte	0x23
 1388 02ee 10       		.uleb128 0x10
 1389 02ef 08       		.uleb128 0x8
 1390 02f0 EF030000 		.4byte	.LASF54
 1391 02f4 02       		.byte	0x2
 1392 02f5 9801     		.2byte	0x198
 1393 02f7 3B020000 		.4byte	0x23b
 1394 02fb 02       		.byte	0x2
 1395 02fc 23       		.byte	0x23
 1396 02fd 14       		.uleb128 0x14
 1397 02fe 08       		.uleb128 0x8
 1398 02ff 7B040000 		.4byte	.LASF55
 1399 0303 02       		.byte	0x2
 1400 0304 9B01     		.2byte	0x19b
 1401 0306 3B020000 		.4byte	0x23b
 1402 030a 02       		.byte	0x2
 1403 030b 23       		.byte	0x23
 1404 030c 18       		.uleb128 0x18
 1405 030d 00       		.byte	0
 1406 030e 03       		.uleb128 0x3
 1407 030f 81010000 		.4byte	.LASF56
 1408 0313 08       		.byte	0x8
 1409 0314 5C       		.byte	0x5c
 1410 0315 19030000 		.4byte	0x319
 1411 0319 09       		.uleb128 0x9
 1412 031a 04       		.byte	0x4
ARM GAS  /tmp/cc0nWktl.s 			page 26


 1413 031b 1F030000 		.4byte	0x31f
 1414 031f 0B       		.uleb128 0xb
 1415 0320 01       		.byte	0x1
 1416 0321 2B030000 		.4byte	0x32b
 1417 0325 0C       		.uleb128 0xc
 1418 0326 2B030000 		.4byte	0x32b
 1419 032a 00       		.byte	0
 1420 032b 0D       		.uleb128 0xd
 1421 032c 04       		.byte	0x4
 1422 032d 03       		.uleb128 0x3
 1423 032e 82030000 		.4byte	.LASF57
 1424 0332 08       		.byte	0x8
 1425 0333 61       		.byte	0x61
 1426 0334 38030000 		.4byte	0x338
 1427 0338 0A       		.uleb128 0xa
 1428 0339 04020000 		.4byte	.LASF58
 1429 033d 14       		.byte	0x14
 1430 033e 02       		.byte	0x2
 1431 033f 6B01     		.2byte	0x16b
 1432 0341 91030000 		.4byte	0x391
 1433 0345 08       		.uleb128 0x8
 1434 0346 A2050000 		.4byte	.LASF59
 1435 034a 02       		.byte	0x2
 1436 034b 6C01     		.2byte	0x16c
 1437 034d 48060000 		.4byte	0x648
 1438 0351 02       		.byte	0x2
 1439 0352 23       		.byte	0x23
 1440 0353 00       		.uleb128 0
 1441 0354 08       		.uleb128 0x8
 1442 0355 1C060000 		.4byte	.LASF60
 1443 0359 02       		.byte	0x2
 1444 035a 6D01     		.2byte	0x16d
 1445 035c 48060000 		.4byte	0x648
 1446 0360 02       		.byte	0x2
 1447 0361 23       		.byte	0x23
 1448 0362 04       		.uleb128 0x4
 1449 0363 08       		.uleb128 0x8
 1450 0364 BB020000 		.4byte	.LASF61
 1451 0368 02       		.byte	0x2
 1452 0369 6E01     		.2byte	0x16e
 1453 036b 09010000 		.4byte	0x109
 1454 036f 02       		.byte	0x2
 1455 0370 23       		.byte	0x23
 1456 0371 08       		.uleb128 0x8
 1457 0372 08       		.uleb128 0x8
 1458 0373 08060000 		.4byte	.LASF62
 1459 0377 02       		.byte	0x2
 1460 0378 6F01     		.2byte	0x16f
 1461 037a 0E030000 		.4byte	0x30e
 1462 037e 02       		.byte	0x2
 1463 037f 23       		.byte	0x23
 1464 0380 0C       		.uleb128 0xc
 1465 0381 08       		.uleb128 0x8
 1466 0382 E8010000 		.4byte	.LASF63
 1467 0386 02       		.byte	0x2
 1468 0387 7101     		.2byte	0x171
 1469 0389 2B030000 		.4byte	0x32b
ARM GAS  /tmp/cc0nWktl.s 			page 27


 1470 038d 02       		.byte	0x2
 1471 038e 23       		.byte	0x23
 1472 038f 10       		.uleb128 0x10
 1473 0390 00       		.byte	0
 1474 0391 03       		.uleb128 0x3
 1475 0392 71050000 		.4byte	.LASF64
 1476 0396 08       		.byte	0x8
 1477 0397 66       		.byte	0x66
 1478 0398 9C030000 		.4byte	0x39c
 1479 039c 0A       		.uleb128 0xa
 1480 039d 5D020000 		.4byte	.LASF65
 1481 03a1 0C       		.byte	0xc
 1482 03a2 02       		.byte	0x2
 1483 03a3 7B01     		.2byte	0x17b
 1484 03a5 E6030000 		.4byte	0x3e6
 1485 03a9 08       		.uleb128 0x8
 1486 03aa A2050000 		.4byte	.LASF59
 1487 03ae 02       		.byte	0x2
 1488 03af 7C01     		.2byte	0x17c
 1489 03b1 48060000 		.4byte	0x648
 1490 03b5 02       		.byte	0x2
 1491 03b6 23       		.byte	0x23
 1492 03b7 00       		.uleb128 0
 1493 03b8 08       		.uleb128 0x8
 1494 03b9 1C060000 		.4byte	.LASF60
 1495 03bd 02       		.byte	0x2
 1496 03be 7E01     		.2byte	0x17e
 1497 03c0 48060000 		.4byte	0x648
 1498 03c4 02       		.byte	0x2
 1499 03c5 23       		.byte	0x23
 1500 03c6 04       		.uleb128 0x4
 1501 03c7 08       		.uleb128 0x8
 1502 03c8 BB020000 		.4byte	.LASF61
 1503 03cc 02       		.byte	0x2
 1504 03cd 8001     		.2byte	0x180
 1505 03cf 09010000 		.4byte	0x109
 1506 03d3 02       		.byte	0x2
 1507 03d4 23       		.byte	0x23
 1508 03d5 08       		.uleb128 0x8
 1509 03d6 08       		.uleb128 0x8
 1510 03d7 D7020000 		.4byte	.LASF66
 1511 03db 02       		.byte	0x2
 1512 03dc 8801     		.2byte	0x188
 1513 03de 09010000 		.4byte	0x109
 1514 03e2 02       		.byte	0x2
 1515 03e3 23       		.byte	0x23
 1516 03e4 0A       		.uleb128 0xa
 1517 03e5 00       		.byte	0
 1518 03e6 03       		.uleb128 0x3
 1519 03e7 36030000 		.4byte	.LASF67
 1520 03eb 08       		.byte	0x8
 1521 03ec 6B       		.byte	0x6b
 1522 03ed F1030000 		.4byte	0x3f1
 1523 03f1 0A       		.uleb128 0xa
 1524 03f2 9C010000 		.4byte	.LASF68
 1525 03f6 04       		.byte	0x4
 1526 03f7 02       		.byte	0x2
ARM GAS  /tmp/cc0nWktl.s 			page 28


 1527 03f8 A201     		.2byte	0x1a2
 1528 03fa 0E040000 		.4byte	0x40e
 1529 03fe 08       		.uleb128 0x8
 1530 03ff 05040000 		.4byte	.LASF69
 1531 0403 02       		.byte	0x2
 1532 0404 AA01     		.2byte	0x1aa
 1533 0406 4E060000 		.4byte	0x64e
 1534 040a 02       		.byte	0x2
 1535 040b 23       		.byte	0x23
 1536 040c 00       		.uleb128 0
 1537 040d 00       		.byte	0
 1538 040e 03       		.uleb128 0x3
 1539 040f B6050000 		.4byte	.LASF70
 1540 0413 08       		.byte	0x8
 1541 0414 70       		.byte	0x70
 1542 0415 19040000 		.4byte	0x419
 1543 0419 0E       		.uleb128 0xe
 1544 041a BA040000 		.4byte	.LASF71
 1545 041e 5001     		.2byte	0x150
 1546 0420 02       		.byte	0x2
 1547 0421 C201     		.2byte	0x1c2
 1548 0423 81040000 		.4byte	0x481
 1549 0427 08       		.uleb128 0x8
 1550 0428 E8040000 		.4byte	.LASF72
 1551 042c 02       		.byte	0x2
 1552 042d C601     		.2byte	0x1c6
 1553 042f 9B020000 		.4byte	0x29b
 1554 0433 02       		.byte	0x2
 1555 0434 23       		.byte	0x23
 1556 0435 00       		.uleb128 0
 1557 0436 08       		.uleb128 0x8
 1558 0437 29010000 		.4byte	.LASF73
 1559 043b 02       		.byte	0x2
 1560 043c CA01     		.2byte	0x1ca
 1561 043e 91030000 		.4byte	0x391
 1562 0442 02       		.byte	0x2
 1563 0443 23       		.byte	0x23
 1564 0444 1C       		.uleb128 0x1c
 1565 0445 07       		.uleb128 0x7
 1566 0446 64626700 		.ascii	"dbg\000"
 1567 044a 02       		.byte	0x2
 1568 044b CE01     		.2byte	0x1ce
 1569 044d E6030000 		.4byte	0x3e6
 1570 0451 02       		.byte	0x2
 1571 0452 23       		.byte	0x23
 1572 0453 28       		.uleb128 0x28
 1573 0454 08       		.uleb128 0x8
 1574 0455 2A040000 		.4byte	.LASF74
 1575 0459 02       		.byte	0x2
 1576 045a D201     		.2byte	0x1d2
 1577 045c 14010000 		.4byte	0x114
 1578 0460 02       		.byte	0x2
 1579 0461 23       		.byte	0x23
 1580 0462 2C       		.uleb128 0x2c
 1581 0463 07       		.uleb128 0x7
 1582 0464 746D00   		.ascii	"tm\000"
 1583 0467 02       		.byte	0x2
ARM GAS  /tmp/cc0nWktl.s 			page 29


 1584 0468 D701     		.2byte	0x1d7
 1585 046a 5C050000 		.4byte	0x55c
 1586 046e 02       		.byte	0x2
 1587 046f 23       		.byte	0x23
 1588 0470 70       		.uleb128 0x70
 1589 0471 08       		.uleb128 0x8
 1590 0472 45010000 		.4byte	.LASF75
 1591 0476 02       		.byte	0x2
 1592 0477 E301     		.2byte	0x1e3
 1593 0479 53060000 		.4byte	0x653
 1594 047d 02       		.byte	0x2
 1595 047e 23       		.byte	0x23
 1596 047f 78       		.uleb128 0x78
 1597 0480 00       		.byte	0
 1598 0481 03       		.uleb128 0x3
 1599 0482 56000000 		.4byte	.LASF76
 1600 0486 09       		.byte	0x9
 1601 0487 65       		.byte	0x65
 1602 0488 2B030000 		.4byte	0x32b
 1603 048c 03       		.uleb128 0x3
 1604 048d FD050000 		.4byte	.LASF77
 1605 0491 09       		.byte	0x9
 1606 0492 6D       		.byte	0x6d
 1607 0493 9F000000 		.4byte	0x9f
 1608 0497 05       		.uleb128 0x5
 1609 0498 72030000 		.4byte	.LASF78
 1610 049c 04       		.byte	0x4
 1611 049d 09       		.byte	0x9
 1612 049e 89       		.byte	0x89
 1613 049f B2040000 		.4byte	0x4b2
 1614 04a3 0F       		.uleb128 0xf
 1615 04a4 72313300 		.ascii	"r13\000"
 1616 04a8 09       		.byte	0x9
 1617 04a9 8A       		.byte	0x8a
 1618 04aa 3F050000 		.4byte	0x53f
 1619 04ae 02       		.byte	0x2
 1620 04af 23       		.byte	0x23
 1621 04b0 00       		.uleb128 0
 1622 04b1 00       		.byte	0
 1623 04b2 05       		.uleb128 0x5
 1624 04b3 A1040000 		.4byte	.LASF79
 1625 04b7 24       		.byte	0x24
 1626 04b8 0A       		.byte	0xa
 1627 04b9 FD       		.byte	0xfd
 1628 04ba 3F050000 		.4byte	0x53f
 1629 04be 07       		.uleb128 0x7
 1630 04bf 723400   		.ascii	"r4\000"
 1631 04c2 0A       		.byte	0xa
 1632 04c3 1001     		.2byte	0x110
 1633 04c5 81040000 		.4byte	0x481
 1634 04c9 02       		.byte	0x2
 1635 04ca 23       		.byte	0x23
 1636 04cb 00       		.uleb128 0
 1637 04cc 07       		.uleb128 0x7
 1638 04cd 723500   		.ascii	"r5\000"
 1639 04d0 0A       		.byte	0xa
 1640 04d1 1101     		.2byte	0x111
ARM GAS  /tmp/cc0nWktl.s 			page 30


 1641 04d3 81040000 		.4byte	0x481
 1642 04d7 02       		.byte	0x2
 1643 04d8 23       		.byte	0x23
 1644 04d9 04       		.uleb128 0x4
 1645 04da 07       		.uleb128 0x7
 1646 04db 723600   		.ascii	"r6\000"
 1647 04de 0A       		.byte	0xa
 1648 04df 1201     		.2byte	0x112
 1649 04e1 81040000 		.4byte	0x481
 1650 04e5 02       		.byte	0x2
 1651 04e6 23       		.byte	0x23
 1652 04e7 08       		.uleb128 0x8
 1653 04e8 07       		.uleb128 0x7
 1654 04e9 723700   		.ascii	"r7\000"
 1655 04ec 0A       		.byte	0xa
 1656 04ed 1301     		.2byte	0x113
 1657 04ef 81040000 		.4byte	0x481
 1658 04f3 02       		.byte	0x2
 1659 04f4 23       		.byte	0x23
 1660 04f5 0C       		.uleb128 0xc
 1661 04f6 07       		.uleb128 0x7
 1662 04f7 723800   		.ascii	"r8\000"
 1663 04fa 0A       		.byte	0xa
 1664 04fb 1401     		.2byte	0x114
 1665 04fd 81040000 		.4byte	0x481
 1666 0501 02       		.byte	0x2
 1667 0502 23       		.byte	0x23
 1668 0503 10       		.uleb128 0x10
 1669 0504 07       		.uleb128 0x7
 1670 0505 723900   		.ascii	"r9\000"
 1671 0508 0A       		.byte	0xa
 1672 0509 1501     		.2byte	0x115
 1673 050b 81040000 		.4byte	0x481
 1674 050f 02       		.byte	0x2
 1675 0510 23       		.byte	0x23
 1676 0511 14       		.uleb128 0x14
 1677 0512 07       		.uleb128 0x7
 1678 0513 72313000 		.ascii	"r10\000"
 1679 0517 0A       		.byte	0xa
 1680 0518 1601     		.2byte	0x116
 1681 051a 81040000 		.4byte	0x481
 1682 051e 02       		.byte	0x2
 1683 051f 23       		.byte	0x23
 1684 0520 18       		.uleb128 0x18
 1685 0521 07       		.uleb128 0x7
 1686 0522 72313100 		.ascii	"r11\000"
 1687 0526 0A       		.byte	0xa
 1688 0527 1701     		.2byte	0x117
 1689 0529 81040000 		.4byte	0x481
 1690 052d 02       		.byte	0x2
 1691 052e 23       		.byte	0x23
 1692 052f 1C       		.uleb128 0x1c
 1693 0530 07       		.uleb128 0x7
 1694 0531 6C7200   		.ascii	"lr\000"
 1695 0534 0A       		.byte	0xa
 1696 0535 1801     		.2byte	0x118
 1697 0537 81040000 		.4byte	0x481
ARM GAS  /tmp/cc0nWktl.s 			page 31


 1698 053b 02       		.byte	0x2
 1699 053c 23       		.byte	0x23
 1700 053d 20       		.uleb128 0x20
 1701 053e 00       		.byte	0
 1702 053f 09       		.uleb128 0x9
 1703 0540 04       		.byte	0x4
 1704 0541 B2040000 		.4byte	0x4b2
 1705 0545 10       		.uleb128 0x10
 1706 0546 04       		.byte	0x4
 1707 0547 0B       		.byte	0xb
 1708 0548 38       		.byte	0x38
 1709 0549 5C050000 		.4byte	0x55c
 1710 054d 06       		.uleb128 0x6
 1711 054e 8B020000 		.4byte	.LASF80
 1712 0552 0B       		.byte	0xb
 1713 0553 3C       		.byte	0x3c
 1714 0554 B1000000 		.4byte	0xb1
 1715 0558 02       		.byte	0x2
 1716 0559 23       		.byte	0x23
 1717 055a 00       		.uleb128 0
 1718 055b 00       		.byte	0
 1719 055c 03       		.uleb128 0x3
 1720 055d 31000000 		.4byte	.LASF81
 1721 0561 0B       		.byte	0xb
 1722 0562 3D       		.byte	0x3d
 1723 0563 45050000 		.4byte	0x545
 1724 0567 11       		.uleb128 0x11
 1725 0568 04       		.byte	0x4
 1726 0569 02       		.byte	0x2
 1727 056a FA       		.byte	0xfa
 1728 056b C4050000 		.4byte	0x5c4
 1729 056f 12       		.uleb128 0x12
 1730 0570 84020000 		.4byte	.LASF82
 1731 0574 02       		.byte	0x2
 1732 0575 0101     		.2byte	0x101
 1733 0577 E8000000 		.4byte	0xe8
 1734 057b 12       		.uleb128 0x12
 1735 057c 31060000 		.4byte	.LASF83
 1736 0580 02       		.byte	0x2
 1737 0581 0801     		.2byte	0x108
 1738 0583 E8000000 		.4byte	0xe8
 1739 0587 12       		.uleb128 0x12
 1740 0588 18010000 		.4byte	.LASF84
 1741 058c 02       		.byte	0x2
 1742 058d 0F01     		.2byte	0x10f
 1743 058f 2B030000 		.4byte	0x32b
 1744 0593 12       		.uleb128 0x12
 1745 0594 C2050000 		.4byte	.LASF85
 1746 0598 02       		.byte	0x2
 1747 0599 1601     		.2byte	0x116
 1748 059b C4050000 		.4byte	0x5c4
 1749 059f 12       		.uleb128 0x12
 1750 05a0 3D050000 		.4byte	.LASF86
 1751 05a4 02       		.byte	0x2
 1752 05a5 1E01     		.2byte	0x11e
 1753 05a7 F3050000 		.4byte	0x5f3
 1754 05ab 12       		.uleb128 0x12
ARM GAS  /tmp/cc0nWktl.s 			page 32


 1755 05ac 2A000000 		.4byte	.LASF87
 1756 05b0 02       		.byte	0x2
 1757 05b1 2701     		.2byte	0x127
 1758 05b3 30060000 		.4byte	0x630
 1759 05b7 12       		.uleb128 0x12
 1760 05b8 69010000 		.4byte	.LASF88
 1761 05bc 02       		.byte	0x2
 1762 05bd 2F01     		.2byte	0x12f
 1763 05bf F3000000 		.4byte	0xf3
 1764 05c3 00       		.byte	0
 1765 05c4 09       		.uleb128 0x9
 1766 05c5 04       		.byte	0x4
 1767 05c6 30020000 		.4byte	0x230
 1768 05ca 05       		.uleb128 0x5
 1769 05cb EF010000 		.4byte	.LASF89
 1770 05cf 0C       		.byte	0xc
 1771 05d0 0C       		.byte	0xc
 1772 05d1 34       		.byte	0x34
 1773 05d2 F3050000 		.4byte	0x5f3
 1774 05d6 06       		.uleb128 0x6
 1775 05d7 7D000000 		.4byte	.LASF90
 1776 05db 0C       		.byte	0xc
 1777 05dc 35       		.byte	0x35
 1778 05dd 67020000 		.4byte	0x267
 1779 05e1 02       		.byte	0x2
 1780 05e2 23       		.byte	0x23
 1781 05e3 00       		.uleb128 0
 1782 05e4 06       		.uleb128 0x6
 1783 05e5 96010000 		.4byte	.LASF91
 1784 05e9 0C       		.byte	0xc
 1785 05ea 37       		.byte	0x37
 1786 05eb FE000000 		.4byte	0xfe
 1787 05ef 02       		.byte	0x2
 1788 05f0 23       		.byte	0x23
 1789 05f1 08       		.uleb128 0x8
 1790 05f2 00       		.byte	0
 1791 05f3 09       		.uleb128 0x9
 1792 05f4 04       		.byte	0x4
 1793 05f5 CA050000 		.4byte	0x5ca
 1794 05f9 05       		.uleb128 0x5
 1795 05fa 98020000 		.4byte	.LASF92
 1796 05fe 10       		.byte	0x10
 1797 05ff 0D       		.byte	0xd
 1798 0600 39       		.byte	0x39
 1799 0601 30060000 		.4byte	0x630
 1800 0605 06       		.uleb128 0x6
 1801 0606 90040000 		.4byte	.LASF93
 1802 060a 0D       		.byte	0xd
 1803 060b 3A       		.byte	0x3a
 1804 060c 67020000 		.4byte	0x267
 1805 0610 02       		.byte	0x2
 1806 0611 23       		.byte	0x23
 1807 0612 00       		.uleb128 0
 1808 0613 06       		.uleb128 0x6
 1809 0614 75000000 		.4byte	.LASF94
 1810 0618 0D       		.byte	0xd
 1811 0619 3C       		.byte	0x3c
ARM GAS  /tmp/cc0nWktl.s 			page 33


 1812 061a 3B020000 		.4byte	0x23b
 1813 061e 02       		.byte	0x2
 1814 061f 23       		.byte	0x23
 1815 0620 08       		.uleb128 0x8
 1816 0621 06       		.uleb128 0x6
 1817 0622 C8050000 		.4byte	.LASF95
 1818 0626 0D       		.byte	0xd
 1819 0627 3E       		.byte	0x3e
 1820 0628 6E060000 		.4byte	0x66e
 1821 062c 02       		.byte	0x2
 1822 062d 23       		.byte	0x23
 1823 062e 0C       		.uleb128 0xc
 1824 062f 00       		.byte	0
 1825 0630 09       		.uleb128 0x9
 1826 0631 04       		.byte	0x4
 1827 0632 F9050000 		.4byte	0x5f9
 1828 0636 09       		.uleb128 0x9
 1829 0637 04       		.byte	0x4
 1830 0638 3C060000 		.4byte	0x63c
 1831 063c 13       		.uleb128 0x13
 1832 063d 41060000 		.4byte	0x641
 1833 0641 04       		.uleb128 0x4
 1834 0642 01       		.byte	0x1
 1835 0643 08       		.byte	0x8
 1836 0644 42000000 		.4byte	.LASF96
 1837 0648 09       		.uleb128 0x9
 1838 0649 04       		.byte	0x4
 1839 064a 2D030000 		.4byte	0x32d
 1840 064e 14       		.uleb128 0x14
 1841 064f 36060000 		.4byte	0x636
 1842 0653 15       		.uleb128 0x15
 1843 0654 8C040000 		.4byte	0x48c
 1844 0658 63060000 		.4byte	0x663
 1845 065c 16       		.uleb128 0x16
 1846 065d 3B000000 		.4byte	0x3b
 1847 0661 1A       		.byte	0x1a
 1848 0662 00       		.byte	0
 1849 0663 03       		.uleb128 0x3
 1850 0664 50050000 		.4byte	.LASF97
 1851 0668 0D       		.byte	0xd
 1852 0669 34       		.byte	0x34
 1853 066a F9050000 		.4byte	0x5f9
 1854 066e 09       		.uleb128 0x9
 1855 066f 04       		.byte	0x4
 1856 0670 63060000 		.4byte	0x663
 1857 0674 04       		.uleb128 0x4
 1858 0675 01       		.byte	0x1
 1859 0676 02       		.byte	0x2
 1860 0677 92020000 		.4byte	.LASF98
 1861 067b 03       		.uleb128 0x3
 1862 067c 85000000 		.4byte	.LASF99
 1863 0680 03       		.byte	0x3
 1864 0681 3F       		.byte	0x3f
 1865 0682 86060000 		.4byte	0x686
 1866 0686 05       		.uleb128 0x5
 1867 0687 DB050000 		.4byte	.LASF100
 1868 068b 24       		.byte	0x24
ARM GAS  /tmp/cc0nWktl.s 			page 34


 1869 068c 03       		.byte	0x3
 1870 068d 4D       		.byte	0x4d
 1871 068e 03070000 		.4byte	0x703
 1872 0692 06       		.uleb128 0x6
 1873 0693 C0010000 		.4byte	.LASF101
 1874 0697 03       		.byte	0x3
 1875 0698 4E       		.byte	0x4e
 1876 0699 67020000 		.4byte	0x267
 1877 069d 02       		.byte	0x2
 1878 069e 23       		.byte	0x23
 1879 069f 00       		.uleb128 0
 1880 06a0 06       		.uleb128 0x6
 1881 06a1 F7040000 		.4byte	.LASF102
 1882 06a5 03       		.byte	0x3
 1883 06a6 4F       		.byte	0x4f
 1884 06a7 26070000 		.4byte	0x726
 1885 06ab 02       		.byte	0x2
 1886 06ac 23       		.byte	0x23
 1887 06ad 08       		.uleb128 0x8
 1888 06ae 06       		.uleb128 0x6
 1889 06af 53030000 		.4byte	.LASF103
 1890 06b3 03       		.byte	0x3
 1891 06b4 50       		.byte	0x50
 1892 06b5 2B070000 		.4byte	0x72b
 1893 06b9 02       		.byte	0x2
 1894 06ba 23       		.byte	0x23
 1895 06bb 0C       		.uleb128 0xc
 1896 06bc 06       		.uleb128 0x6
 1897 06bd 01050000 		.4byte	.LASF104
 1898 06c1 03       		.byte	0x3
 1899 06c2 51       		.byte	0x51
 1900 06c3 2B070000 		.4byte	0x72b
 1901 06c7 02       		.byte	0x2
 1902 06c8 23       		.byte	0x23
 1903 06c9 10       		.uleb128 0x10
 1904 06ca 06       		.uleb128 0x6
 1905 06cb E3020000 		.4byte	.LASF105
 1906 06cf 03       		.byte	0x3
 1907 06d0 53       		.byte	0x53
 1908 06d1 2B070000 		.4byte	0x72b
 1909 06d5 02       		.byte	0x2
 1910 06d6 23       		.byte	0x23
 1911 06d7 14       		.uleb128 0x14
 1912 06d8 06       		.uleb128 0x6
 1913 06d9 C7000000 		.4byte	.LASF106
 1914 06dd 03       		.byte	0x3
 1915 06de 54       		.byte	0x54
 1916 06df 2B070000 		.4byte	0x72b
 1917 06e3 02       		.byte	0x2
 1918 06e4 23       		.byte	0x23
 1919 06e5 18       		.uleb128 0x18
 1920 06e6 06       		.uleb128 0x6
 1921 06e7 A1020000 		.4byte	.LASF107
 1922 06eb 03       		.byte	0x3
 1923 06ec 55       		.byte	0x55
 1924 06ed 03070000 		.4byte	0x703
 1925 06f1 02       		.byte	0x2
ARM GAS  /tmp/cc0nWktl.s 			page 35


 1926 06f2 23       		.byte	0x23
 1927 06f3 1C       		.uleb128 0x1c
 1928 06f4 06       		.uleb128 0x6
 1929 06f5 30010000 		.4byte	.LASF108
 1930 06f9 03       		.byte	0x3
 1931 06fa 56       		.byte	0x56
 1932 06fb 2B030000 		.4byte	0x32b
 1933 06ff 02       		.byte	0x2
 1934 0700 23       		.byte	0x23
 1935 0701 20       		.uleb128 0x20
 1936 0702 00       		.byte	0
 1937 0703 03       		.uleb128 0x3
 1938 0704 CF000000 		.4byte	.LASF109
 1939 0708 03       		.byte	0x3
 1940 0709 42       		.byte	0x42
 1941 070a 0E070000 		.4byte	0x70e
 1942 070e 09       		.uleb128 0x9
 1943 070f 04       		.byte	0x4
 1944 0710 14070000 		.4byte	0x714
 1945 0714 0B       		.uleb128 0xb
 1946 0715 01       		.byte	0x1
 1947 0716 20070000 		.4byte	0x720
 1948 071a 0C       		.uleb128 0xc
 1949 071b 20070000 		.4byte	0x720
 1950 071f 00       		.byte	0
 1951 0720 09       		.uleb128 0x9
 1952 0721 04       		.byte	0x4
 1953 0722 7B060000 		.4byte	0x67b
 1954 0726 14       		.uleb128 0x14
 1955 0727 30000000 		.4byte	0x30
 1956 072b 09       		.uleb128 0x9
 1957 072c 04       		.byte	0x4
 1958 072d 49000000 		.4byte	0x49
 1959 0731 03       		.uleb128 0x3
 1960 0732 0C030000 		.4byte	.LASF110
 1961 0736 03       		.byte	0x3
 1962 0737 64       		.byte	0x64
 1963 0738 7B060000 		.4byte	0x67b
 1964 073c 03       		.uleb128 0x3
 1965 073d DB030000 		.4byte	.LASF111
 1966 0741 03       		.byte	0x3
 1967 0742 71       		.byte	0x71
 1968 0743 7B060000 		.4byte	0x67b
 1969 0747 09       		.uleb128 0x9
 1970 0748 04       		.byte	0x4
 1971 0749 4D070000 		.4byte	0x74d
 1972 074d 13       		.uleb128 0x13
 1973 074e 49000000 		.4byte	0x49
 1974 0752 17       		.uleb128 0x17
 1975 0753 C4040000 		.4byte	.LASF114
 1976 0757 04       		.byte	0x4
 1977 0758 2202     		.2byte	0x222
 1978 075a 01       		.byte	0x1
 1979 075b 03       		.byte	0x3
 1980 075c 6D070000 		.4byte	0x76d
 1981 0760 18       		.uleb128 0x18
 1982 0761 57020000 		.4byte	.LASF116
ARM GAS  /tmp/cc0nWktl.s 			page 36


 1983 0765 04       		.byte	0x4
 1984 0766 2202     		.2byte	0x222
 1985 0768 86000000 		.4byte	0x86
 1986 076c 00       		.byte	0
 1987 076d 19       		.uleb128 0x19
 1988 076e 1F010000 		.4byte	.LASF112
 1989 0772 0A       		.byte	0xa
 1990 0773 C801     		.2byte	0x1c8
 1991 0775 01       		.byte	0x1
 1992 0776 03       		.byte	0x3
 1993 0777 19       		.uleb128 0x19
 1994 0778 10060000 		.4byte	.LASF113
 1995 077c 0A       		.byte	0xa
 1996 077d E001     		.2byte	0x1e0
 1997 077f 01       		.byte	0x1
 1998 0780 03       		.byte	0x3
 1999 0781 17       		.uleb128 0x17
 2000 0782 58050000 		.4byte	.LASF115
 2001 0786 02       		.byte	0x2
 2002 0787 5A02     		.2byte	0x25a
 2003 0789 01       		.byte	0x1
 2004 078a 03       		.byte	0x3
 2005 078b 9C070000 		.4byte	0x79c
 2006 078f 1A       		.uleb128 0x1a
 2007 0790 74717000 		.ascii	"tqp\000"
 2008 0794 02       		.byte	0x2
 2009 0795 5A02     		.2byte	0x25a
 2010 0797 9C070000 		.4byte	0x79c
 2011 079b 00       		.byte	0
 2012 079c 09       		.uleb128 0x9
 2013 079d 04       		.byte	0x4
 2014 079e 67020000 		.4byte	0x267
 2015 07a2 17       		.uleb128 0x17
 2016 07a3 54010000 		.4byte	.LASF117
 2017 07a7 0E       		.byte	0xe
 2018 07a8 1601     		.2byte	0x116
 2019 07aa 01       		.byte	0x1
 2020 07ab 03       		.byte	0x3
 2021 07ac BD070000 		.4byte	0x7bd
 2022 07b0 1A       		.uleb128 0x1a
 2023 07b1 74717000 		.ascii	"tqp\000"
 2024 07b5 0E       		.byte	0xe
 2025 07b6 1601     		.2byte	0x116
 2026 07b8 9C070000 		.4byte	0x79c
 2027 07bc 00       		.byte	0
 2028 07bd 1B       		.uleb128 0x1b
 2029 07be 8A010000 		.4byte	.LASF120
 2030 07c2 03       		.byte	0x3
 2031 07c3 4001     		.2byte	0x140
 2032 07c5 01       		.byte	0x1
 2033 07c6 74060000 		.4byte	0x674
 2034 07ca 03       		.byte	0x3
 2035 07cb DC070000 		.4byte	0x7dc
 2036 07cf 1A       		.uleb128 0x1a
 2037 07d0 69717000 		.ascii	"iqp\000"
 2038 07d4 03       		.byte	0x3
 2039 07d5 4001     		.2byte	0x140
ARM GAS  /tmp/cc0nWktl.s 			page 37


 2040 07d7 DC070000 		.4byte	0x7dc
 2041 07db 00       		.byte	0
 2042 07dc 09       		.uleb128 0x9
 2043 07dd 04       		.byte	0x4
 2044 07de 31070000 		.4byte	0x731
 2045 07e2 19       		.uleb128 0x19
 2046 07e3 AA020000 		.4byte	.LASF118
 2047 07e7 0F       		.byte	0xf
 2048 07e8 5A01     		.2byte	0x15a
 2049 07ea 01       		.byte	0x1
 2050 07eb 03       		.byte	0x3
 2051 07ec 17       		.uleb128 0x17
 2052 07ed 43020000 		.4byte	.LASF119
 2053 07f1 0F       		.byte	0xf
 2054 07f2 6601     		.2byte	0x166
 2055 07f4 01       		.byte	0x1
 2056 07f5 03       		.byte	0x3
 2057 07f6 09080000 		.4byte	0x809
 2058 07fa 1C       		.uleb128 0x1c
 2059 07fb 5D040000 		.4byte	.LASF139
 2060 07ff 19080000 		.4byte	0x819
 2061 0803 01       		.byte	0x1
 2062 0804 43020000 		.4byte	.LASF119
 2063 0808 00       		.byte	0
 2064 0809 15       		.uleb128 0x15
 2065 080a 41060000 		.4byte	0x641
 2066 080e 19080000 		.4byte	0x819
 2067 0812 16       		.uleb128 0x16
 2068 0813 3B000000 		.4byte	0x3b
 2069 0817 0B       		.byte	0xb
 2070 0818 00       		.byte	0
 2071 0819 13       		.uleb128 0x13
 2072 081a 09080000 		.4byte	0x809
 2073 081e 1B       		.uleb128 0x1b
 2074 081f 0F040000 		.4byte	.LASF121
 2075 0823 03       		.byte	0x3
 2076 0824 2F01     		.2byte	0x12f
 2077 0826 01       		.byte	0x1
 2078 0827 74060000 		.4byte	0x674
 2079 082b 03       		.byte	0x3
 2080 082c 3D080000 		.4byte	0x83d
 2081 0830 1A       		.uleb128 0x1a
 2082 0831 69717000 		.ascii	"iqp\000"
 2083 0835 03       		.byte	0x3
 2084 0836 2F01     		.2byte	0x12f
 2085 0838 DC070000 		.4byte	0x7dc
 2086 083c 00       		.byte	0
 2087 083d 1B       		.uleb128 0x1b
 2088 083e AA050000 		.4byte	.LASF122
 2089 0842 03       		.byte	0x3
 2090 0843 9701     		.2byte	0x197
 2091 0845 01       		.byte	0x1
 2092 0846 74060000 		.4byte	0x674
 2093 084a 03       		.byte	0x3
 2094 084b 5C080000 		.4byte	0x85c
 2095 084f 1A       		.uleb128 0x1a
 2096 0850 6F717000 		.ascii	"oqp\000"
ARM GAS  /tmp/cc0nWktl.s 			page 38


 2097 0854 03       		.byte	0x3
 2098 0855 9701     		.2byte	0x197
 2099 0857 5C080000 		.4byte	0x85c
 2100 085b 00       		.byte	0
 2101 085c 09       		.uleb128 0x9
 2102 085d 04       		.byte	0x4
 2103 085e 3C070000 		.4byte	0x73c
 2104 0862 1B       		.uleb128 0x1b
 2105 0863 24060000 		.4byte	.LASF123
 2106 0867 03       		.byte	0x3
 2107 0868 8401     		.2byte	0x184
 2108 086a 01       		.byte	0x1
 2109 086b 74060000 		.4byte	0x674
 2110 086f 03       		.byte	0x3
 2111 0870 81080000 		.4byte	0x881
 2112 0874 1A       		.uleb128 0x1a
 2113 0875 6F717000 		.ascii	"oqp\000"
 2114 0879 03       		.byte	0x3
 2115 087a 8401     		.2byte	0x184
 2116 087c 5C080000 		.4byte	0x85c
 2117 0880 00       		.byte	0
 2118 0881 1D       		.uleb128 0x1d
 2119 0882 01       		.byte	0x1
 2120 0883 92030000 		.4byte	.LASF127
 2121 0887 01       		.byte	0x1
 2122 0888 57       		.byte	0x57
 2123 0889 01       		.byte	0x1
 2124 088a 00000000 		.4byte	.LFB182
 2125 088e 1E000000 		.4byte	.LFE182
 2126 0892 00000000 		.4byte	.LLST0
 2127 0896 0F090000 		.4byte	0x90f
 2128 089a 1E       		.uleb128 0x1e
 2129 089b 69717000 		.ascii	"iqp\000"
 2130 089f 01       		.byte	0x1
 2131 08a0 57       		.byte	0x57
 2132 08a1 DC070000 		.4byte	0x7dc
 2133 08a5 01       		.byte	0x1
 2134 08a6 50       		.byte	0x50
 2135 08a7 1E       		.uleb128 0x1e
 2136 08a8 627000   		.ascii	"bp\000"
 2137 08ab 01       		.byte	0x1
 2138 08ac 57       		.byte	0x57
 2139 08ad 2B070000 		.4byte	0x72b
 2140 08b1 01       		.byte	0x1
 2141 08b2 51       		.byte	0x51
 2142 08b3 1F       		.uleb128 0x1f
 2143 08b4 EA030000 		.4byte	.LASF124
 2144 08b8 01       		.byte	0x1
 2145 08b9 57       		.byte	0x57
 2146 08ba 30000000 		.4byte	0x30
 2147 08be 20000000 		.4byte	.LLST1
 2148 08c2 1F       		.uleb128 0x1f
 2149 08c3 00040000 		.4byte	.LASF125
 2150 08c7 01       		.byte	0x1
 2151 08c8 58       		.byte	0x58
 2152 08c9 03070000 		.4byte	0x703
 2153 08cd 33000000 		.4byte	.LLST2
ARM GAS  /tmp/cc0nWktl.s 			page 39


 2154 08d1 20       		.uleb128 0x20
 2155 08d2 8E050000 		.4byte	.LASF126
 2156 08d6 01       		.byte	0x1
 2157 08d7 58       		.byte	0x58
 2158 08d8 2B030000 		.4byte	0x32b
 2159 08dc 02       		.byte	0x2
 2160 08dd 91       		.byte	0x91
 2161 08de 00       		.sleb128 0
 2162 08df 21       		.uleb128 0x21
 2163 08e0 A2070000 		.4byte	0x7a2
 2164 08e4 0A000000 		.4byte	.LBB108
 2165 08e8 0E000000 		.4byte	.LBE108
 2166 08ec 01       		.byte	0x1
 2167 08ed 5A       		.byte	0x5a
 2168 08ee 22       		.uleb128 0x22
 2169 08ef B0070000 		.4byte	0x7b0
 2170 08f3 01       		.byte	0x1
 2171 08f4 50       		.byte	0x50
 2172 08f5 23       		.uleb128 0x23
 2173 08f6 81070000 		.4byte	0x781
 2174 08fa 0A000000 		.4byte	.LBB109
 2175 08fe 0E000000 		.4byte	.LBE109
 2176 0902 0E       		.byte	0xe
 2177 0903 1801     		.2byte	0x118
 2178 0905 22       		.uleb128 0x22
 2179 0906 8F070000 		.4byte	0x78f
 2180 090a 01       		.byte	0x1
 2181 090b 50       		.byte	0x50
 2182 090c 00       		.byte	0
 2183 090d 00       		.byte	0
 2184 090e 00       		.byte	0
 2185 090f 24       		.uleb128 0x24
 2186 0910 01       		.byte	0x1
 2187 0911 CA010000 		.4byte	.LASF128
 2188 0915 01       		.byte	0x1
 2189 0916 6F       		.byte	0x6f
 2190 0917 01       		.byte	0x1
 2191 0918 00000000 		.4byte	.LFB183
 2192 091c 12000000 		.4byte	.LFE183
 2193 0920 02       		.byte	0x2
 2194 0921 7D       		.byte	0x7d
 2195 0922 00       		.sleb128 0
 2196 0923 37090000 		.4byte	0x937
 2197 0927 25       		.uleb128 0x25
 2198 0928 69717000 		.ascii	"iqp\000"
 2199 092c 01       		.byte	0x1
 2200 092d 6F       		.byte	0x6f
 2201 092e DC070000 		.4byte	0x7dc
 2202 0932 52000000 		.4byte	.LLST3
 2203 0936 00       		.byte	0
 2204 0937 26       		.uleb128 0x26
 2205 0938 01       		.byte	0x1
 2206 0939 F7030000 		.4byte	.LASF129
 2207 093d 01       		.byte	0x1
 2208 093e 86       		.byte	0x86
 2209 093f 01       		.byte	0x1
 2210 0940 E8000000 		.4byte	0xe8
ARM GAS  /tmp/cc0nWktl.s 			page 40


 2211 0944 00000000 		.4byte	.LFB184
 2212 0948 36000000 		.4byte	.LFE184
 2213 094c 65000000 		.4byte	.LLST4
 2214 0950 8A090000 		.4byte	0x98a
 2215 0954 25       		.uleb128 0x25
 2216 0955 69717000 		.ascii	"iqp\000"
 2217 0959 01       		.byte	0x1
 2218 095a 86       		.byte	0x86
 2219 095b DC070000 		.4byte	0x7dc
 2220 095f 85000000 		.4byte	.LLST5
 2221 0963 25       		.uleb128 0x25
 2222 0964 6200     		.ascii	"b\000"
 2223 0966 01       		.byte	0x1
 2224 0967 86       		.byte	0x86
 2225 0968 49000000 		.4byte	0x49
 2226 096c A3000000 		.4byte	.LLST6
 2227 0970 27       		.uleb128 0x27
 2228 0971 BD070000 		.4byte	0x7bd
 2229 0975 02000000 		.4byte	.LBB111
 2230 0979 00000000 		.4byte	.Ldebug_ranges0+0
 2231 097d 01       		.byte	0x1
 2232 097e 8A       		.byte	0x8a
 2233 097f 28       		.uleb128 0x28
 2234 0980 CF070000 		.4byte	0x7cf
 2235 0984 85000000 		.4byte	.LLST5
 2236 0988 00       		.byte	0
 2237 0989 00       		.byte	0
 2238 098a 26       		.uleb128 0x26
 2239 098b 01       		.byte	0x1
 2240 098c 47000000 		.4byte	.LASF130
 2241 0990 01       		.byte	0x1
 2242 0991 AD       		.byte	0xad
 2243 0992 01       		.byte	0x1
 2244 0993 E8000000 		.4byte	0xe8
 2245 0997 00000000 		.4byte	.LFB185
 2246 099b 48000000 		.4byte	.LFE185
 2247 099f CE000000 		.4byte	.LLST8
 2248 09a3 D20A0000 		.4byte	0xad2
 2249 09a7 25       		.uleb128 0x25
 2250 09a8 69717000 		.ascii	"iqp\000"
 2251 09ac 01       		.byte	0x1
 2252 09ad AD       		.byte	0xad
 2253 09ae DC070000 		.4byte	0x7dc
 2254 09b2 EE000000 		.4byte	.LLST9
 2255 09b6 1F       		.uleb128 0x1f
 2256 09b7 4D040000 		.4byte	.LASF131
 2257 09bb 01       		.byte	0x1
 2258 09bc AD       		.byte	0xad
 2259 09bd 09010000 		.4byte	0x109
 2260 09c1 0C010000 		.4byte	.LLST10
 2261 09c5 29       		.uleb128 0x29
 2262 09c6 6200     		.ascii	"b\000"
 2263 09c8 01       		.byte	0x1
 2264 09c9 AE       		.byte	0xae
 2265 09ca 49000000 		.4byte	0x49
 2266 09ce 01       		.byte	0x1
 2267 09cf 50       		.byte	0x50
ARM GAS  /tmp/cc0nWktl.s 			page 41


 2268 09d0 2A       		.uleb128 0x2a
 2269 09d1 E2070000 		.4byte	0x7e2
 2270 09d5 02000000 		.4byte	.LBB115
 2271 09d9 18000000 		.4byte	.Ldebug_ranges0+0x18
 2272 09dd 01       		.byte	0x1
 2273 09de B0       		.byte	0xb0
 2274 09df 0C0A0000 		.4byte	0xa0c
 2275 09e3 2B       		.uleb128 0x2b
 2276 09e4 6D070000 		.4byte	0x76d
 2277 09e8 02000000 		.4byte	.LBB116
 2278 09ec 30000000 		.4byte	.Ldebug_ranges0+0x30
 2279 09f0 0F       		.byte	0xf
 2280 09f1 5C01     		.2byte	0x15c
 2281 09f3 2B       		.uleb128 0x2b
 2282 09f4 52070000 		.4byte	0x752
 2283 09f8 02000000 		.4byte	.LBB117
 2284 09fc 48000000 		.4byte	.Ldebug_ranges0+0x48
 2285 0a00 0A       		.byte	0xa
 2286 0a01 D001     		.2byte	0x1d0
 2287 0a03 2C       		.uleb128 0x2c
 2288 0a04 60070000 		.4byte	0x760
 2289 0a08 20       		.byte	0x20
 2290 0a09 00       		.byte	0
 2291 0a0a 00       		.byte	0
 2292 0a0b 00       		.byte	0
 2293 0a0c 2D       		.uleb128 0x2d
 2294 0a0d 1E080000 		.4byte	0x81e
 2295 0a11 12000000 		.4byte	.LBB123
 2296 0a15 14000000 		.4byte	.LBE123
 2297 0a19 01       		.byte	0x1
 2298 0a1a B5       		.byte	0xb5
 2299 0a1b 270A0000 		.4byte	0xa27
 2300 0a1f 22       		.uleb128 0x22
 2301 0a20 30080000 		.4byte	0x830
 2302 0a24 01       		.byte	0x1
 2303 0a25 54       		.byte	0x54
 2304 0a26 00       		.byte	0
 2305 0a27 2E       		.uleb128 0x2e
 2306 0a28 60000000 		.4byte	.Ldebug_ranges0+0x60
 2307 0a2c 8A0A0000 		.4byte	0xa8a
 2308 0a30 2F       		.uleb128 0x2f
 2309 0a31 6D736700 		.ascii	"msg\000"
 2310 0a35 01       		.byte	0x1
 2311 0a36 B6       		.byte	0xb6
 2312 0a37 E8000000 		.4byte	0xe8
 2313 0a3b 1F010000 		.4byte	.LLST11
 2314 0a3f 21       		.uleb128 0x21
 2315 0a40 EC070000 		.4byte	0x7ec
 2316 0a44 22000000 		.4byte	.LBB126
 2317 0a48 26000000 		.4byte	.LBE126
 2318 0a4c 01       		.byte	0x1
 2319 0a4d B8       		.byte	0xb8
 2320 0a4e 30       		.uleb128 0x30
 2321 0a4f 22000000 		.4byte	.LBB127
 2322 0a53 26000000 		.4byte	.LBE127
 2323 0a57 31       		.uleb128 0x31
 2324 0a58 FA070000 		.4byte	0x7fa
ARM GAS  /tmp/cc0nWktl.s 			page 42


 2325 0a5c 23       		.uleb128 0x23
 2326 0a5d 77070000 		.4byte	0x777
 2327 0a61 22000000 		.4byte	.LBB128
 2328 0a65 26000000 		.4byte	.LBE128
 2329 0a69 0F       		.byte	0xf
 2330 0a6a 7301     		.2byte	0x173
 2331 0a6c 23       		.uleb128 0x23
 2332 0a6d 52070000 		.4byte	0x752
 2333 0a71 22000000 		.4byte	.LBB129
 2334 0a75 26000000 		.4byte	.LBE129
 2335 0a79 0A       		.byte	0xa
 2336 0a7a E301     		.2byte	0x1e3
 2337 0a7c 28       		.uleb128 0x28
 2338 0a7d 60070000 		.4byte	0x760
 2339 0a81 32010000 		.4byte	.LLST12
 2340 0a85 00       		.byte	0
 2341 0a86 00       		.byte	0
 2342 0a87 00       		.byte	0
 2343 0a88 00       		.byte	0
 2344 0a89 00       		.byte	0
 2345 0a8a 21       		.uleb128 0x21
 2346 0a8b EC070000 		.4byte	0x7ec
 2347 0a8f 40000000 		.4byte	.LBB132
 2348 0a93 46000000 		.4byte	.LBE132
 2349 0a97 01       		.byte	0x1
 2350 0a98 C2       		.byte	0xc2
 2351 0a99 30       		.uleb128 0x30
 2352 0a9a 40000000 		.4byte	.LBB133
 2353 0a9e 46000000 		.4byte	.LBE133
 2354 0aa2 31       		.uleb128 0x31
 2355 0aa3 FA070000 		.4byte	0x7fa
 2356 0aa7 23       		.uleb128 0x23
 2357 0aa8 77070000 		.4byte	0x777
 2358 0aac 40000000 		.4byte	.LBB134
 2359 0ab0 46000000 		.4byte	.LBE134
 2360 0ab4 0F       		.byte	0xf
 2361 0ab5 7301     		.2byte	0x173
 2362 0ab7 23       		.uleb128 0x23
 2363 0ab8 52070000 		.4byte	0x752
 2364 0abc 40000000 		.4byte	.LBB135
 2365 0ac0 46000000 		.4byte	.LBE135
 2366 0ac4 0A       		.byte	0xa
 2367 0ac5 E301     		.2byte	0x1e3
 2368 0ac7 2C       		.uleb128 0x2c
 2369 0ac8 60070000 		.4byte	0x760
 2370 0acc 00       		.byte	0
 2371 0acd 00       		.byte	0
 2372 0ace 00       		.byte	0
 2373 0acf 00       		.byte	0
 2374 0ad0 00       		.byte	0
 2375 0ad1 00       		.byte	0
 2376 0ad2 26       		.uleb128 0x26
 2377 0ad3 01       		.byte	0x1
 2378 0ad4 A8000000 		.4byte	.LASF132
 2379 0ad8 01       		.byte	0x1
 2380 0ad9 DF       		.byte	0xdf
 2381 0ada 01       		.byte	0x1
ARM GAS  /tmp/cc0nWktl.s 			page 43


 2382 0adb 30000000 		.4byte	0x30
 2383 0adf 00000000 		.4byte	.LFB186
 2384 0ae3 76000000 		.4byte	.LFE186
 2385 0ae7 46010000 		.4byte	.LLST13
 2386 0aeb 730C0000 		.4byte	0xc73
 2387 0aef 25       		.uleb128 0x25
 2388 0af0 69717000 		.ascii	"iqp\000"
 2389 0af4 01       		.byte	0x1
 2390 0af5 DF       		.byte	0xdf
 2391 0af6 DC070000 		.4byte	0x7dc
 2392 0afa 72010000 		.4byte	.LLST14
 2393 0afe 25       		.uleb128 0x25
 2394 0aff 627000   		.ascii	"bp\000"
 2395 0b02 01       		.byte	0x1
 2396 0b03 DF       		.byte	0xdf
 2397 0b04 2B070000 		.4byte	0x72b
 2398 0b08 90010000 		.4byte	.LLST15
 2399 0b0c 25       		.uleb128 0x25
 2400 0b0d 6E00     		.ascii	"n\000"
 2401 0b0f 01       		.byte	0x1
 2402 0b10 E0       		.byte	0xe0
 2403 0b11 30000000 		.4byte	0x30
 2404 0b15 A3010000 		.4byte	.LLST16
 2405 0b19 1F       		.uleb128 0x1f
 2406 0b1a 4D040000 		.4byte	.LASF131
 2407 0b1e 01       		.byte	0x1
 2408 0b1f E0       		.byte	0xe0
 2409 0b20 09010000 		.4byte	0x109
 2410 0b24 B6010000 		.4byte	.LLST17
 2411 0b28 2F       		.uleb128 0x2f
 2412 0b29 6E667900 		.ascii	"nfy\000"
 2413 0b2d 01       		.byte	0x1
 2414 0b2e E1       		.byte	0xe1
 2415 0b2f 03070000 		.4byte	0x703
 2416 0b33 C9010000 		.4byte	.LLST18
 2417 0b37 2F       		.uleb128 0x2f
 2418 0b38 7200     		.ascii	"r\000"
 2419 0b3a 01       		.byte	0x1
 2420 0b3b E2       		.byte	0xe2
 2421 0b3c 30000000 		.4byte	0x30
 2422 0b40 E8010000 		.4byte	.LLST19
 2423 0b44 32       		.uleb128 0x32
 2424 0b45 5D040000 		.4byte	.LASF139
 2425 0b49 830C0000 		.4byte	0xc83
 2426 0b4d 01       		.byte	0x1
 2427 0b4e 2D       		.uleb128 0x2d
 2428 0b4f E2070000 		.4byte	0x7e2
 2429 0b53 12000000 		.4byte	.LBB137
 2430 0b57 1E000000 		.4byte	.LBE137
 2431 0b5b 01       		.byte	0x1
 2432 0b5c E6       		.byte	0xe6
 2433 0b5d 8A0B0000 		.4byte	0xb8a
 2434 0b61 23       		.uleb128 0x23
 2435 0b62 6D070000 		.4byte	0x76d
 2436 0b66 12000000 		.4byte	.LBB138
 2437 0b6a 1E000000 		.4byte	.LBE138
 2438 0b6e 0F       		.byte	0xf
ARM GAS  /tmp/cc0nWktl.s 			page 44


 2439 0b6f 5C01     		.2byte	0x15c
 2440 0b71 23       		.uleb128 0x23
 2441 0b72 52070000 		.4byte	0x752
 2442 0b76 12000000 		.4byte	.LBB139
 2443 0b7a 1E000000 		.4byte	.LBE139
 2444 0b7e 0A       		.byte	0xa
 2445 0b7f D001     		.2byte	0x1d0
 2446 0b81 2C       		.uleb128 0x2c
 2447 0b82 60070000 		.4byte	0x760
 2448 0b86 20       		.byte	0x20
 2449 0b87 00       		.byte	0
 2450 0b88 00       		.byte	0
 2451 0b89 00       		.byte	0
 2452 0b8a 2A       		.uleb128 0x2a
 2453 0b8b EC070000 		.4byte	0x7ec
 2454 0b8f 1E000000 		.4byte	.LBB141
 2455 0b93 78000000 		.4byte	.Ldebug_ranges0+0x78
 2456 0b97 01       		.byte	0x1
 2457 0b98 F8       		.byte	0xf8
 2458 0b99 D10B0000 		.4byte	0xbd1
 2459 0b9d 33       		.uleb128 0x33
 2460 0b9e 90000000 		.4byte	.Ldebug_ranges0+0x90
 2461 0ba2 31       		.uleb128 0x31
 2462 0ba3 FA070000 		.4byte	0x7fa
 2463 0ba7 2B       		.uleb128 0x2b
 2464 0ba8 77070000 		.4byte	0x777
 2465 0bac 1E000000 		.4byte	.LBB143
 2466 0bb0 A8000000 		.4byte	.Ldebug_ranges0+0xa8
 2467 0bb4 0F       		.byte	0xf
 2468 0bb5 7301     		.2byte	0x173
 2469 0bb7 2B       		.uleb128 0x2b
 2470 0bb8 52070000 		.4byte	0x752
 2471 0bbc 1E000000 		.4byte	.LBB144
 2472 0bc0 C0000000 		.4byte	.Ldebug_ranges0+0xc0
 2473 0bc4 0A       		.byte	0xa
 2474 0bc5 E301     		.2byte	0x1e3
 2475 0bc7 2C       		.uleb128 0x2c
 2476 0bc8 60070000 		.4byte	0x760
 2477 0bcc 00       		.byte	0
 2478 0bcd 00       		.byte	0
 2479 0bce 00       		.byte	0
 2480 0bcf 00       		.byte	0
 2481 0bd0 00       		.byte	0
 2482 0bd1 2D       		.uleb128 0x2d
 2483 0bd2 1E080000 		.4byte	0x81e
 2484 0bd6 2A000000 		.4byte	.LBB150
 2485 0bda 2C000000 		.4byte	.LBE150
 2486 0bde 01       		.byte	0x1
 2487 0bdf EC       		.byte	0xec
 2488 0be0 EC0B0000 		.4byte	0xbec
 2489 0be4 22       		.uleb128 0x22
 2490 0be5 30080000 		.4byte	0x830
 2491 0be9 01       		.byte	0x1
 2492 0bea 54       		.byte	0x54
 2493 0beb 00       		.byte	0
 2494 0bec 2D       		.uleb128 0x2d
 2495 0bed EC070000 		.4byte	0x7ec
ARM GAS  /tmp/cc0nWktl.s 			page 45


 2496 0bf1 3A000000 		.4byte	.LBB152
 2497 0bf5 3E000000 		.4byte	.LBE152
 2498 0bf9 01       		.byte	0x1
 2499 0bfa EE       		.byte	0xee
 2500 0bfb 3A0C0000 		.4byte	0xc3a
 2501 0bff 30       		.uleb128 0x30
 2502 0c00 3A000000 		.4byte	.LBB153
 2503 0c04 3E000000 		.4byte	.LBE153
 2504 0c08 31       		.uleb128 0x31
 2505 0c09 FA070000 		.4byte	0x7fa
 2506 0c0d 23       		.uleb128 0x23
 2507 0c0e 77070000 		.4byte	0x777
 2508 0c12 3A000000 		.4byte	.LBB154
 2509 0c16 3E000000 		.4byte	.LBE154
 2510 0c1a 0F       		.byte	0xf
 2511 0c1b 7301     		.2byte	0x173
 2512 0c1d 23       		.uleb128 0x23
 2513 0c1e 52070000 		.4byte	0x752
 2514 0c22 3A000000 		.4byte	.LBB155
 2515 0c26 3E000000 		.4byte	.LBE155
 2516 0c2a 0A       		.byte	0xa
 2517 0c2b E301     		.2byte	0x1e3
 2518 0c2d 28       		.uleb128 0x28
 2519 0c2e 60070000 		.4byte	0x760
 2520 0c32 07020000 		.4byte	.LLST20
 2521 0c36 00       		.byte	0
 2522 0c37 00       		.byte	0
 2523 0c38 00       		.byte	0
 2524 0c39 00       		.byte	0
 2525 0c3a 21       		.uleb128 0x21
 2526 0c3b E2070000 		.4byte	0x7e2
 2527 0c3f 70000000 		.4byte	.LBB158
 2528 0c43 76000000 		.4byte	.LBE158
 2529 0c47 01       		.byte	0x1
 2530 0c48 FF       		.byte	0xff
 2531 0c49 23       		.uleb128 0x23
 2532 0c4a 6D070000 		.4byte	0x76d
 2533 0c4e 70000000 		.4byte	.LBB159
 2534 0c52 76000000 		.4byte	.LBE159
 2535 0c56 0F       		.byte	0xf
 2536 0c57 5C01     		.2byte	0x15c
 2537 0c59 23       		.uleb128 0x23
 2538 0c5a 52070000 		.4byte	0x752
 2539 0c5e 70000000 		.4byte	.LBB160
 2540 0c62 76000000 		.4byte	.LBE160
 2541 0c66 0A       		.byte	0xa
 2542 0c67 D001     		.2byte	0x1d0
 2543 0c69 2C       		.uleb128 0x2c
 2544 0c6a 60070000 		.4byte	0x760
 2545 0c6e 20       		.byte	0x20
 2546 0c6f 00       		.byte	0
 2547 0c70 00       		.byte	0
 2548 0c71 00       		.byte	0
 2549 0c72 00       		.byte	0
 2550 0c73 15       		.uleb128 0x15
 2551 0c74 41060000 		.4byte	0x641
 2552 0c78 830C0000 		.4byte	0xc83
ARM GAS  /tmp/cc0nWktl.s 			page 46


 2553 0c7c 16       		.uleb128 0x16
 2554 0c7d 3B000000 		.4byte	0x3b
 2555 0c81 0F       		.byte	0xf
 2556 0c82 00       		.byte	0
 2557 0c83 13       		.uleb128 0x13
 2558 0c84 730C0000 		.4byte	0xc73
 2559 0c88 34       		.uleb128 0x34
 2560 0c89 01       		.byte	0x1
 2561 0c8a 35040000 		.4byte	.LASF133
 2562 0c8e 01       		.byte	0x1
 2563 0c8f 1301     		.2byte	0x113
 2564 0c91 01       		.byte	0x1
 2565 0c92 00000000 		.4byte	.LFB187
 2566 0c96 1C000000 		.4byte	.LFE187
 2567 0c9a 1B020000 		.4byte	.LLST21
 2568 0c9e 1B0D0000 		.4byte	0xd1b
 2569 0ca2 35       		.uleb128 0x35
 2570 0ca3 6F717000 		.ascii	"oqp\000"
 2571 0ca7 01       		.byte	0x1
 2572 0ca8 1301     		.2byte	0x113
 2573 0caa 5C080000 		.4byte	0x85c
 2574 0cae 01       		.byte	0x1
 2575 0caf 50       		.byte	0x50
 2576 0cb0 35       		.uleb128 0x35
 2577 0cb1 627000   		.ascii	"bp\000"
 2578 0cb4 01       		.byte	0x1
 2579 0cb5 1301     		.2byte	0x113
 2580 0cb7 2B070000 		.4byte	0x72b
 2581 0cbb 01       		.byte	0x1
 2582 0cbc 51       		.byte	0x51
 2583 0cbd 36       		.uleb128 0x36
 2584 0cbe EA030000 		.4byte	.LASF124
 2585 0cc2 01       		.byte	0x1
 2586 0cc3 1301     		.2byte	0x113
 2587 0cc5 30000000 		.4byte	0x30
 2588 0cc9 01       		.byte	0x1
 2589 0cca 52       		.byte	0x52
 2590 0ccb 37       		.uleb128 0x37
 2591 0ccc 66000000 		.4byte	.LASF134
 2592 0cd0 01       		.byte	0x1
 2593 0cd1 1401     		.2byte	0x114
 2594 0cd3 03070000 		.4byte	0x703
 2595 0cd7 3B020000 		.4byte	.LLST22
 2596 0cdb 36       		.uleb128 0x36
 2597 0cdc 8E050000 		.4byte	.LASF126
 2598 0ce0 01       		.byte	0x1
 2599 0ce1 1401     		.2byte	0x114
 2600 0ce3 2B030000 		.4byte	0x32b
 2601 0ce7 02       		.byte	0x2
 2602 0ce8 91       		.byte	0x91
 2603 0ce9 00       		.sleb128 0
 2604 0cea 23       		.uleb128 0x23
 2605 0ceb A2070000 		.4byte	0x7a2
 2606 0cef 08000000 		.4byte	.LBB162
 2607 0cf3 0C000000 		.4byte	.LBE162
 2608 0cf7 01       		.byte	0x1
 2609 0cf8 1601     		.2byte	0x116
ARM GAS  /tmp/cc0nWktl.s 			page 47


 2610 0cfa 22       		.uleb128 0x22
 2611 0cfb B0070000 		.4byte	0x7b0
 2612 0cff 01       		.byte	0x1
 2613 0d00 50       		.byte	0x50
 2614 0d01 23       		.uleb128 0x23
 2615 0d02 81070000 		.4byte	0x781
 2616 0d06 08000000 		.4byte	.LBB163
 2617 0d0a 0C000000 		.4byte	.LBE163
 2618 0d0e 0E       		.byte	0xe
 2619 0d0f 1801     		.2byte	0x118
 2620 0d11 22       		.uleb128 0x22
 2621 0d12 8F070000 		.4byte	0x78f
 2622 0d16 01       		.byte	0x1
 2623 0d17 50       		.byte	0x50
 2624 0d18 00       		.byte	0
 2625 0d19 00       		.byte	0
 2626 0d1a 00       		.byte	0
 2627 0d1b 38       		.uleb128 0x38
 2628 0d1c 01       		.byte	0x1
 2629 0d1d AC010000 		.4byte	.LASF135
 2630 0d21 01       		.byte	0x1
 2631 0d22 2B01     		.2byte	0x12b
 2632 0d24 01       		.byte	0x1
 2633 0d25 00000000 		.4byte	.LFB188
 2634 0d29 14000000 		.4byte	.LFE188
 2635 0d2d 02       		.byte	0x2
 2636 0d2e 7D       		.byte	0x7d
 2637 0d2f 00       		.sleb128 0
 2638 0d30 450D0000 		.4byte	0xd45
 2639 0d34 39       		.uleb128 0x39
 2640 0d35 6F717000 		.ascii	"oqp\000"
 2641 0d39 01       		.byte	0x1
 2642 0d3a 2B01     		.2byte	0x12b
 2643 0d3c 5C080000 		.4byte	0x85c
 2644 0d40 5A020000 		.4byte	.LLST23
 2645 0d44 00       		.byte	0
 2646 0d45 3A       		.uleb128 0x3a
 2647 0d46 01       		.byte	0x1
 2648 0d47 93050000 		.4byte	.LASF136
 2649 0d4b 01       		.byte	0x1
 2650 0d4c 4B01     		.2byte	0x14b
 2651 0d4e 01       		.byte	0x1
 2652 0d4f E8000000 		.4byte	0xe8
 2653 0d53 00000000 		.4byte	.LFB189
 2654 0d57 4E000000 		.4byte	.LFE189
 2655 0d5b 6D020000 		.4byte	.LLST24
 2656 0d5f 980E0000 		.4byte	0xe98
 2657 0d63 39       		.uleb128 0x39
 2658 0d64 6F717000 		.ascii	"oqp\000"
 2659 0d68 01       		.byte	0x1
 2660 0d69 4B01     		.2byte	0x14b
 2661 0d6b 5C080000 		.4byte	0x85c
 2662 0d6f 8D020000 		.4byte	.LLST25
 2663 0d73 39       		.uleb128 0x39
 2664 0d74 6200     		.ascii	"b\000"
 2665 0d76 01       		.byte	0x1
 2666 0d77 4B01     		.2byte	0x14b
ARM GAS  /tmp/cc0nWktl.s 			page 48


 2667 0d79 49000000 		.4byte	0x49
 2668 0d7d AB020000 		.4byte	.LLST26
 2669 0d81 37       		.uleb128 0x37
 2670 0d82 4D040000 		.4byte	.LASF131
 2671 0d86 01       		.byte	0x1
 2672 0d87 4B01     		.2byte	0x14b
 2673 0d89 09010000 		.4byte	0x109
 2674 0d8d BE020000 		.4byte	.LLST27
 2675 0d91 3B       		.uleb128 0x3b
 2676 0d92 E2070000 		.4byte	0x7e2
 2677 0d96 08000000 		.4byte	.LBB165
 2678 0d9a 0E000000 		.4byte	.LBE165
 2679 0d9e 01       		.byte	0x1
 2680 0d9f 4D01     		.2byte	0x14d
 2681 0da1 CE0D0000 		.4byte	0xdce
 2682 0da5 23       		.uleb128 0x23
 2683 0da6 6D070000 		.4byte	0x76d
 2684 0daa 08000000 		.4byte	.LBB166
 2685 0dae 0E000000 		.4byte	.LBE166
 2686 0db2 0F       		.byte	0xf
 2687 0db3 5C01     		.2byte	0x15c
 2688 0db5 23       		.uleb128 0x23
 2689 0db6 52070000 		.4byte	0x752
 2690 0dba 08000000 		.4byte	.LBB167
 2691 0dbe 0E000000 		.4byte	.LBE167
 2692 0dc2 0A       		.byte	0xa
 2693 0dc3 D001     		.2byte	0x1d0
 2694 0dc5 2C       		.uleb128 0x2c
 2695 0dc6 60070000 		.4byte	0x760
 2696 0dca 20       		.byte	0x20
 2697 0dcb 00       		.byte	0
 2698 0dcc 00       		.byte	0
 2699 0dcd 00       		.byte	0
 2700 0dce 3B       		.uleb128 0x3b
 2701 0dcf 3D080000 		.4byte	0x83d
 2702 0dd3 0E000000 		.4byte	.LBB169
 2703 0dd7 10000000 		.4byte	.LBE169
 2704 0ddb 01       		.byte	0x1
 2705 0ddc 4E01     		.2byte	0x14e
 2706 0dde EA0D0000 		.4byte	0xdea
 2707 0de2 22       		.uleb128 0x22
 2708 0de3 4F080000 		.4byte	0x84f
 2709 0de7 01       		.byte	0x1
 2710 0de8 54       		.byte	0x54
 2711 0de9 00       		.byte	0
 2712 0dea 2E       		.uleb128 0x2e
 2713 0deb D8000000 		.4byte	.Ldebug_ranges0+0xd8
 2714 0def 4F0E0000 		.4byte	0xe4f
 2715 0df3 3C       		.uleb128 0x3c
 2716 0df4 6D736700 		.ascii	"msg\000"
 2717 0df8 01       		.byte	0x1
 2718 0df9 4F01     		.2byte	0x14f
 2719 0dfb E8000000 		.4byte	0xe8
 2720 0dff D1020000 		.4byte	.LLST28
 2721 0e03 23       		.uleb128 0x23
 2722 0e04 EC070000 		.4byte	0x7ec
 2723 0e08 1E000000 		.4byte	.LBB172
ARM GAS  /tmp/cc0nWktl.s 			page 49


 2724 0e0c 22000000 		.4byte	.LBE172
 2725 0e10 01       		.byte	0x1
 2726 0e11 5101     		.2byte	0x151
 2727 0e13 30       		.uleb128 0x30
 2728 0e14 1E000000 		.4byte	.LBB173
 2729 0e18 22000000 		.4byte	.LBE173
 2730 0e1c 31       		.uleb128 0x31
 2731 0e1d FA070000 		.4byte	0x7fa
 2732 0e21 23       		.uleb128 0x23
 2733 0e22 77070000 		.4byte	0x777
 2734 0e26 1E000000 		.4byte	.LBB174
 2735 0e2a 22000000 		.4byte	.LBE174
 2736 0e2e 0F       		.byte	0xf
 2737 0e2f 7301     		.2byte	0x173
 2738 0e31 23       		.uleb128 0x23
 2739 0e32 52070000 		.4byte	0x752
 2740 0e36 1E000000 		.4byte	.LBB175
 2741 0e3a 22000000 		.4byte	.LBE175
 2742 0e3e 0A       		.byte	0xa
 2743 0e3f E301     		.2byte	0x1e3
 2744 0e41 28       		.uleb128 0x28
 2745 0e42 60070000 		.4byte	0x760
 2746 0e46 E4020000 		.4byte	.LLST29
 2747 0e4a 00       		.byte	0
 2748 0e4b 00       		.byte	0
 2749 0e4c 00       		.byte	0
 2750 0e4d 00       		.byte	0
 2751 0e4e 00       		.byte	0
 2752 0e4f 23       		.uleb128 0x23
 2753 0e50 EC070000 		.4byte	0x7ec
 2754 0e54 46000000 		.4byte	.LBB178
 2755 0e58 4C000000 		.4byte	.LBE178
 2756 0e5c 01       		.byte	0x1
 2757 0e5d 5F01     		.2byte	0x15f
 2758 0e5f 30       		.uleb128 0x30
 2759 0e60 46000000 		.4byte	.LBB179
 2760 0e64 4C000000 		.4byte	.LBE179
 2761 0e68 31       		.uleb128 0x31
 2762 0e69 FA070000 		.4byte	0x7fa
 2763 0e6d 23       		.uleb128 0x23
 2764 0e6e 77070000 		.4byte	0x777
 2765 0e72 46000000 		.4byte	.LBB180
 2766 0e76 4C000000 		.4byte	.LBE180
 2767 0e7a 0F       		.byte	0xf
 2768 0e7b 7301     		.2byte	0x173
 2769 0e7d 23       		.uleb128 0x23
 2770 0e7e 52070000 		.4byte	0x752
 2771 0e82 46000000 		.4byte	.LBB181
 2772 0e86 4C000000 		.4byte	.LBE181
 2773 0e8a 0A       		.byte	0xa
 2774 0e8b E301     		.2byte	0x1e3
 2775 0e8d 2C       		.uleb128 0x2c
 2776 0e8e 60070000 		.4byte	0x760
 2777 0e92 00       		.byte	0
 2778 0e93 00       		.byte	0
 2779 0e94 00       		.byte	0
 2780 0e95 00       		.byte	0
ARM GAS  /tmp/cc0nWktl.s 			page 50


 2781 0e96 00       		.byte	0
 2782 0e97 00       		.byte	0
 2783 0e98 3A       		.uleb128 0x3a
 2784 0e99 01       		.byte	0x1
 2785 0e9a EE040000 		.4byte	.LASF137
 2786 0e9e 01       		.byte	0x1
 2787 0e9f 6E01     		.2byte	0x16e
 2788 0ea1 01       		.byte	0x1
 2789 0ea2 E8000000 		.4byte	0xe8
 2790 0ea6 00000000 		.4byte	.LFB190
 2791 0eaa 36000000 		.4byte	.LFE190
 2792 0eae F8020000 		.4byte	.LLST30
 2793 0eb2 EF0E0000 		.4byte	0xeef
 2794 0eb6 39       		.uleb128 0x39
 2795 0eb7 6F717000 		.ascii	"oqp\000"
 2796 0ebb 01       		.byte	0x1
 2797 0ebc 6E01     		.2byte	0x16e
 2798 0ebe 5C080000 		.4byte	0x85c
 2799 0ec2 18030000 		.4byte	.LLST31
 2800 0ec6 3C       		.uleb128 0x3c
 2801 0ec7 6200     		.ascii	"b\000"
 2802 0ec9 01       		.byte	0x1
 2803 0eca 6F01     		.2byte	0x16f
 2804 0ecc 49000000 		.4byte	0x49
 2805 0ed0 36030000 		.4byte	.LLST32
 2806 0ed4 2B       		.uleb128 0x2b
 2807 0ed5 62080000 		.4byte	0x862
 2808 0ed9 00000000 		.4byte	.LBB183
 2809 0edd F0000000 		.4byte	.Ldebug_ranges0+0xf0
 2810 0ee1 01       		.byte	0x1
 2811 0ee2 7301     		.2byte	0x173
 2812 0ee4 28       		.uleb128 0x28
 2813 0ee5 74080000 		.4byte	0x874
 2814 0ee9 18030000 		.4byte	.LLST31
 2815 0eed 00       		.byte	0
 2816 0eee 00       		.byte	0
 2817 0eef 3A       		.uleb128 0x3a
 2818 0ef0 01       		.byte	0x1
 2819 0ef1 2C020000 		.4byte	.LASF138
 2820 0ef5 01       		.byte	0x1
 2821 0ef6 9A01     		.2byte	0x19a
 2822 0ef8 01       		.byte	0x1
 2823 0ef9 30000000 		.4byte	0x30
 2824 0efd 00000000 		.4byte	.LFB191
 2825 0f01 7A000000 		.4byte	.LFE191
 2826 0f05 49030000 		.4byte	.LLST34
 2827 0f09 A2100000 		.4byte	0x10a2
 2828 0f0d 39       		.uleb128 0x39
 2829 0f0e 6F717000 		.ascii	"oqp\000"
 2830 0f12 01       		.byte	0x1
 2831 0f13 9A01     		.2byte	0x19a
 2832 0f15 5C080000 		.4byte	0x85c
 2833 0f19 75030000 		.4byte	.LLST35
 2834 0f1d 39       		.uleb128 0x39
 2835 0f1e 627000   		.ascii	"bp\000"
 2836 0f21 01       		.byte	0x1
 2837 0f22 9A01     		.2byte	0x19a
ARM GAS  /tmp/cc0nWktl.s 			page 51


 2838 0f24 47070000 		.4byte	0x747
 2839 0f28 93030000 		.4byte	.LLST36
 2840 0f2c 39       		.uleb128 0x39
 2841 0f2d 6E00     		.ascii	"n\000"
 2842 0f2f 01       		.byte	0x1
 2843 0f30 9B01     		.2byte	0x19b
 2844 0f32 30000000 		.4byte	0x30
 2845 0f36 C9030000 		.4byte	.LLST37
 2846 0f3a 37       		.uleb128 0x37
 2847 0f3b 4D040000 		.4byte	.LASF131
 2848 0f3f 01       		.byte	0x1
 2849 0f40 9B01     		.2byte	0x19b
 2850 0f42 09010000 		.4byte	0x109
 2851 0f46 FF030000 		.4byte	.LLST38
 2852 0f4a 3C       		.uleb128 0x3c
 2853 0f4b 6E667900 		.ascii	"nfy\000"
 2854 0f4f 01       		.byte	0x1
 2855 0f50 9C01     		.2byte	0x19c
 2856 0f52 03070000 		.4byte	0x703
 2857 0f56 12040000 		.4byte	.LLST39
 2858 0f5a 3C       		.uleb128 0x3c
 2859 0f5b 7700     		.ascii	"w\000"
 2860 0f5d 01       		.byte	0x1
 2861 0f5e 9D01     		.2byte	0x19d
 2862 0f60 30000000 		.4byte	0x30
 2863 0f64 31040000 		.4byte	.LLST40
 2864 0f68 32       		.uleb128 0x32
 2865 0f69 5D040000 		.4byte	.LASF139
 2866 0f6d B2100000 		.4byte	0x10b2
 2867 0f71 01       		.byte	0x1
 2868 0f72 3B       		.uleb128 0x3b
 2869 0f73 E2070000 		.4byte	0x7e2
 2870 0f77 12000000 		.4byte	.LBB189
 2871 0f7b 1E000000 		.4byte	.LBE189
 2872 0f7f 01       		.byte	0x1
 2873 0f80 A101     		.2byte	0x1a1
 2874 0f82 AF0F0000 		.4byte	0xfaf
 2875 0f86 23       		.uleb128 0x23
 2876 0f87 6D070000 		.4byte	0x76d
 2877 0f8b 12000000 		.4byte	.LBB190
 2878 0f8f 1E000000 		.4byte	.LBE190
 2879 0f93 0F       		.byte	0xf
 2880 0f94 5C01     		.2byte	0x15c
 2881 0f96 23       		.uleb128 0x23
 2882 0f97 52070000 		.4byte	0x752
 2883 0f9b 12000000 		.4byte	.LBB191
 2884 0f9f 1E000000 		.4byte	.LBE191
 2885 0fa3 0A       		.byte	0xa
 2886 0fa4 D001     		.2byte	0x1d0
 2887 0fa6 2C       		.uleb128 0x2c
 2888 0fa7 60070000 		.4byte	0x760
 2889 0fab 20       		.byte	0x20
 2890 0fac 00       		.byte	0
 2891 0fad 00       		.byte	0
 2892 0fae 00       		.byte	0
 2893 0faf 3D       		.uleb128 0x3d
 2894 0fb0 EC070000 		.4byte	0x7ec
ARM GAS  /tmp/cc0nWktl.s 			page 52


 2895 0fb4 1E000000 		.4byte	.LBB193
 2896 0fb8 10010000 		.4byte	.Ldebug_ranges0+0x110
 2897 0fbc 01       		.byte	0x1
 2898 0fbd B301     		.2byte	0x1b3
 2899 0fbf FA0F0000 		.4byte	0xffa
 2900 0fc3 33       		.uleb128 0x33
 2901 0fc4 28010000 		.4byte	.Ldebug_ranges0+0x128
 2902 0fc8 31       		.uleb128 0x31
 2903 0fc9 FA070000 		.4byte	0x7fa
 2904 0fcd 2B       		.uleb128 0x2b
 2905 0fce 77070000 		.4byte	0x777
 2906 0fd2 1E000000 		.4byte	.LBB195
 2907 0fd6 40010000 		.4byte	.Ldebug_ranges0+0x140
 2908 0fda 0F       		.byte	0xf
 2909 0fdb 7301     		.2byte	0x173
 2910 0fdd 2B       		.uleb128 0x2b
 2911 0fde 52070000 		.4byte	0x752
 2912 0fe2 1E000000 		.4byte	.LBB196
 2913 0fe6 58010000 		.4byte	.Ldebug_ranges0+0x158
 2914 0fea 0A       		.byte	0xa
 2915 0feb E301     		.2byte	0x1e3
 2916 0fed 28       		.uleb128 0x28
 2917 0fee 60070000 		.4byte	0x760
 2918 0ff2 50040000 		.4byte	.LLST41
 2919 0ff6 00       		.byte	0
 2920 0ff7 00       		.byte	0
 2921 0ff8 00       		.byte	0
 2922 0ff9 00       		.byte	0
 2923 0ffa 3D       		.uleb128 0x3d
 2924 0ffb 3D080000 		.4byte	0x83d
 2925 0fff 20000000 		.4byte	.LBB202
 2926 1003 70010000 		.4byte	.Ldebug_ranges0+0x170
 2927 1007 01       		.byte	0x1
 2928 1008 A301     		.2byte	0x1a3
 2929 100a 16100000 		.4byte	0x1016
 2930 100e 22       		.uleb128 0x22
 2931 100f 4F080000 		.4byte	0x84f
 2932 1013 01       		.byte	0x1
 2933 1014 54       		.byte	0x54
 2934 1015 00       		.byte	0
 2935 1016 3B       		.uleb128 0x3b
 2936 1017 E2070000 		.4byte	0x7e2
 2937 101b 56000000 		.4byte	.LBB206
 2938 101f 5A000000 		.4byte	.LBE206
 2939 1023 01       		.byte	0x1
 2940 1024 B901     		.2byte	0x1b9
 2941 1026 56100000 		.4byte	0x1056
 2942 102a 23       		.uleb128 0x23
 2943 102b 6D070000 		.4byte	0x76d
 2944 102f 56000000 		.4byte	.LBB207
 2945 1033 5A000000 		.4byte	.LBE207
 2946 1037 0F       		.byte	0xf
 2947 1038 5C01     		.2byte	0x15c
 2948 103a 23       		.uleb128 0x23
 2949 103b 52070000 		.4byte	0x752
 2950 103f 56000000 		.4byte	.LBB208
 2951 1043 5A000000 		.4byte	.LBE208
ARM GAS  /tmp/cc0nWktl.s 			page 53


 2952 1047 0A       		.byte	0xa
 2953 1048 D001     		.2byte	0x1d0
 2954 104a 28       		.uleb128 0x28
 2955 104b 60070000 		.4byte	0x760
 2956 104f 64040000 		.4byte	.LLST42
 2957 1053 00       		.byte	0
 2958 1054 00       		.byte	0
 2959 1055 00       		.byte	0
 2960 1056 23       		.uleb128 0x23
 2961 1057 EC070000 		.4byte	0x7ec
 2962 105b 6E000000 		.4byte	.LBB211
 2963 105f 72000000 		.4byte	.LBE211
 2964 1063 01       		.byte	0x1
 2965 1064 A501     		.2byte	0x1a5
 2966 1066 30       		.uleb128 0x30
 2967 1067 6E000000 		.4byte	.LBB212
 2968 106b 72000000 		.4byte	.LBE212
 2969 106f 31       		.uleb128 0x31
 2970 1070 FA070000 		.4byte	0x7fa
 2971 1074 23       		.uleb128 0x23
 2972 1075 77070000 		.4byte	0x777
 2973 1079 6E000000 		.4byte	.LBB213
 2974 107d 72000000 		.4byte	.LBE213
 2975 1081 0F       		.byte	0xf
 2976 1082 7301     		.2byte	0x173
 2977 1084 23       		.uleb128 0x23
 2978 1085 52070000 		.4byte	0x752
 2979 1089 6E000000 		.4byte	.LBB214
 2980 108d 72000000 		.4byte	.LBE214
 2981 1091 0A       		.byte	0xa
 2982 1092 E301     		.2byte	0x1e3
 2983 1094 28       		.uleb128 0x28
 2984 1095 60070000 		.4byte	0x760
 2985 1099 79040000 		.4byte	.LLST43
 2986 109d 00       		.byte	0
 2987 109e 00       		.byte	0
 2988 109f 00       		.byte	0
 2989 10a0 00       		.byte	0
 2990 10a1 00       		.byte	0
 2991 10a2 15       		.uleb128 0x15
 2992 10a3 41060000 		.4byte	0x641
 2993 10a7 B2100000 		.4byte	0x10b2
 2994 10ab 16       		.uleb128 0x16
 2995 10ac 3B000000 		.4byte	0x3b
 2996 10b0 10       		.byte	0x10
 2997 10b1 00       		.byte	0
 2998 10b2 13       		.uleb128 0x13
 2999 10b3 A2100000 		.4byte	0x10a2
 3000 10b7 3E       		.uleb128 0x3e
 3001 10b8 AD040000 		.4byte	.LASF140
 3002 10bc 10       		.byte	0x10
 3003 10bd 5506     		.2byte	0x655
 3004 10bf C5100000 		.4byte	0x10c5
 3005 10c3 01       		.byte	0x1
 3006 10c4 01       		.byte	0x1
 3007 10c5 14       		.uleb128 0x14
 3008 10c6 74000000 		.4byte	0x74
ARM GAS  /tmp/cc0nWktl.s 			page 54


 3009 10ca 3F       		.uleb128 0x3f
 3010 10cb 636800   		.ascii	"ch\000"
 3011 10ce 02       		.byte	0x2
 3012 10cf 0902     		.2byte	0x209
 3013 10d1 0E040000 		.4byte	0x40e
 3014 10d5 01       		.byte	0x1
 3015 10d6 01       		.byte	0x1
 3016 10d7 3E       		.uleb128 0x3e
 3017 10d8 AD040000 		.4byte	.LASF140
 3018 10dc 10       		.byte	0x10
 3019 10dd 5506     		.2byte	0x655
 3020 10df C5100000 		.4byte	0x10c5
 3021 10e3 01       		.byte	0x1
 3022 10e4 01       		.byte	0x1
 3023 10e5 3F       		.uleb128 0x3f
 3024 10e6 636800   		.ascii	"ch\000"
 3025 10e9 02       		.byte	0x2
 3026 10ea 0902     		.2byte	0x209
 3027 10ec 0E040000 		.4byte	0x40e
 3028 10f0 01       		.byte	0x1
 3029 10f1 01       		.byte	0x1
 3030 10f2 00       		.byte	0
 3031              		.section	.debug_abbrev,"",%progbits
 3032              	.Ldebug_abbrev0:
 3033 0000 01       		.uleb128 0x1
 3034 0001 11       		.uleb128 0x11
 3035 0002 01       		.byte	0x1
 3036 0003 25       		.uleb128 0x25
 3037 0004 0E       		.uleb128 0xe
 3038 0005 13       		.uleb128 0x13
 3039 0006 0B       		.uleb128 0xb
 3040 0007 03       		.uleb128 0x3
 3041 0008 0E       		.uleb128 0xe
 3042 0009 1B       		.uleb128 0x1b
 3043 000a 0E       		.uleb128 0xe
 3044 000b 11       		.uleb128 0x11
 3045 000c 01       		.uleb128 0x1
 3046 000d 52       		.uleb128 0x52
 3047 000e 01       		.uleb128 0x1
 3048 000f 55       		.uleb128 0x55
 3049 0010 06       		.uleb128 0x6
 3050 0011 10       		.uleb128 0x10
 3051 0012 06       		.uleb128 0x6
 3052 0013 00       		.byte	0
 3053 0014 00       		.byte	0
 3054 0015 02       		.uleb128 0x2
 3055 0016 24       		.uleb128 0x24
 3056 0017 00       		.byte	0
 3057 0018 0B       		.uleb128 0xb
 3058 0019 0B       		.uleb128 0xb
 3059 001a 3E       		.uleb128 0x3e
 3060 001b 0B       		.uleb128 0xb
 3061 001c 03       		.uleb128 0x3
 3062 001d 08       		.uleb128 0x8
 3063 001e 00       		.byte	0
 3064 001f 00       		.byte	0
 3065 0020 03       		.uleb128 0x3
ARM GAS  /tmp/cc0nWktl.s 			page 55


 3066 0021 16       		.uleb128 0x16
 3067 0022 00       		.byte	0
 3068 0023 03       		.uleb128 0x3
 3069 0024 0E       		.uleb128 0xe
 3070 0025 3A       		.uleb128 0x3a
 3071 0026 0B       		.uleb128 0xb
 3072 0027 3B       		.uleb128 0x3b
 3073 0028 0B       		.uleb128 0xb
 3074 0029 49       		.uleb128 0x49
 3075 002a 13       		.uleb128 0x13
 3076 002b 00       		.byte	0
 3077 002c 00       		.byte	0
 3078 002d 04       		.uleb128 0x4
 3079 002e 24       		.uleb128 0x24
 3080 002f 00       		.byte	0
 3081 0030 0B       		.uleb128 0xb
 3082 0031 0B       		.uleb128 0xb
 3083 0032 3E       		.uleb128 0x3e
 3084 0033 0B       		.uleb128 0xb
 3085 0034 03       		.uleb128 0x3
 3086 0035 0E       		.uleb128 0xe
 3087 0036 00       		.byte	0
 3088 0037 00       		.byte	0
 3089 0038 05       		.uleb128 0x5
 3090 0039 13       		.uleb128 0x13
 3091 003a 01       		.byte	0x1
 3092 003b 03       		.uleb128 0x3
 3093 003c 0E       		.uleb128 0xe
 3094 003d 0B       		.uleb128 0xb
 3095 003e 0B       		.uleb128 0xb
 3096 003f 3A       		.uleb128 0x3a
 3097 0040 0B       		.uleb128 0xb
 3098 0041 3B       		.uleb128 0x3b
 3099 0042 0B       		.uleb128 0xb
 3100 0043 01       		.uleb128 0x1
 3101 0044 13       		.uleb128 0x13
 3102 0045 00       		.byte	0
 3103 0046 00       		.byte	0
 3104 0047 06       		.uleb128 0x6
 3105 0048 0D       		.uleb128 0xd
 3106 0049 00       		.byte	0
 3107 004a 03       		.uleb128 0x3
 3108 004b 0E       		.uleb128 0xe
 3109 004c 3A       		.uleb128 0x3a
 3110 004d 0B       		.uleb128 0xb
 3111 004e 3B       		.uleb128 0x3b
 3112 004f 0B       		.uleb128 0xb
 3113 0050 49       		.uleb128 0x49
 3114 0051 13       		.uleb128 0x13
 3115 0052 38       		.uleb128 0x38
 3116 0053 0A       		.uleb128 0xa
 3117 0054 00       		.byte	0
 3118 0055 00       		.byte	0
 3119 0056 07       		.uleb128 0x7
 3120 0057 0D       		.uleb128 0xd
 3121 0058 00       		.byte	0
 3122 0059 03       		.uleb128 0x3
ARM GAS  /tmp/cc0nWktl.s 			page 56


 3123 005a 08       		.uleb128 0x8
 3124 005b 3A       		.uleb128 0x3a
 3125 005c 0B       		.uleb128 0xb
 3126 005d 3B       		.uleb128 0x3b
 3127 005e 05       		.uleb128 0x5
 3128 005f 49       		.uleb128 0x49
 3129 0060 13       		.uleb128 0x13
 3130 0061 38       		.uleb128 0x38
 3131 0062 0A       		.uleb128 0xa
 3132 0063 00       		.byte	0
 3133 0064 00       		.byte	0
 3134 0065 08       		.uleb128 0x8
 3135 0066 0D       		.uleb128 0xd
 3136 0067 00       		.byte	0
 3137 0068 03       		.uleb128 0x3
 3138 0069 0E       		.uleb128 0xe
 3139 006a 3A       		.uleb128 0x3a
 3140 006b 0B       		.uleb128 0xb
 3141 006c 3B       		.uleb128 0x3b
 3142 006d 05       		.uleb128 0x5
 3143 006e 49       		.uleb128 0x49
 3144 006f 13       		.uleb128 0x13
 3145 0070 38       		.uleb128 0x38
 3146 0071 0A       		.uleb128 0xa
 3147 0072 00       		.byte	0
 3148 0073 00       		.byte	0
 3149 0074 09       		.uleb128 0x9
 3150 0075 0F       		.uleb128 0xf
 3151 0076 00       		.byte	0
 3152 0077 0B       		.uleb128 0xb
 3153 0078 0B       		.uleb128 0xb
 3154 0079 49       		.uleb128 0x49
 3155 007a 13       		.uleb128 0x13
 3156 007b 00       		.byte	0
 3157 007c 00       		.byte	0
 3158 007d 0A       		.uleb128 0xa
 3159 007e 13       		.uleb128 0x13
 3160 007f 01       		.byte	0x1
 3161 0080 03       		.uleb128 0x3
 3162 0081 0E       		.uleb128 0xe
 3163 0082 0B       		.uleb128 0xb
 3164 0083 0B       		.uleb128 0xb
 3165 0084 3A       		.uleb128 0x3a
 3166 0085 0B       		.uleb128 0xb
 3167 0086 3B       		.uleb128 0x3b
 3168 0087 05       		.uleb128 0x5
 3169 0088 01       		.uleb128 0x1
 3170 0089 13       		.uleb128 0x13
 3171 008a 00       		.byte	0
 3172 008b 00       		.byte	0
 3173 008c 0B       		.uleb128 0xb
 3174 008d 15       		.uleb128 0x15
 3175 008e 01       		.byte	0x1
 3176 008f 27       		.uleb128 0x27
 3177 0090 0C       		.uleb128 0xc
 3178 0091 01       		.uleb128 0x1
 3179 0092 13       		.uleb128 0x13
ARM GAS  /tmp/cc0nWktl.s 			page 57


 3180 0093 00       		.byte	0
 3181 0094 00       		.byte	0
 3182 0095 0C       		.uleb128 0xc
 3183 0096 05       		.uleb128 0x5
 3184 0097 00       		.byte	0
 3185 0098 49       		.uleb128 0x49
 3186 0099 13       		.uleb128 0x13
 3187 009a 00       		.byte	0
 3188 009b 00       		.byte	0
 3189 009c 0D       		.uleb128 0xd
 3190 009d 0F       		.uleb128 0xf
 3191 009e 00       		.byte	0
 3192 009f 0B       		.uleb128 0xb
 3193 00a0 0B       		.uleb128 0xb
 3194 00a1 00       		.byte	0
 3195 00a2 00       		.byte	0
 3196 00a3 0E       		.uleb128 0xe
 3197 00a4 13       		.uleb128 0x13
 3198 00a5 01       		.byte	0x1
 3199 00a6 03       		.uleb128 0x3
 3200 00a7 0E       		.uleb128 0xe
 3201 00a8 0B       		.uleb128 0xb
 3202 00a9 05       		.uleb128 0x5
 3203 00aa 3A       		.uleb128 0x3a
 3204 00ab 0B       		.uleb128 0xb
 3205 00ac 3B       		.uleb128 0x3b
 3206 00ad 05       		.uleb128 0x5
 3207 00ae 01       		.uleb128 0x1
 3208 00af 13       		.uleb128 0x13
 3209 00b0 00       		.byte	0
 3210 00b1 00       		.byte	0
 3211 00b2 0F       		.uleb128 0xf
 3212 00b3 0D       		.uleb128 0xd
 3213 00b4 00       		.byte	0
 3214 00b5 03       		.uleb128 0x3
 3215 00b6 08       		.uleb128 0x8
 3216 00b7 3A       		.uleb128 0x3a
 3217 00b8 0B       		.uleb128 0xb
 3218 00b9 3B       		.uleb128 0x3b
 3219 00ba 0B       		.uleb128 0xb
 3220 00bb 49       		.uleb128 0x49
 3221 00bc 13       		.uleb128 0x13
 3222 00bd 38       		.uleb128 0x38
 3223 00be 0A       		.uleb128 0xa
 3224 00bf 00       		.byte	0
 3225 00c0 00       		.byte	0
 3226 00c1 10       		.uleb128 0x10
 3227 00c2 13       		.uleb128 0x13
 3228 00c3 01       		.byte	0x1
 3229 00c4 0B       		.uleb128 0xb
 3230 00c5 0B       		.uleb128 0xb
 3231 00c6 3A       		.uleb128 0x3a
 3232 00c7 0B       		.uleb128 0xb
 3233 00c8 3B       		.uleb128 0x3b
 3234 00c9 0B       		.uleb128 0xb
 3235 00ca 01       		.uleb128 0x1
 3236 00cb 13       		.uleb128 0x13
ARM GAS  /tmp/cc0nWktl.s 			page 58


 3237 00cc 00       		.byte	0
 3238 00cd 00       		.byte	0
 3239 00ce 11       		.uleb128 0x11
 3240 00cf 17       		.uleb128 0x17
 3241 00d0 01       		.byte	0x1
 3242 00d1 0B       		.uleb128 0xb
 3243 00d2 0B       		.uleb128 0xb
 3244 00d3 3A       		.uleb128 0x3a
 3245 00d4 0B       		.uleb128 0xb
 3246 00d5 3B       		.uleb128 0x3b
 3247 00d6 0B       		.uleb128 0xb
 3248 00d7 01       		.uleb128 0x1
 3249 00d8 13       		.uleb128 0x13
 3250 00d9 00       		.byte	0
 3251 00da 00       		.byte	0
 3252 00db 12       		.uleb128 0x12
 3253 00dc 0D       		.uleb128 0xd
 3254 00dd 00       		.byte	0
 3255 00de 03       		.uleb128 0x3
 3256 00df 0E       		.uleb128 0xe
 3257 00e0 3A       		.uleb128 0x3a
 3258 00e1 0B       		.uleb128 0xb
 3259 00e2 3B       		.uleb128 0x3b
 3260 00e3 05       		.uleb128 0x5
 3261 00e4 49       		.uleb128 0x49
 3262 00e5 13       		.uleb128 0x13
 3263 00e6 00       		.byte	0
 3264 00e7 00       		.byte	0
 3265 00e8 13       		.uleb128 0x13
 3266 00e9 26       		.uleb128 0x26
 3267 00ea 00       		.byte	0
 3268 00eb 49       		.uleb128 0x49
 3269 00ec 13       		.uleb128 0x13
 3270 00ed 00       		.byte	0
 3271 00ee 00       		.byte	0
 3272 00ef 14       		.uleb128 0x14
 3273 00f0 35       		.uleb128 0x35
 3274 00f1 00       		.byte	0
 3275 00f2 49       		.uleb128 0x49
 3276 00f3 13       		.uleb128 0x13
 3277 00f4 00       		.byte	0
 3278 00f5 00       		.byte	0
 3279 00f6 15       		.uleb128 0x15
 3280 00f7 01       		.uleb128 0x1
 3281 00f8 01       		.byte	0x1
 3282 00f9 49       		.uleb128 0x49
 3283 00fa 13       		.uleb128 0x13
 3284 00fb 01       		.uleb128 0x1
 3285 00fc 13       		.uleb128 0x13
 3286 00fd 00       		.byte	0
 3287 00fe 00       		.byte	0
 3288 00ff 16       		.uleb128 0x16
 3289 0100 21       		.uleb128 0x21
 3290 0101 00       		.byte	0
 3291 0102 49       		.uleb128 0x49
 3292 0103 13       		.uleb128 0x13
 3293 0104 2F       		.uleb128 0x2f
ARM GAS  /tmp/cc0nWktl.s 			page 59


 3294 0105 0B       		.uleb128 0xb
 3295 0106 00       		.byte	0
 3296 0107 00       		.byte	0
 3297 0108 17       		.uleb128 0x17
 3298 0109 2E       		.uleb128 0x2e
 3299 010a 01       		.byte	0x1
 3300 010b 03       		.uleb128 0x3
 3301 010c 0E       		.uleb128 0xe
 3302 010d 3A       		.uleb128 0x3a
 3303 010e 0B       		.uleb128 0xb
 3304 010f 3B       		.uleb128 0x3b
 3305 0110 05       		.uleb128 0x5
 3306 0111 27       		.uleb128 0x27
 3307 0112 0C       		.uleb128 0xc
 3308 0113 20       		.uleb128 0x20
 3309 0114 0B       		.uleb128 0xb
 3310 0115 01       		.uleb128 0x1
 3311 0116 13       		.uleb128 0x13
 3312 0117 00       		.byte	0
 3313 0118 00       		.byte	0
 3314 0119 18       		.uleb128 0x18
 3315 011a 05       		.uleb128 0x5
 3316 011b 00       		.byte	0
 3317 011c 03       		.uleb128 0x3
 3318 011d 0E       		.uleb128 0xe
 3319 011e 3A       		.uleb128 0x3a
 3320 011f 0B       		.uleb128 0xb
 3321 0120 3B       		.uleb128 0x3b
 3322 0121 05       		.uleb128 0x5
 3323 0122 49       		.uleb128 0x49
 3324 0123 13       		.uleb128 0x13
 3325 0124 00       		.byte	0
 3326 0125 00       		.byte	0
 3327 0126 19       		.uleb128 0x19
 3328 0127 2E       		.uleb128 0x2e
 3329 0128 00       		.byte	0
 3330 0129 03       		.uleb128 0x3
 3331 012a 0E       		.uleb128 0xe
 3332 012b 3A       		.uleb128 0x3a
 3333 012c 0B       		.uleb128 0xb
 3334 012d 3B       		.uleb128 0x3b
 3335 012e 05       		.uleb128 0x5
 3336 012f 27       		.uleb128 0x27
 3337 0130 0C       		.uleb128 0xc
 3338 0131 20       		.uleb128 0x20
 3339 0132 0B       		.uleb128 0xb
 3340 0133 00       		.byte	0
 3341 0134 00       		.byte	0
 3342 0135 1A       		.uleb128 0x1a
 3343 0136 05       		.uleb128 0x5
 3344 0137 00       		.byte	0
 3345 0138 03       		.uleb128 0x3
 3346 0139 08       		.uleb128 0x8
 3347 013a 3A       		.uleb128 0x3a
 3348 013b 0B       		.uleb128 0xb
 3349 013c 3B       		.uleb128 0x3b
 3350 013d 05       		.uleb128 0x5
ARM GAS  /tmp/cc0nWktl.s 			page 60


 3351 013e 49       		.uleb128 0x49
 3352 013f 13       		.uleb128 0x13
 3353 0140 00       		.byte	0
 3354 0141 00       		.byte	0
 3355 0142 1B       		.uleb128 0x1b
 3356 0143 2E       		.uleb128 0x2e
 3357 0144 01       		.byte	0x1
 3358 0145 03       		.uleb128 0x3
 3359 0146 0E       		.uleb128 0xe
 3360 0147 3A       		.uleb128 0x3a
 3361 0148 0B       		.uleb128 0xb
 3362 0149 3B       		.uleb128 0x3b
 3363 014a 05       		.uleb128 0x5
 3364 014b 27       		.uleb128 0x27
 3365 014c 0C       		.uleb128 0xc
 3366 014d 49       		.uleb128 0x49
 3367 014e 13       		.uleb128 0x13
 3368 014f 20       		.uleb128 0x20
 3369 0150 0B       		.uleb128 0xb
 3370 0151 01       		.uleb128 0x1
 3371 0152 13       		.uleb128 0x13
 3372 0153 00       		.byte	0
 3373 0154 00       		.byte	0
 3374 0155 1C       		.uleb128 0x1c
 3375 0156 34       		.uleb128 0x34
 3376 0157 00       		.byte	0
 3377 0158 03       		.uleb128 0x3
 3378 0159 0E       		.uleb128 0xe
 3379 015a 49       		.uleb128 0x49
 3380 015b 13       		.uleb128 0x13
 3381 015c 34       		.uleb128 0x34
 3382 015d 0C       		.uleb128 0xc
 3383 015e 1C       		.uleb128 0x1c
 3384 015f 0E       		.uleb128 0xe
 3385 0160 00       		.byte	0
 3386 0161 00       		.byte	0
 3387 0162 1D       		.uleb128 0x1d
 3388 0163 2E       		.uleb128 0x2e
 3389 0164 01       		.byte	0x1
 3390 0165 3F       		.uleb128 0x3f
 3391 0166 0C       		.uleb128 0xc
 3392 0167 03       		.uleb128 0x3
 3393 0168 0E       		.uleb128 0xe
 3394 0169 3A       		.uleb128 0x3a
 3395 016a 0B       		.uleb128 0xb
 3396 016b 3B       		.uleb128 0x3b
 3397 016c 0B       		.uleb128 0xb
 3398 016d 27       		.uleb128 0x27
 3399 016e 0C       		.uleb128 0xc
 3400 016f 11       		.uleb128 0x11
 3401 0170 01       		.uleb128 0x1
 3402 0171 12       		.uleb128 0x12
 3403 0172 01       		.uleb128 0x1
 3404 0173 40       		.uleb128 0x40
 3405 0174 06       		.uleb128 0x6
 3406 0175 01       		.uleb128 0x1
 3407 0176 13       		.uleb128 0x13
ARM GAS  /tmp/cc0nWktl.s 			page 61


 3408 0177 00       		.byte	0
 3409 0178 00       		.byte	0
 3410 0179 1E       		.uleb128 0x1e
 3411 017a 05       		.uleb128 0x5
 3412 017b 00       		.byte	0
 3413 017c 03       		.uleb128 0x3
 3414 017d 08       		.uleb128 0x8
 3415 017e 3A       		.uleb128 0x3a
 3416 017f 0B       		.uleb128 0xb
 3417 0180 3B       		.uleb128 0x3b
 3418 0181 0B       		.uleb128 0xb
 3419 0182 49       		.uleb128 0x49
 3420 0183 13       		.uleb128 0x13
 3421 0184 02       		.uleb128 0x2
 3422 0185 0A       		.uleb128 0xa
 3423 0186 00       		.byte	0
 3424 0187 00       		.byte	0
 3425 0188 1F       		.uleb128 0x1f
 3426 0189 05       		.uleb128 0x5
 3427 018a 00       		.byte	0
 3428 018b 03       		.uleb128 0x3
 3429 018c 0E       		.uleb128 0xe
 3430 018d 3A       		.uleb128 0x3a
 3431 018e 0B       		.uleb128 0xb
 3432 018f 3B       		.uleb128 0x3b
 3433 0190 0B       		.uleb128 0xb
 3434 0191 49       		.uleb128 0x49
 3435 0192 13       		.uleb128 0x13
 3436 0193 02       		.uleb128 0x2
 3437 0194 06       		.uleb128 0x6
 3438 0195 00       		.byte	0
 3439 0196 00       		.byte	0
 3440 0197 20       		.uleb128 0x20
 3441 0198 05       		.uleb128 0x5
 3442 0199 00       		.byte	0
 3443 019a 03       		.uleb128 0x3
 3444 019b 0E       		.uleb128 0xe
 3445 019c 3A       		.uleb128 0x3a
 3446 019d 0B       		.uleb128 0xb
 3447 019e 3B       		.uleb128 0x3b
 3448 019f 0B       		.uleb128 0xb
 3449 01a0 49       		.uleb128 0x49
 3450 01a1 13       		.uleb128 0x13
 3451 01a2 02       		.uleb128 0x2
 3452 01a3 0A       		.uleb128 0xa
 3453 01a4 00       		.byte	0
 3454 01a5 00       		.byte	0
 3455 01a6 21       		.uleb128 0x21
 3456 01a7 1D       		.uleb128 0x1d
 3457 01a8 01       		.byte	0x1
 3458 01a9 31       		.uleb128 0x31
 3459 01aa 13       		.uleb128 0x13
 3460 01ab 11       		.uleb128 0x11
 3461 01ac 01       		.uleb128 0x1
 3462 01ad 12       		.uleb128 0x12
 3463 01ae 01       		.uleb128 0x1
 3464 01af 58       		.uleb128 0x58
ARM GAS  /tmp/cc0nWktl.s 			page 62


 3465 01b0 0B       		.uleb128 0xb
 3466 01b1 59       		.uleb128 0x59
 3467 01b2 0B       		.uleb128 0xb
 3468 01b3 00       		.byte	0
 3469 01b4 00       		.byte	0
 3470 01b5 22       		.uleb128 0x22
 3471 01b6 05       		.uleb128 0x5
 3472 01b7 00       		.byte	0
 3473 01b8 31       		.uleb128 0x31
 3474 01b9 13       		.uleb128 0x13
 3475 01ba 02       		.uleb128 0x2
 3476 01bb 0A       		.uleb128 0xa
 3477 01bc 00       		.byte	0
 3478 01bd 00       		.byte	0
 3479 01be 23       		.uleb128 0x23
 3480 01bf 1D       		.uleb128 0x1d
 3481 01c0 01       		.byte	0x1
 3482 01c1 31       		.uleb128 0x31
 3483 01c2 13       		.uleb128 0x13
 3484 01c3 11       		.uleb128 0x11
 3485 01c4 01       		.uleb128 0x1
 3486 01c5 12       		.uleb128 0x12
 3487 01c6 01       		.uleb128 0x1
 3488 01c7 58       		.uleb128 0x58
 3489 01c8 0B       		.uleb128 0xb
 3490 01c9 59       		.uleb128 0x59
 3491 01ca 05       		.uleb128 0x5
 3492 01cb 00       		.byte	0
 3493 01cc 00       		.byte	0
 3494 01cd 24       		.uleb128 0x24
 3495 01ce 2E       		.uleb128 0x2e
 3496 01cf 01       		.byte	0x1
 3497 01d0 3F       		.uleb128 0x3f
 3498 01d1 0C       		.uleb128 0xc
 3499 01d2 03       		.uleb128 0x3
 3500 01d3 0E       		.uleb128 0xe
 3501 01d4 3A       		.uleb128 0x3a
 3502 01d5 0B       		.uleb128 0xb
 3503 01d6 3B       		.uleb128 0x3b
 3504 01d7 0B       		.uleb128 0xb
 3505 01d8 27       		.uleb128 0x27
 3506 01d9 0C       		.uleb128 0xc
 3507 01da 11       		.uleb128 0x11
 3508 01db 01       		.uleb128 0x1
 3509 01dc 12       		.uleb128 0x12
 3510 01dd 01       		.uleb128 0x1
 3511 01de 40       		.uleb128 0x40
 3512 01df 0A       		.uleb128 0xa
 3513 01e0 01       		.uleb128 0x1
 3514 01e1 13       		.uleb128 0x13
 3515 01e2 00       		.byte	0
 3516 01e3 00       		.byte	0
 3517 01e4 25       		.uleb128 0x25
 3518 01e5 05       		.uleb128 0x5
 3519 01e6 00       		.byte	0
 3520 01e7 03       		.uleb128 0x3
 3521 01e8 08       		.uleb128 0x8
ARM GAS  /tmp/cc0nWktl.s 			page 63


 3522 01e9 3A       		.uleb128 0x3a
 3523 01ea 0B       		.uleb128 0xb
 3524 01eb 3B       		.uleb128 0x3b
 3525 01ec 0B       		.uleb128 0xb
 3526 01ed 49       		.uleb128 0x49
 3527 01ee 13       		.uleb128 0x13
 3528 01ef 02       		.uleb128 0x2
 3529 01f0 06       		.uleb128 0x6
 3530 01f1 00       		.byte	0
 3531 01f2 00       		.byte	0
 3532 01f3 26       		.uleb128 0x26
 3533 01f4 2E       		.uleb128 0x2e
 3534 01f5 01       		.byte	0x1
 3535 01f6 3F       		.uleb128 0x3f
 3536 01f7 0C       		.uleb128 0xc
 3537 01f8 03       		.uleb128 0x3
 3538 01f9 0E       		.uleb128 0xe
 3539 01fa 3A       		.uleb128 0x3a
 3540 01fb 0B       		.uleb128 0xb
 3541 01fc 3B       		.uleb128 0x3b
 3542 01fd 0B       		.uleb128 0xb
 3543 01fe 27       		.uleb128 0x27
 3544 01ff 0C       		.uleb128 0xc
 3545 0200 49       		.uleb128 0x49
 3546 0201 13       		.uleb128 0x13
 3547 0202 11       		.uleb128 0x11
 3548 0203 01       		.uleb128 0x1
 3549 0204 12       		.uleb128 0x12
 3550 0205 01       		.uleb128 0x1
 3551 0206 40       		.uleb128 0x40
 3552 0207 06       		.uleb128 0x6
 3553 0208 01       		.uleb128 0x1
 3554 0209 13       		.uleb128 0x13
 3555 020a 00       		.byte	0
 3556 020b 00       		.byte	0
 3557 020c 27       		.uleb128 0x27
 3558 020d 1D       		.uleb128 0x1d
 3559 020e 01       		.byte	0x1
 3560 020f 31       		.uleb128 0x31
 3561 0210 13       		.uleb128 0x13
 3562 0211 52       		.uleb128 0x52
 3563 0212 01       		.uleb128 0x1
 3564 0213 55       		.uleb128 0x55
 3565 0214 06       		.uleb128 0x6
 3566 0215 58       		.uleb128 0x58
 3567 0216 0B       		.uleb128 0xb
 3568 0217 59       		.uleb128 0x59
 3569 0218 0B       		.uleb128 0xb
 3570 0219 00       		.byte	0
 3571 021a 00       		.byte	0
 3572 021b 28       		.uleb128 0x28
 3573 021c 05       		.uleb128 0x5
 3574 021d 00       		.byte	0
 3575 021e 31       		.uleb128 0x31
 3576 021f 13       		.uleb128 0x13
 3577 0220 02       		.uleb128 0x2
 3578 0221 06       		.uleb128 0x6
ARM GAS  /tmp/cc0nWktl.s 			page 64


 3579 0222 00       		.byte	0
 3580 0223 00       		.byte	0
 3581 0224 29       		.uleb128 0x29
 3582 0225 34       		.uleb128 0x34
 3583 0226 00       		.byte	0
 3584 0227 03       		.uleb128 0x3
 3585 0228 08       		.uleb128 0x8
 3586 0229 3A       		.uleb128 0x3a
 3587 022a 0B       		.uleb128 0xb
 3588 022b 3B       		.uleb128 0x3b
 3589 022c 0B       		.uleb128 0xb
 3590 022d 49       		.uleb128 0x49
 3591 022e 13       		.uleb128 0x13
 3592 022f 02       		.uleb128 0x2
 3593 0230 0A       		.uleb128 0xa
 3594 0231 00       		.byte	0
 3595 0232 00       		.byte	0
 3596 0233 2A       		.uleb128 0x2a
 3597 0234 1D       		.uleb128 0x1d
 3598 0235 01       		.byte	0x1
 3599 0236 31       		.uleb128 0x31
 3600 0237 13       		.uleb128 0x13
 3601 0238 52       		.uleb128 0x52
 3602 0239 01       		.uleb128 0x1
 3603 023a 55       		.uleb128 0x55
 3604 023b 06       		.uleb128 0x6
 3605 023c 58       		.uleb128 0x58
 3606 023d 0B       		.uleb128 0xb
 3607 023e 59       		.uleb128 0x59
 3608 023f 0B       		.uleb128 0xb
 3609 0240 01       		.uleb128 0x1
 3610 0241 13       		.uleb128 0x13
 3611 0242 00       		.byte	0
 3612 0243 00       		.byte	0
 3613 0244 2B       		.uleb128 0x2b
 3614 0245 1D       		.uleb128 0x1d
 3615 0246 01       		.byte	0x1
 3616 0247 31       		.uleb128 0x31
 3617 0248 13       		.uleb128 0x13
 3618 0249 52       		.uleb128 0x52
 3619 024a 01       		.uleb128 0x1
 3620 024b 55       		.uleb128 0x55
 3621 024c 06       		.uleb128 0x6
 3622 024d 58       		.uleb128 0x58
 3623 024e 0B       		.uleb128 0xb
 3624 024f 59       		.uleb128 0x59
 3625 0250 05       		.uleb128 0x5
 3626 0251 00       		.byte	0
 3627 0252 00       		.byte	0
 3628 0253 2C       		.uleb128 0x2c
 3629 0254 05       		.uleb128 0x5
 3630 0255 00       		.byte	0
 3631 0256 31       		.uleb128 0x31
 3632 0257 13       		.uleb128 0x13
 3633 0258 1C       		.uleb128 0x1c
 3634 0259 0B       		.uleb128 0xb
 3635 025a 00       		.byte	0
ARM GAS  /tmp/cc0nWktl.s 			page 65


 3636 025b 00       		.byte	0
 3637 025c 2D       		.uleb128 0x2d
 3638 025d 1D       		.uleb128 0x1d
 3639 025e 01       		.byte	0x1
 3640 025f 31       		.uleb128 0x31
 3641 0260 13       		.uleb128 0x13
 3642 0261 11       		.uleb128 0x11
 3643 0262 01       		.uleb128 0x1
 3644 0263 12       		.uleb128 0x12
 3645 0264 01       		.uleb128 0x1
 3646 0265 58       		.uleb128 0x58
 3647 0266 0B       		.uleb128 0xb
 3648 0267 59       		.uleb128 0x59
 3649 0268 0B       		.uleb128 0xb
 3650 0269 01       		.uleb128 0x1
 3651 026a 13       		.uleb128 0x13
 3652 026b 00       		.byte	0
 3653 026c 00       		.byte	0
 3654 026d 2E       		.uleb128 0x2e
 3655 026e 0B       		.uleb128 0xb
 3656 026f 01       		.byte	0x1
 3657 0270 55       		.uleb128 0x55
 3658 0271 06       		.uleb128 0x6
 3659 0272 01       		.uleb128 0x1
 3660 0273 13       		.uleb128 0x13
 3661 0274 00       		.byte	0
 3662 0275 00       		.byte	0
 3663 0276 2F       		.uleb128 0x2f
 3664 0277 34       		.uleb128 0x34
 3665 0278 00       		.byte	0
 3666 0279 03       		.uleb128 0x3
 3667 027a 08       		.uleb128 0x8
 3668 027b 3A       		.uleb128 0x3a
 3669 027c 0B       		.uleb128 0xb
 3670 027d 3B       		.uleb128 0x3b
 3671 027e 0B       		.uleb128 0xb
 3672 027f 49       		.uleb128 0x49
 3673 0280 13       		.uleb128 0x13
 3674 0281 02       		.uleb128 0x2
 3675 0282 06       		.uleb128 0x6
 3676 0283 00       		.byte	0
 3677 0284 00       		.byte	0
 3678 0285 30       		.uleb128 0x30
 3679 0286 0B       		.uleb128 0xb
 3680 0287 01       		.byte	0x1
 3681 0288 11       		.uleb128 0x11
 3682 0289 01       		.uleb128 0x1
 3683 028a 12       		.uleb128 0x12
 3684 028b 01       		.uleb128 0x1
 3685 028c 00       		.byte	0
 3686 028d 00       		.byte	0
 3687 028e 31       		.uleb128 0x31
 3688 028f 34       		.uleb128 0x34
 3689 0290 00       		.byte	0
 3690 0291 31       		.uleb128 0x31
 3691 0292 13       		.uleb128 0x13
 3692 0293 00       		.byte	0
ARM GAS  /tmp/cc0nWktl.s 			page 66


 3693 0294 00       		.byte	0
 3694 0295 32       		.uleb128 0x32
 3695 0296 34       		.uleb128 0x34
 3696 0297 00       		.byte	0
 3697 0298 03       		.uleb128 0x3
 3698 0299 0E       		.uleb128 0xe
 3699 029a 49       		.uleb128 0x49
 3700 029b 13       		.uleb128 0x13
 3701 029c 34       		.uleb128 0x34
 3702 029d 0C       		.uleb128 0xc
 3703 029e 00       		.byte	0
 3704 029f 00       		.byte	0
 3705 02a0 33       		.uleb128 0x33
 3706 02a1 0B       		.uleb128 0xb
 3707 02a2 01       		.byte	0x1
 3708 02a3 55       		.uleb128 0x55
 3709 02a4 06       		.uleb128 0x6
 3710 02a5 00       		.byte	0
 3711 02a6 00       		.byte	0
 3712 02a7 34       		.uleb128 0x34
 3713 02a8 2E       		.uleb128 0x2e
 3714 02a9 01       		.byte	0x1
 3715 02aa 3F       		.uleb128 0x3f
 3716 02ab 0C       		.uleb128 0xc
 3717 02ac 03       		.uleb128 0x3
 3718 02ad 0E       		.uleb128 0xe
 3719 02ae 3A       		.uleb128 0x3a
 3720 02af 0B       		.uleb128 0xb
 3721 02b0 3B       		.uleb128 0x3b
 3722 02b1 05       		.uleb128 0x5
 3723 02b2 27       		.uleb128 0x27
 3724 02b3 0C       		.uleb128 0xc
 3725 02b4 11       		.uleb128 0x11
 3726 02b5 01       		.uleb128 0x1
 3727 02b6 12       		.uleb128 0x12
 3728 02b7 01       		.uleb128 0x1
 3729 02b8 40       		.uleb128 0x40
 3730 02b9 06       		.uleb128 0x6
 3731 02ba 01       		.uleb128 0x1
 3732 02bb 13       		.uleb128 0x13
 3733 02bc 00       		.byte	0
 3734 02bd 00       		.byte	0
 3735 02be 35       		.uleb128 0x35
 3736 02bf 05       		.uleb128 0x5
 3737 02c0 00       		.byte	0
 3738 02c1 03       		.uleb128 0x3
 3739 02c2 08       		.uleb128 0x8
 3740 02c3 3A       		.uleb128 0x3a
 3741 02c4 0B       		.uleb128 0xb
 3742 02c5 3B       		.uleb128 0x3b
 3743 02c6 05       		.uleb128 0x5
 3744 02c7 49       		.uleb128 0x49
 3745 02c8 13       		.uleb128 0x13
 3746 02c9 02       		.uleb128 0x2
 3747 02ca 0A       		.uleb128 0xa
 3748 02cb 00       		.byte	0
 3749 02cc 00       		.byte	0
ARM GAS  /tmp/cc0nWktl.s 			page 67


 3750 02cd 36       		.uleb128 0x36
 3751 02ce 05       		.uleb128 0x5
 3752 02cf 00       		.byte	0
 3753 02d0 03       		.uleb128 0x3
 3754 02d1 0E       		.uleb128 0xe
 3755 02d2 3A       		.uleb128 0x3a
 3756 02d3 0B       		.uleb128 0xb
 3757 02d4 3B       		.uleb128 0x3b
 3758 02d5 05       		.uleb128 0x5
 3759 02d6 49       		.uleb128 0x49
 3760 02d7 13       		.uleb128 0x13
 3761 02d8 02       		.uleb128 0x2
 3762 02d9 0A       		.uleb128 0xa
 3763 02da 00       		.byte	0
 3764 02db 00       		.byte	0
 3765 02dc 37       		.uleb128 0x37
 3766 02dd 05       		.uleb128 0x5
 3767 02de 00       		.byte	0
 3768 02df 03       		.uleb128 0x3
 3769 02e0 0E       		.uleb128 0xe
 3770 02e1 3A       		.uleb128 0x3a
 3771 02e2 0B       		.uleb128 0xb
 3772 02e3 3B       		.uleb128 0x3b
 3773 02e4 05       		.uleb128 0x5
 3774 02e5 49       		.uleb128 0x49
 3775 02e6 13       		.uleb128 0x13
 3776 02e7 02       		.uleb128 0x2
 3777 02e8 06       		.uleb128 0x6
 3778 02e9 00       		.byte	0
 3779 02ea 00       		.byte	0
 3780 02eb 38       		.uleb128 0x38
 3781 02ec 2E       		.uleb128 0x2e
 3782 02ed 01       		.byte	0x1
 3783 02ee 3F       		.uleb128 0x3f
 3784 02ef 0C       		.uleb128 0xc
 3785 02f0 03       		.uleb128 0x3
 3786 02f1 0E       		.uleb128 0xe
 3787 02f2 3A       		.uleb128 0x3a
 3788 02f3 0B       		.uleb128 0xb
 3789 02f4 3B       		.uleb128 0x3b
 3790 02f5 05       		.uleb128 0x5
 3791 02f6 27       		.uleb128 0x27
 3792 02f7 0C       		.uleb128 0xc
 3793 02f8 11       		.uleb128 0x11
 3794 02f9 01       		.uleb128 0x1
 3795 02fa 12       		.uleb128 0x12
 3796 02fb 01       		.uleb128 0x1
 3797 02fc 40       		.uleb128 0x40
 3798 02fd 0A       		.uleb128 0xa
 3799 02fe 01       		.uleb128 0x1
 3800 02ff 13       		.uleb128 0x13
 3801 0300 00       		.byte	0
 3802 0301 00       		.byte	0
 3803 0302 39       		.uleb128 0x39
 3804 0303 05       		.uleb128 0x5
 3805 0304 00       		.byte	0
 3806 0305 03       		.uleb128 0x3
ARM GAS  /tmp/cc0nWktl.s 			page 68


 3807 0306 08       		.uleb128 0x8
 3808 0307 3A       		.uleb128 0x3a
 3809 0308 0B       		.uleb128 0xb
 3810 0309 3B       		.uleb128 0x3b
 3811 030a 05       		.uleb128 0x5
 3812 030b 49       		.uleb128 0x49
 3813 030c 13       		.uleb128 0x13
 3814 030d 02       		.uleb128 0x2
 3815 030e 06       		.uleb128 0x6
 3816 030f 00       		.byte	0
 3817 0310 00       		.byte	0
 3818 0311 3A       		.uleb128 0x3a
 3819 0312 2E       		.uleb128 0x2e
 3820 0313 01       		.byte	0x1
 3821 0314 3F       		.uleb128 0x3f
 3822 0315 0C       		.uleb128 0xc
 3823 0316 03       		.uleb128 0x3
 3824 0317 0E       		.uleb128 0xe
 3825 0318 3A       		.uleb128 0x3a
 3826 0319 0B       		.uleb128 0xb
 3827 031a 3B       		.uleb128 0x3b
 3828 031b 05       		.uleb128 0x5
 3829 031c 27       		.uleb128 0x27
 3830 031d 0C       		.uleb128 0xc
 3831 031e 49       		.uleb128 0x49
 3832 031f 13       		.uleb128 0x13
 3833 0320 11       		.uleb128 0x11
 3834 0321 01       		.uleb128 0x1
 3835 0322 12       		.uleb128 0x12
 3836 0323 01       		.uleb128 0x1
 3837 0324 40       		.uleb128 0x40
 3838 0325 06       		.uleb128 0x6
 3839 0326 01       		.uleb128 0x1
 3840 0327 13       		.uleb128 0x13
 3841 0328 00       		.byte	0
 3842 0329 00       		.byte	0
 3843 032a 3B       		.uleb128 0x3b
 3844 032b 1D       		.uleb128 0x1d
 3845 032c 01       		.byte	0x1
 3846 032d 31       		.uleb128 0x31
 3847 032e 13       		.uleb128 0x13
 3848 032f 11       		.uleb128 0x11
 3849 0330 01       		.uleb128 0x1
 3850 0331 12       		.uleb128 0x12
 3851 0332 01       		.uleb128 0x1
 3852 0333 58       		.uleb128 0x58
 3853 0334 0B       		.uleb128 0xb
 3854 0335 59       		.uleb128 0x59
 3855 0336 05       		.uleb128 0x5
 3856 0337 01       		.uleb128 0x1
 3857 0338 13       		.uleb128 0x13
 3858 0339 00       		.byte	0
 3859 033a 00       		.byte	0
 3860 033b 3C       		.uleb128 0x3c
 3861 033c 34       		.uleb128 0x34
 3862 033d 00       		.byte	0
 3863 033e 03       		.uleb128 0x3
ARM GAS  /tmp/cc0nWktl.s 			page 69


 3864 033f 08       		.uleb128 0x8
 3865 0340 3A       		.uleb128 0x3a
 3866 0341 0B       		.uleb128 0xb
 3867 0342 3B       		.uleb128 0x3b
 3868 0343 05       		.uleb128 0x5
 3869 0344 49       		.uleb128 0x49
 3870 0345 13       		.uleb128 0x13
 3871 0346 02       		.uleb128 0x2
 3872 0347 06       		.uleb128 0x6
 3873 0348 00       		.byte	0
 3874 0349 00       		.byte	0
 3875 034a 3D       		.uleb128 0x3d
 3876 034b 1D       		.uleb128 0x1d
 3877 034c 01       		.byte	0x1
 3878 034d 31       		.uleb128 0x31
 3879 034e 13       		.uleb128 0x13
 3880 034f 52       		.uleb128 0x52
 3881 0350 01       		.uleb128 0x1
 3882 0351 55       		.uleb128 0x55
 3883 0352 06       		.uleb128 0x6
 3884 0353 58       		.uleb128 0x58
 3885 0354 0B       		.uleb128 0xb
 3886 0355 59       		.uleb128 0x59
 3887 0356 05       		.uleb128 0x5
 3888 0357 01       		.uleb128 0x1
 3889 0358 13       		.uleb128 0x13
 3890 0359 00       		.byte	0
 3891 035a 00       		.byte	0
 3892 035b 3E       		.uleb128 0x3e
 3893 035c 34       		.uleb128 0x34
 3894 035d 00       		.byte	0
 3895 035e 03       		.uleb128 0x3
 3896 035f 0E       		.uleb128 0xe
 3897 0360 3A       		.uleb128 0x3a
 3898 0361 0B       		.uleb128 0xb
 3899 0362 3B       		.uleb128 0x3b
 3900 0363 05       		.uleb128 0x5
 3901 0364 49       		.uleb128 0x49
 3902 0365 13       		.uleb128 0x13
 3903 0366 3F       		.uleb128 0x3f
 3904 0367 0C       		.uleb128 0xc
 3905 0368 3C       		.uleb128 0x3c
 3906 0369 0C       		.uleb128 0xc
 3907 036a 00       		.byte	0
 3908 036b 00       		.byte	0
 3909 036c 3F       		.uleb128 0x3f
 3910 036d 34       		.uleb128 0x34
 3911 036e 00       		.byte	0
 3912 036f 03       		.uleb128 0x3
 3913 0370 08       		.uleb128 0x8
 3914 0371 3A       		.uleb128 0x3a
 3915 0372 0B       		.uleb128 0xb
 3916 0373 3B       		.uleb128 0x3b
 3917 0374 05       		.uleb128 0x5
 3918 0375 49       		.uleb128 0x49
 3919 0376 13       		.uleb128 0x13
 3920 0377 3F       		.uleb128 0x3f
ARM GAS  /tmp/cc0nWktl.s 			page 70


 3921 0378 0C       		.uleb128 0xc
 3922 0379 3C       		.uleb128 0x3c
 3923 037a 0C       		.uleb128 0xc
 3924 037b 00       		.byte	0
 3925 037c 00       		.byte	0
 3926 037d 00       		.byte	0
 3927              		.section	.debug_loc,"",%progbits
 3928              	.Ldebug_loc0:
 3929              	.LLST0:
 3930 0000 00000000 		.4byte	.LFB182
 3931 0004 02000000 		.4byte	.LCFI0
 3932 0008 0200     		.2byte	0x2
 3933 000a 7D       		.byte	0x7d
 3934 000b 00       		.sleb128 0
 3935 000c 02000000 		.4byte	.LCFI0
 3936 0010 1E000000 		.4byte	.LFE182
 3937 0014 0200     		.2byte	0x2
 3938 0016 7D       		.byte	0x7d
 3939 0017 04       		.sleb128 4
 3940 0018 00000000 		.4byte	0
 3941 001c 00000000 		.4byte	0
 3942              	.LLST1:
 3943 0020 00000000 		.4byte	.LVL0
 3944 0024 08000000 		.4byte	.LVL2
 3945 0028 0100     		.2byte	0x1
 3946 002a 52       		.byte	0x52
 3947 002b 00000000 		.4byte	0
 3948 002f 00000000 		.4byte	0
 3949              	.LLST2:
 3950 0033 00000000 		.4byte	.LVL0
 3951 0037 06000000 		.4byte	.LVL1
 3952 003b 0100     		.2byte	0x1
 3953 003d 53       		.byte	0x53
 3954 003e 06000000 		.4byte	.LVL1
 3955 0042 1E000000 		.4byte	.LFE182
 3956 0046 0200     		.2byte	0x2
 3957 0048 70       		.byte	0x70
 3958 0049 1C       		.sleb128 28
 3959 004a 00000000 		.4byte	0
 3960 004e 00000000 		.4byte	0
 3961              	.LLST3:
 3962 0052 00000000 		.4byte	.LVL3
 3963 0056 11000000 		.4byte	.LVL4-1
 3964 005a 0100     		.2byte	0x1
 3965 005c 50       		.byte	0x50
 3966 005d 00000000 		.4byte	0
 3967 0061 00000000 		.4byte	0
 3968              	.LLST4:
 3969 0065 00000000 		.4byte	.LFB184
 3970 0069 02000000 		.4byte	.LCFI1
 3971 006d 0200     		.2byte	0x2
 3972 006f 7D       		.byte	0x7d
 3973 0070 00       		.sleb128 0
 3974 0071 02000000 		.4byte	.LCFI1
 3975 0075 36000000 		.4byte	.LFE184
 3976 0079 0200     		.2byte	0x2
 3977 007b 7D       		.byte	0x7d
ARM GAS  /tmp/cc0nWktl.s 			page 71


 3978 007c 08       		.sleb128 8
 3979 007d 00000000 		.4byte	0
 3980 0081 00000000 		.4byte	0
 3981              	.LLST5:
 3982 0085 00000000 		.4byte	.LVL5
 3983 0089 25000000 		.4byte	.LVL7-1
 3984 008d 0100     		.2byte	0x1
 3985 008f 50       		.byte	0x50
 3986 0090 2A000000 		.4byte	.LVL8
 3987 0094 34000000 		.4byte	.LVL9
 3988 0098 0100     		.2byte	0x1
 3989 009a 50       		.byte	0x50
 3990 009b 00000000 		.4byte	0
 3991 009f 00000000 		.4byte	0
 3992              	.LLST6:
 3993 00a3 00000000 		.4byte	.LVL5
 3994 00a7 16000000 		.4byte	.LVL6
 3995 00ab 0100     		.2byte	0x1
 3996 00ad 51       		.byte	0x51
 3997 00ae 16000000 		.4byte	.LVL6
 3998 00b2 25000000 		.4byte	.LVL7-1
 3999 00b6 0300     		.2byte	0x3
 4000 00b8 70       		.byte	0x70
 4001 00b9 14       		.sleb128 20
 4002 00ba 06       		.byte	0x6
 4003 00bb 2A000000 		.4byte	.LVL8
 4004 00bf 36000000 		.4byte	.LFE184
 4005 00c3 0100     		.2byte	0x1
 4006 00c5 51       		.byte	0x51
 4007 00c6 00000000 		.4byte	0
 4008 00ca 00000000 		.4byte	0
 4009              	.LLST8:
 4010 00ce 00000000 		.4byte	.LFB185
 4011 00d2 02000000 		.4byte	.LCFI2
 4012 00d6 0200     		.2byte	0x2
 4013 00d8 7D       		.byte	0x7d
 4014 00d9 00       		.sleb128 0
 4015 00da 02000000 		.4byte	.LCFI2
 4016 00de 48000000 		.4byte	.LFE185
 4017 00e2 0200     		.2byte	0x2
 4018 00e4 7D       		.byte	0x7d
 4019 00e5 10       		.sleb128 16
 4020 00e6 00000000 		.4byte	0
 4021 00ea 00000000 		.4byte	0
 4022              	.LLST9:
 4023 00ee 00000000 		.4byte	.LVL10
 4024 00f2 11000000 		.4byte	.LVL11-1
 4025 00f6 0100     		.2byte	0x1
 4026 00f8 50       		.byte	0x50
 4027 00f9 11000000 		.4byte	.LVL11-1
 4028 00fd 48000000 		.4byte	.LFE185
 4029 0101 0100     		.2byte	0x1
 4030 0103 54       		.byte	0x54
 4031 0104 00000000 		.4byte	0
 4032 0108 00000000 		.4byte	0
 4033              	.LLST10:
 4034 010c 00000000 		.4byte	.LVL10
ARM GAS  /tmp/cc0nWktl.s 			page 72


 4035 0110 11000000 		.4byte	.LVL11-1
 4036 0114 0100     		.2byte	0x1
 4037 0116 51       		.byte	0x51
 4038 0117 00000000 		.4byte	0
 4039 011b 00000000 		.4byte	0
 4040              	.LLST11:
 4041 011f 1E000000 		.4byte	.LVL12
 4042 0123 28000000 		.4byte	.LVL14
 4043 0127 0100     		.2byte	0x1
 4044 0129 50       		.byte	0x50
 4045 012a 00000000 		.4byte	0
 4046 012e 00000000 		.4byte	0
 4047              	.LLST12:
 4048 0132 22000000 		.4byte	.LVL13
 4049 0136 28000000 		.4byte	.LVL14
 4050 013a 0200     		.2byte	0x2
 4051 013c 30       		.byte	0x30
 4052 013d 9F       		.byte	0x9f
 4053 013e 00000000 		.4byte	0
 4054 0142 00000000 		.4byte	0
 4055              	.LLST13:
 4056 0146 00000000 		.4byte	.LFB186
 4057 014a 04000000 		.4byte	.LCFI3
 4058 014e 0200     		.2byte	0x2
 4059 0150 7D       		.byte	0x7d
 4060 0151 00       		.sleb128 0
 4061 0152 04000000 		.4byte	.LCFI3
 4062 0156 06000000 		.4byte	.LCFI4
 4063 015a 0200     		.2byte	0x2
 4064 015c 7D       		.byte	0x7d
 4065 015d 24       		.sleb128 36
 4066 015e 06000000 		.4byte	.LCFI4
 4067 0162 76000000 		.4byte	.LFE186
 4068 0166 0200     		.2byte	0x2
 4069 0168 7D       		.byte	0x7d
 4070 0169 30       		.sleb128 48
 4071 016a 00000000 		.4byte	0
 4072 016e 00000000 		.4byte	0
 4073              	.LLST14:
 4074 0172 00000000 		.4byte	.LVL17
 4075 0176 20000000 		.4byte	.LVL19
 4076 017a 0100     		.2byte	0x1
 4077 017c 50       		.byte	0x50
 4078 017d 20000000 		.4byte	.LVL19
 4079 0181 76000000 		.4byte	.LFE186
 4080 0185 0100     		.2byte	0x1
 4081 0187 54       		.byte	0x54
 4082 0188 00000000 		.4byte	0
 4083 018c 00000000 		.4byte	0
 4084              	.LLST15:
 4085 0190 00000000 		.4byte	.LVL17
 4086 0194 20000000 		.4byte	.LVL19
 4087 0198 0100     		.2byte	0x1
 4088 019a 51       		.byte	0x51
 4089 019b 00000000 		.4byte	0
 4090 019f 00000000 		.4byte	0
 4091              	.LLST16:
ARM GAS  /tmp/cc0nWktl.s 			page 73


 4092 01a3 00000000 		.4byte	.LVL17
 4093 01a7 20000000 		.4byte	.LVL19
 4094 01ab 0100     		.2byte	0x1
 4095 01ad 52       		.byte	0x52
 4096 01ae 00000000 		.4byte	0
 4097 01b2 00000000 		.4byte	0
 4098              	.LLST17:
 4099 01b6 00000000 		.4byte	.LVL17
 4100 01ba 20000000 		.4byte	.LVL19
 4101 01be 0100     		.2byte	0x1
 4102 01c0 53       		.byte	0x53
 4103 01c1 00000000 		.4byte	0
 4104 01c5 00000000 		.4byte	0
 4105              	.LLST18:
 4106 01c9 12000000 		.4byte	.LVL18
 4107 01cd 20000000 		.4byte	.LVL19
 4108 01d1 0200     		.2byte	0x2
 4109 01d3 70       		.byte	0x70
 4110 01d4 1C       		.sleb128 28
 4111 01d5 20000000 		.4byte	.LVL19
 4112 01d9 76000000 		.4byte	.LFE186
 4113 01dd 0100     		.2byte	0x1
 4114 01df 59       		.byte	0x59
 4115 01e0 00000000 		.4byte	0
 4116 01e4 00000000 		.4byte	0
 4117              	.LLST19:
 4118 01e8 12000000 		.4byte	.LVL18
 4119 01ec 20000000 		.4byte	.LVL19
 4120 01f0 0200     		.2byte	0x2
 4121 01f2 30       		.byte	0x30
 4122 01f3 9F       		.byte	0x9f
 4123 01f4 20000000 		.4byte	.LVL19
 4124 01f8 76000000 		.4byte	.LFE186
 4125 01fc 0100     		.2byte	0x1
 4126 01fe 58       		.byte	0x58
 4127 01ff 00000000 		.4byte	0
 4128 0203 00000000 		.4byte	0
 4129              	.LLST20:
 4130 0207 3A000000 		.4byte	.LVL21
 4131 020b 3E000000 		.4byte	.LVL22
 4132 020f 0200     		.2byte	0x2
 4133 0211 30       		.byte	0x30
 4134 0212 9F       		.byte	0x9f
 4135 0213 00000000 		.4byte	0
 4136 0217 00000000 		.4byte	0
 4137              	.LLST21:
 4138 021b 00000000 		.4byte	.LFB187
 4139 021f 02000000 		.4byte	.LCFI5
 4140 0223 0200     		.2byte	0x2
 4141 0225 7D       		.byte	0x7d
 4142 0226 00       		.sleb128 0
 4143 0227 02000000 		.4byte	.LCFI5
 4144 022b 1C000000 		.4byte	.LFE187
 4145 022f 0200     		.2byte	0x2
 4146 0231 7D       		.byte	0x7d
 4147 0232 04       		.sleb128 4
 4148 0233 00000000 		.4byte	0
ARM GAS  /tmp/cc0nWktl.s 			page 74


 4149 0237 00000000 		.4byte	0
 4150              	.LLST22:
 4151 023b 00000000 		.4byte	.LVL26
 4152 023f 06000000 		.4byte	.LVL27
 4153 0243 0100     		.2byte	0x1
 4154 0245 53       		.byte	0x53
 4155 0246 06000000 		.4byte	.LVL27
 4156 024a 1C000000 		.4byte	.LFE187
 4157 024e 0200     		.2byte	0x2
 4158 0250 70       		.byte	0x70
 4159 0251 1C       		.sleb128 28
 4160 0252 00000000 		.4byte	0
 4161 0256 00000000 		.4byte	0
 4162              	.LLST23:
 4163 025a 00000000 		.4byte	.LVL28
 4164 025e 13000000 		.4byte	.LVL29-1
 4165 0262 0100     		.2byte	0x1
 4166 0264 50       		.byte	0x50
 4167 0265 00000000 		.4byte	0
 4168 0269 00000000 		.4byte	0
 4169              	.LLST24:
 4170 026d 00000000 		.4byte	.LFB189
 4171 0271 02000000 		.4byte	.LCFI6
 4172 0275 0200     		.2byte	0x2
 4173 0277 7D       		.byte	0x7d
 4174 0278 00       		.sleb128 0
 4175 0279 02000000 		.4byte	.LCFI6
 4176 027d 4E000000 		.4byte	.LFE189
 4177 0281 0200     		.2byte	0x2
 4178 0283 7D       		.byte	0x7d
 4179 0284 18       		.sleb128 24
 4180 0285 00000000 		.4byte	0
 4181 0289 00000000 		.4byte	0
 4182              	.LLST25:
 4183 028d 00000000 		.4byte	.LVL30
 4184 0291 0E000000 		.4byte	.LVL31
 4185 0295 0100     		.2byte	0x1
 4186 0297 50       		.byte	0x50
 4187 0298 0E000000 		.4byte	.LVL31
 4188 029c 4E000000 		.4byte	.LFE189
 4189 02a0 0100     		.2byte	0x1
 4190 02a2 54       		.byte	0x54
 4191 02a3 00000000 		.4byte	0
 4192 02a7 00000000 		.4byte	0
 4193              	.LLST26:
 4194 02ab 00000000 		.4byte	.LVL30
 4195 02af 0E000000 		.4byte	.LVL31
 4196 02b3 0100     		.2byte	0x1
 4197 02b5 51       		.byte	0x51
 4198 02b6 00000000 		.4byte	0
 4199 02ba 00000000 		.4byte	0
 4200              	.LLST27:
 4201 02be 00000000 		.4byte	.LVL30
 4202 02c2 0E000000 		.4byte	.LVL31
 4203 02c6 0100     		.2byte	0x1
 4204 02c8 52       		.byte	0x52
 4205 02c9 00000000 		.4byte	0
ARM GAS  /tmp/cc0nWktl.s 			page 75


 4206 02cd 00000000 		.4byte	0
 4207              	.LLST28:
 4208 02d1 1A000000 		.4byte	.LVL32
 4209 02d5 24000000 		.4byte	.LVL34
 4210 02d9 0100     		.2byte	0x1
 4211 02db 50       		.byte	0x50
 4212 02dc 00000000 		.4byte	0
 4213 02e0 00000000 		.4byte	0
 4214              	.LLST29:
 4215 02e4 1E000000 		.4byte	.LVL33
 4216 02e8 24000000 		.4byte	.LVL34
 4217 02ec 0200     		.2byte	0x2
 4218 02ee 30       		.byte	0x30
 4219 02ef 9F       		.byte	0x9f
 4220 02f0 00000000 		.4byte	0
 4221 02f4 00000000 		.4byte	0
 4222              	.LLST30:
 4223 02f8 00000000 		.4byte	.LFB190
 4224 02fc 06000000 		.4byte	.LCFI7
 4225 0300 0200     		.2byte	0x2
 4226 0302 7D       		.byte	0x7d
 4227 0303 00       		.sleb128 0
 4228 0304 06000000 		.4byte	.LCFI7
 4229 0308 36000000 		.4byte	.LFE190
 4230 030c 0200     		.2byte	0x2
 4231 030e 7D       		.byte	0x7d
 4232 030f 08       		.sleb128 8
 4233 0310 00000000 		.4byte	0
 4234 0314 00000000 		.4byte	0
 4235              	.LLST31:
 4236 0318 00000000 		.4byte	.LVL36
 4237 031c 25000000 		.4byte	.LVL38-1
 4238 0320 0100     		.2byte	0x1
 4239 0322 50       		.byte	0x50
 4240 0323 2A000000 		.4byte	.LVL39
 4241 0327 34000000 		.4byte	.LVL40
 4242 032b 0100     		.2byte	0x1
 4243 032d 50       		.byte	0x50
 4244 032e 00000000 		.4byte	0
 4245 0332 00000000 		.4byte	0
 4246              	.LLST32:
 4247 0336 16000000 		.4byte	.LVL37
 4248 033a 2A000000 		.4byte	.LVL39
 4249 033e 0100     		.2byte	0x1
 4250 0340 54       		.byte	0x54
 4251 0341 00000000 		.4byte	0
 4252 0345 00000000 		.4byte	0
 4253              	.LLST34:
 4254 0349 00000000 		.4byte	.LFB191
 4255 034d 04000000 		.4byte	.LCFI8
 4256 0351 0200     		.2byte	0x2
 4257 0353 7D       		.byte	0x7d
 4258 0354 00       		.sleb128 0
 4259 0355 04000000 		.4byte	.LCFI8
 4260 0359 06000000 		.4byte	.LCFI9
 4261 035d 0200     		.2byte	0x2
 4262 035f 7D       		.byte	0x7d
ARM GAS  /tmp/cc0nWktl.s 			page 76


 4263 0360 24       		.sleb128 36
 4264 0361 06000000 		.4byte	.LCFI9
 4265 0365 7A000000 		.4byte	.LFE191
 4266 0369 0200     		.2byte	0x2
 4267 036b 7D       		.byte	0x7d
 4268 036c 30       		.sleb128 48
 4269 036d 00000000 		.4byte	0
 4270 0371 00000000 		.4byte	0
 4271              	.LLST35:
 4272 0375 00000000 		.4byte	.LVL41
 4273 0379 20000000 		.4byte	.LVL43
 4274 037d 0100     		.2byte	0x1
 4275 037f 50       		.byte	0x50
 4276 0380 20000000 		.4byte	.LVL43
 4277 0384 7A000000 		.4byte	.LFE191
 4278 0388 0100     		.2byte	0x1
 4279 038a 54       		.byte	0x54
 4280 038b 00000000 		.4byte	0
 4281 038f 00000000 		.4byte	0
 4282              	.LLST36:
 4283 0393 00000000 		.4byte	.LVL41
 4284 0397 20000000 		.4byte	.LVL43
 4285 039b 0100     		.2byte	0x1
 4286 039d 51       		.byte	0x51
 4287 039e 20000000 		.4byte	.LVL43
 4288 03a2 38000000 		.4byte	.LVL44
 4289 03a6 0100     		.2byte	0x1
 4290 03a8 55       		.byte	0x55
 4291 03a9 38000000 		.4byte	.LVL44
 4292 03ad 56000000 		.4byte	.LVL48
 4293 03b1 0300     		.2byte	0x3
 4294 03b3 75       		.byte	0x75
 4295 03b4 01       		.sleb128 1
 4296 03b5 9F       		.byte	0x9f
 4297 03b6 56000000 		.4byte	.LVL48
 4298 03ba 72000000 		.4byte	.LVL52
 4299 03be 0100     		.2byte	0x1
 4300 03c0 55       		.byte	0x55
 4301 03c1 00000000 		.4byte	0
 4302 03c5 00000000 		.4byte	0
 4303              	.LLST37:
 4304 03c9 00000000 		.4byte	.LVL41
 4305 03cd 20000000 		.4byte	.LVL43
 4306 03d1 0100     		.2byte	0x1
 4307 03d3 52       		.byte	0x52
 4308 03d4 20000000 		.4byte	.LVL43
 4309 03d8 4E000000 		.4byte	.LVL46
 4310 03dc 0100     		.2byte	0x1
 4311 03de 56       		.byte	0x56
 4312 03df 4E000000 		.4byte	.LVL46
 4313 03e3 52000000 		.4byte	.LVL47
 4314 03e7 0300     		.2byte	0x3
 4315 03e9 76       		.byte	0x76
 4316 03ea 01       		.sleb128 1
 4317 03eb 9F       		.byte	0x9f
 4318 03ec 5A000000 		.4byte	.LVL49
 4319 03f0 72000000 		.4byte	.LVL52
ARM GAS  /tmp/cc0nWktl.s 			page 77


 4320 03f4 0100     		.2byte	0x1
 4321 03f6 56       		.byte	0x56
 4322 03f7 00000000 		.4byte	0
 4323 03fb 00000000 		.4byte	0
 4324              	.LLST38:
 4325 03ff 00000000 		.4byte	.LVL41
 4326 0403 20000000 		.4byte	.LVL43
 4327 0407 0100     		.2byte	0x1
 4328 0409 53       		.byte	0x53
 4329 040a 00000000 		.4byte	0
 4330 040e 00000000 		.4byte	0
 4331              	.LLST39:
 4332 0412 12000000 		.4byte	.LVL42
 4333 0416 20000000 		.4byte	.LVL43
 4334 041a 0200     		.2byte	0x2
 4335 041c 70       		.byte	0x70
 4336 041d 1C       		.sleb128 28
 4337 041e 20000000 		.4byte	.LVL43
 4338 0422 7A000000 		.4byte	.LFE191
 4339 0426 0100     		.2byte	0x1
 4340 0428 59       		.byte	0x59
 4341 0429 00000000 		.4byte	0
 4342 042d 00000000 		.4byte	0
 4343              	.LLST40:
 4344 0431 12000000 		.4byte	.LVL42
 4345 0435 20000000 		.4byte	.LVL43
 4346 0439 0200     		.2byte	0x2
 4347 043b 30       		.byte	0x30
 4348 043c 9F       		.byte	0x9f
 4349 043d 20000000 		.4byte	.LVL43
 4350 0441 7A000000 		.4byte	.LFE191
 4351 0445 0100     		.2byte	0x1
 4352 0447 58       		.byte	0x58
 4353 0448 00000000 		.4byte	0
 4354 044c 00000000 		.4byte	0
 4355              	.LLST41:
 4356 0450 48000000 		.4byte	.LVL45
 4357 0454 62000000 		.4byte	.LVL50
 4358 0458 0200     		.2byte	0x2
 4359 045a 30       		.byte	0x30
 4360 045b 9F       		.byte	0x9f
 4361 045c 00000000 		.4byte	0
 4362 0460 00000000 		.4byte	0
 4363              	.LLST42:
 4364 0464 56000000 		.4byte	.LVL48
 4365 0468 62000000 		.4byte	.LVL50
 4366 046c 0300     		.2byte	0x3
 4367 046e 08       		.byte	0x8
 4368 046f 20       		.byte	0x20
 4369 0470 9F       		.byte	0x9f
 4370 0471 00000000 		.4byte	0
 4371 0475 00000000 		.4byte	0
 4372              	.LLST43:
 4373 0479 6E000000 		.4byte	.LVL51
 4374 047d 72000000 		.4byte	.LVL52
 4375 0481 0200     		.2byte	0x2
 4376 0483 30       		.byte	0x30
ARM GAS  /tmp/cc0nWktl.s 			page 78


 4377 0484 9F       		.byte	0x9f
 4378 0485 00000000 		.4byte	0
 4379 0489 00000000 		.4byte	0
 4380              		.section	.debug_aranges,"",%progbits
 4381 0000 64000000 		.4byte	0x64
 4382 0004 0200     		.2byte	0x2
 4383 0006 00000000 		.4byte	.Ldebug_info0
 4384 000a 04       		.byte	0x4
 4385 000b 00       		.byte	0
 4386 000c 0000     		.2byte	0
 4387 000e 0000     		.2byte	0
 4388 0010 00000000 		.4byte	.LFB182
 4389 0014 1E000000 		.4byte	.LFE182-.LFB182
 4390 0018 00000000 		.4byte	.LFB183
 4391 001c 12000000 		.4byte	.LFE183-.LFB183
 4392 0020 00000000 		.4byte	.LFB184
 4393 0024 36000000 		.4byte	.LFE184-.LFB184
 4394 0028 00000000 		.4byte	.LFB185
 4395 002c 48000000 		.4byte	.LFE185-.LFB185
 4396 0030 00000000 		.4byte	.LFB186
 4397 0034 76000000 		.4byte	.LFE186-.LFB186
 4398 0038 00000000 		.4byte	.LFB187
 4399 003c 1C000000 		.4byte	.LFE187-.LFB187
 4400 0040 00000000 		.4byte	.LFB188
 4401 0044 14000000 		.4byte	.LFE188-.LFB188
 4402 0048 00000000 		.4byte	.LFB189
 4403 004c 4E000000 		.4byte	.LFE189-.LFB189
 4404 0050 00000000 		.4byte	.LFB190
 4405 0054 36000000 		.4byte	.LFE190-.LFB190
 4406 0058 00000000 		.4byte	.LFB191
 4407 005c 7A000000 		.4byte	.LFE191-.LFB191
 4408 0060 00000000 		.4byte	0
 4409 0064 00000000 		.4byte	0
 4410              		.section	.debug_ranges,"",%progbits
 4411              	.Ldebug_ranges0:
 4412 0000 02000000 		.4byte	.LBB111
 4413 0004 0A000000 		.4byte	.LBE111
 4414 0008 2A000000 		.4byte	.LBB114
 4415 000c 34000000 		.4byte	.LBE114
 4416 0010 00000000 		.4byte	0
 4417 0014 00000000 		.4byte	0
 4418 0018 02000000 		.4byte	.LBB115
 4419 001c 04000000 		.4byte	.LBE115
 4420 0020 08000000 		.4byte	.LBB122
 4421 0024 0C000000 		.4byte	.LBE122
 4422 0028 00000000 		.4byte	0
 4423 002c 00000000 		.4byte	0
 4424 0030 02000000 		.4byte	.LBB116
 4425 0034 04000000 		.4byte	.LBE116
 4426 0038 08000000 		.4byte	.LBB121
 4427 003c 0C000000 		.4byte	.LBE121
 4428 0040 00000000 		.4byte	0
 4429 0044 00000000 		.4byte	0
 4430 0048 02000000 		.4byte	.LBB117
 4431 004c 04000000 		.4byte	.LBE117
 4432 0050 08000000 		.4byte	.LBB120
 4433 0054 0C000000 		.4byte	.LBE120
ARM GAS  /tmp/cc0nWktl.s 			page 79


 4434 0058 00000000 		.4byte	0
 4435 005c 00000000 		.4byte	0
 4436 0060 14000000 		.4byte	.LBB125
 4437 0064 18000000 		.4byte	.LBE125
 4438 0068 1A000000 		.4byte	.LBB131
 4439 006c 28000000 		.4byte	.LBE131
 4440 0070 00000000 		.4byte	0
 4441 0074 00000000 		.4byte	0
 4442 0078 1E000000 		.4byte	.LBB141
 4443 007c 20000000 		.4byte	.LBE141
 4444 0080 64000000 		.4byte	.LBB157
 4445 0084 68000000 		.4byte	.LBE157
 4446 0088 00000000 		.4byte	0
 4447 008c 00000000 		.4byte	0
 4448 0090 1E000000 		.4byte	.LBB142
 4449 0094 20000000 		.4byte	.LBE142
 4450 0098 64000000 		.4byte	.LBB149
 4451 009c 68000000 		.4byte	.LBE149
 4452 00a0 00000000 		.4byte	0
 4453 00a4 00000000 		.4byte	0
 4454 00a8 1E000000 		.4byte	.LBB143
 4455 00ac 20000000 		.4byte	.LBE143
 4456 00b0 64000000 		.4byte	.LBB148
 4457 00b4 68000000 		.4byte	.LBE148
 4458 00b8 00000000 		.4byte	0
 4459 00bc 00000000 		.4byte	0
 4460 00c0 1E000000 		.4byte	.LBB144
 4461 00c4 20000000 		.4byte	.LBE144
 4462 00c8 64000000 		.4byte	.LBB147
 4463 00cc 68000000 		.4byte	.LBE147
 4464 00d0 00000000 		.4byte	0
 4465 00d4 00000000 		.4byte	0
 4466 00d8 10000000 		.4byte	.LBB171
 4467 00dc 14000000 		.4byte	.LBE171
 4468 00e0 16000000 		.4byte	.LBB177
 4469 00e4 24000000 		.4byte	.LBE177
 4470 00e8 00000000 		.4byte	0
 4471 00ec 00000000 		.4byte	0
 4472 00f0 00000000 		.4byte	.LBB183
 4473 00f4 04000000 		.4byte	.LBE183
 4474 00f8 06000000 		.4byte	.LBB187
 4475 00fc 0A000000 		.4byte	.LBE187
 4476 0100 2A000000 		.4byte	.LBB188
 4477 0104 34000000 		.4byte	.LBE188
 4478 0108 00000000 		.4byte	0
 4479 010c 00000000 		.4byte	0
 4480 0110 1E000000 		.4byte	.LBB193
 4481 0114 20000000 		.4byte	.LBE193
 4482 0118 48000000 		.4byte	.LBB205
 4483 011c 4C000000 		.4byte	.LBE205
 4484 0120 00000000 		.4byte	0
 4485 0124 00000000 		.4byte	0
 4486 0128 1E000000 		.4byte	.LBB194
 4487 012c 20000000 		.4byte	.LBE194
 4488 0130 48000000 		.4byte	.LBB201
 4489 0134 4C000000 		.4byte	.LBE201
 4490 0138 00000000 		.4byte	0
ARM GAS  /tmp/cc0nWktl.s 			page 80


 4491 013c 00000000 		.4byte	0
 4492 0140 1E000000 		.4byte	.LBB195
 4493 0144 20000000 		.4byte	.LBE195
 4494 0148 48000000 		.4byte	.LBB200
 4495 014c 4C000000 		.4byte	.LBE200
 4496 0150 00000000 		.4byte	0
 4497 0154 00000000 		.4byte	0
 4498 0158 1E000000 		.4byte	.LBB196
 4499 015c 20000000 		.4byte	.LBE196
 4500 0160 48000000 		.4byte	.LBB199
 4501 0164 4C000000 		.4byte	.LBE199
 4502 0168 00000000 		.4byte	0
 4503 016c 00000000 		.4byte	0
 4504 0170 20000000 		.4byte	.LBB202
 4505 0174 22000000 		.4byte	.LBE202
 4506 0178 5A000000 		.4byte	.LBB210
 4507 017c 5C000000 		.4byte	.LBE210
 4508 0180 00000000 		.4byte	0
 4509 0184 00000000 		.4byte	0
 4510 0188 00000000 		.4byte	.LFB182
 4511 018c 1E000000 		.4byte	.LFE182
 4512 0190 00000000 		.4byte	.LFB183
 4513 0194 12000000 		.4byte	.LFE183
 4514 0198 00000000 		.4byte	.LFB184
 4515 019c 36000000 		.4byte	.LFE184
 4516 01a0 00000000 		.4byte	.LFB185
 4517 01a4 48000000 		.4byte	.LFE185
 4518 01a8 00000000 		.4byte	.LFB186
 4519 01ac 76000000 		.4byte	.LFE186
 4520 01b0 00000000 		.4byte	.LFB187
 4521 01b4 1C000000 		.4byte	.LFE187
 4522 01b8 00000000 		.4byte	.LFB188
 4523 01bc 14000000 		.4byte	.LFE188
 4524 01c0 00000000 		.4byte	.LFB189
 4525 01c4 4E000000 		.4byte	.LFE189
 4526 01c8 00000000 		.4byte	.LFB190
 4527 01cc 36000000 		.4byte	.LFE190
 4528 01d0 00000000 		.4byte	.LFB191
 4529 01d4 7A000000 		.4byte	.LFE191
 4530 01d8 00000000 		.4byte	0
 4531 01dc 00000000 		.4byte	0
 4532              		.section	.debug_line,"",%progbits
 4533              	.Ldebug_line0:
 4534 0000 A7050000 		.section	.debug_str,"MS",%progbits,1
 4534      02001603 
 4534      00000201 
 4534      FB0E0D00 
 4534      01010101 
 4535              	.LASF45:
 4536 0000 63685F74 		.ascii	"ch_threads_list\000"
 4536      68726561 
 4536      64735F6C 
 4536      69737400 
 4537              	.LASF46:
 4538 0010 74687265 		.ascii	"threads_queue_t\000"
 4538      6164735F 
 4538      71756575 
ARM GAS  /tmp/cc0nWktl.s 			page 81


 4538      655F7400 
 4539              	.LASF35:
 4540 0020 705F7761 		.ascii	"p_waiting\000"
 4540      6974696E 
 4540      6700
 4541              	.LASF87:
 4542 002a 77746D74 		.ascii	"wtmtxp\000"
 4542      787000
 4543              	.LASF81:
 4544 0031 746D5F63 		.ascii	"tm_calibration_t\000"
 4544      616C6962 
 4544      72617469 
 4544      6F6E5F74 
 4544      00
 4545              	.LASF96:
 4546 0042 63686172 		.ascii	"char\000"
 4546      00
 4547              	.LASF130:
 4548 0047 63684951 		.ascii	"chIQGetTimeout\000"
 4548      47657454 
 4548      696D656F 
 4548      757400
 4549              	.LASF76:
 4550 0056 72656761 		.ascii	"regarm_t\000"
 4550      726D5F74 
 4550      00
 4551              	.LASF27:
 4552 005f 705F7072 		.ascii	"p_prio\000"
 4552      696F00
 4553              	.LASF134:
 4554 0066 6F6E6679 		.ascii	"onfy\000"
 4554      00
 4555              	.LASF23:
 4556 006b 73797374 		.ascii	"systime_t\000"
 4556      696D655F 
 4556      7400
 4557              	.LASF94:
 4558 0075 6D5F6F77 		.ascii	"m_owner\000"
 4558      6E657200 
 4559              	.LASF90:
 4560 007d 735F7175 		.ascii	"s_queue\000"
 4560      65756500 
 4561              	.LASF99:
 4562 0085 696F5F71 		.ascii	"io_queue_t\000"
 4562      75657565 
 4562      5F7400
 4563              	.LASF36:
 4564 0090 705F6D73 		.ascii	"p_msgqueue\000"
 4564      67717565 
 4564      756500
 4565              	.LASF0:
 4566 009b 756E7369 		.ascii	"unsigned int\000"
 4566      676E6564 
 4566      20696E74 
 4566      00
 4567              	.LASF132:
 4568 00a8 63684951 		.ascii	"chIQReadTimeout\000"
ARM GAS  /tmp/cc0nWktl.s 			page 82


 4568      52656164 
 4568      54696D65 
 4568      6F757400 
 4569              	.LASF43:
 4570 00b8 74687265 		.ascii	"threads_list_t\000"
 4570      6164735F 
 4570      6C697374 
 4570      5F7400
 4571              	.LASF106:
 4572 00c7 715F7264 		.ascii	"q_rdptr\000"
 4572      70747200 
 4573              	.LASF109:
 4574 00cf 716E6F74 		.ascii	"qnotify_t\000"
 4574      6966795F 
 4574      7400
 4575              	.LASF142:
 4576 00d9 2E2E2F2E 		.ascii	"../../../resources/chibios/ChibiOS_16.1.8/os/rt/src"
 4576      2E2F2E2E 
 4576      2F726573 
 4576      6F757263 
 4576      65732F63 
 4577 010c 2F636871 		.ascii	"/chqueues.c\000"
 4577      75657565 
 4577      732E6300 
 4578              	.LASF84:
 4579 0118 77746F62 		.ascii	"wtobjp\000"
 4579      6A7000
 4580              	.LASF112:
 4581 011f 706F7274 		.ascii	"port_lock\000"
 4581      5F6C6F63 
 4581      6B00
 4582              	.LASF73:
 4583 0129 76746C69 		.ascii	"vtlist\000"
 4583      737400
 4584              	.LASF108:
 4585 0130 715F6C69 		.ascii	"q_link\000"
 4585      6E6B00
 4586              	.LASF49:
 4587 0137 63685F72 		.ascii	"ch_ready_list\000"
 4587      65616479 
 4587      5F6C6973 
 4587      7400
 4588              	.LASF75:
 4589 0145 69646C65 		.ascii	"idle_thread_wa\000"
 4589      5F746872 
 4589      6561645F 
 4589      776100
 4590              	.LASF117:
 4591 0154 63685468 		.ascii	"chThdQueueObjectInit\000"
 4591      64517565 
 4591      75654F62 
 4591      6A656374 
 4591      496E6974 
 4592              	.LASF88:
 4593 0169 65776D61 		.ascii	"ewmask\000"
 4593      736B00
 4594              	.LASF47:
ARM GAS  /tmp/cc0nWktl.s 			page 83


 4595 0170 63685F74 		.ascii	"ch_threads_queue\000"
 4595      68726561 
 4595      64735F71 
 4595      75657565 
 4595      00
 4596              	.LASF56:
 4597 0181 76746675 		.ascii	"vtfunc_t\000"
 4597      6E635F74 
 4597      00
 4598              	.LASF120:
 4599 018a 63684951 		.ascii	"chIQIsFullI\000"
 4599      49734675 
 4599      6C6C4900 
 4600              	.LASF91:
 4601 0196 735F636E 		.ascii	"s_cnt\000"
 4601      7400
 4602              	.LASF68:
 4603 019c 63685F73 		.ascii	"ch_system_debug\000"
 4603      79737465 
 4603      6D5F6465 
 4603      62756700 
 4604              	.LASF135:
 4605 01ac 63684F51 		.ascii	"chOQResetI\000"
 4605      52657365 
 4605      744900
 4606              	.LASF10:
 4607 01b7 75696E74 		.ascii	"uint32_t\000"
 4607      33325F74 
 4607      00
 4608              	.LASF101:
 4609 01c0 715F7761 		.ascii	"q_waiting\000"
 4609      6974696E 
 4609      6700
 4610              	.LASF128:
 4611 01ca 63684951 		.ascii	"chIQResetI\000"
 4611      52657365 
 4611      744900
 4612              	.LASF21:
 4613 01d5 6576656E 		.ascii	"eventmask_t\000"
 4613      746D6173 
 4613      6B5F7400 
 4614              	.LASF51:
 4615 01e1 725F7072 		.ascii	"r_prio\000"
 4615      696F00
 4616              	.LASF63:
 4617 01e8 76745F70 		.ascii	"vt_par\000"
 4617      617200
 4618              	.LASF89:
 4619 01ef 63685F73 		.ascii	"ch_semaphore\000"
 4619      656D6170 
 4619      686F7265 
 4619      00
 4620              	.LASF19:
 4621 01fc 74707269 		.ascii	"tprio_t\000"
 4621      6F5F7400 
 4622              	.LASF58:
 4623 0204 63685F76 		.ascii	"ch_virtual_timer\000"
ARM GAS  /tmp/cc0nWktl.s 			page 84


 4623      69727475 
 4623      616C5F74 
 4623      696D6572 
 4623      00
 4624              	.LASF14:
 4625 0215 6C6F6E67 		.ascii	"long long unsigned int\000"
 4625      206C6F6E 
 4625      6720756E 
 4625      7369676E 
 4625      65642069 
 4626              	.LASF138:
 4627 022c 63684F51 		.ascii	"chOQWriteTimeout\000"
 4627      57726974 
 4627      6554696D 
 4627      656F7574 
 4627      00
 4628              	.LASF22:
 4629 023d 636E745F 		.ascii	"cnt_t\000"
 4629      7400
 4630              	.LASF119:
 4631 0243 63685379 		.ascii	"chSysUnlock\000"
 4631      73556E6C 
 4631      6F636B00 
 4632              	.LASF29:
 4633 024f 705F6E65 		.ascii	"p_newer\000"
 4633      77657200 
 4634              	.LASF116:
 4635 0257 76616C75 		.ascii	"value\000"
 4635      6500
 4636              	.LASF65:
 4637 025d 63685F76 		.ascii	"ch_virtual_timers_list\000"
 4637      69727475 
 4637      616C5F74 
 4637      696D6572 
 4637      735F6C69 
 4638              	.LASF24:
 4639 0274 74687265 		.ascii	"thread_t\000"
 4639      61645F74 
 4639      00
 4640              	.LASF2:
 4641 027d 73697A65 		.ascii	"size_t\000"
 4641      5F7400
 4642              	.LASF82:
 4643 0284 7264796D 		.ascii	"rdymsg\000"
 4643      736700
 4644              	.LASF80:
 4645 028b 6F666673 		.ascii	"offset\000"
 4645      657400
 4646              	.LASF98:
 4647 0292 5F426F6F 		.ascii	"_Bool\000"
 4647      6C00
 4648              	.LASF92:
 4649 0298 63685F6D 		.ascii	"ch_mutex\000"
 4649      75746578 
 4649      00
 4650              	.LASF107:
 4651 02a1 715F6E6F 		.ascii	"q_notify\000"
ARM GAS  /tmp/cc0nWktl.s 			page 85


 4651      74696679 
 4651      00
 4652              	.LASF118:
 4653 02aa 63685379 		.ascii	"chSysLock\000"
 4653      734C6F63 
 4653      6B00
 4654              	.LASF31:
 4655 02b4 705F6E61 		.ascii	"p_name\000"
 4655      6D6500
 4656              	.LASF61:
 4657 02bb 76745F64 		.ascii	"vt_delta\000"
 4657      656C7461 
 4657      00
 4658              	.LASF42:
 4659 02c4 74687265 		.ascii	"thread_reference_t\000"
 4659      61645F72 
 4659      65666572 
 4659      656E6365 
 4659      5F7400
 4660              	.LASF66:
 4661 02d7 76745F6C 		.ascii	"vt_lasttime\000"
 4661      61737474 
 4661      696D6500 
 4662              	.LASF105:
 4663 02e3 715F7772 		.ascii	"q_wrptr\000"
 4663      70747200 
 4664              	.LASF17:
 4665 02eb 74737461 		.ascii	"tstate_t\000"
 4665      74655F74 
 4665      00
 4666              	.LASF30:
 4667 02f4 705F6F6C 		.ascii	"p_older\000"
 4667      64657200 
 4668              	.LASF32:
 4669 02fc 705F7374 		.ascii	"p_state\000"
 4669      61746500 
 4670              	.LASF3:
 4671 0304 75696E74 		.ascii	"uint8_t\000"
 4671      385F7400 
 4672              	.LASF110:
 4673 030c 696E7075 		.ascii	"input_queue_t\000"
 4673      745F7175 
 4673      6575655F 
 4673      7400
 4674              	.LASF41:
 4675 031a 705F6D70 		.ascii	"p_mpool\000"
 4675      6F6F6C00 
 4676              	.LASF39:
 4677 0322 705F6D74 		.ascii	"p_mtxlist\000"
 4677      786C6973 
 4677      7400
 4678              	.LASF44:
 4679 032c 63685F74 		.ascii	"ch_thread\000"
 4679      68726561 
 4679      6400
 4680              	.LASF67:
 4681 0336 73797374 		.ascii	"system_debug_t\000"
ARM GAS  /tmp/cc0nWktl.s 			page 86


 4681      656D5F64 
 4681      65627567 
 4681      5F7400
 4682              	.LASF12:
 4683 0345 6C6F6E67 		.ascii	"long long int\000"
 4683      206C6F6E 
 4683      6720696E 
 4683      7400
 4684              	.LASF103:
 4685 0353 715F6275 		.ascii	"q_buffer\000"
 4685      66666572 
 4685      00
 4686              	.LASF50:
 4687 035c 725F7175 		.ascii	"r_queue\000"
 4687      65756500 
 4688              	.LASF53:
 4689 0364 725F6E65 		.ascii	"r_newer\000"
 4689      77657200 
 4690              	.LASF20:
 4691 036c 6D73675F 		.ascii	"msg_t\000"
 4691      7400
 4692              	.LASF78:
 4693 0372 636F6E74 		.ascii	"context\000"
 4693      65787400 
 4694              	.LASF33:
 4695 037a 705F666C 		.ascii	"p_flags\000"
 4695      61677300 
 4696              	.LASF57:
 4697 0382 76697274 		.ascii	"virtual_timer_t\000"
 4697      75616C5F 
 4697      74696D65 
 4697      725F7400 
 4698              	.LASF127:
 4699 0392 63684951 		.ascii	"chIQObjectInit\000"
 4699      4F626A65 
 4699      6374496E 
 4699      697400
 4700              	.LASF143:
 4701 03a1 2F686F6D 		.ascii	"/home/madog/Documents/proyectos/CYCLE/repos/harvest"
 4701      652F6D61 
 4701      646F672F 
 4701      446F6375 
 4701      6D656E74 
 4702 03d4 65722F73 		.ascii	"er/src\000"
 4702      726300
 4703              	.LASF111:
 4704 03db 6F757470 		.ascii	"output_queue_t\000"
 4704      75745F71 
 4704      75657565 
 4704      5F7400
 4705              	.LASF124:
 4706 03ea 73697A65 		.ascii	"size\000"
 4706      00
 4707              	.LASF54:
 4708 03ef 725F6F6C 		.ascii	"r_older\000"
 4708      64657200 
 4709              	.LASF129:
ARM GAS  /tmp/cc0nWktl.s 			page 87


 4710 03f7 63684951 		.ascii	"chIQPutI\000"
 4710      50757449 
 4710      00
 4711              	.LASF125:
 4712 0400 696E6679 		.ascii	"infy\000"
 4712      00
 4713              	.LASF69:
 4714 0405 70616E69 		.ascii	"panic_msg\000"
 4714      635F6D73 
 4714      6700
 4715              	.LASF121:
 4716 040f 63684951 		.ascii	"chIQIsEmptyI\000"
 4716      4973456D 
 4716      70747949 
 4716      00
 4717              	.LASF37:
 4718 041c 705F6D73 		.ascii	"p_msg\000"
 4718      6700
 4719              	.LASF16:
 4720 0422 746D6F64 		.ascii	"tmode_t\000"
 4720      655F7400 
 4721              	.LASF74:
 4722 042a 6D61696E 		.ascii	"mainthread\000"
 4722      74687265 
 4722      616400
 4723              	.LASF133:
 4724 0435 63684F51 		.ascii	"chOQObjectInit\000"
 4724      4F626A65 
 4724      6374496E 
 4724      697400
 4725              	.LASF6:
 4726 0444 75696E74 		.ascii	"uint16_t\000"
 4726      31365F74 
 4726      00
 4727              	.LASF131:
 4728 044d 74696D65 		.ascii	"timeout\000"
 4728      6F757400 
 4729              	.LASF15:
 4730 0455 7274636E 		.ascii	"rtcnt_t\000"
 4730      745F7400 
 4731              	.LASF139:
 4732 045d 5F5F6675 		.ascii	"__func__\000"
 4732      6E635F5F 
 4732      00
 4733              	.LASF40:
 4734 0466 705F7265 		.ascii	"p_realprio\000"
 4734      616C7072 
 4734      696F00
 4735              	.LASF5:
 4736 0471 73686F72 		.ascii	"short int\000"
 4736      7420696E 
 4736      7400
 4737              	.LASF55:
 4738 047b 725F6375 		.ascii	"r_current\000"
 4738      7272656E 
 4738      7400
 4739              	.LASF38:
ARM GAS  /tmp/cc0nWktl.s 			page 88


 4740 0485 705F6570 		.ascii	"p_epending\000"
 4740      656E6469 
 4740      6E6700
 4741              	.LASF93:
 4742 0490 6D5F7175 		.ascii	"m_queue\000"
 4742      65756500 
 4743              	.LASF9:
 4744 0498 6C6F6E67 		.ascii	"long int\000"
 4744      20696E74 
 4744      00
 4745              	.LASF79:
 4746 04a1 706F7274 		.ascii	"port_intctx\000"
 4746      5F696E74 
 4746      63747800 
 4747              	.LASF140:
 4748 04ad 49544D5F 		.ascii	"ITM_RxBuffer\000"
 4748      52784275 
 4748      66666572 
 4748      00
 4749              	.LASF71:
 4750 04ba 63685F73 		.ascii	"ch_system\000"
 4750      79737465 
 4750      6D00
 4751              	.LASF114:
 4752 04c4 5F5F7365 		.ascii	"__set_BASEPRI\000"
 4752      745F4241 
 4752      53455052 
 4752      4900
 4753              	.LASF25:
 4754 04d2 705F6E65 		.ascii	"p_next\000"
 4754      787400
 4755              	.LASF13:
 4756 04d9 75696E74 		.ascii	"uint64_t\000"
 4756      36345F74 
 4756      00
 4757              	.LASF28:
 4758 04e2 705F6374 		.ascii	"p_ctx\000"
 4758      7800
 4759              	.LASF72:
 4760 04e8 726C6973 		.ascii	"rlist\000"
 4760      7400
 4761              	.LASF137:
 4762 04ee 63684F51 		.ascii	"chOQGetI\000"
 4762      47657449 
 4762      00
 4763              	.LASF102:
 4764 04f7 715F636F 		.ascii	"q_counter\000"
 4764      756E7465 
 4764      7200
 4765              	.LASF104:
 4766 0501 715F746F 		.ascii	"q_top\000"
 4766      7000
 4767              	.LASF26:
 4768 0507 705F7072 		.ascii	"p_prev\000"
 4768      657600
 4769              	.LASF18:
 4770 050e 74726566 		.ascii	"trefs_t\000"
ARM GAS  /tmp/cc0nWktl.s 			page 89


 4770      735F7400 
 4771              	.LASF11:
 4772 0516 6C6F6E67 		.ascii	"long unsigned int\000"
 4772      20756E73 
 4772      69676E65 
 4772      6420696E 
 4772      7400
 4773              	.LASF48:
 4774 0528 72656164 		.ascii	"ready_list_t\000"
 4774      795F6C69 
 4774      73745F74 
 4774      00
 4775              	.LASF8:
 4776 0535 696E7433 		.ascii	"int32_t\000"
 4776      325F7400 
 4777              	.LASF86:
 4778 053d 77747365 		.ascii	"wtsemp\000"
 4778      6D7000
 4779              	.LASF141:
 4780 0544 474E5520 		.ascii	"GNU C 4.6.1\000"
 4780      4320342E 
 4780      362E3100 
 4781              	.LASF97:
 4782 0550 6D757465 		.ascii	"mutex_t\000"
 4782      785F7400 
 4783              	.LASF115:
 4784 0558 71756575 		.ascii	"queue_init\000"
 4784      655F696E 
 4784      697400
 4785              	.LASF4:
 4786 0563 756E7369 		.ascii	"unsigned char\000"
 4786      676E6564 
 4786      20636861 
 4786      7200
 4787              	.LASF64:
 4788 0571 76697274 		.ascii	"virtual_timers_list_t\000"
 4788      75616C5F 
 4788      74696D65 
 4788      72735F6C 
 4788      6973745F 
 4789              	.LASF34:
 4790 0587 705F7265 		.ascii	"p_refs\000"
 4790      667300
 4791              	.LASF126:
 4792 058e 6C696E6B 		.ascii	"link\000"
 4792      00
 4793              	.LASF136:
 4794 0593 63684F51 		.ascii	"chOQPutTimeout\000"
 4794      50757454 
 4794      696D656F 
 4794      757400
 4795              	.LASF59:
 4796 05a2 76745F6E 		.ascii	"vt_next\000"
 4796      65787400 
 4797              	.LASF122:
 4798 05aa 63684F51 		.ascii	"chOQIsFullI\000"
 4798      49734675 
ARM GAS  /tmp/cc0nWktl.s 			page 90


 4798      6C6C4900 
 4799              	.LASF70:
 4800 05b6 63685F73 		.ascii	"ch_system_t\000"
 4800      79737465 
 4800      6D5F7400 
 4801              	.LASF85:
 4802 05c2 77747472 		.ascii	"wttrp\000"
 4802      7000
 4803              	.LASF95:
 4804 05c8 6D5F6E65 		.ascii	"m_next\000"
 4804      787400
 4805              	.LASF1:
 4806 05cf 7369676E 		.ascii	"signed char\000"
 4806      65642063 
 4806      68617200 
 4807              	.LASF100:
 4808 05db 696F5F71 		.ascii	"io_queue\000"
 4808      75657565 
 4808      00
 4809              	.LASF7:
 4810 05e4 73686F72 		.ascii	"short unsigned int\000"
 4810      7420756E 
 4810      7369676E 
 4810      65642069 
 4810      6E7400
 4811              	.LASF52:
 4812 05f7 725F6374 		.ascii	"r_ctx\000"
 4812      7800
 4813              	.LASF77:
 4814 05fd 73746B61 		.ascii	"stkalign_t\000"
 4814      6C69676E 
 4814      5F7400
 4815              	.LASF62:
 4816 0608 76745F66 		.ascii	"vt_func\000"
 4816      756E6300 
 4817              	.LASF113:
 4818 0610 706F7274 		.ascii	"port_unlock\000"
 4818      5F756E6C 
 4818      6F636B00 
 4819              	.LASF60:
 4820 061c 76745F70 		.ascii	"vt_prev\000"
 4820      72657600 
 4821              	.LASF123:
 4822 0624 63684F51 		.ascii	"chOQIsEmptyI\000"
 4822      4973456D 
 4822      70747949 
 4822      00
 4823              	.LASF83:
 4824 0631 65786974 		.ascii	"exitcode\000"
 4824      636F6465 
 4824      00
 4825              		.ident	"GCC: (Sourcery CodeBench Lite 2011.09-69) 4.6.1"
ARM GAS  /tmp/cc0nWktl.s 			page 91


DEFINED SYMBOLS
                            *ABS*:00000000 chqueues.c
     /tmp/cc0nWktl.s:19     .text.chIQObjectInit:00000000 $t
     /tmp/cc0nWktl.s:25     .text.chIQObjectInit:00000000 chIQObjectInit
     /tmp/cc0nWktl.s:78     .text.chIQResetI:00000000 $t
     /tmp/cc0nWktl.s:84     .text.chIQResetI:00000000 chIQResetI
     /tmp/cc0nWktl.s:112    .text.chIQPutI:00000000 $t
     /tmp/cc0nWktl.s:118    .text.chIQPutI:00000000 chIQPutI
     /tmp/cc0nWktl.s:185    .text.chIQGetTimeout:00000000 $t
     /tmp/cc0nWktl.s:191    .text.chIQGetTimeout:00000000 chIQGetTimeout
     /tmp/cc0nWktl.s:323    .text.chIQReadTimeout:00000000 $t
     /tmp/cc0nWktl.s:329    .text.chIQReadTimeout:00000000 chIQReadTimeout
     /tmp/cc0nWktl.s:497    .text.chOQObjectInit:00000000 $t
     /tmp/cc0nWktl.s:503    .text.chOQObjectInit:00000000 chOQObjectInit
     /tmp/cc0nWktl.s:551    .text.chOQResetI:00000000 $t
     /tmp/cc0nWktl.s:557    .text.chOQResetI:00000000 chOQResetI
     /tmp/cc0nWktl.s:586    .text.chOQPutTimeout:00000000 $t
     /tmp/cc0nWktl.s:592    .text.chOQPutTimeout:00000000 chOQPutTimeout
     /tmp/cc0nWktl.s:721    .text.chOQGetI:00000000 $t
     /tmp/cc0nWktl.s:727    .text.chOQGetI:00000000 chOQGetI
     /tmp/cc0nWktl.s:801    .text.chOQWriteTimeout:00000000 $t
     /tmp/cc0nWktl.s:807    .text.chOQWriteTimeout:00000000 chOQWriteTimeout
                     .debug_frame:00000010 $d

UNDEFINED SYMBOLS
chThdDequeueAllI
chThdDequeueNextI
chThdEnqueueTimeoutS
