ARM GAS  /tmp/cc0nWktl.s 			page 1


   1              		.syntax unified
   2              		.cpu cortex-m3
   3              		.fpu softvfp
   4              		.eabi_attribute 20, 1
   5              		.eabi_attribute 21, 1
   6              		.eabi_attribute 23, 3
   7              		.eabi_attribute 24, 1
   8              		.eabi_attribute 25, 1
   9              		.eabi_attribute 26, 1
  10              		.eabi_attribute 30, 2
  11              		.eabi_attribute 34, 1
  12              		.eabi_attribute 18, 4
  13              		.thumb
  14              		.file	"chqueues.c"
  15              		.text
  16              	.Ltext0:
  17              		.cfi_sections	.debug_frame
  18              		.section	.text.chIQObjectInit,"ax",%progbits
  19              		.align	2
  20              		.p2align 4,,15
  21              		.global	chIQObjectInit
  22              		.thumb
  23              		.thumb_func
  24              		.type	chIQObjectInit, %function
  25              	chIQObjectInit:
  26              	.LFB182:
  27              		.file 1 "../../../resources/chibios/ChibiOS_16.1.8/os/rt/src/chqueues.c"
  28              		.loc 1 88 0
  29              		.cfi_startproc
  30              		@ args = 4, pretend = 0, frame = 0
  31              		@ frame_needed = 0, uses_anonymous_args = 0
  32              		@ link register save eliminated.
  33              	.LVL0:
  34 0000 10B4     		push	{r4}
  35              	.LCFI0:
  36              		.cfi_def_cfa_offset 4
  37              		.cfi_offset 4, -4
  38              		.loc 1 96 0
  39 0002 C361     		str	r3, [r0, #28]
  40              		.loc 1 97 0
  41 0004 019B     		ldr	r3, [sp, #4]
  42              	.LVL1:
  43              		.loc 1 95 0
  44 0006 8A18     		adds	r2, r1, r2
  45              	.LVL2:
  46              		.loc 1 91 0
  47 0008 0024     		movs	r4, #0
  48              	.LBB108:
  49              	.LBB109:
  50              	.LBB110:
  51              		.file 2 "../../../resources/chibios/ChibiOS_16.1.8/os/rt/include/chschd.h"
  52              		.loc 2 604 0
  53 000a 0060     		str	r0, [r0, #0]
  54              		.loc 2 605 0
  55 000c 4060     		str	r0, [r0, #4]
  56              	.LBE110:
  57              	.LBE109:
ARM GAS  /tmp/cc0nWktl.s 			page 2


  58              	.LBE108:
  59              		.loc 1 91 0
  60 000e 8460     		str	r4, [r0, #8]
  61              		.loc 1 92 0
  62 0010 C160     		str	r1, [r0, #12]
  63              		.loc 1 93 0
  64 0012 8161     		str	r1, [r0, #24]
  65              		.loc 1 94 0
  66 0014 4161     		str	r1, [r0, #20]
  67              		.loc 1 95 0
  68 0016 0261     		str	r2, [r0, #16]
  69              		.loc 1 97 0
  70 0018 0362     		str	r3, [r0, #32]
  71              		.loc 1 98 0
  72 001a 10BC     		pop	{r4}
  73 001c 7047     		bx	lr
  74              		.cfi_endproc
  75              	.LFE182:
  76              		.size	chIQObjectInit, .-chIQObjectInit
  77 001e 00BF     		.section	.text.chIQResetI,"ax",%progbits
  78              		.align	2
  79              		.p2align 4,,15
  80              		.global	chIQResetI
  81              		.thumb
  82              		.thumb_func
  83              		.type	chIQResetI, %function
  84              	chIQResetI:
  85              	.LFB183:
  86              		.loc 1 111 0
  87              		.cfi_startproc
  88              		@ args = 0, pretend = 0, frame = 0
  89              		@ frame_needed = 0, uses_anonymous_args = 0
  90              		@ link register save eliminated.
  91              	.LVL3:
  92              		.loc 1 115 0
  93 0000 C168     		ldr	r1, [r0, #12]
  94              		.loc 1 117 0
  95 0002 0022     		movs	r2, #0
  96              		.loc 1 115 0
  97 0004 8161     		str	r1, [r0, #24]
  98              		.loc 1 116 0
  99 0006 4161     		str	r1, [r0, #20]
 100              		.loc 1 118 0
 101 0008 6FF00101 		mvn	r1, #1
 102              		.loc 1 117 0
 103 000c 8260     		str	r2, [r0, #8]
 104              		.loc 1 119 0
 105              		.loc 1 118 0
 106 000e FFF7FEBF 		b	chThdDequeueAllI
 107              	.LVL4:
 108              		.cfi_endproc
 109              	.LFE183:
 110              		.size	chIQResetI, .-chIQResetI
 111 0012 00BFAFF3 		.section	.text.chIQPutI,"ax",%progbits
 111      0080AFF3 
 111      0080AFF3 
 111      0080
ARM GAS  /tmp/cc0nWktl.s 			page 3


 112              		.align	2
 113              		.p2align 4,,15
 114              		.global	chIQPutI
 115              		.thumb
 116              		.thumb_func
 117              		.type	chIQPutI, %function
 118              	chIQPutI:
 119              	.LFB184:
 120              		.loc 1 134 0
 121              		.cfi_startproc
 122              		@ args = 0, pretend = 0, frame = 0
 123              		@ frame_needed = 0, uses_anonymous_args = 0
 124              	.LVL5:
 125 0000 08B5     		push	{r3, lr}
 126              	.LCFI1:
 127              		.cfi_def_cfa_offset 8
 128              		.cfi_offset 14, -4
 129              		.cfi_offset 3, -8
 130              	.LBB111:
 131              	.LBB112:
 132              		.file 3 "../../../resources/chibios/ChibiOS_16.1.8/os/rt/include/chqueues.h"
 133              		.loc 3 325 0
 134 0002 8269     		ldr	r2, [r0, #24]
 135 0004 4369     		ldr	r3, [r0, #20]
 136 0006 9342     		cmp	r3, r2
 137 0008 0FD0     		beq	.L10
 138              	.L4:
 139              	.LBE112:
 140              	.LBE111:
 141              		.loc 1 142 0
 142 000a 8268     		ldr	r2, [r0, #8]
 143 000c 0132     		adds	r2, r2, #1
 144 000e 8260     		str	r2, [r0, #8]
 145              		.loc 1 143 0
 146 0010 03F8011B 		strb	r1, [r3], #1
 147              		.loc 1 144 0
 148 0014 0169     		ldr	r1, [r0, #16]
 149              	.LVL6:
 150              		.loc 1 143 0
 151 0016 4361     		str	r3, [r0, #20]
 152              		.loc 1 144 0
 153 0018 8B42     		cmp	r3, r1
 154 001a 01D3     		bcc	.L7
 155              		.loc 1 145 0
 156 001c C368     		ldr	r3, [r0, #12]
 157 001e 4361     		str	r3, [r0, #20]
 158              	.L7:
 159              		.loc 1 148 0
 160 0020 0021     		movs	r1, #0
 161 0022 FFF7FEFF 		bl	chThdDequeueNextI
 162              	.LVL7:
 163              		.loc 1 150 0
 164 0026 0020     		movs	r0, #0
 165 0028 08BD     		pop	{r3, pc}
 166              	.LVL8:
 167              	.L10:
 168              	.LBB114:
ARM GAS  /tmp/cc0nWktl.s 			page 4


 169              	.LBB113:
 170              		.loc 3 325 0
 171 002a 8268     		ldr	r2, [r0, #8]
 172 002c 002A     		cmp	r2, #0
 173 002e ECD0     		beq	.L4
 174              		.loc 1 139 0
 175 0030 6FF00300 		mvn	r0, #3
 176              	.LVL9:
 177              	.LBE113:
 178              	.LBE114:
 179              		.loc 1 151 0
 180 0034 08BD     		pop	{r3, pc}
 181              		.cfi_endproc
 182              	.LFE184:
 183              		.size	chIQPutI, .-chIQPutI
 184 0036 00BFAFF3 		.section	.text.chIQGetTimeout,"ax",%progbits
 184      0080AFF3 
 184      0080
 185              		.align	2
 186              		.p2align 4,,15
 187              		.global	chIQGetTimeout
 188              		.thumb
 189              		.thumb_func
 190              		.type	chIQGetTimeout, %function
 191              	chIQGetTimeout:
 192              	.LFB185:
 193              		.loc 1 173 0
 194              		.cfi_startproc
 195              		@ args = 0, pretend = 0, frame = 0
 196              		@ frame_needed = 0, uses_anonymous_args = 0
 197              	.LVL10:
 198 0000 70B5     		push	{r4, r5, r6, lr}
 199              	.LCFI2:
 200              		.cfi_def_cfa_offset 16
 201              		.cfi_offset 14, -4
 202              		.cfi_offset 6, -8
 203              		.cfi_offset 5, -12
 204              		.cfi_offset 4, -16
 205              	.LBB115:
 206              	.LBB116:
 207              	.LBB117:
 208              	.LBB118:
 209              		.file 4 "../../../resources/chibios/ChibiOS_16.1.8/os/ext/CMSIS/include/core_cmFunc.h"
 210              		.loc 4 548 0
 211 0002 2023     		movs	r3, #32
 212              	.LBE118:
 213              	.LBE117:
 214              	.LBE116:
 215              	.LBE115:
 216              		.loc 1 173 0
 217 0004 0446     		mov	r4, r0
 218 0006 0E46     		mov	r6, r1
 219              	.LBB122:
 220              	.LBB121:
 221              	.LBB120:
 222              	.LBB119:
 223              		.loc 4 548 0
ARM GAS  /tmp/cc0nWktl.s 			page 5


 224              	@ 548 "../../../resources/chibios/ChibiOS_16.1.8/os/ext/CMSIS/include/core_cmFunc.h" 1
 225 0008 83F31188 		MSR basepri, r3
 226              	@ 0 "" 2
 227              		.thumb
 228              	.LBE119:
 229              	.LBE120:
 230              	.LBE121:
 231              	.LBE122:
 232              		.loc 1 177 0
 233 000c C369     		ldr	r3, [r0, #28]
 234 000e 03B1     		cbz	r3, .L17
 235              		.loc 1 178 0
 236 0010 9847     		blx	r3
 237              	.LVL11:
 238              	.L17:
 239              	.LBB123:
 240              	.LBB124:
 241              		.loc 3 307 0 discriminator 1
 242 0012 A568     		ldr	r5, [r4, #8]
 243              	.LBE124:
 244              	.LBE123:
 245              	.LBB125:
 246              		.loc 1 182 0 discriminator 1
 247 0014 2046     		mov	r0, r4
 248 0016 3146     		mov	r1, r6
 249              	.LBE125:
 250              		.loc 1 181 0 discriminator 1
 251 0018 35B9     		cbnz	r5, .L19
 252              	.LBB131:
 253              		.loc 1 182 0
 254 001a FFF7FEFF 		bl	chThdEnqueueTimeoutS
 255              	.LVL12:
 256              		.loc 1 183 0
 257 001e 0028     		cmp	r0, #0
 258 0020 F7DA     		bge	.L17
 259              	.LVL13:
 260              	.LBB126:
 261              	.LBB127:
 262              	.LBB128:
 263              	.LBB129:
 264              	.LBB130:
 265              		.loc 4 548 0
 266              	@ 548 "../../../resources/chibios/ChibiOS_16.1.8/os/ext/CMSIS/include/core_cmFunc.h" 1
 267 0022 85F31188 		MSR basepri, r5
 268              	@ 0 "" 2
 269              		.thumb
 270              	.LBE130:
 271              	.LBE129:
 272              	.LBE128:
 273              	.LBE127:
 274              	.LBE126:
 275              		.loc 1 185 0
 276 0026 70BD     		pop	{r4, r5, r6, pc}
 277              	.LVL14:
 278              	.L19:
 279              	.LBE131:
 280              		.loc 1 189 0
ARM GAS  /tmp/cc0nWktl.s 			page 6


 281 0028 A168     		ldr	r1, [r4, #8]
 282              		.loc 1 190 0
 283 002a A369     		ldr	r3, [r4, #24]
 284              		.loc 1 189 0
 285 002c 481E     		subs	r0, r1, #1
 286 002e A060     		str	r0, [r4, #8]
 287              		.loc 1 190 0
 288 0030 13F8010B 		ldrb	r0, [r3], #1	@ zero_extendqisi2
 289              	.LVL15:
 290              		.loc 1 191 0
 291 0034 2269     		ldr	r2, [r4, #16]
 292              		.loc 1 190 0
 293 0036 A361     		str	r3, [r4, #24]
 294              		.loc 1 191 0
 295 0038 9342     		cmp	r3, r2
 296              		.loc 1 192 0
 297 003a 24BF     		itt	cs
 298 003c E368     		ldrcs	r3, [r4, #12]
 299 003e A361     		strcs	r3, [r4, #24]
 300              	.LVL16:
 301              	.LBB132:
 302              	.LBB133:
 303              	.LBB134:
 304              	.LBB135:
 305              	.LBB136:
 306              		.loc 4 548 0
 307 0040 0021     		movs	r1, #0
 308              	@ 548 "../../../resources/chibios/ChibiOS_16.1.8/os/ext/CMSIS/include/core_cmFunc.h" 1
 309 0042 81F31188 		MSR basepri, r1
 310              	@ 0 "" 2
 311              		.thumb
 312              	.LBE136:
 313              	.LBE135:
 314              	.LBE134:
 315              	.LBE133:
 316              	.LBE132:
 317              		.loc 1 197 0
 318 0046 70BD     		pop	{r4, r5, r6, pc}
 319              		.cfi_endproc
 320              	.LFE185:
 321              		.size	chIQGetTimeout, .-chIQGetTimeout
 322 0048 AFF30080 		.section	.text.chIQReadTimeout,"ax",%progbits
 322      AFF30080 
 323              		.align	2
 324              		.p2align 4,,15
 325              		.global	chIQReadTimeout
 326              		.thumb
 327              		.thumb_func
 328              		.type	chIQReadTimeout, %function
 329              	chIQReadTimeout:
 330              	.LFB186:
 331              		.loc 1 224 0
 332              		.cfi_startproc
 333              		@ args = 0, pretend = 0, frame = 8
 334              		@ frame_needed = 0, uses_anonymous_args = 0
 335              	.LVL17:
 336 0000 2DE9F04F 		push	{r4, r5, r6, r7, r8, r9, sl, fp, lr}
ARM GAS  /tmp/cc0nWktl.s 			page 7


 337              	.LCFI3:
 338              		.cfi_def_cfa_offset 36
 339              		.cfi_offset 14, -4
 340              		.cfi_offset 11, -8
 341              		.cfi_offset 10, -12
 342              		.cfi_offset 9, -16
 343              		.cfi_offset 8, -20
 344              		.cfi_offset 7, -24
 345              		.cfi_offset 6, -28
 346              		.cfi_offset 5, -32
 347              		.cfi_offset 4, -36
 348 0004 83B0     		sub	sp, sp, #12
 349              	.LCFI4:
 350              		.cfi_def_cfa_offset 48
 351              		.loc 1 224 0
 352 0006 0446     		mov	r4, r0
 353 0008 0191     		str	r1, [sp, #4]
 354 000a 1546     		mov	r5, r2
 355 000c 1F46     		mov	r7, r3
 356              		.loc 1 225 0
 357 000e D0F81C90 		ldr	r9, [r0, #28]
 358              	.LVL18:
 359              	.LBB137:
 360              	.LBB138:
 361              	.LBB139:
 362              	.LBB140:
 363              		.loc 4 548 0
 364 0012 4FF0200B 		mov	fp, #32
 365              	@ 548 "../../../resources/chibios/ChibiOS_16.1.8/os/ext/CMSIS/include/core_cmFunc.h" 1
 366 0016 8BF31188 		MSR basepri, fp
 367              	@ 0 "" 2
 368              		.loc 1 226 0
 369              		.thumb
 370 001a 4FF00008 		mov	r8, #0
 371              	.LBE140:
 372              	.LBE139:
 373              	.LBE138:
 374              	.LBE137:
 375              	.LBB141:
 376              	.LBB142:
 377              	.LBB143:
 378              	.LBB144:
 379              	.LBB145:
 380              		.loc 4 548 0
 381 001e C246     		mov	sl, r8
 382              	.LVL19:
 383              	.L26:
 384              	.LBE145:
 385              	.LBE144:
 386              	.LBE143:
 387              	.LBE142:
 388              	.LBE141:
 389              		.loc 1 232 0
 390 0020 B9F1000F 		cmp	r9, #0
 391 0024 01D0     		beq	.L27
 392              		.loc 1 233 0
 393 0026 2046     		mov	r0, r4
ARM GAS  /tmp/cc0nWktl.s 			page 8


 394 0028 C847     		blx	r9
 395              	.L27:
 396              	.LVL20:
 397              	.LBB150:
 398              	.LBB151:
 399              		.loc 3 307 0 discriminator 1
 400 002a A668     		ldr	r6, [r4, #8]
 401              	.LBE151:
 402              	.LBE150:
 403              		.loc 1 237 0 discriminator 1
 404 002c 2046     		mov	r0, r4
 405 002e 3946     		mov	r1, r7
 406              		.loc 1 236 0 discriminator 1
 407 0030 4EB9     		cbnz	r6, .L29
 408              		.loc 1 237 0
 409 0032 FFF7FEFF 		bl	chThdEnqueueTimeoutS
 410 0036 0028     		cmp	r0, #0
 411 0038 F7D0     		beq	.L27
 412              	.LVL21:
 413              	.LBB152:
 414              	.LBB153:
 415              	.LBB154:
 416              	.LBB155:
 417              	.LBB156:
 418              		.loc 4 548 0
 419              	@ 548 "../../../resources/chibios/ChibiOS_16.1.8/os/ext/CMSIS/include/core_cmFunc.h" 1
 420 003a 86F31188 		MSR basepri, r6
 421              	@ 0 "" 2
 422              	.LVL22:
 423              		.thumb
 424              	.L23:
 425              	.LBE156:
 426              	.LBE155:
 427              	.LBE154:
 428              	.LBE153:
 429              	.LBE152:
 430              		.loc 1 257 0
 431 003e 4046     		mov	r0, r8
 432 0040 03B0     		add	sp, sp, #12
 433 0042 BDE8F08F 		pop	{r4, r5, r6, r7, r8, r9, sl, fp, pc}
 434              	.L29:
 435              		.loc 1 243 0
 436 0046 A168     		ldr	r1, [r4, #8]
 437              		.loc 1 244 0
 438 0048 A369     		ldr	r3, [r4, #24]
 439              		.loc 1 243 0
 440 004a 4A1E     		subs	r2, r1, #1
 441 004c A260     		str	r2, [r4, #8]
 442              		.loc 1 244 0
 443 004e 13F8010B 		ldrb	r0, [r3], #1	@ zero_extendqisi2
 444 0052 0199     		ldr	r1, [sp, #4]
 445 0054 01F80800 		strb	r0, [r1, r8]
 446              		.loc 1 245 0
 447 0058 2269     		ldr	r2, [r4, #16]
 448              		.loc 1 244 0
 449 005a A361     		str	r3, [r4, #24]
 450              		.loc 1 245 0
ARM GAS  /tmp/cc0nWktl.s 			page 9


 451 005c 9342     		cmp	r3, r2
 452              		.loc 1 246 0
 453 005e 24BF     		itt	cs
 454 0060 E368     		ldrcs	r3, [r4, #12]
 455 0062 A361     		strcs	r3, [r4, #24]
 456              	.LVL23:
 457              	.LBB157:
 458              	.LBB149:
 459              	.LBB148:
 460              	.LBB147:
 461              	.LBB146:
 462              		.loc 4 548 0
 463              	@ 548 "../../../resources/chibios/ChibiOS_16.1.8/os/ext/CMSIS/include/core_cmFunc.h" 1
 464 0064 8AF31188 		MSR basepri, sl
 465              	@ 0 "" 2
 466              		.thumb
 467              	.LBE146:
 468              	.LBE147:
 469              	.LBE148:
 470              	.LBE149:
 471              	.LBE157:
 472              		.loc 1 250 0
 473 0068 08F10108 		add	r8, r8, #1
 474              	.LVL24:
 475              		.loc 1 251 0
 476 006c A845     		cmp	r8, r5
 477 006e E6D0     		beq	.L23
 478              	.LVL25:
 479              	.LBB158:
 480              	.LBB159:
 481              	.LBB160:
 482              	.LBB161:
 483              		.loc 4 548 0
 484              	@ 548 "../../../resources/chibios/ChibiOS_16.1.8/os/ext/CMSIS/include/core_cmFunc.h" 1
 485 0070 8BF31188 		MSR basepri, fp
 486              	@ 0 "" 2
 487              		.thumb
 488 0074 D4E7     		b	.L26
 489              	.LBE161:
 490              	.LBE160:
 491              	.LBE159:
 492              	.LBE158:
 493              		.cfi_endproc
 494              	.LFE186:
 495              		.size	chIQReadTimeout, .-chIQReadTimeout
 496 0076 00BFAFF3 		.section	.text.chOQObjectInit,"ax",%progbits
 496      0080AFF3 
 496      0080
 497              		.align	2
 498              		.p2align 4,,15
 499              		.global	chOQObjectInit
 500              		.thumb
 501              		.thumb_func
 502              		.type	chOQObjectInit, %function
 503              	chOQObjectInit:
 504              	.LFB187:
 505              		.loc 1 276 0
ARM GAS  /tmp/cc0nWktl.s 			page 10


 506              		.cfi_startproc
 507              		@ args = 4, pretend = 0, frame = 0
 508              		@ frame_needed = 0, uses_anonymous_args = 0
 509              		@ link register save eliminated.
 510              	.LVL26:
 511 0000 10B4     		push	{r4}
 512              	.LCFI5:
 513              		.cfi_def_cfa_offset 4
 514              		.cfi_offset 4, -4
 515              		.loc 1 284 0
 516 0002 C361     		str	r3, [r0, #28]
 517              		.loc 1 285 0
 518 0004 019B     		ldr	r3, [sp, #4]
 519              	.LVL27:
 520              		.loc 1 283 0
 521 0006 8C18     		adds	r4, r1, r2
 522              	.LBB162:
 523              	.LBB163:
 524              	.LBB164:
 525              		.loc 2 604 0
 526 0008 0060     		str	r0, [r0, #0]
 527              		.loc 2 605 0
 528 000a 4060     		str	r0, [r0, #4]
 529              	.LBE164:
 530              	.LBE163:
 531              	.LBE162:
 532              		.loc 1 279 0
 533 000c 8260     		str	r2, [r0, #8]
 534              		.loc 1 280 0
 535 000e C160     		str	r1, [r0, #12]
 536              		.loc 1 281 0
 537 0010 8161     		str	r1, [r0, #24]
 538              		.loc 1 282 0
 539 0012 4161     		str	r1, [r0, #20]
 540              		.loc 1 283 0
 541 0014 0461     		str	r4, [r0, #16]
 542              		.loc 1 285 0
 543 0016 0362     		str	r3, [r0, #32]
 544              		.loc 1 286 0
 545 0018 10BC     		pop	{r4}
 546 001a 7047     		bx	lr
 547              		.cfi_endproc
 548              	.LFE187:
 549              		.size	chOQObjectInit, .-chOQObjectInit
 550 001c AFF30080 		.section	.text.chOQResetI,"ax",%progbits
 551              		.align	2
 552              		.p2align 4,,15
 553              		.global	chOQResetI
 554              		.thumb
 555              		.thumb_func
 556              		.type	chOQResetI, %function
 557              	chOQResetI:
 558              	.LFB188:
 559              		.loc 1 299 0
 560              		.cfi_startproc
 561              		@ args = 0, pretend = 0, frame = 0
 562              		@ frame_needed = 0, uses_anonymous_args = 0
ARM GAS  /tmp/cc0nWktl.s 			page 11


 563              		@ link register save eliminated.
 564              	.LVL28:
 565              		.loc 1 303 0
 566 0000 C268     		ldr	r2, [r0, #12]
 567              		.loc 1 305 0
 568 0002 0169     		ldr	r1, [r0, #16]
 569              		.loc 1 303 0
 570 0004 8261     		str	r2, [r0, #24]
 571              		.loc 1 305 0
 572 0006 891A     		subs	r1, r1, r2
 573 0008 8160     		str	r1, [r0, #8]
 574              		.loc 1 306 0
 575 000a 6FF00101 		mvn	r1, #1
 576              		.loc 1 304 0
 577 000e 4261     		str	r2, [r0, #20]
 578              		.loc 1 307 0
 579              		.loc 1 306 0
 580 0010 FFF7FEBF 		b	chThdDequeueAllI
 581              	.LVL29:
 582              		.cfi_endproc
 583              	.LFE188:
 584              		.size	chOQResetI, .-chOQResetI
 585 0014 AFF30080 		.section	.text.chOQPutTimeout,"ax",%progbits
 585      AFF30080 
 585      AFF30080 
 586              		.align	2
 587              		.p2align 4,,15
 588              		.global	chOQPutTimeout
 589              		.thumb
 590              		.thumb_func
 591              		.type	chOQPutTimeout, %function
 592              	chOQPutTimeout:
 593              	.LFB189:
 594              		.loc 1 331 0
 595              		.cfi_startproc
 596              		@ args = 0, pretend = 0, frame = 0
 597              		@ frame_needed = 0, uses_anonymous_args = 0
 598              	.LVL30:
 599 0000 F8B5     		push	{r3, r4, r5, r6, r7, lr}
 600              	.LCFI6:
 601              		.cfi_def_cfa_offset 24
 602              		.cfi_offset 14, -4
 603              		.cfi_offset 7, -8
 604              		.cfi_offset 6, -12
 605              		.cfi_offset 5, -16
 606              		.cfi_offset 4, -20
 607              		.cfi_offset 3, -24
 608              		.loc 1 331 0
 609 0002 0446     		mov	r4, r0
 610 0004 0D46     		mov	r5, r1
 611 0006 1746     		mov	r7, r2
 612              	.LBB165:
 613              	.LBB166:
 614              	.LBB167:
 615              	.LBB168:
 616              		.loc 4 548 0
 617 0008 2023     		movs	r3, #32
ARM GAS  /tmp/cc0nWktl.s 			page 12


 618              	@ 548 "../../../resources/chibios/ChibiOS_16.1.8/os/ext/CMSIS/include/core_cmFunc.h" 1
 619 000a 83F31188 		MSR basepri, r3
 620              	@ 0 "" 2
 621              	.LVL31:
 622              		.thumb
 623              	.L33:
 624              	.LBE168:
 625              	.LBE167:
 626              	.LBE166:
 627              	.LBE165:
 628              	.LBB169:
 629              	.LBB170:
 630              		.loc 3 411 0 discriminator 1
 631 000e A668     		ldr	r6, [r4, #8]
 632              	.LBE170:
 633              	.LBE169:
 634              	.LBB171:
 635              		.loc 1 335 0 discriminator 1
 636 0010 2046     		mov	r0, r4
 637 0012 3946     		mov	r1, r7
 638              	.LBE171:
 639              		.loc 1 334 0 discriminator 1
 640 0014 36B9     		cbnz	r6, .L39
 641              	.LBB177:
 642              		.loc 1 335 0
 643 0016 FFF7FEFF 		bl	chThdEnqueueTimeoutS
 644              	.LVL32:
 645              		.loc 1 336 0
 646 001a 0028     		cmp	r0, #0
 647 001c F7DA     		bge	.L33
 648              	.LVL33:
 649              	.LBB172:
 650              	.LBB173:
 651              	.LBB174:
 652              	.LBB175:
 653              	.LBB176:
 654              		.loc 4 548 0
 655              	@ 548 "../../../resources/chibios/ChibiOS_16.1.8/os/ext/CMSIS/include/core_cmFunc.h" 1
 656 001e 86F31188 		MSR basepri, r6
 657              	@ 0 "" 2
 658              		.thumb
 659              	.LBE176:
 660              	.LBE175:
 661              	.LBE174:
 662              	.LBE173:
 663              	.LBE172:
 664              		.loc 1 338 0
 665 0022 F8BD     		pop	{r3, r4, r5, r6, r7, pc}
 666              	.LVL34:
 667              	.L39:
 668              	.LBE177:
 669              		.loc 1 342 0
 670 0024 A368     		ldr	r3, [r4, #8]
 671              		.loc 1 343 0
 672 0026 6069     		ldr	r0, [r4, #20]
 673              		.loc 1 342 0
 674 0028 591E     		subs	r1, r3, #1
ARM GAS  /tmp/cc0nWktl.s 			page 13


 675 002a A160     		str	r1, [r4, #8]
 676              		.loc 1 343 0
 677 002c 00F8015B 		strb	r5, [r0], #1
 678              		.loc 1 344 0
 679 0030 2269     		ldr	r2, [r4, #16]
 680              		.loc 1 343 0
 681 0032 6061     		str	r0, [r4, #20]
 682              		.loc 1 344 0
 683 0034 9042     		cmp	r0, r2
 684              		.loc 1 345 0
 685 0036 28BF     		it	cs
 686 0038 E068     		ldrcs	r0, [r4, #12]
 687              		.loc 1 348 0
 688 003a E369     		ldr	r3, [r4, #28]
 689              		.loc 1 345 0
 690 003c 28BF     		it	cs
 691 003e 6061     		strcs	r0, [r4, #20]
 692              		.loc 1 348 0
 693 0040 0BB1     		cbz	r3, .L37
 694              		.loc 1 349 0
 695 0042 2046     		mov	r0, r4
 696 0044 9847     		blx	r3
 697              	.L37:
 698              	.LVL35:
 699              	.LBB178:
 700              	.LBB179:
 701              	.LBB180:
 702              	.LBB181:
 703              	.LBB182:
 704              		.loc 4 548 0
 705 0046 0020     		movs	r0, #0
 706              	@ 548 "../../../resources/chibios/ChibiOS_16.1.8/os/ext/CMSIS/include/core_cmFunc.h" 1
 707 0048 80F31188 		MSR basepri, r0
 708              	@ 0 "" 2
 709              		.thumb
 710              	.LBE182:
 711              	.LBE181:
 712              	.LBE180:
 713              	.LBE179:
 714              	.LBE178:
 715              		.loc 1 354 0
 716 004c F8BD     		pop	{r3, r4, r5, r6, r7, pc}
 717              		.cfi_endproc
 718              	.LFE189:
 719              		.size	chOQPutTimeout, .-chOQPutTimeout
 720 004e 00BF     		.section	.text.chOQGetI,"ax",%progbits
 721              		.align	2
 722              		.p2align 4,,15
 723              		.global	chOQGetI
 724              		.thumb
 725              		.thumb_func
 726              		.type	chOQGetI, %function
 727              	chOQGetI:
 728              	.LFB190:
 729              		.loc 1 366 0
 730              		.cfi_startproc
 731              		@ args = 0, pretend = 0, frame = 0
ARM GAS  /tmp/cc0nWktl.s 			page 14


 732              		@ frame_needed = 0, uses_anonymous_args = 0
 733              	.LVL36:
 734              	.LBB183:
 735              	.LBB184:
 736              		.loc 3 393 0
 737 0000 8369     		ldr	r3, [r0, #24]
 738 0002 4269     		ldr	r2, [r0, #20]
 739              	.LBE184:
 740              	.LBE183:
 741              		.loc 1 366 0
 742 0004 10B5     		push	{r4, lr}
 743              	.LCFI7:
 744              		.cfi_def_cfa_offset 8
 745              		.cfi_offset 14, -4
 746              		.cfi_offset 4, -8
 747              	.LBB187:
 748              	.LBB185:
 749              		.loc 3 393 0
 750 0006 9A42     		cmp	r2, r3
 751 0008 0FD0     		beq	.L46
 752              	.L41:
 753              	.LBE185:
 754              	.LBE187:
 755              		.loc 1 375 0
 756 000a 8168     		ldr	r1, [r0, #8]
 757              		.loc 1 377 0
 758 000c 0269     		ldr	r2, [r0, #16]
 759              		.loc 1 375 0
 760 000e 4C1C     		adds	r4, r1, #1
 761 0010 8460     		str	r4, [r0, #8]
 762              		.loc 1 376 0
 763 0012 13F8014B 		ldrb	r4, [r3], #1	@ zero_extendqisi2
 764              	.LVL37:
 765              		.loc 1 377 0
 766 0016 9342     		cmp	r3, r2
 767              		.loc 1 376 0
 768 0018 8361     		str	r3, [r0, #24]
 769              		.loc 1 377 0
 770 001a 01D3     		bcc	.L44
 771              		.loc 1 378 0
 772 001c C368     		ldr	r3, [r0, #12]
 773 001e 8361     		str	r3, [r0, #24]
 774              	.L44:
 775              		.loc 1 381 0
 776 0020 0021     		movs	r1, #0
 777 0022 FFF7FEFF 		bl	chThdDequeueNextI
 778              	.LVL38:
 779              		.loc 1 383 0
 780 0026 2046     		mov	r0, r4
 781 0028 10BD     		pop	{r4, pc}
 782              	.LVL39:
 783              	.L46:
 784              	.LBB188:
 785              	.LBB186:
 786              		.loc 3 393 0
 787 002a 8168     		ldr	r1, [r0, #8]
 788 002c 0029     		cmp	r1, #0
ARM GAS  /tmp/cc0nWktl.s 			page 15


 789 002e ECD0     		beq	.L41
 790              		.loc 1 372 0
 791 0030 6FF00200 		mvn	r0, #2
 792              	.LVL40:
 793              	.LBE186:
 794              	.LBE188:
 795              		.loc 1 384 0
 796 0034 10BD     		pop	{r4, pc}
 797              		.cfi_endproc
 798              	.LFE190:
 799              		.size	chOQGetI, .-chOQGetI
 800 0036 00BFAFF3 		.section	.text.chOQWriteTimeout,"ax",%progbits
 800      0080AFF3 
 800      0080
 801              		.align	2
 802              		.p2align 4,,15
 803              		.global	chOQWriteTimeout
 804              		.thumb
 805              		.thumb_func
 806              		.type	chOQWriteTimeout, %function
 807              	chOQWriteTimeout:
 808              	.LFB191:
 809              		.loc 1 411 0
 810              		.cfi_startproc
 811              		@ args = 0, pretend = 0, frame = 8
 812              		@ frame_needed = 0, uses_anonymous_args = 0
 813              	.LVL41:
 814 0000 2DE9F04F 		push	{r4, r5, r6, r7, r8, r9, sl, fp, lr}
 815              	.LCFI8:
 816              		.cfi_def_cfa_offset 36
 817              		.cfi_offset 14, -4
 818              		.cfi_offset 11, -8
 819              		.cfi_offset 10, -12
 820              		.cfi_offset 9, -16
 821              		.cfi_offset 8, -20
 822              		.cfi_offset 7, -24
 823              		.cfi_offset 6, -28
 824              		.cfi_offset 5, -32
 825              		.cfi_offset 4, -36
 826 0004 83B0     		sub	sp, sp, #12
 827              	.LCFI9:
 828              		.cfi_def_cfa_offset 48
 829              		.loc 1 411 0
 830 0006 0446     		mov	r4, r0
 831 0008 0D46     		mov	r5, r1
 832 000a 1646     		mov	r6, r2
 833 000c 0193     		str	r3, [sp, #4]
 834              		.loc 1 412 0
 835 000e D0F81C90 		ldr	r9, [r0, #28]
 836              	.LVL42:
 837              	.LBB189:
 838              	.LBB190:
 839              	.LBB191:
 840              	.LBB192:
 841              		.loc 4 548 0
 842 0012 4FF0200B 		mov	fp, #32
 843              	@ 548 "../../../resources/chibios/ChibiOS_16.1.8/os/ext/CMSIS/include/core_cmFunc.h" 1
ARM GAS  /tmp/cc0nWktl.s 			page 16


 844 0016 8BF31188 		MSR basepri, fp
 845              	@ 0 "" 2
 846              		.loc 1 413 0
 847              		.thumb
 848 001a 4FF00008 		mov	r8, #0
 849              	.LBE192:
 850              	.LBE191:
 851              	.LBE190:
 852              	.LBE189:
 853              	.LBB193:
 854              	.LBB194:
 855              	.LBB195:
 856              	.LBB196:
 857              	.LBB197:
 858              		.loc 4 548 0
 859 001e C246     		mov	sl, r8
 860              	.LVL43:
 861              	.L56:
 862              	.LBE197:
 863              	.LBE196:
 864              	.LBE195:
 865              	.LBE194:
 866              	.LBE193:
 867              	.LBB202:
 868              	.LBB203:
 869              		.loc 3 411 0 discriminator 1
 870 0020 A768     		ldr	r7, [r4, #8]
 871              	.LBE203:
 872              	.LBE202:
 873              		.loc 1 433 0 discriminator 1
 874 0022 2046     		mov	r0, r4
 875              		.loc 1 419 0 discriminator 1
 876 0024 EFB1     		cbz	r7, .L51
 877              	.L57:
 878              		.loc 1 426 0
 879 0026 A168     		ldr	r1, [r4, #8]
 880              		.loc 1 427 0
 881 0028 6369     		ldr	r3, [r4, #20]
 882              		.loc 1 426 0
 883 002a 4A1E     		subs	r2, r1, #1
 884 002c A260     		str	r2, [r4, #8]
 885              		.loc 1 427 0
 886 002e 2978     		ldrb	r1, [r5, #0]	@ zero_extendqisi2
 887 0030 03F8011B 		strb	r1, [r3], #1
 888              		.loc 1 428 0
 889 0034 2269     		ldr	r2, [r4, #16]
 890              		.loc 1 427 0
 891 0036 6361     		str	r3, [r4, #20]
 892              	.LVL44:
 893              		.loc 1 428 0
 894 0038 9342     		cmp	r3, r2
 895              		.loc 1 429 0
 896 003a 24BF     		itt	cs
 897 003c E368     		ldrcs	r3, [r4, #12]
 898 003e 6361     		strcs	r3, [r4, #20]
 899              		.loc 1 432 0
 900 0040 B9F1000F 		cmp	r9, #0
ARM GAS  /tmp/cc0nWktl.s 			page 17


 901 0044 00D0     		beq	.L53
 902              		.loc 1 433 0
 903 0046 C847     		blx	r9
 904              	.L53:
 905              	.LVL45:
 906              	.LBB205:
 907              	.LBB201:
 908              	.LBB200:
 909              	.LBB199:
 910              	.LBB198:
 911              		.loc 4 548 0
 912              	@ 548 "../../../resources/chibios/ChibiOS_16.1.8/os/ext/CMSIS/include/core_cmFunc.h" 1
 913 0048 8AF31188 		MSR basepri, sl
 914              	@ 0 "" 2
 915              		.thumb
 916              	.LBE198:
 917              	.LBE199:
 918              	.LBE200:
 919              	.LBE201:
 920              	.LBE205:
 921              		.loc 1 438 0
 922 004c 013E     		subs	r6, r6, #1
 923              	.LVL46:
 924              		.loc 1 437 0
 925 004e 08F10108 		add	r8, r8, #1
 926              	.LVL47:
 927              		.loc 1 438 0
 928 0052 0ED0     		beq	.L50
 929              		.loc 1 427 0
 930 0054 0135     		adds	r5, r5, #1
 931              	.LVL48:
 932              	.LBB206:
 933              	.LBB207:
 934              	.LBB208:
 935              	.LBB209:
 936              		.loc 4 548 0
 937              	@ 548 "../../../resources/chibios/ChibiOS_16.1.8/os/ext/CMSIS/include/core_cmFunc.h" 1
 938 0056 8BF31188 		MSR basepri, fp
 939              	@ 0 "" 2
 940              	.LVL49:
 941              		.thumb
 942              	.LBE209:
 943              	.LBE208:
 944              	.LBE207:
 945              	.LBE206:
 946              	.LBB210:
 947              	.LBB204:
 948              		.loc 3 411 0
 949 005a A768     		ldr	r7, [r4, #8]
 950              	.LBE204:
 951              	.LBE210:
 952              		.loc 1 433 0
 953 005c 2046     		mov	r0, r4
 954              		.loc 1 419 0
 955 005e 002F     		cmp	r7, #0
 956 0060 E1D1     		bne	.L57
 957              	.LVL50:
ARM GAS  /tmp/cc0nWktl.s 			page 18


 958              	.L51:
 959              		.loc 1 420 0
 960 0062 2046     		mov	r0, r4
 961 0064 0199     		ldr	r1, [sp, #4]
 962 0066 FFF7FEFF 		bl	chThdEnqueueTimeoutS
 963 006a 0028     		cmp	r0, #0
 964 006c D8D0     		beq	.L56
 965              	.LVL51:
 966              	.LBB211:
 967              	.LBB212:
 968              	.LBB213:
 969              	.LBB214:
 970              	.LBB215:
 971              		.loc 4 548 0
 972              	@ 548 "../../../resources/chibios/ChibiOS_16.1.8/os/ext/CMSIS/include/core_cmFunc.h" 1
 973 006e 87F31188 		MSR basepri, r7
 974              	@ 0 "" 2
 975              	.LVL52:
 976              		.thumb
 977              	.L50:
 978              	.LBE215:
 979              	.LBE214:
 980              	.LBE213:
 981              	.LBE212:
 982              	.LBE211:
 983              		.loc 1 443 0
 984 0072 4046     		mov	r0, r8
 985 0074 03B0     		add	sp, sp, #12
 986 0076 BDE8F08F 		pop	{r4, r5, r6, r7, r8, r9, sl, fp, pc}
 987              		.cfi_endproc
 988              	.LFE191:
 989              		.size	chOQWriteTimeout, .-chOQWriteTimeout
 990 007a 00BFAFF3 		.text
 990      0080
 991              	.Letext0:
 992              		.file 5 "/home/madog/programs/CodeSourcery/Sourcery_CodeBench_Lite_for_ARM_EABI/bin/../lib/gcc/arm
 993              		.file 6 "/home/madog/programs/CodeSourcery/Sourcery_CodeBench_Lite_for_ARM_EABI/bin/../lib/gcc/arm
 994              		.file 7 "../../../resources/chibios/ChibiOS_16.1.8/os/rt/ports/ARMCMx/compilers/GCC/chtypes.h"
 995              		.file 8 "../../../resources/chibios/ChibiOS_16.1.8/os/rt/include/chsystypes.h"
 996              		.file 9 "../../../resources/chibios/ChibiOS_16.1.8/os/rt/ports/ARMCMx/chcore.h"
 997              		.file 10 "../../../resources/chibios/ChibiOS_16.1.8/os/rt/ports/ARMCMx/chcore_v7m.h"
 998              		.file 11 "../../../resources/chibios/ChibiOS_16.1.8/os/rt/include/chtm.h"
 999              		.file 12 "../../../resources/chibios/ChibiOS_16.1.8/os/rt/include/chsem.h"
 1000              		.file 13 "../../../resources/chibios/ChibiOS_16.1.8/os/rt/include/chmtx.h"
 1001              		.file 14 "../../../resources/chibios/ChibiOS_16.1.8/os/rt/include/chthreads.h"
 1002              		.file 15 "../../../resources/chibios/ChibiOS_16.1.8/os/rt/include/chsys.h"
 1003              		.file 16 "../../../resources/chibios/ChibiOS_16.1.8/os/ext/CMSIS/include/core_cm3.h"