ARM GAS  /tmp/ccBk47cc.s 			page 1


   1              		.syntax unified
   2              		.cpu cortex-m3
   3              		.fpu softvfp
   4              		.eabi_attribute 20, 1
   5              		.eabi_attribute 21, 1
   6              		.eabi_attribute 23, 3
   7              		.eabi_attribute 24, 1
   8              		.eabi_attribute 25, 1
   9              		.eabi_attribute 26, 1
  10              		.eabi_attribute 30, 2
  11              		.eabi_attribute 34, 1
  12              		.eabi_attribute 18, 4
  13              		.thumb
  14              		.file	"chschd.c"
  15              		.text
  16              	.Ltext0:
  17              		.cfi_sections	.debug_frame
  18              		.section	.text.wakeup,"ax",%progbits
  19              		.align	2
  20              		.p2align 4,,15
  21              		.thumb
  22              		.thumb_func
  23              		.type	wakeup, %function
  24              	wakeup:
  25              	.LFB185:
  26              		.file 1 "../../../resources/chibios/ChibiOS_16.1.8/os/rt/src/chschd.c"
  27              		.loc 1 275 0
  28              		.cfi_startproc
  29              		@ args = 0, pretend = 0, frame = 0
  30              		@ frame_needed = 0, uses_anonymous_args = 0
  31              		@ link register save eliminated.
  32              	.LVL0:
  33              	.LBB68:
  34              	.LBB69:
  35              	.LBB70:
  36              	.LBB71:
  37              	.LBB72:
  38              		.file 2 "../../../resources/chibios/ChibiOS_16.1.8/os/ext/CMSIS/include/core_cmFunc.h"
  39              		.loc 2 548 0
  40 0000 2021     		movs	r1, #32
  41              	@ 548 "../../../resources/chibios/ChibiOS_16.1.8/os/ext/CMSIS/include/core_cmFunc.h" 1
  42 0002 81F31188 		MSR basepri, r1
  43              	@ 0 "" 2
  44              		.thumb
  45              	.LBE72:
  46              	.LBE71:
  47              	.LBE70:
  48              	.LBE69:
  49              	.LBE68:
  50              		.loc 1 279 0
  51 0006 037F     		ldrb	r3, [r0, #28]	@ zero_extendqisi2
  52 0008 072B     		cmp	r3, #7
  53 000a 0ED8     		bhi	.L2
  54 000c DFE803F0 		tbb	[pc, r3]
  55              	.L7:
  56 0010 20       		.byte	(.L11-.L7)/2
  57 0011 0D       		.byte	(.L2-.L7)/2
ARM GAS  /tmp/ccBk47cc.s 			page 2


  58 0012 0D       		.byte	(.L2-.L7)/2
  59 0013 24       		.byte	(.L4-.L7)/2
  60 0014 08       		.byte	(.L5-.L7)/2
  61 0015 04       		.byte	(.L6-.L7)/2
  62 0016 0D       		.byte	(.L2-.L7)/2
  63 0017 08       		.byte	(.L5-.L7)/2
  64              		.align	1
  65              	.LVL1:
  66              	.L6:
  67              		.loc 1 290 0
  68 0018 036A     		ldr	r3, [r0, #32]
  69              	.LBB73:
  70              	.LBB74:
  71              		.file 3 "../../../resources/chibios/ChibiOS_16.1.8/os/rt/include/chsem.h"
  72              		.loc 3 138 0
  73 001a 9A68     		ldr	r2, [r3, #8]
  74 001c 511C     		adds	r1, r2, #1
  75 001e 9960     		str	r1, [r3, #8]
  76              	.L5:
  77              	.LVL2:
  78              	.LBE74:
  79              	.LBE73:
  80              	.LBB75:
  81              	.LBB76:
  82              		.file 4 "../../../resources/chibios/ChibiOS_16.1.8/os/rt/include/chschd.h"
  83              		.loc 4 691 0
  84 0020 90E80C00 		ldmia	r0, {r2, r3}
  85 0024 1A60     		str	r2, [r3, #0]
  86              		.loc 4 692 0
  87 0026 0168     		ldr	r1, [r0, #0]
  88 0028 4B60     		str	r3, [r1, #4]
  89              	.LVL3:
  90              	.L2:
  91              	.LBE76:
  92              	.LBE75:
  93              		.loc 1 304 0
  94 002a 4FF0FF32 		mov	r2, #-1
  95              	.LBB77:
  96              	.LBB78:
  97              		.loc 1 228 0
  98 002e 40F20003 		movw	r3, #:lower16:.LANCHOR0
  99              	.LBE78:
 100              	.LBE77:
 101              		.loc 1 304 0
 102 0032 0262     		str	r2, [r0, #32]
 103              	.LVL4:
 104              	.LBB80:
 105              	.LBB79:
 106              		.loc 1 227 0
 107 0034 8168     		ldr	r1, [r0, #8]
 108 0036 0022     		movs	r2, #0
 109 0038 0277     		strb	r2, [r0, #28]
 110              	.LVL5:
 111              		.loc 1 228 0
 112 003a C0F20003 		movt	r3, #:upper16:.LANCHOR0
 113              	.LVL6:
 114              	.L9:
ARM GAS  /tmp/ccBk47cc.s 			page 3


 115              		.loc 1 230 0
 116 003e 1B68     		ldr	r3, [r3, #0]
 117              	.LVL7:
 118              		.loc 1 231 0
 119 0040 9A68     		ldr	r2, [r3, #8]
 120 0042 8A42     		cmp	r2, r1
 121 0044 FBD2     		bcs	.L9
 122              		.loc 1 234 0
 123 0046 5968     		ldr	r1, [r3, #4]
 124              		.loc 1 233 0
 125 0048 0360     		str	r3, [r0, #0]
 126              		.loc 1 234 0
 127 004a 4160     		str	r1, [r0, #4]
 128              		.loc 1 235 0
 129 004c 0860     		str	r0, [r1, #0]
 130              		.loc 1 236 0
 131 004e 5860     		str	r0, [r3, #4]
 132              	.LVL8:
 133              	.L11:
 134              	.LBE79:
 135              	.LBE80:
 136              	.LBB81:
 137              	.LBB82:
 138              	.LBB83:
 139              	.LBB84:
 140              	.LBB85:
 141              		.loc 2 548 0
 142 0050 0020     		movs	r0, #0
 143              	.LVL9:
 144              	@ 548 "../../../resources/chibios/ChibiOS_16.1.8/os/ext/CMSIS/include/core_cmFunc.h" 1
 145 0052 80F31188 		MSR basepri, r0
 146              	@ 0 "" 2
 147              		.thumb
 148 0056 7047     		bx	lr
 149              	.LVL10:
 150              	.L4:
 151              	.LBE85:
 152              	.LBE84:
 153              	.LBE83:
 154              	.LBE82:
 155              	.LBE81:
 156              		.loc 1 286 0
 157 0058 036A     		ldr	r3, [r0, #32]
 158 005a 0022     		movs	r2, #0
 159 005c 1A60     		str	r2, [r3, #0]
 160              		.loc 1 287 0
 161 005e E4E7     		b	.L2
 162              		.cfi_endproc
 163              	.LFE185:
 164              		.size	wakeup, .-wakeup
 165              		.section	.text._scheduler_init,"ax",%progbits
 166              		.align	2
 167              		.p2align 4,,15
 168              		.global	_scheduler_init
 169              		.thumb
 170              		.thumb_func
 171              		.type	_scheduler_init, %function
ARM GAS  /tmp/ccBk47cc.s 			page 4


 172              	_scheduler_init:
 173              	.LFB182:
 174              		.loc 1 65 0
 175              		.cfi_startproc
 176              		@ args = 0, pretend = 0, frame = 0
 177              		@ frame_needed = 0, uses_anonymous_args = 0
 178              		@ link register save eliminated.
 179              	.LVL11:
 180              	.LBB86:
 181              	.LBB87:
 182              		.loc 4 604 0
 183 0000 40F20003 		movw	r3, #:lower16:.LANCHOR0
 184 0004 C0F20003 		movt	r3, #:upper16:.LANCHOR0
 185              	.LBE87:
 186              	.LBE86:
 187              		.loc 1 68 0
 188 0008 0022     		movs	r2, #0
 189              	.LBB89:
 190              	.LBB88:
 191              		.loc 4 604 0
 192 000a 1B60     		str	r3, [r3, #0]
 193              		.loc 4 605 0
 194 000c 5B60     		str	r3, [r3, #4]
 195              	.LBE88:
 196              	.LBE89:
 197              		.loc 1 68 0
 198 000e 9A60     		str	r2, [r3, #8]
 199              		.loc 1 70 0
 200 0010 1B61     		str	r3, [r3, #16]
 201              		.loc 1 71 0
 202 0012 5B61     		str	r3, [r3, #20]
 203              		.loc 1 73 0
 204 0014 7047     		bx	lr
 205              		.cfi_endproc
 206              	.LFE182:
 207              		.size	_scheduler_init, .-_scheduler_init
 208 0016 00BFAFF3 		.section	.text.chSchReadyI,"ax",%progbits
 208      0080AFF3 
 208      0080
 209              		.align	2
 210              		.p2align 4,,15
 211              		.global	chSchReadyI
 212              		.thumb
 213              		.thumb_func
 214              		.type	chSchReadyI, %function
 215              	chSchReadyI:
 216              	.LFB183:
 217              		.loc 1 218 0
 218              		.cfi_startproc
 219              		@ args = 0, pretend = 0, frame = 0
 220              		@ frame_needed = 0, uses_anonymous_args = 0
 221              		@ link register save eliminated.
 222              	.LVL12:
 223              		.loc 1 228 0
 224 0000 40F20003 		movw	r3, #:lower16:.LANCHOR0
 225              		.loc 1 227 0
 226 0004 0022     		movs	r2, #0
ARM GAS  /tmp/ccBk47cc.s 			page 5


 227 0006 8168     		ldr	r1, [r0, #8]
 228 0008 0277     		strb	r2, [r0, #28]
 229              	.LVL13:
 230              		.loc 1 228 0
 231 000a C0F20003 		movt	r3, #:upper16:.LANCHOR0
 232              	.LVL14:
 233              	.L15:
 234              		.loc 1 230 0 discriminator 1
 235 000e 1B68     		ldr	r3, [r3, #0]
 236              	.LVL15:
 237              		.loc 1 231 0 discriminator 1
 238 0010 9A68     		ldr	r2, [r3, #8]
 239 0012 8A42     		cmp	r2, r1
 240 0014 FBD2     		bcs	.L15
 241              		.loc 1 234 0
 242 0016 5968     		ldr	r1, [r3, #4]
 243              		.loc 1 233 0
 244 0018 0360     		str	r3, [r0, #0]
 245              		.loc 1 234 0
 246 001a 4160     		str	r1, [r0, #4]
 247              		.loc 1 235 0
 248 001c 0860     		str	r0, [r1, #0]
 249              		.loc 1 236 0
 250 001e 5860     		str	r0, [r3, #4]
 251              		.loc 1 239 0
 252 0020 7047     		bx	lr
 253              		.cfi_endproc
 254              	.LFE183:
 255              		.size	chSchReadyI, .-chSchReadyI
 256 0022 00BFAFF3 		.section	.text.chSchGoSleepS,"ax",%progbits
 256      0080AFF3 
 256      0080AFF3 
 256      0080
 257              		.align	2
 258              		.p2align 4,,15
 259              		.global	chSchGoSleepS
 260              		.thumb
 261              		.thumb_func
 262              		.type	chSchGoSleepS, %function
 263              	chSchGoSleepS:
 264              	.LFB184:
 265              		.loc 1 250 0
 266              		.cfi_startproc
 267              		@ args = 0, pretend = 0, frame = 0
 268              		@ frame_needed = 0, uses_anonymous_args = 0
 269              		@ link register save eliminated.
 270              	.LVL16:
 271              		.loc 1 255 0
 272 0000 40F20003 		movw	r3, #:lower16:.LANCHOR0
 273              		.loc 1 250 0
 274 0004 10B4     		push	{r4}
 275              	.LCFI0:
 276              		.cfi_def_cfa_offset 4
 277              		.cfi_offset 4, -4
 278              		.loc 1 255 0
 279 0006 C0F20003 		movt	r3, #:upper16:.LANCHOR0
 280              	.LBB90:
ARM GAS  /tmp/ccBk47cc.s 			page 6


 281              	.LBB91:
 282              		.loc 4 672 0
 283 000a 1A68     		ldr	r2, [r3, #0]
 284              	.LBE91:
 285              	.LBE90:
 286              		.loc 1 255 0
 287 000c 9969     		ldr	r1, [r3, #24]
 288              	.LVL17:
 289              	.LBB94:
 290              	.LBB92:
 291              		.loc 4 674 0
 292 000e 1468     		ldr	r4, [r2, #0]
 293              	.LBE92:
 294              	.LBE94:
 295              		.loc 1 256 0
 296 0010 0877     		strb	r0, [r1, #28]
 297              	.LVL18:
 298              		.loc 1 268 0
 299 0012 0120     		movs	r0, #1
 300              	.LVL19:
 301 0014 1077     		strb	r0, [r2, #28]
 302              		.loc 1 269 0
 303 0016 1046     		mov	r0, r2
 304              	.LBB95:
 305              	.LBB93:
 306              		.loc 4 675 0
 307 0018 6360     		str	r3, [r4, #4]
 308              		.loc 4 674 0
 309 001a 1C60     		str	r4, [r3, #0]
 310              	.LBE93:
 311              	.LBE95:
 312              		.loc 1 262 0
 313 001c 9A61     		str	r2, [r3, #24]
 314              		.loc 1 270 0
 315 001e 10BC     		pop	{r4}
 316              		.loc 1 269 0
 317 0020 FFF7FEBF 		b	_port_switch
 318              	.LVL20:
 319              	.LVL21:
 320              	.LVL22:
 321              		.cfi_endproc
 322              	.LFE184:
 323              		.size	chSchGoSleepS, .-chSchGoSleepS
 324 0024 AFF30080 		.section	.text.chSchGoSleepTimeoutS,"ax",%progbits
 324      AFF30080 
 324      AFF30080 
 325              		.align	2
 326              		.p2align 4,,15
 327              		.global	chSchGoSleepTimeoutS
 328              		.thumb
 329              		.thumb_func
 330              		.type	chSchGoSleepTimeoutS, %function
 331              	chSchGoSleepTimeoutS:
 332              	.LFB186:
 333              		.loc 1 330 0
 334              		.cfi_startproc
 335              		@ args = 0, pretend = 0, frame = 24
ARM GAS  /tmp/ccBk47cc.s 			page 7


 336              		@ frame_needed = 0, uses_anonymous_args = 0
 337              	.LVL23:
 338 0000 30B5     		push	{r4, r5, lr}
 339              	.LCFI1:
 340              		.cfi_def_cfa_offset 12
 341              		.cfi_offset 14, -4
 342              		.cfi_offset 5, -8
 343              		.cfi_offset 4, -12
 344              		.loc 1 334 0
 345 0002 4FF6FF73 		movw	r3, #65535
 346 0006 9942     		cmp	r1, r3
 347              		.loc 1 330 0
 348 0008 87B0     		sub	sp, sp, #28
 349              	.LCFI2:
 350              		.cfi_def_cfa_offset 40
 351              		.loc 1 330 0
 352 000a 0546     		mov	r5, r0
 353              		.loc 1 334 0
 354 000c 17D0     		beq	.L19
 355              	.LBB96:
 356              		.loc 1 337 0
 357 000e 40F20004 		movw	r4, #:lower16:.LANCHOR0
 358 0012 C0F20004 		movt	r4, #:upper16:.LANCHOR0
 359 0016 40F20002 		movw	r2, #:lower16:wakeup
 360 001a C0F20002 		movt	r2, #:upper16:wakeup
 361 001e A369     		ldr	r3, [r4, #24]
 362 0020 01A8     		add	r0, sp, #4
 363              	.LVL24:
 364 0022 FFF7FEFF 		bl	chVTDoSetI
 365              	.LVL25:
 366              		.loc 1 338 0
 367 0026 2846     		mov	r0, r5
 368 0028 FFF7FEFF 		bl	chSchGoSleepS
 369              		.loc 1 339 0
 370 002c 0498     		ldr	r0, [sp, #16]
 371 002e 10B1     		cbz	r0, .L20
 372              		.loc 1 340 0
 373 0030 01A8     		add	r0, sp, #4
 374 0032 FFF7FEFF 		bl	chVTDoResetI
 375              	.L20:
 376              	.LBE96:
 377              		.loc 1 347 0
 378 0036 A169     		ldr	r1, [r4, #24]
 379              		.loc 1 348 0
 380 0038 086A     		ldr	r0, [r1, #32]
 381 003a 07B0     		add	sp, sp, #28
 382 003c 30BD     		pop	{r4, r5, pc}
 383              	.LVL26:
 384              	.L19:
 385 003e 40F20004 		movw	r4, #:lower16:.LANCHOR0
 386              		.loc 1 344 0
 387 0042 FFF7FEFF 		bl	chSchGoSleepS
 388              	.LVL27:
 389 0046 C0F20004 		movt	r4, #:upper16:.LANCHOR0
 390 004a F4E7     		b	.L20
 391              		.cfi_endproc
 392              	.LFE186:
ARM GAS  /tmp/ccBk47cc.s 			page 8


 393              		.size	chSchGoSleepTimeoutS, .-chSchGoSleepTimeoutS
 394 004c AFF30080 		.section	.text.chSchWakeupS,"ax",%progbits
 395              		.align	2
 396              		.p2align 4,,15
 397              		.global	chSchWakeupS
 398              		.thumb
 399              		.thumb_func
 400              		.type	chSchWakeupS, %function
 401              	chSchWakeupS:
 402              	.LFB187:
 403              		.loc 1 367 0
 404              		.cfi_startproc
 405              		@ args = 0, pretend = 0, frame = 0
 406              		@ frame_needed = 0, uses_anonymous_args = 0
 407              		@ link register save eliminated.
 408              	.LVL28:
 409              		.loc 1 383 0
 410 0000 40F20002 		movw	r2, #:lower16:.LANCHOR0
 411 0004 C0F20002 		movt	r2, #:upper16:.LANCHOR0
 412              		.loc 1 367 0
 413 0008 30B4     		push	{r4, r5}
 414              	.LCFI3:
 415              		.cfi_def_cfa_offset 8
 416              		.cfi_offset 5, -4
 417              		.cfi_offset 4, -8
 418              		.loc 1 383 0
 419 000a 9469     		ldr	r4, [r2, #24]
 420              		.loc 1 367 0
 421 000c 0346     		mov	r3, r0
 422              		.loc 1 383 0
 423 000e 8568     		ldr	r5, [r0, #8]
 424 0010 A068     		ldr	r0, [r4, #8]
 425              	.LVL29:
 426              		.loc 1 377 0
 427 0012 1962     		str	r1, [r3, #32]
 428              	.LBB97:
 429              	.LBB98:
 430              		.loc 1 227 0
 431 0014 0021     		movs	r1, #0
 432              	.LVL30:
 433              	.LBE98:
 434              	.LBE97:
 435              		.loc 1 383 0
 436 0016 8542     		cmp	r5, r0
 437              	.LBB100:
 438              	.LBB101:
 439              	.LBB102:
 440              		.loc 1 227 0
 441 0018 84BF     		itt	hi
 442 001a 2177     		strbhi	r1, [r4, #28]
 443              	.LVL31:
 444              		.loc 1 228 0
 445 001c 1146     		movhi	r1, r2
 446              	.LBE102:
 447              	.LBE101:
 448              	.LBE100:
 449              		.loc 1 383 0
ARM GAS  /tmp/ccBk47cc.s 			page 9


 450 001e 0BD8     		bhi	.L25
 451              	.LVL32:
 452              	.LBB107:
 453              	.LBB99:
 454              		.loc 1 227 0
 455 0020 1977     		strb	r1, [r3, #28]
 456              	.LVL33:
 457              	.L23:
 458              		.loc 1 230 0
 459 0022 1268     		ldr	r2, [r2, #0]
 460              	.LVL34:
 461              		.loc 1 231 0
 462 0024 9168     		ldr	r1, [r2, #8]
 463 0026 8D42     		cmp	r5, r1
 464 0028 FBD9     		bls	.L23
 465              		.loc 1 234 0
 466 002a 5068     		ldr	r0, [r2, #4]
 467              		.loc 1 233 0
 468 002c 1A60     		str	r2, [r3, #0]
 469              		.loc 1 234 0
 470 002e 5860     		str	r0, [r3, #4]
 471              		.loc 1 235 0
 472 0030 0360     		str	r3, [r0, #0]
 473              		.loc 1 236 0
 474 0032 5360     		str	r3, [r2, #4]
 475              	.LBE99:
 476              	.LBE107:
 477              		.loc 1 397 0
 478 0034 30BC     		pop	{r4, r5}
 479 0036 7047     		bx	lr
 480              	.LVL35:
 481              	.L25:
 482              	.LBB108:
 483              	.LBB105:
 484              	.LBB103:
 485              		.loc 1 230 0
 486 0038 0968     		ldr	r1, [r1, #0]
 487              	.LVL36:
 488              		.loc 1 231 0
 489 003a 8D68     		ldr	r5, [r1, #8]
 490 003c A842     		cmp	r0, r5
 491 003e FBD9     		bls	.L25
 492              		.loc 1 234 0
 493 0040 4868     		ldr	r0, [r1, #4]
 494              		.loc 1 233 0
 495 0042 2160     		str	r1, [r4, #0]
 496              		.loc 1 234 0
 497 0044 6060     		str	r0, [r4, #4]
 498              		.loc 1 236 0
 499 0046 4C60     		str	r4, [r1, #4]
 500              	.LBE103:
 501              	.LBE105:
 502              		.loc 1 394 0
 503 0048 0121     		movs	r1, #1
 504              	.LVL37:
 505              	.LBB106:
 506              	.LBB104:
ARM GAS  /tmp/ccBk47cc.s 			page 10


 507              		.loc 1 235 0
 508 004a 0460     		str	r4, [r0, #0]
 509              	.LBE104:
 510              	.LBE106:
 511              		.loc 1 394 0
 512 004c 1977     		strb	r1, [r3, #28]
 513              		.loc 1 395 0
 514 004e 1846     		mov	r0, r3
 515 0050 2146     		mov	r1, r4
 516              		.loc 1 388 0
 517 0052 9361     		str	r3, [r2, #24]
 518              	.LBE108:
 519              		.loc 1 397 0
 520 0054 30BC     		pop	{r4, r5}
 521              	.LBB109:
 522              		.loc 1 395 0
 523 0056 FFF7FEBF 		b	_port_switch
 524              	.LVL38:
 525              	.LVL39:
 526              	.LVL40:
 527              	.LBE109:
 528              		.cfi_endproc
 529              	.LFE187:
 530              		.size	chSchWakeupS, .-chSchWakeupS
 531 005a 00BFAFF3 		.section	.text.chSchIsPreemptionRequired,"ax",%progbits
 531      0080
 532              		.align	2
 533              		.p2align 4,,15
 534              		.global	chSchIsPreemptionRequired
 535              		.thumb
 536              		.thumb_func
 537              		.type	chSchIsPreemptionRequired, %function
 538              	chSchIsPreemptionRequired:
 539              	.LFB189:
 540              		.loc 1 428 0
 541              		.cfi_startproc
 542              		@ args = 0, pretend = 0, frame = 0
 543              		@ frame_needed = 0, uses_anonymous_args = 0
 544              		@ link register save eliminated.
 545              	.LVL41:
 546              		.loc 1 429 0
 547 0000 40F20000 		movw	r0, #:lower16:.LANCHOR0
 548 0004 C0F20000 		movt	r0, #:upper16:.LANCHOR0
 549              		.loc 1 430 0
 550 0008 8169     		ldr	r1, [r0, #24]
 551              		.loc 1 429 0
 552 000a 0268     		ldr	r2, [r0, #0]
 553              		.loc 1 441 0
 554 000c 8B68     		ldr	r3, [r1, #8]
 555 000e 9068     		ldr	r0, [r2, #8]
 556              		.loc 1 443 0
 557 0010 9842     		cmp	r0, r3
 558 0012 94BF     		ite	ls
 559 0014 0020     		movls	r0, #0
 560 0016 0120     		movhi	r0, #1
 561 0018 7047     		bx	lr
 562              		.cfi_endproc
ARM GAS  /tmp/ccBk47cc.s 			page 11


 563              	.LFE189:
 564              		.size	chSchIsPreemptionRequired, .-chSchIsPreemptionRequired
 565 001a 00BFAFF3 		.section	.text.chSchDoRescheduleBehind,"ax",%progbits
 565      0080
 566              		.align	2
 567              		.p2align 4,,15
 568              		.global	chSchDoRescheduleBehind
 569              		.thumb
 570              		.thumb_func
 571              		.type	chSchDoRescheduleBehind, %function
 572              	chSchDoRescheduleBehind:
 573              	.LFB190:
 574              		.loc 1 455 0
 575              		.cfi_startproc
 576              		@ args = 0, pretend = 0, frame = 0
 577              		@ frame_needed = 0, uses_anonymous_args = 0
 578              		@ link register save eliminated.
 579              		.loc 1 458 0
 580 0000 40F20002 		movw	r2, #:lower16:.LANCHOR0
 581 0004 C0F20002 		movt	r2, #:upper16:.LANCHOR0
 582              	.LBB110:
 583              	.LBB111:
 584              		.loc 4 672 0
 585 0008 1068     		ldr	r0, [r2, #0]
 586              	.LBE111:
 587              	.LBE110:
 588              		.loc 1 458 0
 589 000a 9169     		ldr	r1, [r2, #24]
 590              	.LVL42:
 591              	.LBB115:
 592              	.LBB112:
 593              		.loc 4 674 0
 594 000c 0368     		ldr	r3, [r0, #0]
 595              	.LBE112:
 596              	.LBE115:
 597              		.loc 1 455 0
 598 000e 30B4     		push	{r4, r5}
 599              	.LCFI4:
 600              		.cfi_def_cfa_offset 8
 601              		.cfi_offset 5, -4
 602              		.cfi_offset 4, -8
 603              	.LBB116:
 604              	.LBB113:
 605              		.loc 4 675 0
 606 0010 5A60     		str	r2, [r3, #4]
 607              	.LBE113:
 608              	.LBE116:
 609              	.LBB117:
 610              	.LBB118:
 611              		.loc 1 227 0
 612 0012 8C68     		ldr	r4, [r1, #8]
 613              	.LBE118:
 614              	.LBE117:
 615              		.loc 1 466 0
 616 0014 0125     		movs	r5, #1
 617              	.LBB121:
 618              	.LBB114:
ARM GAS  /tmp/ccBk47cc.s 			page 12


 619              		.loc 4 674 0
 620 0016 1360     		str	r3, [r2, #0]
 621              	.LBE114:
 622              	.LBE121:
 623              		.loc 1 460 0
 624 0018 9061     		str	r0, [r2, #24]
 625              	.LBB122:
 626              	.LBB119:
 627              		.loc 1 227 0
 628 001a 0022     		movs	r2, #0
 629              	.LBE119:
 630              	.LBE122:
 631              		.loc 1 466 0
 632 001c 0577     		strb	r5, [r0, #28]
 633              	.LVL43:
 634              	.LBB123:
 635              	.LBB120:
 636              		.loc 1 227 0
 637 001e 0A77     		strb	r2, [r1, #28]
 638              	.LVL44:
 639 0020 00E0     		b	.L31
 640              	.LVL45:
 641              	.L32:
 642              		.loc 1 231 0
 643 0022 1B68     		ldr	r3, [r3, #0]
 644              	.LVL46:
 645              	.L31:
 646 0024 9A68     		ldr	r2, [r3, #8]
 647 0026 9442     		cmp	r4, r2
 648 0028 FBD9     		bls	.L32
 649              		.loc 1 234 0
 650 002a 5A68     		ldr	r2, [r3, #4]
 651              		.loc 1 233 0
 652 002c 0B60     		str	r3, [r1, #0]
 653              		.loc 1 234 0
 654 002e 4A60     		str	r2, [r1, #4]
 655              		.loc 1 235 0
 656 0030 1160     		str	r1, [r2, #0]
 657              		.loc 1 236 0
 658 0032 5960     		str	r1, [r3, #4]
 659              	.LBE120:
 660              	.LBE123:
 661              		.loc 1 472 0
 662 0034 30BC     		pop	{r4, r5}
 663              		.loc 1 471 0
 664 0036 FFF7FEBF 		b	_port_switch
 665              	.LVL47:
 666              	.LVL48:
 667              	.LVL49:
 668              	.LVL50:
 669              		.cfi_endproc
 670              	.LFE190:
 671              		.size	chSchDoRescheduleBehind, .-chSchDoRescheduleBehind
 672 003a 00BFAFF3 		.section	.text.chSchDoRescheduleAhead,"ax",%progbits
 672      0080
 673              		.align	2
 674              		.p2align 4,,15
ARM GAS  /tmp/ccBk47cc.s 			page 13


 675              		.global	chSchDoRescheduleAhead
 676              		.thumb
 677              		.thumb_func
 678              		.type	chSchDoRescheduleAhead, %function
 679              	chSchDoRescheduleAhead:
 680              	.LFB191:
 681              		.loc 1 483 0
 682              		.cfi_startproc
 683              		@ args = 0, pretend = 0, frame = 0
 684              		@ frame_needed = 0, uses_anonymous_args = 0
 685              		@ link register save eliminated.
 686              		.loc 1 486 0
 687 0000 40F20002 		movw	r2, #:lower16:.LANCHOR0
 688 0004 C0F20002 		movt	r2, #:upper16:.LANCHOR0
 689              	.LBB124:
 690              	.LBB125:
 691              		.loc 4 672 0
 692 0008 1068     		ldr	r0, [r2, #0]
 693              	.LBE125:
 694              	.LBE124:
 695              		.loc 1 486 0
 696 000a 9169     		ldr	r1, [r2, #24]
 697              	.LVL51:
 698              	.LBB129:
 699              	.LBB126:
 700              		.loc 4 674 0
 701 000c 0368     		ldr	r3, [r0, #0]
 702              	.LBE126:
 703              	.LBE129:
 704              		.loc 1 483 0
 705 000e 30B4     		push	{r4, r5}
 706              	.LCFI5:
 707              		.cfi_def_cfa_offset 8
 708              		.cfi_offset 5, -4
 709              		.cfi_offset 4, -8
 710              	.LBB130:
 711              	.LBB127:
 712              		.loc 4 675 0
 713 0010 5A60     		str	r2, [r3, #4]
 714              	.LBE127:
 715              	.LBE130:
 716              		.loc 1 496 0
 717 0012 8C68     		ldr	r4, [r1, #8]
 718              		.loc 1 494 0
 719 0014 0125     		movs	r5, #1
 720              	.LBB131:
 721              	.LBB128:
 722              		.loc 4 674 0
 723 0016 1360     		str	r3, [r2, #0]
 724              	.LBE128:
 725              	.LBE131:
 726              		.loc 1 488 0
 727 0018 9061     		str	r0, [r2, #24]
 728              		.loc 1 496 0
 729 001a 0022     		movs	r2, #0
 730              		.loc 1 494 0
 731 001c 0577     		strb	r5, [r0, #28]
ARM GAS  /tmp/ccBk47cc.s 			page 14


 732              		.loc 1 496 0
 733 001e 0A77     		strb	r2, [r1, #28]
 734              	.LVL52:
 735 0020 00E0     		b	.L35
 736              	.LVL53:
 737              	.L36:
 738              		.loc 1 500 0
 739 0022 1B68     		ldr	r3, [r3, #0]
 740              	.LVL54:
 741              	.L35:
 742              		.loc 1 500 0 is_stmt 0 discriminator 1
 743 0024 9A68     		ldr	r2, [r3, #8]
 744 0026 A242     		cmp	r2, r4
 745 0028 FBD8     		bhi	.L36
 746              		.loc 1 503 0 is_stmt 1
 747 002a 5A68     		ldr	r2, [r3, #4]
 748              		.loc 1 502 0
 749 002c 0B60     		str	r3, [r1, #0]
 750              		.loc 1 503 0
 751 002e 4A60     		str	r2, [r1, #4]
 752              		.loc 1 504 0
 753 0030 1160     		str	r1, [r2, #0]
 754              		.loc 1 505 0
 755 0032 5960     		str	r1, [r3, #4]
 756              		.loc 1 508 0
 757 0034 30BC     		pop	{r4, r5}
 758              		.loc 1 507 0
 759 0036 FFF7FEBF 		b	_port_switch
 760              	.LVL55:
 761              	.LVL56:
 762              	.LVL57:
 763              		.cfi_endproc
 764              	.LFE191:
 765              		.size	chSchDoRescheduleAhead, .-chSchDoRescheduleAhead
 766 003a 00BFAFF3 		.section	.text.chSchRescheduleS,"ax",%progbits
 766      0080
 767              		.align	2
 768              		.p2align 4,,15
 769              		.global	chSchRescheduleS
 770              		.thumb
 771              		.thumb_func
 772              		.type	chSchRescheduleS, %function
 773              	chSchRescheduleS:
 774              	.LFB188:
 775              		.loc 1 406 0
 776              		.cfi_startproc
 777              		@ args = 0, pretend = 0, frame = 0
 778              		@ frame_needed = 0, uses_anonymous_args = 0
 779              		@ link register save eliminated.
 780              	.LBB132:
 781              	.LBB133:
 782              		.loc 4 713 0
 783 0000 40F2000C 		movw	ip, #:lower16:.LANCHOR0
 784 0004 C0F2000C 		movt	ip, #:upper16:.LANCHOR0
 785 0008 DCF80010 		ldr	r1, [ip, #0]
 786 000c DCF81800 		ldr	r0, [ip, #24]
 787              	.LBE133:
ARM GAS  /tmp/ccBk47cc.s 			page 15


 788              	.LBE132:
 789              		.loc 1 410 0
 790 0010 8A68     		ldr	r2, [r1, #8]
 791 0012 8368     		ldr	r3, [r0, #8]
 792 0014 9A42     		cmp	r2, r3
 793 0016 00D8     		bhi	.L39
 794 0018 7047     		bx	lr
 795              	.L39:
 796              		.loc 1 413 0
 797              		.loc 1 411 0
 798 001a FFF7FEBF 		b	chSchDoRescheduleAhead
 799              		.cfi_endproc
 800              	.LFE188:
 801              		.size	chSchRescheduleS, .-chSchRescheduleS
 802 001e 00BF     		.section	.text.chSchDoReschedule,"ax",%progbits
 803              		.align	2
 804              		.p2align 4,,15
 805              		.global	chSchDoReschedule
 806              		.thumb
 807              		.thumb_func
 808              		.type	chSchDoReschedule, %function
 809              	chSchDoReschedule:
 810              	.LFB192:
 811              		.loc 1 520 0
 812              		.cfi_startproc
 813              		@ args = 0, pretend = 0, frame = 0
 814              		@ frame_needed = 0, uses_anonymous_args = 0
 815              		@ link register save eliminated.
 816              		.loc 1 540 0
 817              		.loc 1 538 0
 818 0000 FFF7FEBF 		b	chSchDoRescheduleAhead
 819              		.cfi_endproc
 820              	.LFE192:
 821              		.size	chSchDoReschedule, .-chSchDoReschedule
 822              		.global	ch
 823 0004 AFF30080 		.section	.bss.ch,"aw",%nobits
 823      AFF30080 
 823      AFF30080 
 824              		.align	3
 825              		.set	.LANCHOR0,. + 0
 826              		.type	ch, %object
 827              		.size	ch, 336
 828              	ch:
 829 0000 00000000 		.space	336
 829      00000000 
 829      00000000 
 829      00000000 
 829      00000000 
 830              		.text
 831              	.Letext0:
 832              		.file 5 "/home/madog/programs/CodeSourcery/Sourcery_CodeBench_Lite_for_ARM_EABI/bin/../lib/gcc/arm
 833              		.file 6 "/home/madog/programs/CodeSourcery/Sourcery_CodeBench_Lite_for_ARM_EABI/bin/../lib/gcc/arm
 834              		.file 7 "../../../resources/chibios/ChibiOS_16.1.8/os/rt/ports/ARMCMx/compilers/GCC/chtypes.h"
 835              		.file 8 "../../../resources/chibios/ChibiOS_16.1.8/os/rt/include/chsystypes.h"
 836              		.file 9 "../../../resources/chibios/ChibiOS_16.1.8/os/rt/ports/ARMCMx/chcore.h"
 837              		.file 10 "../../../resources/chibios/ChibiOS_16.1.8/os/rt/ports/ARMCMx/chcore_v7m.h"
 838              		.file 11 "../../../resources/chibios/ChibiOS_16.1.8/os/rt/include/chtm.h"
ARM GAS  /tmp/ccBk47cc.s 			page 16


 839              		.file 12 "../../../resources/chibios/ChibiOS_16.1.8/os/rt/include/chmtx.h"
 840              		.file 13 "../../../resources/chibios/ChibiOS_16.1.8/os/rt/include/chvt.h"
 841              		.file 14 "../../../resources/chibios/ChibiOS_16.1.8/os/rt/include/chsys.h"
 842              		.file 15 "../../../resources/chibios/ChibiOS_16.1.8/os/ext/CMSIS/include/core_cm3.h"