ARM GAS  /tmp/ccBk47cc.s 			page 1


   1              		.syntax unified
   2              		.cpu cortex-m3
   3              		.fpu softvfp
   4              		.eabi_attribute 20, 1
   5              		.eabi_attribute 21, 1
   6              		.eabi_attribute 23, 3
   7              		.eabi_attribute 24, 1
   8              		.eabi_attribute 25, 1
   9              		.eabi_attribute 26, 1
  10              		.eabi_attribute 30, 2
  11              		.eabi_attribute 34, 1
  12              		.eabi_attribute 18, 4
  13              		.thumb
  14              		.file	"chschd.c"
  15              		.text
  16              	.Ltext0:
  17              		.cfi_sections	.debug_frame
  18              		.section	.text.wakeup,"ax",%progbits
  19              		.align	2
  20              		.p2align 4,,15
  21              		.thumb
  22              		.thumb_func
  23              		.type	wakeup, %function
  24              	wakeup:
  25              	.LFB185:
  26              		.file 1 "../../../resources/chibios/ChibiOS_16.1.8/os/rt/src/chschd.c"
  27              		.loc 1 275 0
  28              		.cfi_startproc
  29              		@ args = 0, pretend = 0, frame = 0
  30              		@ frame_needed = 0, uses_anonymous_args = 0
  31              		@ link register save eliminated.
  32              	.LVL0:
  33              	.LBB68:
  34              	.LBB69:
  35              	.LBB70:
  36              	.LBB71:
  37              	.LBB72:
  38              		.file 2 "../../../resources/chibios/ChibiOS_16.1.8/os/ext/CMSIS/include/core_cmFunc.h"
  39              		.loc 2 548 0
  40 0000 2021     		movs	r1, #32
  41              	@ 548 "../../../resources/chibios/ChibiOS_16.1.8/os/ext/CMSIS/include/core_cmFunc.h" 1
  42 0002 81F31188 		MSR basepri, r1
  43              	@ 0 "" 2
  44              		.thumb
  45              	.LBE72:
  46              	.LBE71:
  47              	.LBE70:
  48              	.LBE69:
  49              	.LBE68:
  50              		.loc 1 279 0
  51 0006 037F     		ldrb	r3, [r0, #28]	@ zero_extendqisi2
  52 0008 072B     		cmp	r3, #7
  53 000a 0ED8     		bhi	.L2
  54 000c DFE803F0 		tbb	[pc, r3]
  55              	.L7:
  56 0010 20       		.byte	(.L11-.L7)/2
  57 0011 0D       		.byte	(.L2-.L7)/2
ARM GAS  /tmp/ccBk47cc.s 			page 2


  58 0012 0D       		.byte	(.L2-.L7)/2
  59 0013 24       		.byte	(.L4-.L7)/2
  60 0014 08       		.byte	(.L5-.L7)/2
  61 0015 04       		.byte	(.L6-.L7)/2
  62 0016 0D       		.byte	(.L2-.L7)/2
  63 0017 08       		.byte	(.L5-.L7)/2
  64              		.align	1
  65              	.LVL1:
  66              	.L6:
  67              		.loc 1 290 0
  68 0018 036A     		ldr	r3, [r0, #32]
  69              	.LBB73:
  70              	.LBB74:
  71              		.file 3 "../../../resources/chibios/ChibiOS_16.1.8/os/rt/include/chsem.h"
  72              		.loc 3 138 0
  73 001a 9A68     		ldr	r2, [r3, #8]
  74 001c 511C     		adds	r1, r2, #1
  75 001e 9960     		str	r1, [r3, #8]
  76              	.L5:
  77              	.LVL2:
  78              	.LBE74:
  79              	.LBE73:
  80              	.LBB75:
  81              	.LBB76:
  82              		.file 4 "../../../resources/chibios/ChibiOS_16.1.8/os/rt/include/chschd.h"
  83              		.loc 4 691 0
  84 0020 90E80C00 		ldmia	r0, {r2, r3}
  85 0024 1A60     		str	r2, [r3, #0]
  86              		.loc 4 692 0
  87 0026 0168     		ldr	r1, [r0, #0]
  88 0028 4B60     		str	r3, [r1, #4]
  89              	.LVL3:
  90              	.L2:
  91              	.LBE76:
  92              	.LBE75:
  93              		.loc 1 304 0
  94 002a 4FF0FF32 		mov	r2, #-1
  95              	.LBB77:
  96              	.LBB78:
  97              		.loc 1 228 0
  98 002e 40F20003 		movw	r3, #:lower16:.LANCHOR0
  99              	.LBE78:
 100              	.LBE77:
 101              		.loc 1 304 0
 102 0032 0262     		str	r2, [r0, #32]
 103              	.LVL4:
 104              	.LBB80:
 105              	.LBB79:
 106              		.loc 1 227 0
 107 0034 8168     		ldr	r1, [r0, #8]
 108 0036 0022     		movs	r2, #0
 109 0038 0277     		strb	r2, [r0, #28]
 110              	.LVL5:
 111              		.loc 1 228 0
 112 003a C0F20003 		movt	r3, #:upper16:.LANCHOR0
 113              	.LVL6:
 114              	.L9:
ARM GAS  /tmp/ccBk47cc.s 			page 3


 115              		.loc 1 230 0
 116 003e 1B68     		ldr	r3, [r3, #0]
 117              	.LVL7:
 118              		.loc 1 231 0
 119 0040 9A68     		ldr	r2, [r3, #8]
 120 0042 8A42     		cmp	r2, r1
 121 0044 FBD2     		bcs	.L9
 122              		.loc 1 234 0
 123 0046 5968     		ldr	r1, [r3, #4]
 124              		.loc 1 233 0
 125 0048 0360     		str	r3, [r0, #0]
 126              		.loc 1 234 0
 127 004a 4160     		str	r1, [r0, #4]
 128              		.loc 1 235 0
 129 004c 0860     		str	r0, [r1, #0]
 130              		.loc 1 236 0
 131 004e 5860     		str	r0, [r3, #4]
 132              	.LVL8:
 133              	.L11:
 134              	.LBE79:
 135              	.LBE80:
 136              	.LBB81:
 137              	.LBB82:
 138              	.LBB83:
 139              	.LBB84:
 140              	.LBB85:
 141              		.loc 2 548 0
 142 0050 0020     		movs	r0, #0
 143              	.LVL9:
 144              	@ 548 "../../../resources/chibios/ChibiOS_16.1.8/os/ext/CMSIS/include/core_cmFunc.h" 1
 145 0052 80F31188 		MSR basepri, r0
 146              	@ 0 "" 2
 147              		.thumb
 148 0056 7047     		bx	lr
 149              	.LVL10:
 150              	.L4:
 151              	.LBE85:
 152              	.LBE84:
 153              	.LBE83:
 154              	.LBE82:
 155              	.LBE81:
 156              		.loc 1 286 0
 157 0058 036A     		ldr	r3, [r0, #32]
 158 005a 0022     		movs	r2, #0
 159 005c 1A60     		str	r2, [r3, #0]
 160              		.loc 1 287 0
 161 005e E4E7     		b	.L2
 162              		.cfi_endproc
 163              	.LFE185:
 164              		.size	wakeup, .-wakeup
 165              		.section	.text._scheduler_init,"ax",%progbits
 166              		.align	2
 167              		.p2align 4,,15
 168              		.global	_scheduler_init
 169              		.thumb
 170              		.thumb_func
 171              		.type	_scheduler_init, %function
ARM GAS  /tmp/ccBk47cc.s 			page 4


 172              	_scheduler_init:
 173              	.LFB182:
 174              		.loc 1 65 0
 175              		.cfi_startproc
 176              		@ args = 0, pretend = 0, frame = 0
 177              		@ frame_needed = 0, uses_anonymous_args = 0
 178              		@ link register save eliminated.
 179              	.LVL11:
 180              	.LBB86:
 181              	.LBB87:
 182              		.loc 4 604 0
 183 0000 40F20003 		movw	r3, #:lower16:.LANCHOR0
 184 0004 C0F20003 		movt	r3, #:upper16:.LANCHOR0
 185              	.LBE87:
 186              	.LBE86:
 187              		.loc 1 68 0
 188 0008 0022     		movs	r2, #0
 189              	.LBB89:
 190              	.LBB88:
 191              		.loc 4 604 0
 192 000a 1B60     		str	r3, [r3, #0]
 193              		.loc 4 605 0
 194 000c 5B60     		str	r3, [r3, #4]
 195              	.LBE88:
 196              	.LBE89:
 197              		.loc 1 68 0
 198 000e 9A60     		str	r2, [r3, #8]
 199              		.loc 1 70 0
 200 0010 1B61     		str	r3, [r3, #16]
 201              		.loc 1 71 0
 202 0012 5B61     		str	r3, [r3, #20]
 203              		.loc 1 73 0
 204 0014 7047     		bx	lr
 205              		.cfi_endproc
 206              	.LFE182:
 207              		.size	_scheduler_init, .-_scheduler_init
 208 0016 00BFAFF3 		.section	.text.chSchReadyI,"ax",%progbits
 208      0080AFF3 
 208      0080
 209              		.align	2
 210              		.p2align 4,,15
 211              		.global	chSchReadyI
 212              		.thumb
 213              		.thumb_func
 214              		.type	chSchReadyI, %function
 215              	chSchReadyI:
 216              	.LFB183:
 217              		.loc 1 218 0
 218              		.cfi_startproc
 219              		@ args = 0, pretend = 0, frame = 0
 220              		@ frame_needed = 0, uses_anonymous_args = 0
 221              		@ link register save eliminated.
 222              	.LVL12:
 223              		.loc 1 228 0
 224 0000 40F20003 		movw	r3, #:lower16:.LANCHOR0
 225              		.loc 1 227 0
 226 0004 0022     		movs	r2, #0
ARM GAS  /tmp/ccBk47cc.s 			page 5


 227 0006 8168     		ldr	r1, [r0, #8]
 228 0008 0277     		strb	r2, [r0, #28]
 229              	.LVL13:
 230              		.loc 1 228 0
 231 000a C0F20003 		movt	r3, #:upper16:.LANCHOR0
 232              	.LVL14:
 233              	.L15:
 234              		.loc 1 230 0 discriminator 1
 235 000e 1B68     		ldr	r3, [r3, #0]
 236              	.LVL15:
 237              		.loc 1 231 0 discriminator 1
 238 0010 9A68     		ldr	r2, [r3, #8]
 239 0012 8A42     		cmp	r2, r1
 240 0014 FBD2     		bcs	.L15
 241              		.loc 1 234 0
 242 0016 5968     		ldr	r1, [r3, #4]
 243              		.loc 1 233 0
 244 0018 0360     		str	r3, [r0, #0]
 245              		.loc 1 234 0
 246 001a 4160     		str	r1, [r0, #4]
 247              		.loc 1 235 0
 248 001c 0860     		str	r0, [r1, #0]
 249              		.loc 1 236 0
 250 001e 5860     		str	r0, [r3, #4]
 251              		.loc 1 239 0
 252 0020 7047     		bx	lr
 253              		.cfi_endproc
 254              	.LFE183:
 255              		.size	chSchReadyI, .-chSchReadyI
 256 0022 00BFAFF3 		.section	.text.chSchGoSleepS,"ax",%progbits
 256      0080AFF3 
 256      0080AFF3 
 256      0080
 257              		.align	2
 258              		.p2align 4,,15
 259              		.global	chSchGoSleepS
 260              		.thumb
 261              		.thumb_func
 262              		.type	chSchGoSleepS, %function
 263              	chSchGoSleepS:
 264              	.LFB184:
 265              		.loc 1 250 0
 266              		.cfi_startproc
 267              		@ args = 0, pretend = 0, frame = 0
 268              		@ frame_needed = 0, uses_anonymous_args = 0
 269              		@ link register save eliminated.
 270              	.LVL16:
 271              		.loc 1 255 0
 272 0000 40F20003 		movw	r3, #:lower16:.LANCHOR0
 273              		.loc 1 250 0
 274 0004 10B4     		push	{r4}
 275              	.LCFI0:
 276              		.cfi_def_cfa_offset 4
 277              		.cfi_offset 4, -4
 278              		.loc 1 255 0
 279 0006 C0F20003 		movt	r3, #:upper16:.LANCHOR0
 280              	.LBB90:
ARM GAS  /tmp/ccBk47cc.s 			page 6


 281              	.LBB91:
 282              		.loc 4 672 0
 283 000a 1A68     		ldr	r2, [r3, #0]
 284              	.LBE91:
 285              	.LBE90:
 286              		.loc 1 255 0
 287 000c 9969     		ldr	r1, [r3, #24]
 288              	.LVL17:
 289              	.LBB94:
 290              	.LBB92:
 291              		.loc 4 674 0
 292 000e 1468     		ldr	r4, [r2, #0]
 293              	.LBE92:
 294              	.LBE94:
 295              		.loc 1 256 0
 296 0010 0877     		strb	r0, [r1, #28]
 297              	.LVL18:
 298              		.loc 1 268 0
 299 0012 0120     		movs	r0, #1
 300              	.LVL19:
 301 0014 1077     		strb	r0, [r2, #28]
 302              		.loc 1 269 0
 303 0016 1046     		mov	r0, r2
 304              	.LBB95:
 305              	.LBB93:
 306              		.loc 4 675 0
 307 0018 6360     		str	r3, [r4, #4]
 308              		.loc 4 674 0
 309 001a 1C60     		str	r4, [r3, #0]
 310              	.LBE93:
 311              	.LBE95:
 312              		.loc 1 262 0
 313 001c 9A61     		str	r2, [r3, #24]
 314              		.loc 1 270 0
 315 001e 10BC     		pop	{r4}
 316              		.loc 1 269 0
 317 0020 FFF7FEBF 		b	_port_switch
 318              	.LVL20:
 319              	.LVL21:
 320              	.LVL22:
 321              		.cfi_endproc
 322              	.LFE184:
 323              		.size	chSchGoSleepS, .-chSchGoSleepS
 324 0024 AFF30080 		.section	.text.chSchGoSleepTimeoutS,"ax",%progbits
 324      AFF30080 
 324      AFF30080 
 325              		.align	2
 326              		.p2align 4,,15
 327              		.global	chSchGoSleepTimeoutS
 328              		.thumb
 329              		.thumb_func
 330              		.type	chSchGoSleepTimeoutS, %function
 331              	chSchGoSleepTimeoutS:
 332              	.LFB186:
 333              		.loc 1 330 0
 334              		.cfi_startproc
 335              		@ args = 0, pretend = 0, frame = 24
ARM GAS  /tmp/ccBk47cc.s 			page 7


 336              		@ frame_needed = 0, uses_anonymous_args = 0
 337              	.LVL23:
 338 0000 30B5     		push	{r4, r5, lr}
 339              	.LCFI1:
 340              		.cfi_def_cfa_offset 12
 341              		.cfi_offset 14, -4
 342              		.cfi_offset 5, -8
 343              		.cfi_offset 4, -12
 344              		.loc 1 334 0
 345 0002 4FF6FF73 		movw	r3, #65535
 346 0006 9942     		cmp	r1, r3
 347              		.loc 1 330 0
 348 0008 87B0     		sub	sp, sp, #28
 349              	.LCFI2:
 350              		.cfi_def_cfa_offset 40
 351              		.loc 1 330 0
 352 000a 0546     		mov	r5, r0
 353              		.loc 1 334 0
 354 000c 17D0     		beq	.L19
 355              	.LBB96:
 356              		.loc 1 337 0
 357 000e 40F20004 		movw	r4, #:lower16:.LANCHOR0
 358 0012 C0F20004 		movt	r4, #:upper16:.LANCHOR0
 359 0016 40F20002 		movw	r2, #:lower16:wakeup
 360 001a C0F20002 		movt	r2, #:upper16:wakeup
 361 001e A369     		ldr	r3, [r4, #24]
 362 0020 01A8     		add	r0, sp, #4
 363              	.LVL24:
 364 0022 FFF7FEFF 		bl	chVTDoSetI
 365              	.LVL25:
 366              		.loc 1 338 0
 367 0026 2846     		mov	r0, r5
 368 0028 FFF7FEFF 		bl	chSchGoSleepS
 369              		.loc 1 339 0
 370 002c 0498     		ldr	r0, [sp, #16]
 371 002e 10B1     		cbz	r0, .L20
 372              		.loc 1 340 0
 373 0030 01A8     		add	r0, sp, #4
 374 0032 FFF7FEFF 		bl	chVTDoResetI
 375              	.L20:
 376              	.LBE96:
 377              		.loc 1 347 0
 378 0036 A169     		ldr	r1, [r4, #24]
 379              		.loc 1 348 0
 380 0038 086A     		ldr	r0, [r1, #32]
 381 003a 07B0     		add	sp, sp, #28
 382 003c 30BD     		pop	{r4, r5, pc}
 383              	.LVL26:
 384              	.L19:
 385 003e 40F20004 		movw	r4, #:lower16:.LANCHOR0
 386              		.loc 1 344 0
 387 0042 FFF7FEFF 		bl	chSchGoSleepS
 388              	.LVL27:
 389 0046 C0F20004 		movt	r4, #:upper16:.LANCHOR0
 390 004a F4E7     		b	.L20
 391              		.cfi_endproc
 392              	.LFE186:
ARM GAS  /tmp/ccBk47cc.s 			page 8


 393              		.size	chSchGoSleepTimeoutS, .-chSchGoSleepTimeoutS
 394 004c AFF30080 		.section	.text.chSchWakeupS,"ax",%progbits
 395              		.align	2
 396              		.p2align 4,,15
 397              		.global	chSchWakeupS
 398              		.thumb
 399              		.thumb_func
 400              		.type	chSchWakeupS, %function
 401              	chSchWakeupS:
 402              	.LFB187:
 403              		.loc 1 367 0
 404              		.cfi_startproc
 405              		@ args = 0, pretend = 0, frame = 0
 406              		@ frame_needed = 0, uses_anonymous_args = 0
 407              		@ link register save eliminated.
 408              	.LVL28:
 409              		.loc 1 383 0
 410 0000 40F20002 		movw	r2, #:lower16:.LANCHOR0
 411 0004 C0F20002 		movt	r2, #:upper16:.LANCHOR0
 412              		.loc 1 367 0
 413 0008 30B4     		push	{r4, r5}
 414              	.LCFI3:
 415              		.cfi_def_cfa_offset 8
 416              		.cfi_offset 5, -4
 417              		.cfi_offset 4, -8
 418              		.loc 1 383 0
 419 000a 9469     		ldr	r4, [r2, #24]
 420              		.loc 1 367 0
 421 000c 0346     		mov	r3, r0
 422              		.loc 1 383 0
 423 000e 8568     		ldr	r5, [r0, #8]
 424 0010 A068     		ldr	r0, [r4, #8]
 425              	.LVL29:
 426              		.loc 1 377 0
 427 0012 1962     		str	r1, [r3, #32]
 428              	.LBB97:
 429              	.LBB98:
 430              		.loc 1 227 0
 431 0014 0021     		movs	r1, #0
 432              	.LVL30:
 433              	.LBE98:
 434              	.LBE97:
 435              		.loc 1 383 0
 436 0016 8542     		cmp	r5, r0
 437              	.LBB100:
 438              	.LBB101:
 439              	.LBB102:
 440              		.loc 1 227 0
 441 0018 84BF     		itt	hi
 442 001a 2177     		strbhi	r1, [r4, #28]
 443              	.LVL31:
 444              		.loc 1 228 0
 445 001c 1146     		movhi	r1, r2
 446              	.LBE102:
 447              	.LBE101:
 448              	.LBE100:
 449              		.loc 1 383 0
ARM GAS  /tmp/ccBk47cc.s 			page 9


 450 001e 0BD8     		bhi	.L25
 451              	.LVL32:
 452              	.LBB107:
 453              	.LBB99:
 454              		.loc 1 227 0
 455 0020 1977     		strb	r1, [r3, #28]
 456              	.LVL33:
 457              	.L23:
 458              		.loc 1 230 0
 459 0022 1268     		ldr	r2, [r2, #0]
 460              	.LVL34:
 461              		.loc 1 231 0
 462 0024 9168     		ldr	r1, [r2, #8]
 463 0026 8D42     		cmp	r5, r1
 464 0028 FBD9     		bls	.L23
 465              		.loc 1 234 0
 466 002a 5068     		ldr	r0, [r2, #4]
 467              		.loc 1 233 0
 468 002c 1A60     		str	r2, [r3, #0]
 469              		.loc 1 234 0
 470 002e 5860     		str	r0, [r3, #4]
 471              		.loc 1 235 0
 472 0030 0360     		str	r3, [r0, #0]
 473              		.loc 1 236 0
 474 0032 5360     		str	r3, [r2, #4]
 475              	.LBE99:
 476              	.LBE107:
 477              		.loc 1 397 0
 478 0034 30BC     		pop	{r4, r5}
 479 0036 7047     		bx	lr
 480              	.LVL35:
 481              	.L25:
 482              	.LBB108:
 483              	.LBB105:
 484              	.LBB103:
 485              		.loc 1 230 0
 486 0038 0968     		ldr	r1, [r1, #0]
 487              	.LVL36:
 488              		.loc 1 231 0
 489 003a 8D68     		ldr	r5, [r1, #8]
 490 003c A842     		cmp	r0, r5
 491 003e FBD9     		bls	.L25
 492              		.loc 1 234 0
 493 0040 4868     		ldr	r0, [r1, #4]
 494              		.loc 1 233 0
 495 0042 2160     		str	r1, [r4, #0]
 496              		.loc 1 234 0
 497 0044 6060     		str	r0, [r4, #4]
 498              		.loc 1 236 0
 499 0046 4C60     		str	r4, [r1, #4]
 500              	.LBE103:
 501              	.LBE105:
 502              		.loc 1 394 0
 503 0048 0121     		movs	r1, #1
 504              	.LVL37:
 505              	.LBB106:
 506              	.LBB104:
ARM GAS  /tmp/ccBk47cc.s 			page 10


 507              		.loc 1 235 0
 508 004a 0460     		str	r4, [r0, #0]
 509              	.LBE104:
 510              	.LBE106:
 511              		.loc 1 394 0
 512 004c 1977     		strb	r1, [r3, #28]
 513              		.loc 1 395 0
 514 004e 1846     		mov	r0, r3
 515 0050 2146     		mov	r1, r4
 516              		.loc 1 388 0
 517 0052 9361     		str	r3, [r2, #24]
 518              	.LBE108:
 519              		.loc 1 397 0
 520 0054 30BC     		pop	{r4, r5}
 521              	.LBB109:
 522              		.loc 1 395 0
 523 0056 FFF7FEBF 		b	_port_switch
 524              	.LVL38:
 525              	.LVL39:
 526              	.LVL40:
 527              	.LBE109:
 528              		.cfi_endproc
 529              	.LFE187:
 530              		.size	chSchWakeupS, .-chSchWakeupS
 531 005a 00BFAFF3 		.section	.text.chSchIsPreemptionRequired,"ax",%progbits
 531      0080
 532              		.align	2
 533              		.p2align 4,,15
 534              		.global	chSchIsPreemptionRequired
 535              		.thumb
 536              		.thumb_func
 537              		.type	chSchIsPreemptionRequired, %function
 538              	chSchIsPreemptionRequired:
 539              	.LFB189:
 540              		.loc 1 428 0
 541              		.cfi_startproc
 542              		@ args = 0, pretend = 0, frame = 0
 543              		@ frame_needed = 0, uses_anonymous_args = 0
 544              		@ link register save eliminated.
 545              	.LVL41:
 546              		.loc 1 429 0
 547 0000 40F20000 		movw	r0, #:lower16:.LANCHOR0
 548 0004 C0F20000 		movt	r0, #:upper16:.LANCHOR0
 549              		.loc 1 430 0
 550 0008 8169     		ldr	r1, [r0, #24]
 551              		.loc 1 429 0
 552 000a 0268     		ldr	r2, [r0, #0]
 553              		.loc 1 441 0
 554 000c 8B68     		ldr	r3, [r1, #8]
 555 000e 9068     		ldr	r0, [r2, #8]
 556              		.loc 1 443 0
 557 0010 9842     		cmp	r0, r3
 558 0012 94BF     		ite	ls
 559 0014 0020     		movls	r0, #0
 560 0016 0120     		movhi	r0, #1
 561 0018 7047     		bx	lr
 562              		.cfi_endproc
ARM GAS  /tmp/ccBk47cc.s 			page 11


 563              	.LFE189:
 564              		.size	chSchIsPreemptionRequired, .-chSchIsPreemptionRequired
 565 001a 00BFAFF3 		.section	.text.chSchDoRescheduleBehind,"ax",%progbits
 565      0080
 566              		.align	2
 567              		.p2align 4,,15
 568              		.global	chSchDoRescheduleBehind
 569              		.thumb
 570              		.thumb_func
 571              		.type	chSchDoRescheduleBehind, %function
 572              	chSchDoRescheduleBehind:
 573              	.LFB190:
 574              		.loc 1 455 0
 575              		.cfi_startproc
 576              		@ args = 0, pretend = 0, frame = 0
 577              		@ frame_needed = 0, uses_anonymous_args = 0
 578              		@ link register save eliminated.
 579              		.loc 1 458 0
 580 0000 40F20002 		movw	r2, #:lower16:.LANCHOR0
 581 0004 C0F20002 		movt	r2, #:upper16:.LANCHOR0
 582              	.LBB110:
 583              	.LBB111:
 584              		.loc 4 672 0
 585 0008 1068     		ldr	r0, [r2, #0]
 586              	.LBE111:
 587              	.LBE110:
 588              		.loc 1 458 0
 589 000a 9169     		ldr	r1, [r2, #24]
 590              	.LVL42:
 591              	.LBB115:
 592              	.LBB112:
 593              		.loc 4 674 0
 594 000c 0368     		ldr	r3, [r0, #0]
 595              	.LBE112:
 596              	.LBE115:
 597              		.loc 1 455 0
 598 000e 30B4     		push	{r4, r5}
 599              	.LCFI4:
 600              		.cfi_def_cfa_offset 8
 601              		.cfi_offset 5, -4
 602              		.cfi_offset 4, -8
 603              	.LBB116:
 604              	.LBB113:
 605              		.loc 4 675 0
 606 0010 5A60     		str	r2, [r3, #4]
 607              	.LBE113:
 608              	.LBE116:
 609              	.LBB117:
 610              	.LBB118:
 611              		.loc 1 227 0
 612 0012 8C68     		ldr	r4, [r1, #8]
 613              	.LBE118:
 614              	.LBE117:
 615              		.loc 1 466 0
 616 0014 0125     		movs	r5, #1
 617              	.LBB121:
 618              	.LBB114:
ARM GAS  /tmp/ccBk47cc.s 			page 12


 619              		.loc 4 674 0
 620 0016 1360     		str	r3, [r2, #0]
 621              	.LBE114:
 622              	.LBE121:
 623              		.loc 1 460 0
 624 0018 9061     		str	r0, [r2, #24]
 625              	.LBB122:
 626              	.LBB119:
 627              		.loc 1 227 0
 628 001a 0022     		movs	r2, #0
 629              	.LBE119:
 630              	.LBE122:
 631              		.loc 1 466 0
 632 001c 0577     		strb	r5, [r0, #28]
 633              	.LVL43:
 634              	.LBB123:
 635              	.LBB120:
 636              		.loc 1 227 0
 637 001e 0A77     		strb	r2, [r1, #28]
 638              	.LVL44:
 639 0020 00E0     		b	.L31
 640              	.LVL45:
 641              	.L32:
 642              		.loc 1 231 0
 643 0022 1B68     		ldr	r3, [r3, #0]
 644              	.LVL46:
 645              	.L31:
 646 0024 9A68     		ldr	r2, [r3, #8]
 647 0026 9442     		cmp	r4, r2
 648 0028 FBD9     		bls	.L32
 649              		.loc 1 234 0
 650 002a 5A68     		ldr	r2, [r3, #4]
 651              		.loc 1 233 0
 652 002c 0B60     		str	r3, [r1, #0]
 653              		.loc 1 234 0
 654 002e 4A60     		str	r2, [r1, #4]
 655              		.loc 1 235 0
 656 0030 1160     		str	r1, [r2, #0]
 657              		.loc 1 236 0
 658 0032 5960     		str	r1, [r3, #4]
 659              	.LBE120:
 660              	.LBE123:
 661              		.loc 1 472 0
 662 0034 30BC     		pop	{r4, r5}
 663              		.loc 1 471 0
 664 0036 FFF7FEBF 		b	_port_switch
 665              	.LVL47:
 666              	.LVL48:
 667              	.LVL49:
 668              	.LVL50:
 669              		.cfi_endproc
 670              	.LFE190:
 671              		.size	chSchDoRescheduleBehind, .-chSchDoRescheduleBehind
 672 003a 00BFAFF3 		.section	.text.chSchDoRescheduleAhead,"ax",%progbits
 672      0080
 673              		.align	2
 674              		.p2align 4,,15
ARM GAS  /tmp/ccBk47cc.s 			page 13


 675              		.global	chSchDoRescheduleAhead
 676              		.thumb
 677              		.thumb_func
 678              		.type	chSchDoRescheduleAhead, %function
 679              	chSchDoRescheduleAhead:
 680              	.LFB191:
 681              		.loc 1 483 0
 682              		.cfi_startproc
 683              		@ args = 0, pretend = 0, frame = 0
 684              		@ frame_needed = 0, uses_anonymous_args = 0
 685              		@ link register save eliminated.
 686              		.loc 1 486 0
 687 0000 40F20002 		movw	r2, #:lower16:.LANCHOR0
 688 0004 C0F20002 		movt	r2, #:upper16:.LANCHOR0
 689              	.LBB124:
 690              	.LBB125:
 691              		.loc 4 672 0
 692 0008 1068     		ldr	r0, [r2, #0]
 693              	.LBE125:
 694              	.LBE124:
 695              		.loc 1 486 0
 696 000a 9169     		ldr	r1, [r2, #24]
 697              	.LVL51:
 698              	.LBB129:
 699              	.LBB126:
 700              		.loc 4 674 0
 701 000c 0368     		ldr	r3, [r0, #0]
 702              	.LBE126:
 703              	.LBE129:
 704              		.loc 1 483 0
 705 000e 30B4     		push	{r4, r5}
 706              	.LCFI5:
 707              		.cfi_def_cfa_offset 8
 708              		.cfi_offset 5, -4
 709              		.cfi_offset 4, -8
 710              	.LBB130:
 711              	.LBB127:
 712              		.loc 4 675 0
 713 0010 5A60     		str	r2, [r3, #4]
 714              	.LBE127:
 715              	.LBE130:
 716              		.loc 1 496 0
 717 0012 8C68     		ldr	r4, [r1, #8]
 718              		.loc 1 494 0
 719 0014 0125     		movs	r5, #1
 720              	.LBB131:
 721              	.LBB128:
 722              		.loc 4 674 0
 723 0016 1360     		str	r3, [r2, #0]
 724              	.LBE128:
 725              	.LBE131:
 726              		.loc 1 488 0
 727 0018 9061     		str	r0, [r2, #24]
 728              		.loc 1 496 0
 729 001a 0022     		movs	r2, #0
 730              		.loc 1 494 0
 731 001c 0577     		strb	r5, [r0, #28]
ARM GAS  /tmp/ccBk47cc.s 			page 14


 732              		.loc 1 496 0
 733 001e 0A77     		strb	r2, [r1, #28]
 734              	.LVL52:
 735 0020 00E0     		b	.L35
 736              	.LVL53:
 737              	.L36:
 738              		.loc 1 500 0
 739 0022 1B68     		ldr	r3, [r3, #0]
 740              	.LVL54:
 741              	.L35:
 742              		.loc 1 500 0 is_stmt 0 discriminator 1
 743 0024 9A68     		ldr	r2, [r3, #8]
 744 0026 A242     		cmp	r2, r4
 745 0028 FBD8     		bhi	.L36
 746              		.loc 1 503 0 is_stmt 1
 747 002a 5A68     		ldr	r2, [r3, #4]
 748              		.loc 1 502 0
 749 002c 0B60     		str	r3, [r1, #0]
 750              		.loc 1 503 0
 751 002e 4A60     		str	r2, [r1, #4]
 752              		.loc 1 504 0
 753 0030 1160     		str	r1, [r2, #0]
 754              		.loc 1 505 0
 755 0032 5960     		str	r1, [r3, #4]
 756              		.loc 1 508 0
 757 0034 30BC     		pop	{r4, r5}
 758              		.loc 1 507 0
 759 0036 FFF7FEBF 		b	_port_switch
 760              	.LVL55:
 761              	.LVL56:
 762              	.LVL57:
 763              		.cfi_endproc
 764              	.LFE191:
 765              		.size	chSchDoRescheduleAhead, .-chSchDoRescheduleAhead
 766 003a 00BFAFF3 		.section	.text.chSchRescheduleS,"ax",%progbits
 766      0080
 767              		.align	2
 768              		.p2align 4,,15
 769              		.global	chSchRescheduleS
 770              		.thumb
 771              		.thumb_func
 772              		.type	chSchRescheduleS, %function
 773              	chSchRescheduleS:
 774              	.LFB188:
 775              		.loc 1 406 0
 776              		.cfi_startproc
 777              		@ args = 0, pretend = 0, frame = 0
 778              		@ frame_needed = 0, uses_anonymous_args = 0
 779              		@ link register save eliminated.
 780              	.LBB132:
 781              	.LBB133:
 782              		.loc 4 713 0
 783 0000 40F2000C 		movw	ip, #:lower16:.LANCHOR0
 784 0004 C0F2000C 		movt	ip, #:upper16:.LANCHOR0
 785 0008 DCF80010 		ldr	r1, [ip, #0]
 786 000c DCF81800 		ldr	r0, [ip, #24]
 787              	.LBE133:
ARM GAS  /tmp/ccBk47cc.s 			page 15


 788              	.LBE132:
 789              		.loc 1 410 0
 790 0010 8A68     		ldr	r2, [r1, #8]
 791 0012 8368     		ldr	r3, [r0, #8]
 792 0014 9A42     		cmp	r2, r3
 793 0016 00D8     		bhi	.L39
 794 0018 7047     		bx	lr
 795              	.L39:
 796              		.loc 1 413 0
 797              		.loc 1 411 0
 798 001a FFF7FEBF 		b	chSchDoRescheduleAhead
 799              		.cfi_endproc
 800              	.LFE188:
 801              		.size	chSchRescheduleS, .-chSchRescheduleS
 802 001e 00BF     		.section	.text.chSchDoReschedule,"ax",%progbits
 803              		.align	2
 804              		.p2align 4,,15
 805              		.global	chSchDoReschedule
 806              		.thumb
 807              		.thumb_func
 808              		.type	chSchDoReschedule, %function
 809              	chSchDoReschedule:
 810              	.LFB192:
 811              		.loc 1 520 0
 812              		.cfi_startproc
 813              		@ args = 0, pretend = 0, frame = 0
 814              		@ frame_needed = 0, uses_anonymous_args = 0
 815              		@ link register save eliminated.
 816              		.loc 1 540 0
 817              		.loc 1 538 0
 818 0000 FFF7FEBF 		b	chSchDoRescheduleAhead
 819              		.cfi_endproc
 820              	.LFE192:
 821              		.size	chSchDoReschedule, .-chSchDoReschedule
 822              		.global	ch
 823 0004 AFF30080 		.section	.bss.ch,"aw",%nobits
 823      AFF30080 
 823      AFF30080 
 824              		.align	3
 825              		.set	.LANCHOR0,. + 0
 826              		.type	ch, %object
 827              		.size	ch, 336
 828              	ch:
 829 0000 00000000 		.space	336
 829      00000000 
 829      00000000 
 829      00000000 
 829      00000000 
 830              		.text
 831              	.Letext0:
 832              		.file 5 "/home/madog/programs/CodeSourcery/Sourcery_CodeBench_Lite_for_ARM_EABI/bin/../lib/gcc/arm
 833              		.file 6 "/home/madog/programs/CodeSourcery/Sourcery_CodeBench_Lite_for_ARM_EABI/bin/../lib/gcc/arm
 834              		.file 7 "../../../resources/chibios/ChibiOS_16.1.8/os/rt/ports/ARMCMx/compilers/GCC/chtypes.h"
 835              		.file 8 "../../../resources/chibios/ChibiOS_16.1.8/os/rt/include/chsystypes.h"
 836              		.file 9 "../../../resources/chibios/ChibiOS_16.1.8/os/rt/ports/ARMCMx/chcore.h"
 837              		.file 10 "../../../resources/chibios/ChibiOS_16.1.8/os/rt/ports/ARMCMx/chcore_v7m.h"
 838              		.file 11 "../../../resources/chibios/ChibiOS_16.1.8/os/rt/include/chtm.h"
ARM GAS  /tmp/ccBk47cc.s 			page 16


 839              		.file 12 "../../../resources/chibios/ChibiOS_16.1.8/os/rt/include/chmtx.h"
 840              		.file 13 "../../../resources/chibios/ChibiOS_16.1.8/os/rt/include/chvt.h"
 841              		.file 14 "../../../resources/chibios/ChibiOS_16.1.8/os/rt/include/chsys.h"
 842              		.file 15 "../../../resources/chibios/ChibiOS_16.1.8/os/ext/CMSIS/include/core_cm3.h"
 843              		.section	.debug_info,"",%progbits
 844              	.Ldebug_info0:
 845 0000 9E0C0000 		.4byte	0xc9e
 846 0004 0200     		.2byte	0x2
 847 0006 00000000 		.4byte	.Ldebug_abbrev0
 848 000a 04       		.byte	0x4
 849 000b 01       		.uleb128 0x1
 850 000c 32050000 		.4byte	.LASF125
 851 0010 01       		.byte	0x1
 852 0011 58020000 		.4byte	.LASF126
 853 0015 A8030000 		.4byte	.LASF127
 854 0019 00000000 		.4byte	0
 855 001d 00000000 		.4byte	0
 856 0021 F8010000 		.4byte	.Ldebug_ranges0+0x1f8
 857 0025 00000000 		.4byte	.Ldebug_line0
 858 0029 02       		.uleb128 0x2
 859 002a 04       		.byte	0x4
 860 002b 05       		.byte	0x5
 861 002c 696E7400 		.ascii	"int\000"
 862 0030 03       		.uleb128 0x3
 863 0031 95020000 		.4byte	.LASF2
 864 0035 05       		.byte	0x5
 865 0036 D4       		.byte	0xd4
 866 0037 3B000000 		.4byte	0x3b
 867 003b 04       		.uleb128 0x4
 868 003c 04       		.byte	0x4
 869 003d 07       		.byte	0x7
 870 003e A0000000 		.4byte	.LASF0
 871 0042 04       		.uleb128 0x4
 872 0043 01       		.byte	0x1
 873 0044 06       		.byte	0x6
 874 0045 D6050000 		.4byte	.LASF1
 875 0049 03       		.uleb128 0x3
 876 004a 31030000 		.4byte	.LASF3
 877 004e 06       		.byte	0x6
 878 004f 2A       		.byte	0x2a
 879 0050 54000000 		.4byte	0x54
 880 0054 04       		.uleb128 0x4
 881 0055 01       		.byte	0x1
 882 0056 08       		.byte	0x8
 883 0057 66050000 		.4byte	.LASF4
 884 005b 04       		.uleb128 0x4
 885 005c 02       		.byte	0x2
 886 005d 05       		.byte	0x5
 887 005e 3E040000 		.4byte	.LASF5
 888 0062 03       		.uleb128 0x3
 889 0063 22040000 		.4byte	.LASF6
 890 0067 06       		.byte	0x6
 891 0068 36       		.byte	0x36
 892 0069 6D000000 		.4byte	0x6d
 893 006d 04       		.uleb128 0x4
 894 006e 02       		.byte	0x2
 895 006f 07       		.byte	0x7
ARM GAS  /tmp/ccBk47cc.s 			page 17


 896 0070 E2050000 		.4byte	.LASF7
 897 0074 03       		.uleb128 0x3
 898 0075 1A050000 		.4byte	.LASF8
 899 0079 06       		.byte	0x6
 900 007a 4F       		.byte	0x4f
 901 007b 7F000000 		.4byte	0x7f
 902 007f 04       		.uleb128 0x4
 903 0080 04       		.byte	0x4
 904 0081 05       		.byte	0x5
 905 0082 65040000 		.4byte	.LASF9
 906 0086 03       		.uleb128 0x3
 907 0087 79010000 		.4byte	.LASF10
 908 008b 06       		.byte	0x6
 909 008c 50       		.byte	0x50
 910 008d 91000000 		.4byte	0x91
 911 0091 04       		.uleb128 0x4
 912 0092 04       		.byte	0x4
 913 0093 07       		.byte	0x7
 914 0094 E6040000 		.4byte	.LASF11
 915 0098 04       		.uleb128 0x4
 916 0099 08       		.byte	0x8
 917 009a 05       		.byte	0x5
 918 009b 64030000 		.4byte	.LASF12
 919 009f 03       		.uleb128 0x3
 920 00a0 A6040000 		.4byte	.LASF13
 921 00a4 06       		.byte	0x6
 922 00a5 78       		.byte	0x78
 923 00a6 AA000000 		.4byte	0xaa
 924 00aa 04       		.uleb128 0x4
 925 00ab 08       		.byte	0x8
 926 00ac 07       		.byte	0x7
 927 00ad C2010000 		.4byte	.LASF14
 928 00b1 03       		.uleb128 0x3
 929 00b2 2B040000 		.4byte	.LASF15
 930 00b6 07       		.byte	0x7
 931 00b7 39       		.byte	0x39
 932 00b8 86000000 		.4byte	0x86
 933 00bc 03       		.uleb128 0x3
 934 00bd FA030000 		.4byte	.LASF16
 935 00c1 07       		.byte	0x7
 936 00c2 3C       		.byte	0x3c
 937 00c3 49000000 		.4byte	0x49
 938 00c7 03       		.uleb128 0x3
 939 00c8 18030000 		.4byte	.LASF17
 940 00cc 07       		.byte	0x7
 941 00cd 3D       		.byte	0x3d
 942 00ce 49000000 		.4byte	0x49
 943 00d2 03       		.uleb128 0x3
 944 00d3 DE040000 		.4byte	.LASF18
 945 00d7 07       		.byte	0x7
 946 00d8 3E       		.byte	0x3e
 947 00d9 49000000 		.4byte	0x49
 948 00dd 03       		.uleb128 0x3
 949 00de A9010000 		.4byte	.LASF19
 950 00e2 07       		.byte	0x7
 951 00e3 40       		.byte	0x40
 952 00e4 86000000 		.4byte	0x86
ARM GAS  /tmp/ccBk47cc.s 			page 18


 953 00e8 03       		.uleb128 0x3
 954 00e9 82030000 		.4byte	.LASF20
 955 00ed 07       		.byte	0x7
 956 00ee 41       		.byte	0x41
 957 00ef 74000000 		.4byte	0x74
 958 00f3 03       		.uleb128 0x3
 959 00f4 82010000 		.4byte	.LASF21
 960 00f8 07       		.byte	0x7
 961 00f9 43       		.byte	0x43
 962 00fa 86000000 		.4byte	0x86
 963 00fe 03       		.uleb128 0x3
 964 00ff F3010000 		.4byte	.LASF22
 965 0103 07       		.byte	0x7
 966 0104 45       		.byte	0x45
 967 0105 74000000 		.4byte	0x74
 968 0109 03       		.uleb128 0x3
 969 010a 7B000000 		.4byte	.LASF23
 970 010e 08       		.byte	0x8
 971 010f 35       		.byte	0x35
 972 0110 62000000 		.4byte	0x62
 973 0114 03       		.uleb128 0x3
 974 0115 3C020000 		.4byte	.LASF24
 975 0119 08       		.byte	0x8
 976 011a 3F       		.byte	0x3f
 977 011b 1F010000 		.4byte	0x11f
 978 011f 05       		.uleb128 0x5
 979 0120 4B030000 		.4byte	.LASF44
 980 0124 44       		.byte	0x44
 981 0125 04       		.byte	0x4
 982 0126 C2       		.byte	0xc2
 983 0127 30020000 		.4byte	0x230
 984 012b 06       		.uleb128 0x6
 985 012c 9F040000 		.4byte	.LASF25
 986 0130 04       		.byte	0x4
 987 0131 C3       		.byte	0xc3
 988 0132 3B020000 		.4byte	0x23b
 989 0136 02       		.byte	0x2
 990 0137 23       		.byte	0x23
 991 0138 00       		.uleb128 0
 992 0139 06       		.uleb128 0x6
 993 013a D7040000 		.4byte	.LASF26
 994 013e 04       		.byte	0x4
 995 013f C5       		.byte	0xc5
 996 0140 3B020000 		.4byte	0x23b
 997 0144 02       		.byte	0x2
 998 0145 23       		.byte	0x23
 999 0146 04       		.uleb128 0x4
 1000 0147 06       		.uleb128 0x6
 1001 0148 74000000 		.4byte	.LASF27
 1002 014c 04       		.byte	0x4
 1003 014d C7       		.byte	0xc7
 1004 014e DD000000 		.4byte	0xdd
 1005 0152 02       		.byte	0x2
 1006 0153 23       		.byte	0x23
 1007 0154 08       		.uleb128 0x8
 1008 0155 06       		.uleb128 0x6
 1009 0156 AF040000 		.4byte	.LASF28
ARM GAS  /tmp/ccBk47cc.s 			page 19


 1010 015a 04       		.byte	0x4
 1011 015b C8       		.byte	0xc8
 1012 015c 97040000 		.4byte	0x497
 1013 0160 02       		.byte	0x2
 1014 0161 23       		.byte	0x23
 1015 0162 0C       		.uleb128 0xc
 1016 0163 06       		.uleb128 0x6
 1017 0164 17020000 		.4byte	.LASF29
 1018 0168 04       		.byte	0x4
 1019 0169 CA       		.byte	0xca
 1020 016a 3B020000 		.4byte	0x23b
 1021 016e 02       		.byte	0x2
 1022 016f 23       		.byte	0x23
 1023 0170 10       		.uleb128 0x10
 1024 0171 06       		.uleb128 0x6
 1025 0172 21030000 		.4byte	.LASF30
 1026 0176 04       		.byte	0x4
 1027 0177 CB       		.byte	0xcb
 1028 0178 3B020000 		.4byte	0x23b
 1029 017c 02       		.byte	0x2
 1030 017d 23       		.byte	0x23
 1031 017e 14       		.uleb128 0x14
 1032 017f 06       		.uleb128 0x6
 1033 0180 E9020000 		.4byte	.LASF31
 1034 0184 04       		.byte	0x4
 1035 0185 D2       		.byte	0xd2
 1036 0186 36060000 		.4byte	0x636
 1037 018a 02       		.byte	0x2
 1038 018b 23       		.byte	0x23
 1039 018c 18       		.uleb128 0x18
 1040 018d 06       		.uleb128 0x6
 1041 018e 29030000 		.4byte	.LASF32
 1042 0192 04       		.byte	0x4
 1043 0193 DD       		.byte	0xdd
 1044 0194 C7000000 		.4byte	0xc7
 1045 0198 02       		.byte	0x2
 1046 0199 23       		.byte	0x23
 1047 019a 1C       		.uleb128 0x1c
 1048 019b 06       		.uleb128 0x6
 1049 019c 90030000 		.4byte	.LASF33
 1050 01a0 04       		.byte	0x4
 1051 01a1 E1       		.byte	0xe1
 1052 01a2 BC000000 		.4byte	0xbc
 1053 01a6 02       		.byte	0x2
 1054 01a7 23       		.byte	0x23
 1055 01a8 1D       		.uleb128 0x1d
 1056 01a9 06       		.uleb128 0x6
 1057 01aa 8A050000 		.4byte	.LASF34
 1058 01ae 04       		.byte	0x4
 1059 01af E6       		.byte	0xe6
 1060 01b0 D2000000 		.4byte	0xd2
 1061 01b4 02       		.byte	0x2
 1062 01b5 23       		.byte	0x23
 1063 01b6 1E       		.uleb128 0x1e
 1064 01b7 07       		.uleb128 0x7
 1065 01b8 705F7500 		.ascii	"p_u\000"
 1066 01bc 04       		.byte	0x4
ARM GAS  /tmp/ccBk47cc.s 			page 20


 1067 01bd 3101     		.2byte	0x131
 1068 01bf 67050000 		.4byte	0x567
 1069 01c3 02       		.byte	0x2
 1070 01c4 23       		.byte	0x23
 1071 01c5 20       		.uleb128 0x20
 1072 01c6 08       		.uleb128 0x8
 1073 01c7 20000000 		.4byte	.LASF35
 1074 01cb 04       		.byte	0x4
 1075 01cc 3601     		.2byte	0x136
 1076 01ce 41020000 		.4byte	0x241
 1077 01d2 02       		.byte	0x2
 1078 01d3 23       		.byte	0x23
 1079 01d4 24       		.uleb128 0x24
 1080 01d5 08       		.uleb128 0x8
 1081 01d6 95000000 		.4byte	.LASF36
 1082 01da 04       		.byte	0x4
 1083 01db 3C01     		.2byte	0x13c
 1084 01dd 67020000 		.4byte	0x267
 1085 01e1 02       		.byte	0x2
 1086 01e2 23       		.byte	0x23
 1087 01e3 28       		.uleb128 0x28
 1088 01e4 08       		.uleb128 0x8
 1089 01e5 F4030000 		.4byte	.LASF37
 1090 01e9 04       		.byte	0x4
 1091 01ea 4001     		.2byte	0x140
 1092 01ec E8000000 		.4byte	0xe8
 1093 01f0 02       		.byte	0x2
 1094 01f1 23       		.byte	0x23
 1095 01f2 30       		.uleb128 0x30
 1096 01f3 08       		.uleb128 0x8
 1097 01f4 52040000 		.4byte	.LASF38
 1098 01f8 04       		.byte	0x4
 1099 01f9 4601     		.2byte	0x146
 1100 01fb F3000000 		.4byte	0xf3
 1101 01ff 02       		.byte	0x2
 1102 0200 23       		.byte	0x23
 1103 0201 34       		.uleb128 0x34
 1104 0202 08       		.uleb128 0x8
 1105 0203 41030000 		.4byte	.LASF39
 1106 0207 04       		.byte	0x4
 1107 0208 4D01     		.2byte	0x14d
 1108 020a 30060000 		.4byte	0x630
 1109 020e 02       		.byte	0x2
 1110 020f 23       		.byte	0x23
 1111 0210 38       		.uleb128 0x38
 1112 0211 08       		.uleb128 0x8
 1113 0212 33040000 		.4byte	.LASF40
 1114 0216 04       		.byte	0x4
 1115 0217 5101     		.2byte	0x151
 1116 0219 DD000000 		.4byte	0xdd
 1117 021d 02       		.byte	0x2
 1118 021e 23       		.byte	0x23
 1119 021f 3C       		.uleb128 0x3c
 1120 0220 08       		.uleb128 0x8
 1121 0221 39030000 		.4byte	.LASF41
 1122 0225 04       		.byte	0x4
 1123 0226 5801     		.2byte	0x158
ARM GAS  /tmp/ccBk47cc.s 			page 21


 1124 0228 2B030000 		.4byte	0x32b
 1125 022c 02       		.byte	0x2
 1126 022d 23       		.byte	0x23
 1127 022e 40       		.uleb128 0x40
 1128 022f 00       		.byte	0
 1129 0230 03       		.uleb128 0x3
 1130 0231 F9020000 		.4byte	.LASF42
 1131 0235 08       		.byte	0x8
 1132 0236 44       		.byte	0x44
 1133 0237 3B020000 		.4byte	0x23b
 1134 023b 09       		.uleb128 0x9
 1135 023c 04       		.byte	0x4
 1136 023d 14010000 		.4byte	0x114
 1137 0241 03       		.uleb128 0x3
 1138 0242 AD000000 		.4byte	.LASF43
 1139 0246 08       		.byte	0x8
 1140 0247 49       		.byte	0x49
 1141 0248 4C020000 		.4byte	0x24c
 1142 024c 05       		.uleb128 0x5
 1143 024d 00000000 		.4byte	.LASF45
 1144 0251 04       		.byte	0x4
 1145 0252 04       		.byte	0x4
 1146 0253 B0       		.byte	0xb0
 1147 0254 67020000 		.4byte	0x267
 1148 0258 06       		.uleb128 0x6
 1149 0259 9F040000 		.4byte	.LASF25
 1150 025d 04       		.byte	0x4
 1151 025e B1       		.byte	0xb1
 1152 025f 3B020000 		.4byte	0x23b
 1153 0263 02       		.byte	0x2
 1154 0264 23       		.byte	0x23
 1155 0265 00       		.uleb128 0
 1156 0266 00       		.byte	0
 1157 0267 03       		.uleb128 0x3
 1158 0268 10000000 		.4byte	.LASF46
 1159 026c 08       		.byte	0x8
 1160 026d 50       		.byte	0x50
 1161 026e 72020000 		.4byte	0x272
 1162 0272 05       		.uleb128 0x5
 1163 0273 0B010000 		.4byte	.LASF47
 1164 0277 08       		.byte	0x8
 1165 0278 04       		.byte	0x4
 1166 0279 B7       		.byte	0xb7
 1167 027a 9B020000 		.4byte	0x29b
 1168 027e 06       		.uleb128 0x6
 1169 027f 9F040000 		.4byte	.LASF25
 1170 0283 04       		.byte	0x4
 1171 0284 B8       		.byte	0xb8
 1172 0285 3B020000 		.4byte	0x23b
 1173 0289 02       		.byte	0x2
 1174 028a 23       		.byte	0x23
 1175 028b 00       		.uleb128 0
 1176 028c 06       		.uleb128 0x6
 1177 028d D7040000 		.4byte	.LASF26
 1178 0291 04       		.byte	0x4
 1179 0292 B9       		.byte	0xb9
 1180 0293 3B020000 		.4byte	0x23b
ARM GAS  /tmp/ccBk47cc.s 			page 22


 1181 0297 02       		.byte	0x2
 1182 0298 23       		.byte	0x23
 1183 0299 04       		.uleb128 0x4
 1184 029a 00       		.byte	0
 1185 029b 03       		.uleb128 0x3
 1186 029c F8040000 		.4byte	.LASF48
 1187 02a0 08       		.byte	0x8
 1188 02a1 57       		.byte	0x57
 1189 02a2 A6020000 		.4byte	0x2a6
 1190 02a6 0A       		.uleb128 0xa
 1191 02a7 E7000000 		.4byte	.LASF49
 1192 02ab 1C       		.byte	0x1c
 1193 02ac 04       		.byte	0x4
 1194 02ad 9001     		.2byte	0x190
 1195 02af 0E030000 		.4byte	0x30e
 1196 02b3 08       		.uleb128 0x8
 1197 02b4 72030000 		.4byte	.LASF50
 1198 02b8 04       		.byte	0x4
 1199 02b9 9101     		.2byte	0x191
 1200 02bb 67020000 		.4byte	0x267
 1201 02bf 02       		.byte	0x2
 1202 02c0 23       		.byte	0x23
 1203 02c1 00       		.uleb128 0
 1204 02c2 08       		.uleb128 0x8
 1205 02c3 8E010000 		.4byte	.LASF51
 1206 02c7 04       		.byte	0x4
 1207 02c8 9201     		.2byte	0x192
 1208 02ca DD000000 		.4byte	0xdd
 1209 02ce 02       		.byte	0x2
 1210 02cf 23       		.byte	0x23
 1211 02d0 08       		.uleb128 0x8
 1212 02d1 08       		.uleb128 0x8
 1213 02d2 F5050000 		.4byte	.LASF52
 1214 02d6 04       		.byte	0x4
 1215 02d7 9401     		.2byte	0x194
 1216 02d9 97040000 		.4byte	0x497
 1217 02dd 02       		.byte	0x2
 1218 02de 23       		.byte	0x23
 1219 02df 0C       		.uleb128 0xc
 1220 02e0 08       		.uleb128 0x8
 1221 02e1 7A030000 		.4byte	.LASF53
 1222 02e5 04       		.byte	0x4
 1223 02e6 9701     		.2byte	0x197
 1224 02e8 3B020000 		.4byte	0x23b
 1225 02ec 02       		.byte	0x2
 1226 02ed 23       		.byte	0x23
 1227 02ee 10       		.uleb128 0x10
 1228 02ef 08       		.uleb128 0x8
 1229 02f0 E2030000 		.4byte	.LASF54
 1230 02f4 04       		.byte	0x4
 1231 02f5 9801     		.2byte	0x198
 1232 02f7 3B020000 		.4byte	0x23b
 1233 02fb 02       		.byte	0x2
 1234 02fc 23       		.byte	0x23
 1235 02fd 14       		.uleb128 0x14
 1236 02fe 08       		.uleb128 0x8
 1237 02ff 48040000 		.4byte	.LASF55
ARM GAS  /tmp/ccBk47cc.s 			page 23


 1238 0303 04       		.byte	0x4
 1239 0304 9B01     		.2byte	0x19b
 1240 0306 3B020000 		.4byte	0x23b
 1241 030a 02       		.byte	0x2
 1242 030b 23       		.byte	0x23
 1243 030c 18       		.uleb128 0x18
 1244 030d 00       		.byte	0
 1245 030e 03       		.uleb128 0x3
 1246 030f 3E010000 		.4byte	.LASF56
 1247 0313 08       		.byte	0x8
 1248 0314 5C       		.byte	0x5c
 1249 0315 19030000 		.4byte	0x319
 1250 0319 09       		.uleb128 0x9
 1251 031a 04       		.byte	0x4
 1252 031b 1F030000 		.4byte	0x31f
 1253 031f 0B       		.uleb128 0xb
 1254 0320 01       		.byte	0x1
 1255 0321 2B030000 		.4byte	0x32b
 1256 0325 0C       		.uleb128 0xc
 1257 0326 2B030000 		.4byte	0x32b
 1258 032a 00       		.byte	0
 1259 032b 0D       		.uleb128 0xd
 1260 032c 04       		.byte	0x4
 1261 032d 03       		.uleb128 0x3
 1262 032e 98030000 		.4byte	.LASF57
 1263 0332 08       		.byte	0x8
 1264 0333 61       		.byte	0x61
 1265 0334 38030000 		.4byte	0x338
 1266 0338 0A       		.uleb128 0xa
 1267 0339 B1010000 		.4byte	.LASF58
 1268 033d 14       		.byte	0x14
 1269 033e 04       		.byte	0x4
 1270 033f 6B01     		.2byte	0x16b
 1271 0341 91030000 		.4byte	0x391
 1272 0345 08       		.uleb128 0x8
 1273 0346 9E050000 		.4byte	.LASF59
 1274 034a 04       		.byte	0x4
 1275 034b 6C01     		.2byte	0x16c
 1276 034d 48060000 		.4byte	0x648
 1277 0351 02       		.byte	0x2
 1278 0352 23       		.byte	0x23
 1279 0353 00       		.uleb128 0
 1280 0354 08       		.uleb128 0x8
 1281 0355 23060000 		.4byte	.LASF60
 1282 0359 04       		.byte	0x4
 1283 035a 6D01     		.2byte	0x16d
 1284 035c 48060000 		.4byte	0x648
 1285 0360 02       		.byte	0x2
 1286 0361 23       		.byte	0x23
 1287 0362 04       		.uleb128 0x4
 1288 0363 08       		.uleb128 0x8
 1289 0364 F0020000 		.4byte	.LASF61
 1290 0368 04       		.byte	0x4
 1291 0369 6E01     		.2byte	0x16e
 1292 036b 09010000 		.4byte	0x109
 1293 036f 02       		.byte	0x2
 1294 0370 23       		.byte	0x23
ARM GAS  /tmp/ccBk47cc.s 			page 24


 1295 0371 08       		.uleb128 0x8
 1296 0372 08       		.uleb128 0x8
 1297 0373 0F060000 		.4byte	.LASF62
 1298 0377 04       		.byte	0x4
 1299 0378 6F01     		.2byte	0x16f
 1300 037a 0E030000 		.4byte	0x30e
 1301 037e 02       		.byte	0x2
 1302 037f 23       		.byte	0x23
 1303 0380 0C       		.uleb128 0xc
 1304 0381 08       		.uleb128 0x8
 1305 0382 95010000 		.4byte	.LASF63
 1306 0386 04       		.byte	0x4
 1307 0387 7101     		.2byte	0x171
 1308 0389 2B030000 		.4byte	0x32b
 1309 038d 02       		.byte	0x2
 1310 038e 23       		.byte	0x23
 1311 038f 10       		.uleb128 0x10
 1312 0390 00       		.byte	0
 1313 0391 03       		.uleb128 0x3
 1314 0392 74050000 		.4byte	.LASF64
 1315 0396 08       		.byte	0x8
 1316 0397 66       		.byte	0x66
 1317 0398 9C030000 		.4byte	0x39c
 1318 039c 0A       		.uleb128 0xa
 1319 039d 25020000 		.4byte	.LASF65
 1320 03a1 0C       		.byte	0xc
 1321 03a2 04       		.byte	0x4
 1322 03a3 7B01     		.2byte	0x17b
 1323 03a5 E6030000 		.4byte	0x3e6
 1324 03a9 08       		.uleb128 0x8
 1325 03aa 9E050000 		.4byte	.LASF59
 1326 03ae 04       		.byte	0x4
 1327 03af 7C01     		.2byte	0x17c
 1328 03b1 48060000 		.4byte	0x648
 1329 03b5 02       		.byte	0x2
 1330 03b6 23       		.byte	0x23
 1331 03b7 00       		.uleb128 0
 1332 03b8 08       		.uleb128 0x8
 1333 03b9 23060000 		.4byte	.LASF60
 1334 03bd 04       		.byte	0x4
 1335 03be 7E01     		.2byte	0x17e
 1336 03c0 48060000 		.4byte	0x648
 1337 03c4 02       		.byte	0x2
 1338 03c5 23       		.byte	0x23
 1339 03c6 04       		.uleb128 0x4
 1340 03c7 08       		.uleb128 0x8
 1341 03c8 F0020000 		.4byte	.LASF61
 1342 03cc 04       		.byte	0x4
 1343 03cd 8001     		.2byte	0x180
 1344 03cf 09010000 		.4byte	0x109
 1345 03d3 02       		.byte	0x2
 1346 03d4 23       		.byte	0x23
 1347 03d5 08       		.uleb128 0x8
 1348 03d6 08       		.uleb128 0x8
 1349 03d7 0C030000 		.4byte	.LASF66
 1350 03db 04       		.byte	0x4
 1351 03dc 8801     		.2byte	0x188
ARM GAS  /tmp/ccBk47cc.s 			page 25


 1352 03de 09010000 		.4byte	0x109
 1353 03e2 02       		.byte	0x2
 1354 03e3 23       		.byte	0x23
 1355 03e4 0A       		.uleb128 0xa
 1356 03e5 00       		.byte	0
 1357 03e6 03       		.uleb128 0x3
 1358 03e7 55030000 		.4byte	.LASF67
 1359 03eb 08       		.byte	0x8
 1360 03ec 6B       		.byte	0x6b
 1361 03ed F1030000 		.4byte	0x3f1
 1362 03f1 0A       		.uleb128 0xa
 1363 03f2 59010000 		.4byte	.LASF68
 1364 03f6 04       		.byte	0x4
 1365 03f7 04       		.byte	0x4
 1366 03f8 A201     		.2byte	0x1a2
 1367 03fa 0E040000 		.4byte	0x40e
 1368 03fe 08       		.uleb128 0x8
 1369 03ff EA030000 		.4byte	.LASF69
 1370 0403 04       		.byte	0x4
 1371 0404 AA01     		.2byte	0x1aa
 1372 0406 4E060000 		.4byte	0x64e
 1373 040a 02       		.byte	0x2
 1374 040b 23       		.byte	0x23
 1375 040c 00       		.uleb128 0
 1376 040d 00       		.byte	0
 1377 040e 03       		.uleb128 0x3
 1378 040f BD050000 		.4byte	.LASF70
 1379 0413 08       		.byte	0x8
 1380 0414 70       		.byte	0x70
 1381 0415 19040000 		.4byte	0x419
 1382 0419 0E       		.uleb128 0xe
 1383 041a 87040000 		.4byte	.LASF71
 1384 041e 5001     		.2byte	0x150
 1385 0420 04       		.byte	0x4
 1386 0421 C201     		.2byte	0x1c2
 1387 0423 81040000 		.4byte	0x481
 1388 0427 08       		.uleb128 0x8
 1389 0428 B5040000 		.4byte	.LASF72
 1390 042c 04       		.byte	0x4
 1391 042d C601     		.2byte	0x1c6
 1392 042f 9B020000 		.4byte	0x29b
 1393 0433 02       		.byte	0x2
 1394 0434 23       		.byte	0x23
 1395 0435 00       		.uleb128 0
 1396 0436 08       		.uleb128 0x8
 1397 0437 CD000000 		.4byte	.LASF73
 1398 043b 04       		.byte	0x4
 1399 043c CA01     		.2byte	0x1ca
 1400 043e 91030000 		.4byte	0x391
 1401 0442 02       		.byte	0x2
 1402 0443 23       		.byte	0x23
 1403 0444 1C       		.uleb128 0x1c
 1404 0445 07       		.uleb128 0x7
 1405 0446 64626700 		.ascii	"dbg\000"
 1406 044a 04       		.byte	0x4
 1407 044b CE01     		.2byte	0x1ce
 1408 044d E6030000 		.4byte	0x3e6
ARM GAS  /tmp/ccBk47cc.s 			page 26


 1409 0451 02       		.byte	0x2
 1410 0452 23       		.byte	0x23
 1411 0453 28       		.uleb128 0x28
 1412 0454 08       		.uleb128 0x8
 1413 0455 02040000 		.4byte	.LASF74
 1414 0459 04       		.byte	0x4
 1415 045a D201     		.2byte	0x1d2
 1416 045c 14010000 		.4byte	0x114
 1417 0460 02       		.byte	0x2
 1418 0461 23       		.byte	0x23
 1419 0462 2C       		.uleb128 0x2c
 1420 0463 07       		.uleb128 0x7
 1421 0464 746D00   		.ascii	"tm\000"
 1422 0467 04       		.byte	0x4
 1423 0468 D701     		.2byte	0x1d7
 1424 046a 5C050000 		.4byte	0x55c
 1425 046e 02       		.byte	0x2
 1426 046f 23       		.byte	0x23
 1427 0470 70       		.uleb128 0x70
 1428 0471 08       		.uleb128 0x8
 1429 0472 F5000000 		.4byte	.LASF75
 1430 0476 04       		.byte	0x4
 1431 0477 E301     		.2byte	0x1e3
 1432 0479 53060000 		.4byte	0x653
 1433 047d 02       		.byte	0x2
 1434 047e 23       		.byte	0x23
 1435 047f 78       		.uleb128 0x78
 1436 0480 00       		.byte	0
 1437 0481 03       		.uleb128 0x3
 1438 0482 6B000000 		.4byte	.LASF76
 1439 0486 09       		.byte	0x9
 1440 0487 65       		.byte	0x65
 1441 0488 2B030000 		.4byte	0x32b
 1442 048c 03       		.uleb128 0x3
 1443 048d FB050000 		.4byte	.LASF77
 1444 0491 09       		.byte	0x9
 1445 0492 6D       		.byte	0x6d
 1446 0493 9F000000 		.4byte	0x9f
 1447 0497 05       		.uleb128 0x5
 1448 0498 88030000 		.4byte	.LASF78
 1449 049c 04       		.byte	0x4
 1450 049d 09       		.byte	0x9
 1451 049e 89       		.byte	0x89
 1452 049f B2040000 		.4byte	0x4b2
 1453 04a3 0F       		.uleb128 0xf
 1454 04a4 72313300 		.ascii	"r13\000"
 1455 04a8 09       		.byte	0x9
 1456 04a9 8A       		.byte	0x8a
 1457 04aa 3F050000 		.4byte	0x53f
 1458 04ae 02       		.byte	0x2
 1459 04af 23       		.byte	0x23
 1460 04b0 00       		.uleb128 0
 1461 04b1 00       		.byte	0
 1462 04b2 05       		.uleb128 0x5
 1463 04b3 6E040000 		.4byte	.LASF79
 1464 04b7 24       		.byte	0x24
 1465 04b8 0A       		.byte	0xa
ARM GAS  /tmp/ccBk47cc.s 			page 27


 1466 04b9 FD       		.byte	0xfd
 1467 04ba 3F050000 		.4byte	0x53f
 1468 04be 07       		.uleb128 0x7
 1469 04bf 723400   		.ascii	"r4\000"
 1470 04c2 0A       		.byte	0xa
 1471 04c3 1001     		.2byte	0x110
 1472 04c5 81040000 		.4byte	0x481
 1473 04c9 02       		.byte	0x2
 1474 04ca 23       		.byte	0x23
 1475 04cb 00       		.uleb128 0
 1476 04cc 07       		.uleb128 0x7
 1477 04cd 723500   		.ascii	"r5\000"
 1478 04d0 0A       		.byte	0xa
 1479 04d1 1101     		.2byte	0x111
 1480 04d3 81040000 		.4byte	0x481
 1481 04d7 02       		.byte	0x2
 1482 04d8 23       		.byte	0x23
 1483 04d9 04       		.uleb128 0x4
 1484 04da 07       		.uleb128 0x7
 1485 04db 723600   		.ascii	"r6\000"
 1486 04de 0A       		.byte	0xa
 1487 04df 1201     		.2byte	0x112
 1488 04e1 81040000 		.4byte	0x481
 1489 04e5 02       		.byte	0x2
 1490 04e6 23       		.byte	0x23
 1491 04e7 08       		.uleb128 0x8
 1492 04e8 07       		.uleb128 0x7
 1493 04e9 723700   		.ascii	"r7\000"
 1494 04ec 0A       		.byte	0xa
 1495 04ed 1301     		.2byte	0x113
 1496 04ef 81040000 		.4byte	0x481
 1497 04f3 02       		.byte	0x2
 1498 04f4 23       		.byte	0x23
 1499 04f5 0C       		.uleb128 0xc
 1500 04f6 07       		.uleb128 0x7
 1501 04f7 723800   		.ascii	"r8\000"
 1502 04fa 0A       		.byte	0xa
 1503 04fb 1401     		.2byte	0x114
 1504 04fd 81040000 		.4byte	0x481
 1505 0501 02       		.byte	0x2
 1506 0502 23       		.byte	0x23
 1507 0503 10       		.uleb128 0x10
 1508 0504 07       		.uleb128 0x7
 1509 0505 723900   		.ascii	"r9\000"
 1510 0508 0A       		.byte	0xa
 1511 0509 1501     		.2byte	0x115
 1512 050b 81040000 		.4byte	0x481
 1513 050f 02       		.byte	0x2
 1514 0510 23       		.byte	0x23
 1515 0511 14       		.uleb128 0x14
 1516 0512 07       		.uleb128 0x7
 1517 0513 72313000 		.ascii	"r10\000"
 1518 0517 0A       		.byte	0xa
 1519 0518 1601     		.2byte	0x116
 1520 051a 81040000 		.4byte	0x481
 1521 051e 02       		.byte	0x2
 1522 051f 23       		.byte	0x23
ARM GAS  /tmp/ccBk47cc.s 			page 28


 1523 0520 18       		.uleb128 0x18
 1524 0521 07       		.uleb128 0x7
 1525 0522 72313100 		.ascii	"r11\000"
 1526 0526 0A       		.byte	0xa
 1527 0527 1701     		.2byte	0x117
 1528 0529 81040000 		.4byte	0x481
 1529 052d 02       		.byte	0x2
 1530 052e 23       		.byte	0x23
 1531 052f 1C       		.uleb128 0x1c
 1532 0530 07       		.uleb128 0x7
 1533 0531 6C7200   		.ascii	"lr\000"
 1534 0534 0A       		.byte	0xa
 1535 0535 1801     		.2byte	0x118
 1536 0537 81040000 		.4byte	0x481
 1537 053b 02       		.byte	0x2
 1538 053c 23       		.byte	0x23
 1539 053d 20       		.uleb128 0x20
 1540 053e 00       		.byte	0
 1541 053f 09       		.uleb128 0x9
 1542 0540 04       		.byte	0x4
 1543 0541 B2040000 		.4byte	0x4b2
 1544 0545 10       		.uleb128 0x10
 1545 0546 04       		.byte	0x4
 1546 0547 0B       		.byte	0xb
 1547 0548 38       		.byte	0x38
 1548 0549 5C050000 		.4byte	0x55c
 1549 054d 06       		.uleb128 0x6
 1550 054e A3020000 		.4byte	.LASF80
 1551 0552 0B       		.byte	0xb
 1552 0553 3C       		.byte	0x3c
 1553 0554 B1000000 		.4byte	0xb1
 1554 0558 02       		.byte	0x2
 1555 0559 23       		.byte	0x23
 1556 055a 00       		.uleb128 0
 1557 055b 00       		.byte	0
 1558 055c 03       		.uleb128 0x3
 1559 055d 43000000 		.4byte	.LASF81
 1560 0561 0B       		.byte	0xb
 1561 0562 3D       		.byte	0x3d
 1562 0563 45050000 		.4byte	0x545
 1563 0567 11       		.uleb128 0x11
 1564 0568 04       		.byte	0x4
 1565 0569 04       		.byte	0x4
 1566 056a FA       		.byte	0xfa
 1567 056b C4050000 		.4byte	0x5c4
 1568 056f 12       		.uleb128 0x12
 1569 0570 9C020000 		.4byte	.LASF82
 1570 0574 04       		.byte	0x4
 1571 0575 0101     		.2byte	0x101
 1572 0577 E8000000 		.4byte	0xe8
 1573 057b 12       		.uleb128 0x12
 1574 057c 2B060000 		.4byte	.LASF83
 1575 0580 04       		.byte	0x4
 1576 0581 0801     		.2byte	0x108
 1577 0583 E8000000 		.4byte	0xe8
 1578 0587 12       		.uleb128 0x12
 1579 0588 BC000000 		.4byte	.LASF84
ARM GAS  /tmp/ccBk47cc.s 			page 29


 1580 058c 04       		.byte	0x4
 1581 058d 0F01     		.2byte	0x10f
 1582 058f 2B030000 		.4byte	0x32b
 1583 0593 12       		.uleb128 0x12
 1584 0594 C9050000 		.4byte	.LASF85
 1585 0598 04       		.byte	0x4
 1586 0599 1601     		.2byte	0x116
 1587 059b C4050000 		.4byte	0x5c4
 1588 059f 12       		.uleb128 0x12
 1589 05a0 2B050000 		.4byte	.LASF86
 1590 05a4 04       		.byte	0x4
 1591 05a5 1E01     		.2byte	0x11e
 1592 05a7 F3050000 		.4byte	0x5f3
 1593 05ab 12       		.uleb128 0x12
 1594 05ac 3C000000 		.4byte	.LASF87
 1595 05b0 04       		.byte	0x4
 1596 05b1 2701     		.2byte	0x127
 1597 05b3 30060000 		.4byte	0x630
 1598 05b7 12       		.uleb128 0x12
 1599 05b8 04010000 		.4byte	.LASF88
 1600 05bc 04       		.byte	0x4
 1601 05bd 2F01     		.2byte	0x12f
 1602 05bf F3000000 		.4byte	0xf3
 1603 05c3 00       		.byte	0
 1604 05c4 09       		.uleb128 0x9
 1605 05c5 04       		.byte	0x4
 1606 05c6 30020000 		.4byte	0x230
 1607 05ca 05       		.uleb128 0x5
 1608 05cb 9C010000 		.4byte	.LASF89
 1609 05cf 0C       		.byte	0xc
 1610 05d0 03       		.byte	0x3
 1611 05d1 34       		.byte	0x34
 1612 05d2 F3050000 		.4byte	0x5f3
 1613 05d6 06       		.uleb128 0x6
 1614 05d7 8D000000 		.4byte	.LASF90
 1615 05db 03       		.byte	0x3
 1616 05dc 35       		.byte	0x35
 1617 05dd 67020000 		.4byte	0x267
 1618 05e1 02       		.byte	0x2
 1619 05e2 23       		.byte	0x23
 1620 05e3 00       		.uleb128 0
 1621 05e4 06       		.uleb128 0x6
 1622 05e5 53010000 		.4byte	.LASF91
 1623 05e9 03       		.byte	0x3
 1624 05ea 37       		.byte	0x37
 1625 05eb FE000000 		.4byte	0xfe
 1626 05ef 02       		.byte	0x2
 1627 05f0 23       		.byte	0x23
 1628 05f1 08       		.uleb128 0x8
 1629 05f2 00       		.byte	0
 1630 05f3 09       		.uleb128 0x9
 1631 05f4 04       		.byte	0x4
 1632 05f5 CA050000 		.4byte	0x5ca
 1633 05f9 05       		.uleb128 0x5
 1634 05fa CF020000 		.4byte	.LASF92
 1635 05fe 10       		.byte	0x10
 1636 05ff 0C       		.byte	0xc
ARM GAS  /tmp/ccBk47cc.s 			page 30


 1637 0600 39       		.byte	0x39
 1638 0601 30060000 		.4byte	0x630
 1639 0605 06       		.uleb128 0x6
 1640 0606 5D040000 		.4byte	.LASF93
 1641 060a 0C       		.byte	0xc
 1642 060b 3A       		.byte	0x3a
 1643 060c 67020000 		.4byte	0x267
 1644 0610 02       		.byte	0x2
 1645 0611 23       		.byte	0x23
 1646 0612 00       		.uleb128 0
 1647 0613 06       		.uleb128 0x6
 1648 0614 85000000 		.4byte	.LASF94
 1649 0618 0C       		.byte	0xc
 1650 0619 3C       		.byte	0x3c
 1651 061a 3B020000 		.4byte	0x23b
 1652 061e 02       		.byte	0x2
 1653 061f 23       		.byte	0x23
 1654 0620 08       		.uleb128 0x8
 1655 0621 06       		.uleb128 0x6
 1656 0622 CF050000 		.4byte	.LASF95
 1657 0626 0C       		.byte	0xc
 1658 0627 3E       		.byte	0x3e
 1659 0628 79060000 		.4byte	0x679
 1660 062c 02       		.byte	0x2
 1661 062d 23       		.byte	0x23
 1662 062e 0C       		.uleb128 0xc
 1663 062f 00       		.byte	0
 1664 0630 09       		.uleb128 0x9
 1665 0631 04       		.byte	0x4
 1666 0632 F9050000 		.4byte	0x5f9
 1667 0636 09       		.uleb128 0x9
 1668 0637 04       		.byte	0x4
 1669 0638 3C060000 		.4byte	0x63c
 1670 063c 13       		.uleb128 0x13
 1671 063d 41060000 		.4byte	0x641
 1672 0641 04       		.uleb128 0x4
 1673 0642 01       		.byte	0x1
 1674 0643 08       		.byte	0x8
 1675 0644 54000000 		.4byte	.LASF96
 1676 0648 09       		.uleb128 0x9
 1677 0649 04       		.byte	0x4
 1678 064a 2D030000 		.4byte	0x32d
 1679 064e 14       		.uleb128 0x14
 1680 064f 36060000 		.4byte	0x636
 1681 0653 15       		.uleb128 0x15
 1682 0654 8C040000 		.4byte	0x48c
 1683 0658 63060000 		.4byte	0x663
 1684 065c 16       		.uleb128 0x16
 1685 065d 3B000000 		.4byte	0x3b
 1686 0661 1A       		.byte	0x1a
 1687 0662 00       		.byte	0
 1688 0663 03       		.uleb128 0x3
 1689 0664 0B020000 		.4byte	.LASF97
 1690 0668 03       		.byte	0x3
 1691 0669 38       		.byte	0x38
 1692 066a CA050000 		.4byte	0x5ca
 1693 066e 03       		.uleb128 0x3
ARM GAS  /tmp/ccBk47cc.s 			page 31


 1694 066f 3E050000 		.4byte	.LASF98
 1695 0673 0C       		.byte	0xc
 1696 0674 34       		.byte	0x34
 1697 0675 F9050000 		.4byte	0x5f9
 1698 0679 09       		.uleb128 0x9
 1699 067a 04       		.byte	0x4
 1700 067b 6E060000 		.4byte	0x66e
 1701 067f 04       		.uleb128 0x4
 1702 0680 01       		.byte	0x1
 1703 0681 02       		.byte	0x2
 1704 0682 AA020000 		.4byte	.LASF99
 1705 0686 17       		.uleb128 0x17
 1706 0687 91040000 		.4byte	.LASF105
 1707 068b 02       		.byte	0x2
 1708 068c 2202     		.2byte	0x222
 1709 068e 01       		.byte	0x1
 1710 068f 03       		.byte	0x3
 1711 0690 A1060000 		.4byte	0x6a1
 1712 0694 18       		.uleb128 0x18
 1713 0695 1F020000 		.4byte	.LASF104
 1714 0699 02       		.byte	0x2
 1715 069a 2202     		.2byte	0x222
 1716 069c 86000000 		.4byte	0x86
 1717 06a0 00       		.byte	0
 1718 06a1 19       		.uleb128 0x19
 1719 06a2 C3000000 		.4byte	.LASF100
 1720 06a6 0A       		.byte	0xa
 1721 06a7 C801     		.2byte	0x1c8
 1722 06a9 01       		.byte	0x1
 1723 06aa 03       		.byte	0x3
 1724 06ab 19       		.uleb128 0x19
 1725 06ac 17060000 		.4byte	.LASF101
 1726 06b0 0A       		.byte	0xa
 1727 06b1 E001     		.2byte	0x1e0
 1728 06b3 01       		.byte	0x1
 1729 06b4 03       		.byte	0x3
 1730 06b5 19       		.uleb128 0x19
 1731 06b6 D4000000 		.4byte	.LASF102
 1732 06ba 0A       		.byte	0xa
 1733 06bb EF01     		.2byte	0x1ef
 1734 06bd 01       		.byte	0x1
 1735 06be 03       		.byte	0x3
 1736 06bf 19       		.uleb128 0x19
 1737 06c0 51050000 		.4byte	.LASF103
 1738 06c4 0A       		.byte	0xa
 1739 06c5 FA01     		.2byte	0x1fa
 1740 06c7 01       		.byte	0x1
 1741 06c8 03       		.byte	0x3
 1742 06c9 1A       		.uleb128 0x1a
 1743 06ca F9010000 		.4byte	.LASF110
 1744 06ce 0D       		.byte	0xd
 1745 06cf 7501     		.2byte	0x175
 1746 06d1 01       		.byte	0x1
 1747 06d2 7F060000 		.4byte	0x67f
 1748 06d6 03       		.byte	0x3
 1749 06d7 E8060000 		.4byte	0x6e8
 1750 06db 1B       		.uleb128 0x1b
ARM GAS  /tmp/ccBk47cc.s 			page 32


 1751 06dc 76747000 		.ascii	"vtp\000"
 1752 06e0 0D       		.byte	0xd
 1753 06e1 7501     		.2byte	0x175
 1754 06e3 48060000 		.4byte	0x648
 1755 06e7 00       		.byte	0
 1756 06e8 1C       		.uleb128 0x1c
 1757 06e9 2D010000 		.4byte	.LASF106
 1758 06ed 03       		.byte	0x3
 1759 06ee 86       		.byte	0x86
 1760 06ef 01       		.byte	0x1
 1761 06f0 03       		.byte	0x3
 1762 06f1 00070000 		.4byte	0x700
 1763 06f5 1D       		.uleb128 0x1d
 1764 06f6 737000   		.ascii	"sp\000"
 1765 06f9 03       		.byte	0x3
 1766 06fa 86       		.byte	0x86
 1767 06fb 00070000 		.4byte	0x700
 1768 06ff 00       		.byte	0
 1769 0700 09       		.uleb128 0x9
 1770 0701 04       		.byte	0x4
 1771 0702 63060000 		.4byte	0x663
 1772 0706 17       		.uleb128 0x17
 1773 0707 46050000 		.4byte	.LASF107
 1774 070b 04       		.byte	0x4
 1775 070c 5A02     		.2byte	0x25a
 1776 070e 01       		.byte	0x1
 1777 070f 03       		.byte	0x3
 1778 0710 21070000 		.4byte	0x721
 1779 0714 1B       		.uleb128 0x1b
 1780 0715 74717000 		.ascii	"tqp\000"
 1781 0719 04       		.byte	0x4
 1782 071a 5A02     		.2byte	0x25a
 1783 071c 21070000 		.4byte	0x721
 1784 0720 00       		.byte	0
 1785 0721 09       		.uleb128 0x9
 1786 0722 04       		.byte	0x4
 1787 0723 67020000 		.4byte	0x267
 1788 0727 19       		.uleb128 0x19
 1789 0728 1C010000 		.4byte	.LASF108
 1790 072c 0E       		.byte	0xe
 1791 072d 8201     		.2byte	0x182
 1792 072f 01       		.byte	0x1
 1793 0730 03       		.byte	0x3
 1794 0731 19       		.uleb128 0x19
 1795 0732 45020000 		.4byte	.LASF109
 1796 0736 0E       		.byte	0xe
 1797 0737 9601     		.2byte	0x196
 1798 0739 01       		.byte	0x1
 1799 073a 03       		.byte	0x3
 1800 073b 1A       		.uleb128 0x1a
 1801 073c BB040000 		.4byte	.LASF111
 1802 0740 04       		.byte	0x4
 1803 0741 B102     		.2byte	0x2b1
 1804 0743 01       		.byte	0x1
 1805 0744 3B020000 		.4byte	0x23b
 1806 0748 03       		.byte	0x3
 1807 0749 59070000 		.4byte	0x759
ARM GAS  /tmp/ccBk47cc.s 			page 33


 1808 074d 1B       		.uleb128 0x1b
 1809 074e 747000   		.ascii	"tp\000"
 1810 0751 04       		.byte	0x4
 1811 0752 B102     		.2byte	0x2b1
 1812 0754 3B020000 		.4byte	0x23b
 1813 0758 00       		.byte	0
 1814 0759 1E       		.uleb128 0x1e
 1815 075a 01       		.byte	0x1
 1816 075b 47010000 		.4byte	.LASF128
 1817 075f 01       		.byte	0x1
 1818 0760 DA       		.byte	0xda
 1819 0761 01       		.byte	0x1
 1820 0762 3B020000 		.4byte	0x23b
 1821 0766 01       		.byte	0x1
 1822 0767 8E070000 		.4byte	0x78e
 1823 076b 1D       		.uleb128 0x1d
 1824 076c 747000   		.ascii	"tp\000"
 1825 076f 01       		.byte	0x1
 1826 0770 DA       		.byte	0xda
 1827 0771 3B020000 		.4byte	0x23b
 1828 0775 1F       		.uleb128 0x1f
 1829 0776 637000   		.ascii	"cp\000"
 1830 0779 01       		.byte	0x1
 1831 077a DB       		.byte	0xdb
 1832 077b 3B020000 		.4byte	0x23b
 1833 077f 20       		.uleb128 0x20
 1834 0780 06060000 		.4byte	.LASF112
 1835 0784 9E070000 		.4byte	0x79e
 1836 0788 01       		.byte	0x1
 1837 0789 47010000 		.4byte	.LASF128
 1838 078d 00       		.byte	0
 1839 078e 15       		.uleb128 0x15
 1840 078f 41060000 		.4byte	0x641
 1841 0793 9E070000 		.4byte	0x79e
 1842 0797 16       		.uleb128 0x16
 1843 0798 3B000000 		.4byte	0x3b
 1844 079c 0B       		.byte	0xb
 1845 079d 00       		.byte	0
 1846 079e 13       		.uleb128 0x13
 1847 079f 8E070000 		.4byte	0x78e
 1848 07a3 1A       		.uleb128 0x1a
 1849 07a4 59000000 		.4byte	.LASF113
 1850 07a8 04       		.byte	0x4
 1851 07a9 9F02     		.2byte	0x29f
 1852 07ab 01       		.byte	0x1
 1853 07ac 3B020000 		.4byte	0x23b
 1854 07b0 03       		.byte	0x3
 1855 07b1 CD070000 		.4byte	0x7cd
 1856 07b5 1B       		.uleb128 0x1b
 1857 07b6 74717000 		.ascii	"tqp\000"
 1858 07ba 04       		.byte	0x4
 1859 07bb 9F02     		.2byte	0x29f
 1860 07bd 21070000 		.4byte	0x721
 1861 07c1 21       		.uleb128 0x21
 1862 07c2 747000   		.ascii	"tp\000"
 1863 07c5 04       		.byte	0x4
 1864 07c6 A002     		.2byte	0x2a0
ARM GAS  /tmp/ccBk47cc.s 			page 34


 1865 07c8 3B020000 		.4byte	0x23b
 1866 07cc 00       		.byte	0
 1867 07cd 22       		.uleb128 0x22
 1868 07ce 0D040000 		.4byte	.LASF129
 1869 07d2 04       		.byte	0x4
 1870 07d3 C502     		.2byte	0x2c5
 1871 07d5 01       		.byte	0x1
 1872 07d6 7F060000 		.4byte	0x67f
 1873 07da 03       		.byte	0x3
 1874 07db 23       		.uleb128 0x23
 1875 07dc B0020000 		.4byte	.LASF130
 1876 07e0 01       		.byte	0x1
 1877 07e1 1301     		.2byte	0x113
 1878 07e3 01       		.byte	0x1
 1879 07e4 00000000 		.4byte	.LFB185
 1880 07e8 60000000 		.4byte	.LFE185
 1881 07ec 02       		.byte	0x2
 1882 07ed 7D       		.byte	0x7d
 1883 07ee 00       		.sleb128 0
 1884 07ef 0C090000 		.4byte	0x90c
 1885 07f3 24       		.uleb128 0x24
 1886 07f4 7000     		.ascii	"p\000"
 1887 07f6 01       		.byte	0x1
 1888 07f7 1301     		.2byte	0x113
 1889 07f9 2B030000 		.4byte	0x32b
 1890 07fd 00000000 		.4byte	.LLST0
 1891 0801 25       		.uleb128 0x25
 1892 0802 747000   		.ascii	"tp\000"
 1893 0805 01       		.byte	0x1
 1894 0806 1401     		.2byte	0x114
 1895 0808 3B020000 		.4byte	0x23b
 1896 080c 00000000 		.4byte	.LLST0
 1897 0810 26       		.uleb128 0x26
 1898 0811 27070000 		.4byte	0x727
 1899 0815 00000000 		.4byte	.LBB68
 1900 0819 06000000 		.4byte	.LBE68
 1901 081d 01       		.byte	0x1
 1902 081e 1601     		.2byte	0x116
 1903 0820 5E080000 		.4byte	0x85e
 1904 0824 27       		.uleb128 0x27
 1905 0825 B5060000 		.4byte	0x6b5
 1906 0829 00000000 		.4byte	.LBB69
 1907 082d 06000000 		.4byte	.LBE69
 1908 0831 0E       		.byte	0xe
 1909 0832 8401     		.2byte	0x184
 1910 0834 27       		.uleb128 0x27
 1911 0835 A1060000 		.4byte	0x6a1
 1912 0839 00000000 		.4byte	.LBB70
 1913 083d 06000000 		.4byte	.LBE70
 1914 0841 0A       		.byte	0xa
 1915 0842 F101     		.2byte	0x1f1
 1916 0844 27       		.uleb128 0x27
 1917 0845 86060000 		.4byte	0x686
 1918 0849 00000000 		.4byte	.LBB71
 1919 084d 06000000 		.4byte	.LBE71
 1920 0851 0A       		.byte	0xa
 1921 0852 D001     		.2byte	0x1d0
ARM GAS  /tmp/ccBk47cc.s 			page 35


 1922 0854 28       		.uleb128 0x28
 1923 0855 94060000 		.4byte	0x694
 1924 0859 20       		.byte	0x20
 1925 085a 00       		.byte	0
 1926 085b 00       		.byte	0
 1927 085c 00       		.byte	0
 1928 085d 00       		.byte	0
 1929 085e 29       		.uleb128 0x29
 1930 085f E8060000 		.4byte	0x6e8
 1931 0863 1A000000 		.4byte	.LBB73
 1932 0867 20000000 		.4byte	.LBE73
 1933 086b 01       		.byte	0x1
 1934 086c 2201     		.2byte	0x122
 1935 086e 26       		.uleb128 0x26
 1936 086f 3B070000 		.4byte	0x73b
 1937 0873 20000000 		.4byte	.LBB75
 1938 0877 2A000000 		.4byte	.LBE75
 1939 087b 01       		.byte	0x1
 1940 087c 2A01     		.2byte	0x12a
 1941 087e 8C080000 		.4byte	0x88c
 1942 0882 2A       		.uleb128 0x2a
 1943 0883 4D070000 		.4byte	0x74d
 1944 0887 1E000000 		.4byte	.LLST2
 1945 088b 00       		.byte	0
 1946 088c 2B       		.uleb128 0x2b
 1947 088d 59070000 		.4byte	0x759
 1948 0891 2E000000 		.4byte	.LBB77
 1949 0895 00000000 		.4byte	.Ldebug_ranges0+0
 1950 0899 01       		.byte	0x1
 1951 089a 3101     		.2byte	0x131
 1952 089c BE080000 		.4byte	0x8be
 1953 08a0 2A       		.uleb128 0x2a
 1954 08a1 6B070000 		.4byte	0x76b
 1955 08a5 31000000 		.4byte	.LLST3
 1956 08a9 2C       		.uleb128 0x2c
 1957 08aa 18000000 		.4byte	.Ldebug_ranges0+0x18
 1958 08ae 2D       		.uleb128 0x2d
 1959 08af 75070000 		.4byte	0x775
 1960 08b3 44000000 		.4byte	.LLST4
 1961 08b7 2E       		.uleb128 0x2e
 1962 08b8 7F070000 		.4byte	0x77f
 1963 08bc 00       		.byte	0
 1964 08bd 00       		.byte	0
 1965 08be 27       		.uleb128 0x27
 1966 08bf 31070000 		.4byte	0x731
 1967 08c3 50000000 		.4byte	.LBB81
 1968 08c7 58000000 		.4byte	.LBE81
 1969 08cb 01       		.byte	0x1
 1970 08cc 3201     		.2byte	0x132
 1971 08ce 27       		.uleb128 0x27
 1972 08cf BF060000 		.4byte	0x6bf
 1973 08d3 50000000 		.4byte	.LBB82
 1974 08d7 58000000 		.4byte	.LBE82
 1975 08db 0E       		.byte	0xe
 1976 08dc 9A01     		.2byte	0x19a
 1977 08de 27       		.uleb128 0x27
 1978 08df AB060000 		.4byte	0x6ab
ARM GAS  /tmp/ccBk47cc.s 			page 36


 1979 08e3 50000000 		.4byte	.LBB83
 1980 08e7 58000000 		.4byte	.LBE83
 1981 08eb 0A       		.byte	0xa
 1982 08ec FC01     		.2byte	0x1fc
 1983 08ee 27       		.uleb128 0x27
 1984 08ef 86060000 		.4byte	0x686
 1985 08f3 50000000 		.4byte	.LBB84
 1986 08f7 58000000 		.4byte	.LBE84
 1987 08fb 0A       		.byte	0xa
 1988 08fc E301     		.2byte	0x1e3
 1989 08fe 2A       		.uleb128 0x2a
 1990 08ff 94060000 		.4byte	0x694
 1991 0903 67000000 		.4byte	.LLST5
 1992 0907 00       		.byte	0
 1993 0908 00       		.byte	0
 1994 0909 00       		.byte	0
 1995 090a 00       		.byte	0
 1996 090b 00       		.byte	0
 1997 090c 2F       		.uleb128 0x2f
 1998 090d 01       		.byte	0x1
 1999 090e 69010000 		.4byte	.LASF114
 2000 0912 01       		.byte	0x1
 2001 0913 41       		.byte	0x41
 2002 0914 01       		.byte	0x1
 2003 0915 00000000 		.4byte	.LFB182
 2004 0919 16000000 		.4byte	.LFE182
 2005 091d 02       		.byte	0x2
 2006 091e 7D       		.byte	0x7d
 2007 091f 00       		.sleb128 0
 2008 0920 41090000 		.4byte	0x941
 2009 0924 30       		.uleb128 0x30
 2010 0925 06070000 		.4byte	0x706
 2011 0929 00000000 		.4byte	.LBB86
 2012 092d 30000000 		.4byte	.Ldebug_ranges0+0x30
 2013 0931 01       		.byte	0x1
 2014 0932 43       		.byte	0x43
 2015 0933 31       		.uleb128 0x31
 2016 0934 14070000 		.4byte	0x714
 2017 0938 06       		.byte	0x6
 2018 0939 03       		.byte	0x3
 2019 093a 00000000 		.4byte	ch
 2020 093e 9F       		.byte	0x9f
 2021 093f 00       		.byte	0
 2022 0940 00       		.byte	0
 2023 0941 32       		.uleb128 0x32
 2024 0942 59070000 		.4byte	0x759
 2025 0946 00000000 		.4byte	.LFB183
 2026 094a 22000000 		.4byte	.LFE183
 2027 094e 02       		.byte	0x2
 2028 094f 7D       		.byte	0x7d
 2029 0950 00       		.sleb128 0
 2030 0951 6B090000 		.4byte	0x96b
 2031 0955 31       		.uleb128 0x31
 2032 0956 6B070000 		.4byte	0x76b
 2033 095a 01       		.byte	0x1
 2034 095b 50       		.byte	0x50
 2035 095c 2D       		.uleb128 0x2d
ARM GAS  /tmp/ccBk47cc.s 			page 37


 2036 095d 75070000 		.4byte	0x775
 2037 0961 7B000000 		.4byte	.LLST6
 2038 0965 2E       		.uleb128 0x2e
 2039 0966 7F070000 		.4byte	0x77f
 2040 096a 00       		.byte	0
 2041 096b 33       		.uleb128 0x33
 2042 096c 01       		.byte	0x1
 2043 096d C9040000 		.4byte	.LASF115
 2044 0971 01       		.byte	0x1
 2045 0972 FA       		.byte	0xfa
 2046 0973 01       		.byte	0x1
 2047 0974 00000000 		.4byte	.LFB184
 2048 0978 24000000 		.4byte	.LFE184
 2049 097c 9E000000 		.4byte	.LLST7
 2050 0980 CF090000 		.4byte	0x9cf
 2051 0984 34       		.uleb128 0x34
 2052 0985 22050000 		.4byte	.LASF116
 2053 0989 01       		.byte	0x1
 2054 098a FA       		.byte	0xfa
 2055 098b C7000000 		.4byte	0xc7
 2056 098f BE000000 		.4byte	.LLST8
 2057 0993 35       		.uleb128 0x35
 2058 0994 6F747000 		.ascii	"otp\000"
 2059 0998 01       		.byte	0x1
 2060 0999 FB       		.byte	0xfb
 2061 099a 3B020000 		.4byte	0x23b
 2062 099e E3000000 		.4byte	.LLST9
 2063 09a2 36       		.uleb128 0x36
 2064 09a3 A3070000 		.4byte	0x7a3
 2065 09a7 0A000000 		.4byte	.LBB90
 2066 09ab 48000000 		.4byte	.Ldebug_ranges0+0x48
 2067 09af 01       		.byte	0x1
 2068 09b0 0601     		.2byte	0x106
 2069 09b2 31       		.uleb128 0x31
 2070 09b3 B5070000 		.4byte	0x7b5
 2071 09b7 06       		.byte	0x6
 2072 09b8 03       		.byte	0x3
 2073 09b9 00000000 		.4byte	ch
 2074 09bd 9F       		.byte	0x9f
 2075 09be 2C       		.uleb128 0x2c
 2076 09bf 68000000 		.4byte	.Ldebug_ranges0+0x68
 2077 09c3 2D       		.uleb128 0x2d
 2078 09c4 C1070000 		.4byte	0x7c1
 2079 09c8 FA000000 		.4byte	.LLST10
 2080 09cc 00       		.byte	0
 2081 09cd 00       		.byte	0
 2082 09ce 00       		.byte	0
 2083 09cf 37       		.uleb128 0x37
 2084 09d0 01       		.byte	0x1
 2085 09d1 05050000 		.4byte	.LASF119
 2086 09d5 01       		.byte	0x1
 2087 09d6 4A01     		.2byte	0x14a
 2088 09d8 01       		.byte	0x1
 2089 09d9 E8000000 		.4byte	0xe8
 2090 09dd 00000000 		.4byte	.LFB186
 2091 09e1 4C000000 		.4byte	.LFE186
 2092 09e5 11010000 		.4byte	.LLST11
ARM GAS  /tmp/ccBk47cc.s 			page 38


 2093 09e9 260A0000 		.4byte	0xa26
 2094 09ed 38       		.uleb128 0x38
 2095 09ee 22050000 		.4byte	.LASF116
 2096 09f2 01       		.byte	0x1
 2097 09f3 4A01     		.2byte	0x14a
 2098 09f5 C7000000 		.4byte	0xc7
 2099 09f9 3D010000 		.4byte	.LLST12
 2100 09fd 38       		.uleb128 0x38
 2101 09fe 06020000 		.4byte	.LASF117
 2102 0a02 01       		.byte	0x1
 2103 0a03 4A01     		.2byte	0x14a
 2104 0a05 09010000 		.4byte	0x109
 2105 0a09 5B010000 		.4byte	.LLST13
 2106 0a0d 39       		.uleb128 0x39
 2107 0a0e 0E000000 		.4byte	.LBB96
 2108 0a12 36000000 		.4byte	.LBE96
 2109 0a16 3A       		.uleb128 0x3a
 2110 0a17 767400   		.ascii	"vt\000"
 2111 0a1a 01       		.byte	0x1
 2112 0a1b 4F01     		.2byte	0x14f
 2113 0a1d 2D030000 		.4byte	0x32d
 2114 0a21 02       		.byte	0x2
 2115 0a22 91       		.byte	0x91
 2116 0a23 5C       		.sleb128 -36
 2117 0a24 00       		.byte	0
 2118 0a25 00       		.byte	0
 2119 0a26 3B       		.uleb128 0x3b
 2120 0a27 01       		.byte	0x1
 2121 0a28 91050000 		.4byte	.LASF118
 2122 0a2c 01       		.byte	0x1
 2123 0a2d 6F01     		.2byte	0x16f
 2124 0a2f 01       		.byte	0x1
 2125 0a30 00000000 		.4byte	.LFB187
 2126 0a34 5A000000 		.4byte	.LFE187
 2127 0a38 79010000 		.4byte	.LLST14
 2128 0a3c D90A0000 		.4byte	0xad9
 2129 0a40 24       		.uleb128 0x24
 2130 0a41 6E747000 		.ascii	"ntp\000"
 2131 0a45 01       		.byte	0x1
 2132 0a46 6F01     		.2byte	0x16f
 2133 0a48 3B020000 		.4byte	0x23b
 2134 0a4c 99010000 		.4byte	.LLST15
 2135 0a50 24       		.uleb128 0x24
 2136 0a51 6D736700 		.ascii	"msg\000"
 2137 0a55 01       		.byte	0x1
 2138 0a56 6F01     		.2byte	0x16f
 2139 0a58 E8000000 		.4byte	0xe8
 2140 0a5c B7010000 		.4byte	.LLST16
 2141 0a60 3C       		.uleb128 0x3c
 2142 0a61 06060000 		.4byte	.LASF112
 2143 0a65 E90A0000 		.4byte	0xae9
 2144 0a69 01       		.byte	0x1
 2145 0a6a 2B       		.uleb128 0x2b
 2146 0a6b 59070000 		.4byte	0x759
 2147 0a6f 14000000 		.4byte	.LBB97
 2148 0a73 88000000 		.4byte	.Ldebug_ranges0+0x88
 2149 0a77 01       		.byte	0x1
ARM GAS  /tmp/ccBk47cc.s 			page 39


 2150 0a78 8001     		.2byte	0x180
 2151 0a7a 9C0A0000 		.4byte	0xa9c
 2152 0a7e 2A       		.uleb128 0x2a
 2153 0a7f 6B070000 		.4byte	0x76b
 2154 0a83 D6010000 		.4byte	.LLST17
 2155 0a87 2C       		.uleb128 0x2c
 2156 0a88 A0000000 		.4byte	.Ldebug_ranges0+0xa0
 2157 0a8c 2D       		.uleb128 0x2d
 2158 0a8d 75070000 		.4byte	0x775
 2159 0a91 E9010000 		.4byte	.LLST18
 2160 0a95 2E       		.uleb128 0x2e
 2161 0a96 7F070000 		.4byte	0x77f
 2162 0a9a 00       		.byte	0
 2163 0a9b 00       		.byte	0
 2164 0a9c 2C       		.uleb128 0x2c
 2165 0a9d B8000000 		.4byte	.Ldebug_ranges0+0xb8
 2166 0aa1 21       		.uleb128 0x21
 2167 0aa2 6F747000 		.ascii	"otp\000"
 2168 0aa6 01       		.byte	0x1
 2169 0aa7 8301     		.2byte	0x183
 2170 0aa9 3B020000 		.4byte	0x23b
 2171 0aad 36       		.uleb128 0x36
 2172 0aae 59070000 		.4byte	0x759
 2173 0ab2 18000000 		.4byte	.LBB101
 2174 0ab6 D8000000 		.4byte	.Ldebug_ranges0+0xd8
 2175 0aba 01       		.byte	0x1
 2176 0abb 8301     		.2byte	0x183
 2177 0abd 3D       		.uleb128 0x3d
 2178 0abe 6B070000 		.4byte	0x76b
 2179 0ac2 2C       		.uleb128 0x2c
 2180 0ac3 F8000000 		.4byte	.Ldebug_ranges0+0xf8
 2181 0ac7 2D       		.uleb128 0x2d
 2182 0ac8 75070000 		.4byte	0x775
 2183 0acc FC010000 		.4byte	.LLST19
 2184 0ad0 2E       		.uleb128 0x2e
 2185 0ad1 7F070000 		.4byte	0x77f
 2186 0ad5 00       		.byte	0
 2187 0ad6 00       		.byte	0
 2188 0ad7 00       		.byte	0
 2189 0ad8 00       		.byte	0
 2190 0ad9 15       		.uleb128 0x15
 2191 0ada 41060000 		.4byte	0x641
 2192 0ade E90A0000 		.4byte	0xae9
 2193 0ae2 16       		.uleb128 0x16
 2194 0ae3 3B000000 		.4byte	0x3b
 2195 0ae7 0C       		.byte	0xc
 2196 0ae8 00       		.byte	0
 2197 0ae9 13       		.uleb128 0x13
 2198 0aea D90A0000 		.4byte	0xad9
 2199 0aee 3E       		.uleb128 0x3e
 2200 0aef 01       		.byte	0x1
 2201 0af0 D9010000 		.4byte	.LASF120
 2202 0af4 01       		.byte	0x1
 2203 0af5 AC01     		.2byte	0x1ac
 2204 0af7 01       		.byte	0x1
 2205 0af8 7F060000 		.4byte	0x67f
 2206 0afc 00000000 		.4byte	.LFB189
ARM GAS  /tmp/ccBk47cc.s 			page 40


 2207 0b00 1A000000 		.4byte	.LFE189
 2208 0b04 02       		.byte	0x2
 2209 0b05 7D       		.byte	0x7d
 2210 0b06 00       		.sleb128 0
 2211 0b07 340B0000 		.4byte	0xb34
 2212 0b0b 3A       		.uleb128 0x3a
 2213 0b0c 703100   		.ascii	"p1\000"
 2214 0b0f 01       		.byte	0x1
 2215 0b10 AD01     		.2byte	0x1ad
 2216 0b12 DD000000 		.4byte	0xdd
 2217 0b16 08       		.byte	0x8
 2218 0b17 03       		.byte	0x3
 2219 0b18 00000000 		.4byte	ch
 2220 0b1c 06       		.byte	0x6
 2221 0b1d 23       		.byte	0x23
 2222 0b1e 08       		.uleb128 0x8
 2223 0b1f 3A       		.uleb128 0x3a
 2224 0b20 703200   		.ascii	"p2\000"
 2225 0b23 01       		.byte	0x1
 2226 0b24 AE01     		.2byte	0x1ae
 2227 0b26 DD000000 		.4byte	0xdd
 2228 0b2a 08       		.byte	0x8
 2229 0b2b 03       		.byte	0x3
 2230 0b2c 18000000 		.4byte	ch+24
 2231 0b30 06       		.byte	0x6
 2232 0b31 23       		.byte	0x23
 2233 0b32 08       		.uleb128 0x8
 2234 0b33 00       		.byte	0
 2235 0b34 3B       		.uleb128 0x3b
 2236 0b35 01       		.byte	0x1
 2237 0b36 B7020000 		.4byte	.LASF121
 2238 0b3a 01       		.byte	0x1
 2239 0b3b C701     		.2byte	0x1c7
 2240 0b3d 01       		.byte	0x1
 2241 0b3e 00000000 		.4byte	.LFB190
 2242 0b42 3A000000 		.4byte	.LFE190
 2243 0b46 2F020000 		.4byte	.LLST20
 2244 0b4a BD0B0000 		.4byte	0xbbd
 2245 0b4e 25       		.uleb128 0x25
 2246 0b4f 6F747000 		.ascii	"otp\000"
 2247 0b53 01       		.byte	0x1
 2248 0b54 C801     		.2byte	0x1c8
 2249 0b56 3B020000 		.4byte	0x23b
 2250 0b5a 4F020000 		.4byte	.LLST21
 2251 0b5e 2B       		.uleb128 0x2b
 2252 0b5f A3070000 		.4byte	0x7a3
 2253 0b63 08000000 		.4byte	.LBB110
 2254 0b67 18010000 		.4byte	.Ldebug_ranges0+0x118
 2255 0b6b 01       		.byte	0x1
 2256 0b6c CC01     		.2byte	0x1cc
 2257 0b6e 8E0B0000 		.4byte	0xb8e
 2258 0b72 31       		.uleb128 0x31
 2259 0b73 B5070000 		.4byte	0x7b5
 2260 0b77 06       		.byte	0x6
 2261 0b78 03       		.byte	0x3
 2262 0b79 00000000 		.4byte	ch
 2263 0b7d 9F       		.byte	0x9f
ARM GAS  /tmp/ccBk47cc.s 			page 41


 2264 0b7e 2C       		.uleb128 0x2c
 2265 0b7f 40010000 		.4byte	.Ldebug_ranges0+0x140
 2266 0b83 2D       		.uleb128 0x2d
 2267 0b84 C1070000 		.4byte	0x7c1
 2268 0b88 66020000 		.4byte	.LLST22
 2269 0b8c 00       		.byte	0
 2270 0b8d 00       		.byte	0
 2271 0b8e 36       		.uleb128 0x36
 2272 0b8f 59070000 		.4byte	0x759
 2273 0b93 12000000 		.4byte	.LBB117
 2274 0b97 68010000 		.4byte	.Ldebug_ranges0+0x168
 2275 0b9b 01       		.byte	0x1
 2276 0b9c D601     		.2byte	0x1d6
 2277 0b9e 2A       		.uleb128 0x2a
 2278 0b9f 6B070000 		.4byte	0x76b
 2279 0ba3 7D020000 		.4byte	.LLST23
 2280 0ba7 2C       		.uleb128 0x2c
 2281 0ba8 88010000 		.4byte	.Ldebug_ranges0+0x188
 2282 0bac 2D       		.uleb128 0x2d
 2283 0bad 75070000 		.4byte	0x775
 2284 0bb1 94020000 		.4byte	.LLST24
 2285 0bb5 2E       		.uleb128 0x2e
 2286 0bb6 7F070000 		.4byte	0x77f
 2287 0bba 00       		.byte	0
 2288 0bbb 00       		.byte	0
 2289 0bbc 00       		.byte	0
 2290 0bbd 3B       		.uleb128 0x3b
 2291 0bbe 01       		.byte	0x1
 2292 0bbf A6050000 		.4byte	.LASF122
 2293 0bc3 01       		.byte	0x1
 2294 0bc4 E301     		.2byte	0x1e3
 2295 0bc6 01       		.byte	0x1
 2296 0bc7 00000000 		.4byte	.LFB191
 2297 0bcb 3A000000 		.4byte	.LFE191
 2298 0bcf B7020000 		.4byte	.LLST25
 2299 0bd3 230C0000 		.4byte	0xc23
 2300 0bd7 25       		.uleb128 0x25
 2301 0bd8 6F747000 		.ascii	"otp\000"
 2302 0bdc 01       		.byte	0x1
 2303 0bdd E401     		.2byte	0x1e4
 2304 0bdf 3B020000 		.4byte	0x23b
 2305 0be3 D7020000 		.4byte	.LLST26
 2306 0be7 25       		.uleb128 0x25
 2307 0be8 637000   		.ascii	"cp\000"
 2308 0beb 01       		.byte	0x1
 2309 0bec E401     		.2byte	0x1e4
 2310 0bee 3B020000 		.4byte	0x23b
 2311 0bf2 EE020000 		.4byte	.LLST27
 2312 0bf6 36       		.uleb128 0x36
 2313 0bf7 A3070000 		.4byte	0x7a3
 2314 0bfb 08000000 		.4byte	.LBB124
 2315 0bff A8010000 		.4byte	.Ldebug_ranges0+0x1a8
 2316 0c03 01       		.byte	0x1
 2317 0c04 E801     		.2byte	0x1e8
 2318 0c06 31       		.uleb128 0x31
 2319 0c07 B5070000 		.4byte	0x7b5
 2320 0c0b 06       		.byte	0x6
ARM GAS  /tmp/ccBk47cc.s 			page 42


 2321 0c0c 03       		.byte	0x3
 2322 0c0d 00000000 		.4byte	ch
 2323 0c11 9F       		.byte	0x9f
 2324 0c12 2C       		.uleb128 0x2c
 2325 0c13 D0010000 		.4byte	.Ldebug_ranges0+0x1d0
 2326 0c17 2D       		.uleb128 0x2d
 2327 0c18 C1070000 		.4byte	0x7c1
 2328 0c1c 11030000 		.4byte	.LLST28
 2329 0c20 00       		.byte	0
 2330 0c21 00       		.byte	0
 2331 0c22 00       		.byte	0
 2332 0c23 3F       		.uleb128 0x3f
 2333 0c24 01       		.byte	0x1
 2334 0c25 D8020000 		.4byte	.LASF123
 2335 0c29 01       		.byte	0x1
 2336 0c2a 9601     		.2byte	0x196
 2337 0c2c 01       		.byte	0x1
 2338 0c2d 00000000 		.4byte	.LFB188
 2339 0c31 1E000000 		.4byte	.LFE188
 2340 0c35 02       		.byte	0x2
 2341 0c36 7D       		.byte	0x7d
 2342 0c37 00       		.sleb128 0
 2343 0c38 4D0C0000 		.4byte	0xc4d
 2344 0c3c 29       		.uleb128 0x29
 2345 0c3d CD070000 		.4byte	0x7cd
 2346 0c41 00000000 		.4byte	.LBB132
 2347 0c45 10000000 		.4byte	.LBE132
 2348 0c49 01       		.byte	0x1
 2349 0c4a 9A01     		.2byte	0x19a
 2350 0c4c 00       		.byte	0
 2351 0c4d 40       		.uleb128 0x40
 2352 0c4e 01       		.byte	0x1
 2353 0c4f 2A000000 		.4byte	.LASF131
 2354 0c53 01       		.byte	0x1
 2355 0c54 0802     		.2byte	0x208
 2356 0c56 01       		.byte	0x1
 2357 0c57 00000000 		.4byte	.LFB192
 2358 0c5b 04000000 		.4byte	.LFE192
 2359 0c5f 02       		.byte	0x2
 2360 0c60 7D       		.byte	0x7d
 2361 0c61 00       		.sleb128 0
 2362 0c62 41       		.uleb128 0x41
 2363 0c63 7A040000 		.4byte	.LASF124
 2364 0c67 0F       		.byte	0xf
 2365 0c68 5506     		.2byte	0x655
 2366 0c6a 700C0000 		.4byte	0xc70
 2367 0c6e 01       		.byte	0x1
 2368 0c6f 01       		.byte	0x1
 2369 0c70 14       		.uleb128 0x14
 2370 0c71 74000000 		.4byte	0x74
 2371 0c75 42       		.uleb128 0x42
 2372 0c76 636800   		.ascii	"ch\000"
 2373 0c79 04       		.byte	0x4
 2374 0c7a 0902     		.2byte	0x209
 2375 0c7c 0E040000 		.4byte	0x40e
 2376 0c80 01       		.byte	0x1
 2377 0c81 01       		.byte	0x1
ARM GAS  /tmp/ccBk47cc.s 			page 43


 2378 0c82 41       		.uleb128 0x41
 2379 0c83 7A040000 		.4byte	.LASF124
 2380 0c87 0F       		.byte	0xf
 2381 0c88 5506     		.2byte	0x655
 2382 0c8a 700C0000 		.4byte	0xc70
 2383 0c8e 01       		.byte	0x1
 2384 0c8f 01       		.byte	0x1
 2385 0c90 43       		.uleb128 0x43
 2386 0c91 636800   		.ascii	"ch\000"
 2387 0c94 01       		.byte	0x1
 2388 0c95 2A       		.byte	0x2a
 2389 0c96 0E040000 		.4byte	0x40e
 2390 0c9a 01       		.byte	0x1
 2391 0c9b 05       		.byte	0x5
 2392 0c9c 03       		.byte	0x3
 2393 0c9d 00000000 		.4byte	ch
 2394 0ca1 00       		.byte	0
 2395              		.section	.debug_abbrev,"",%progbits
 2396              	.Ldebug_abbrev0:
 2397 0000 01       		.uleb128 0x1
 2398 0001 11       		.uleb128 0x11
 2399 0002 01       		.byte	0x1
 2400 0003 25       		.uleb128 0x25
 2401 0004 0E       		.uleb128 0xe
 2402 0005 13       		.uleb128 0x13
 2403 0006 0B       		.uleb128 0xb
 2404 0007 03       		.uleb128 0x3
 2405 0008 0E       		.uleb128 0xe
 2406 0009 1B       		.uleb128 0x1b
 2407 000a 0E       		.uleb128 0xe
 2408 000b 11       		.uleb128 0x11
 2409 000c 01       		.uleb128 0x1
 2410 000d 52       		.uleb128 0x52
 2411 000e 01       		.uleb128 0x1
 2412 000f 55       		.uleb128 0x55
 2413 0010 06       		.uleb128 0x6
 2414 0011 10       		.uleb128 0x10
 2415 0012 06       		.uleb128 0x6
 2416 0013 00       		.byte	0
 2417 0014 00       		.byte	0
 2418 0015 02       		.uleb128 0x2
 2419 0016 24       		.uleb128 0x24
 2420 0017 00       		.byte	0
 2421 0018 0B       		.uleb128 0xb
 2422 0019 0B       		.uleb128 0xb
 2423 001a 3E       		.uleb128 0x3e
 2424 001b 0B       		.uleb128 0xb
 2425 001c 03       		.uleb128 0x3
 2426 001d 08       		.uleb128 0x8
 2427 001e 00       		.byte	0
 2428 001f 00       		.byte	0
 2429 0020 03       		.uleb128 0x3
 2430 0021 16       		.uleb128 0x16
 2431 0022 00       		.byte	0
 2432 0023 03       		.uleb128 0x3
 2433 0024 0E       		.uleb128 0xe
 2434 0025 3A       		.uleb128 0x3a
ARM GAS  /tmp/ccBk47cc.s 			page 44


 2435 0026 0B       		.uleb128 0xb
 2436 0027 3B       		.uleb128 0x3b
 2437 0028 0B       		.uleb128 0xb
 2438 0029 49       		.uleb128 0x49
 2439 002a 13       		.uleb128 0x13
 2440 002b 00       		.byte	0
 2441 002c 00       		.byte	0
 2442 002d 04       		.uleb128 0x4
 2443 002e 24       		.uleb128 0x24
 2444 002f 00       		.byte	0
 2445 0030 0B       		.uleb128 0xb
 2446 0031 0B       		.uleb128 0xb
 2447 0032 3E       		.uleb128 0x3e
 2448 0033 0B       		.uleb128 0xb
 2449 0034 03       		.uleb128 0x3
 2450 0035 0E       		.uleb128 0xe
 2451 0036 00       		.byte	0
 2452 0037 00       		.byte	0
 2453 0038 05       		.uleb128 0x5
 2454 0039 13       		.uleb128 0x13
 2455 003a 01       		.byte	0x1
 2456 003b 03       		.uleb128 0x3
 2457 003c 0E       		.uleb128 0xe
 2458 003d 0B       		.uleb128 0xb
 2459 003e 0B       		.uleb128 0xb
 2460 003f 3A       		.uleb128 0x3a
 2461 0040 0B       		.uleb128 0xb
 2462 0041 3B       		.uleb128 0x3b
 2463 0042 0B       		.uleb128 0xb
 2464 0043 01       		.uleb128 0x1
 2465 0044 13       		.uleb128 0x13
 2466 0045 00       		.byte	0
 2467 0046 00       		.byte	0
 2468 0047 06       		.uleb128 0x6
 2469 0048 0D       		.uleb128 0xd
 2470 0049 00       		.byte	0
 2471 004a 03       		.uleb128 0x3
 2472 004b 0E       		.uleb128 0xe
 2473 004c 3A       		.uleb128 0x3a
 2474 004d 0B       		.uleb128 0xb
 2475 004e 3B       		.uleb128 0x3b
 2476 004f 0B       		.uleb128 0xb
 2477 0050 49       		.uleb128 0x49
 2478 0051 13       		.uleb128 0x13
 2479 0052 38       		.uleb128 0x38
 2480 0053 0A       		.uleb128 0xa
 2481 0054 00       		.byte	0
 2482 0055 00       		.byte	0
 2483 0056 07       		.uleb128 0x7
 2484 0057 0D       		.uleb128 0xd
 2485 0058 00       		.byte	0
 2486 0059 03       		.uleb128 0x3
 2487 005a 08       		.uleb128 0x8
 2488 005b 3A       		.uleb128 0x3a
 2489 005c 0B       		.uleb128 0xb
 2490 005d 3B       		.uleb128 0x3b
 2491 005e 05       		.uleb128 0x5
ARM GAS  /tmp/ccBk47cc.s 			page 45


 2492 005f 49       		.uleb128 0x49
 2493 0060 13       		.uleb128 0x13
 2494 0061 38       		.uleb128 0x38
 2495 0062 0A       		.uleb128 0xa
 2496 0063 00       		.byte	0
 2497 0064 00       		.byte	0
 2498 0065 08       		.uleb128 0x8
 2499 0066 0D       		.uleb128 0xd
 2500 0067 00       		.byte	0
 2501 0068 03       		.uleb128 0x3
 2502 0069 0E       		.uleb128 0xe
 2503 006a 3A       		.uleb128 0x3a
 2504 006b 0B       		.uleb128 0xb
 2505 006c 3B       		.uleb128 0x3b
 2506 006d 05       		.uleb128 0x5
 2507 006e 49       		.uleb128 0x49
 2508 006f 13       		.uleb128 0x13
 2509 0070 38       		.uleb128 0x38
 2510 0071 0A       		.uleb128 0xa
 2511 0072 00       		.byte	0
 2512 0073 00       		.byte	0
 2513 0074 09       		.uleb128 0x9
 2514 0075 0F       		.uleb128 0xf
 2515 0076 00       		.byte	0
 2516 0077 0B       		.uleb128 0xb
 2517 0078 0B       		.uleb128 0xb
 2518 0079 49       		.uleb128 0x49
 2519 007a 13       		.uleb128 0x13
 2520 007b 00       		.byte	0
 2521 007c 00       		.byte	0
 2522 007d 0A       		.uleb128 0xa
 2523 007e 13       		.uleb128 0x13
 2524 007f 01       		.byte	0x1
 2525 0080 03       		.uleb128 0x3
 2526 0081 0E       		.uleb128 0xe
 2527 0082 0B       		.uleb128 0xb
 2528 0083 0B       		.uleb128 0xb
 2529 0084 3A       		.uleb128 0x3a
 2530 0085 0B       		.uleb128 0xb
 2531 0086 3B       		.uleb128 0x3b
 2532 0087 05       		.uleb128 0x5
 2533 0088 01       		.uleb128 0x1
 2534 0089 13       		.uleb128 0x13
 2535 008a 00       		.byte	0
 2536 008b 00       		.byte	0
 2537 008c 0B       		.uleb128 0xb
 2538 008d 15       		.uleb128 0x15
 2539 008e 01       		.byte	0x1
 2540 008f 27       		.uleb128 0x27
 2541 0090 0C       		.uleb128 0xc
 2542 0091 01       		.uleb128 0x1
 2543 0092 13       		.uleb128 0x13
 2544 0093 00       		.byte	0
 2545 0094 00       		.byte	0
 2546 0095 0C       		.uleb128 0xc
 2547 0096 05       		.uleb128 0x5
 2548 0097 00       		.byte	0
ARM GAS  /tmp/ccBk47cc.s 			page 46


 2549 0098 49       		.uleb128 0x49
 2550 0099 13       		.uleb128 0x13
 2551 009a 00       		.byte	0
 2552 009b 00       		.byte	0
 2553 009c 0D       		.uleb128 0xd
 2554 009d 0F       		.uleb128 0xf
 2555 009e 00       		.byte	0
 2556 009f 0B       		.uleb128 0xb
 2557 00a0 0B       		.uleb128 0xb
 2558 00a1 00       		.byte	0
 2559 00a2 00       		.byte	0
 2560 00a3 0E       		.uleb128 0xe
 2561 00a4 13       		.uleb128 0x13
 2562 00a5 01       		.byte	0x1
 2563 00a6 03       		.uleb128 0x3
 2564 00a7 0E       		.uleb128 0xe
 2565 00a8 0B       		.uleb128 0xb
 2566 00a9 05       		.uleb128 0x5
 2567 00aa 3A       		.uleb128 0x3a
 2568 00ab 0B       		.uleb128 0xb
 2569 00ac 3B       		.uleb128 0x3b
 2570 00ad 05       		.uleb128 0x5
 2571 00ae 01       		.uleb128 0x1
 2572 00af 13       		.uleb128 0x13
 2573 00b0 00       		.byte	0
 2574 00b1 00       		.byte	0
 2575 00b2 0F       		.uleb128 0xf
 2576 00b3 0D       		.uleb128 0xd
 2577 00b4 00       		.byte	0
 2578 00b5 03       		.uleb128 0x3
 2579 00b6 08       		.uleb128 0x8
 2580 00b7 3A       		.uleb128 0x3a
 2581 00b8 0B       		.uleb128 0xb
 2582 00b9 3B       		.uleb128 0x3b
 2583 00ba 0B       		.uleb128 0xb
 2584 00bb 49       		.uleb128 0x49
 2585 00bc 13       		.uleb128 0x13
 2586 00bd 38       		.uleb128 0x38
 2587 00be 0A       		.uleb128 0xa
 2588 00bf 00       		.byte	0
 2589 00c0 00       		.byte	0
 2590 00c1 10       		.uleb128 0x10
 2591 00c2 13       		.uleb128 0x13
 2592 00c3 01       		.byte	0x1
 2593 00c4 0B       		.uleb128 0xb
 2594 00c5 0B       		.uleb128 0xb
 2595 00c6 3A       		.uleb128 0x3a
 2596 00c7 0B       		.uleb128 0xb
 2597 00c8 3B       		.uleb128 0x3b
 2598 00c9 0B       		.uleb128 0xb
 2599 00ca 01       		.uleb128 0x1
 2600 00cb 13       		.uleb128 0x13
 2601 00cc 00       		.byte	0
 2602 00cd 00       		.byte	0
 2603 00ce 11       		.uleb128 0x11
 2604 00cf 17       		.uleb128 0x17
 2605 00d0 01       		.byte	0x1
ARM GAS  /tmp/ccBk47cc.s 			page 47


 2606 00d1 0B       		.uleb128 0xb
 2607 00d2 0B       		.uleb128 0xb
 2608 00d3 3A       		.uleb128 0x3a
 2609 00d4 0B       		.uleb128 0xb
 2610 00d5 3B       		.uleb128 0x3b
 2611 00d6 0B       		.uleb128 0xb
 2612 00d7 01       		.uleb128 0x1
 2613 00d8 13       		.uleb128 0x13
 2614 00d9 00       		.byte	0
 2615 00da 00       		.byte	0
 2616 00db 12       		.uleb128 0x12
 2617 00dc 0D       		.uleb128 0xd
 2618 00dd 00       		.byte	0
 2619 00de 03       		.uleb128 0x3
 2620 00df 0E       		.uleb128 0xe
 2621 00e0 3A       		.uleb128 0x3a
 2622 00e1 0B       		.uleb128 0xb
 2623 00e2 3B       		.uleb128 0x3b
 2624 00e3 05       		.uleb128 0x5
 2625 00e4 49       		.uleb128 0x49
 2626 00e5 13       		.uleb128 0x13
 2627 00e6 00       		.byte	0
 2628 00e7 00       		.byte	0
 2629 00e8 13       		.uleb128 0x13
 2630 00e9 26       		.uleb128 0x26
 2631 00ea 00       		.byte	0
 2632 00eb 49       		.uleb128 0x49
 2633 00ec 13       		.uleb128 0x13
 2634 00ed 00       		.byte	0
 2635 00ee 00       		.byte	0
 2636 00ef 14       		.uleb128 0x14
 2637 00f0 35       		.uleb128 0x35
 2638 00f1 00       		.byte	0
 2639 00f2 49       		.uleb128 0x49
 2640 00f3 13       		.uleb128 0x13
 2641 00f4 00       		.byte	0
 2642 00f5 00       		.byte	0
 2643 00f6 15       		.uleb128 0x15
 2644 00f7 01       		.uleb128 0x1
 2645 00f8 01       		.byte	0x1
 2646 00f9 49       		.uleb128 0x49
 2647 00fa 13       		.uleb128 0x13
 2648 00fb 01       		.uleb128 0x1
 2649 00fc 13       		.uleb128 0x13
 2650 00fd 00       		.byte	0
 2651 00fe 00       		.byte	0
 2652 00ff 16       		.uleb128 0x16
 2653 0100 21       		.uleb128 0x21
 2654 0101 00       		.byte	0
 2655 0102 49       		.uleb128 0x49
 2656 0103 13       		.uleb128 0x13
 2657 0104 2F       		.uleb128 0x2f
 2658 0105 0B       		.uleb128 0xb
 2659 0106 00       		.byte	0
 2660 0107 00       		.byte	0
 2661 0108 17       		.uleb128 0x17
 2662 0109 2E       		.uleb128 0x2e
ARM GAS  /tmp/ccBk47cc.s 			page 48


 2663 010a 01       		.byte	0x1
 2664 010b 03       		.uleb128 0x3
 2665 010c 0E       		.uleb128 0xe
 2666 010d 3A       		.uleb128 0x3a
 2667 010e 0B       		.uleb128 0xb
 2668 010f 3B       		.uleb128 0x3b
 2669 0110 05       		.uleb128 0x5
 2670 0111 27       		.uleb128 0x27
 2671 0112 0C       		.uleb128 0xc
 2672 0113 20       		.uleb128 0x20
 2673 0114 0B       		.uleb128 0xb
 2674 0115 01       		.uleb128 0x1
 2675 0116 13       		.uleb128 0x13
 2676 0117 00       		.byte	0
 2677 0118 00       		.byte	0
 2678 0119 18       		.uleb128 0x18
 2679 011a 05       		.uleb128 0x5
 2680 011b 00       		.byte	0
 2681 011c 03       		.uleb128 0x3
 2682 011d 0E       		.uleb128 0xe
 2683 011e 3A       		.uleb128 0x3a
 2684 011f 0B       		.uleb128 0xb
 2685 0120 3B       		.uleb128 0x3b
 2686 0121 05       		.uleb128 0x5
 2687 0122 49       		.uleb128 0x49
 2688 0123 13       		.uleb128 0x13
 2689 0124 00       		.byte	0
 2690 0125 00       		.byte	0
 2691 0126 19       		.uleb128 0x19
 2692 0127 2E       		.uleb128 0x2e
 2693 0128 00       		.byte	0
 2694 0129 03       		.uleb128 0x3
 2695 012a 0E       		.uleb128 0xe
 2696 012b 3A       		.uleb128 0x3a
 2697 012c 0B       		.uleb128 0xb
 2698 012d 3B       		.uleb128 0x3b
 2699 012e 05       		.uleb128 0x5
 2700 012f 27       		.uleb128 0x27
 2701 0130 0C       		.uleb128 0xc
 2702 0131 20       		.uleb128 0x20
 2703 0132 0B       		.uleb128 0xb
 2704 0133 00       		.byte	0
 2705 0134 00       		.byte	0
 2706 0135 1A       		.uleb128 0x1a
 2707 0136 2E       		.uleb128 0x2e
 2708 0137 01       		.byte	0x1
 2709 0138 03       		.uleb128 0x3
 2710 0139 0E       		.uleb128 0xe
 2711 013a 3A       		.uleb128 0x3a
 2712 013b 0B       		.uleb128 0xb
 2713 013c 3B       		.uleb128 0x3b
 2714 013d 05       		.uleb128 0x5
 2715 013e 27       		.uleb128 0x27
 2716 013f 0C       		.uleb128 0xc
 2717 0140 49       		.uleb128 0x49
 2718 0141 13       		.uleb128 0x13
 2719 0142 20       		.uleb128 0x20
ARM GAS  /tmp/ccBk47cc.s 			page 49


 2720 0143 0B       		.uleb128 0xb
 2721 0144 01       		.uleb128 0x1
 2722 0145 13       		.uleb128 0x13
 2723 0146 00       		.byte	0
 2724 0147 00       		.byte	0
 2725 0148 1B       		.uleb128 0x1b
 2726 0149 05       		.uleb128 0x5
 2727 014a 00       		.byte	0
 2728 014b 03       		.uleb128 0x3
 2729 014c 08       		.uleb128 0x8
 2730 014d 3A       		.uleb128 0x3a
 2731 014e 0B       		.uleb128 0xb
 2732 014f 3B       		.uleb128 0x3b
 2733 0150 05       		.uleb128 0x5
 2734 0151 49       		.uleb128 0x49
 2735 0152 13       		.uleb128 0x13
 2736 0153 00       		.byte	0
 2737 0154 00       		.byte	0
 2738 0155 1C       		.uleb128 0x1c
 2739 0156 2E       		.uleb128 0x2e
 2740 0157 01       		.byte	0x1
 2741 0158 03       		.uleb128 0x3
 2742 0159 0E       		.uleb128 0xe
 2743 015a 3A       		.uleb128 0x3a
 2744 015b 0B       		.uleb128 0xb
 2745 015c 3B       		.uleb128 0x3b
 2746 015d 0B       		.uleb128 0xb
 2747 015e 27       		.uleb128 0x27
 2748 015f 0C       		.uleb128 0xc
 2749 0160 20       		.uleb128 0x20
 2750 0161 0B       		.uleb128 0xb
 2751 0162 01       		.uleb128 0x1
 2752 0163 13       		.uleb128 0x13
 2753 0164 00       		.byte	0
 2754 0165 00       		.byte	0
 2755 0166 1D       		.uleb128 0x1d
 2756 0167 05       		.uleb128 0x5
 2757 0168 00       		.byte	0
 2758 0169 03       		.uleb128 0x3
 2759 016a 08       		.uleb128 0x8
 2760 016b 3A       		.uleb128 0x3a
 2761 016c 0B       		.uleb128 0xb
 2762 016d 3B       		.uleb128 0x3b
 2763 016e 0B       		.uleb128 0xb
 2764 016f 49       		.uleb128 0x49
 2765 0170 13       		.uleb128 0x13
 2766 0171 00       		.byte	0
 2767 0172 00       		.byte	0
 2768 0173 1E       		.uleb128 0x1e
 2769 0174 2E       		.uleb128 0x2e
 2770 0175 01       		.byte	0x1
 2771 0176 3F       		.uleb128 0x3f
 2772 0177 0C       		.uleb128 0xc
 2773 0178 03       		.uleb128 0x3
 2774 0179 0E       		.uleb128 0xe
 2775 017a 3A       		.uleb128 0x3a
 2776 017b 0B       		.uleb128 0xb
ARM GAS  /tmp/ccBk47cc.s 			page 50


 2777 017c 3B       		.uleb128 0x3b
 2778 017d 0B       		.uleb128 0xb
 2779 017e 27       		.uleb128 0x27
 2780 017f 0C       		.uleb128 0xc
 2781 0180 49       		.uleb128 0x49
 2782 0181 13       		.uleb128 0x13
 2783 0182 20       		.uleb128 0x20
 2784 0183 0B       		.uleb128 0xb
 2785 0184 01       		.uleb128 0x1
 2786 0185 13       		.uleb128 0x13
 2787 0186 00       		.byte	0
 2788 0187 00       		.byte	0
 2789 0188 1F       		.uleb128 0x1f
 2790 0189 34       		.uleb128 0x34
 2791 018a 00       		.byte	0
 2792 018b 03       		.uleb128 0x3
 2793 018c 08       		.uleb128 0x8
 2794 018d 3A       		.uleb128 0x3a
 2795 018e 0B       		.uleb128 0xb
 2796 018f 3B       		.uleb128 0x3b
 2797 0190 0B       		.uleb128 0xb
 2798 0191 49       		.uleb128 0x49
 2799 0192 13       		.uleb128 0x13
 2800 0193 00       		.byte	0
 2801 0194 00       		.byte	0
 2802 0195 20       		.uleb128 0x20
 2803 0196 34       		.uleb128 0x34
 2804 0197 00       		.byte	0
 2805 0198 03       		.uleb128 0x3
 2806 0199 0E       		.uleb128 0xe
 2807 019a 49       		.uleb128 0x49
 2808 019b 13       		.uleb128 0x13
 2809 019c 34       		.uleb128 0x34
 2810 019d 0C       		.uleb128 0xc
 2811 019e 1C       		.uleb128 0x1c
 2812 019f 0E       		.uleb128 0xe
 2813 01a0 00       		.byte	0
 2814 01a1 00       		.byte	0
 2815 01a2 21       		.uleb128 0x21
 2816 01a3 34       		.uleb128 0x34
 2817 01a4 00       		.byte	0
 2818 01a5 03       		.uleb128 0x3
 2819 01a6 08       		.uleb128 0x8
 2820 01a7 3A       		.uleb128 0x3a
 2821 01a8 0B       		.uleb128 0xb
 2822 01a9 3B       		.uleb128 0x3b
 2823 01aa 05       		.uleb128 0x5
 2824 01ab 49       		.uleb128 0x49
 2825 01ac 13       		.uleb128 0x13
 2826 01ad 00       		.byte	0
 2827 01ae 00       		.byte	0
 2828 01af 22       		.uleb128 0x22
 2829 01b0 2E       		.uleb128 0x2e
 2830 01b1 00       		.byte	0
 2831 01b2 03       		.uleb128 0x3
 2832 01b3 0E       		.uleb128 0xe
 2833 01b4 3A       		.uleb128 0x3a
ARM GAS  /tmp/ccBk47cc.s 			page 51


 2834 01b5 0B       		.uleb128 0xb
 2835 01b6 3B       		.uleb128 0x3b
 2836 01b7 05       		.uleb128 0x5
 2837 01b8 27       		.uleb128 0x27
 2838 01b9 0C       		.uleb128 0xc
 2839 01ba 49       		.uleb128 0x49
 2840 01bb 13       		.uleb128 0x13
 2841 01bc 20       		.uleb128 0x20
 2842 01bd 0B       		.uleb128 0xb
 2843 01be 00       		.byte	0
 2844 01bf 00       		.byte	0
 2845 01c0 23       		.uleb128 0x23
 2846 01c1 2E       		.uleb128 0x2e
 2847 01c2 01       		.byte	0x1
 2848 01c3 03       		.uleb128 0x3
 2849 01c4 0E       		.uleb128 0xe
 2850 01c5 3A       		.uleb128 0x3a
 2851 01c6 0B       		.uleb128 0xb
 2852 01c7 3B       		.uleb128 0x3b
 2853 01c8 05       		.uleb128 0x5
 2854 01c9 27       		.uleb128 0x27
 2855 01ca 0C       		.uleb128 0xc
 2856 01cb 11       		.uleb128 0x11
 2857 01cc 01       		.uleb128 0x1
 2858 01cd 12       		.uleb128 0x12
 2859 01ce 01       		.uleb128 0x1
 2860 01cf 40       		.uleb128 0x40
 2861 01d0 0A       		.uleb128 0xa
 2862 01d1 01       		.uleb128 0x1
 2863 01d2 13       		.uleb128 0x13
 2864 01d3 00       		.byte	0
 2865 01d4 00       		.byte	0
 2866 01d5 24       		.uleb128 0x24
 2867 01d6 05       		.uleb128 0x5
 2868 01d7 00       		.byte	0
 2869 01d8 03       		.uleb128 0x3
 2870 01d9 08       		.uleb128 0x8
 2871 01da 3A       		.uleb128 0x3a
 2872 01db 0B       		.uleb128 0xb
 2873 01dc 3B       		.uleb128 0x3b
 2874 01dd 05       		.uleb128 0x5
 2875 01de 49       		.uleb128 0x49
 2876 01df 13       		.uleb128 0x13
 2877 01e0 02       		.uleb128 0x2
 2878 01e1 06       		.uleb128 0x6
 2879 01e2 00       		.byte	0
 2880 01e3 00       		.byte	0
 2881 01e4 25       		.uleb128 0x25
 2882 01e5 34       		.uleb128 0x34
 2883 01e6 00       		.byte	0
 2884 01e7 03       		.uleb128 0x3
 2885 01e8 08       		.uleb128 0x8
 2886 01e9 3A       		.uleb128 0x3a
 2887 01ea 0B       		.uleb128 0xb
 2888 01eb 3B       		.uleb128 0x3b
 2889 01ec 05       		.uleb128 0x5
 2890 01ed 49       		.uleb128 0x49
ARM GAS  /tmp/ccBk47cc.s 			page 52


 2891 01ee 13       		.uleb128 0x13
 2892 01ef 02       		.uleb128 0x2
 2893 01f0 06       		.uleb128 0x6
 2894 01f1 00       		.byte	0
 2895 01f2 00       		.byte	0
 2896 01f3 26       		.uleb128 0x26
 2897 01f4 1D       		.uleb128 0x1d
 2898 01f5 01       		.byte	0x1
 2899 01f6 31       		.uleb128 0x31
 2900 01f7 13       		.uleb128 0x13
 2901 01f8 11       		.uleb128 0x11
 2902 01f9 01       		.uleb128 0x1
 2903 01fa 12       		.uleb128 0x12
 2904 01fb 01       		.uleb128 0x1
 2905 01fc 58       		.uleb128 0x58
 2906 01fd 0B       		.uleb128 0xb
 2907 01fe 59       		.uleb128 0x59
 2908 01ff 05       		.uleb128 0x5
 2909 0200 01       		.uleb128 0x1
 2910 0201 13       		.uleb128 0x13
 2911 0202 00       		.byte	0
 2912 0203 00       		.byte	0
 2913 0204 27       		.uleb128 0x27
 2914 0205 1D       		.uleb128 0x1d
 2915 0206 01       		.byte	0x1
 2916 0207 31       		.uleb128 0x31
 2917 0208 13       		.uleb128 0x13
 2918 0209 11       		.uleb128 0x11
 2919 020a 01       		.uleb128 0x1
 2920 020b 12       		.uleb128 0x12
 2921 020c 01       		.uleb128 0x1
 2922 020d 58       		.uleb128 0x58
 2923 020e 0B       		.uleb128 0xb
 2924 020f 59       		.uleb128 0x59
 2925 0210 05       		.uleb128 0x5
 2926 0211 00       		.byte	0
 2927 0212 00       		.byte	0
 2928 0213 28       		.uleb128 0x28
 2929 0214 05       		.uleb128 0x5
 2930 0215 00       		.byte	0
 2931 0216 31       		.uleb128 0x31
 2932 0217 13       		.uleb128 0x13
 2933 0218 1C       		.uleb128 0x1c
 2934 0219 0B       		.uleb128 0xb
 2935 021a 00       		.byte	0
 2936 021b 00       		.byte	0
 2937 021c 29       		.uleb128 0x29
 2938 021d 1D       		.uleb128 0x1d
 2939 021e 00       		.byte	0
 2940 021f 31       		.uleb128 0x31
 2941 0220 13       		.uleb128 0x13
 2942 0221 11       		.uleb128 0x11
 2943 0222 01       		.uleb128 0x1
 2944 0223 12       		.uleb128 0x12
 2945 0224 01       		.uleb128 0x1
 2946 0225 58       		.uleb128 0x58
 2947 0226 0B       		.uleb128 0xb
ARM GAS  /tmp/ccBk47cc.s 			page 53


 2948 0227 59       		.uleb128 0x59
 2949 0228 05       		.uleb128 0x5
 2950 0229 00       		.byte	0
 2951 022a 00       		.byte	0
 2952 022b 2A       		.uleb128 0x2a
 2953 022c 05       		.uleb128 0x5
 2954 022d 00       		.byte	0
 2955 022e 31       		.uleb128 0x31
 2956 022f 13       		.uleb128 0x13
 2957 0230 02       		.uleb128 0x2
 2958 0231 06       		.uleb128 0x6
 2959 0232 00       		.byte	0
 2960 0233 00       		.byte	0
 2961 0234 2B       		.uleb128 0x2b
 2962 0235 1D       		.uleb128 0x1d
 2963 0236 01       		.byte	0x1
 2964 0237 31       		.uleb128 0x31
 2965 0238 13       		.uleb128 0x13
 2966 0239 52       		.uleb128 0x52
 2967 023a 01       		.uleb128 0x1
 2968 023b 55       		.uleb128 0x55
 2969 023c 06       		.uleb128 0x6
 2970 023d 58       		.uleb128 0x58
 2971 023e 0B       		.uleb128 0xb
 2972 023f 59       		.uleb128 0x59
 2973 0240 05       		.uleb128 0x5
 2974 0241 01       		.uleb128 0x1
 2975 0242 13       		.uleb128 0x13
 2976 0243 00       		.byte	0
 2977 0244 00       		.byte	0
 2978 0245 2C       		.uleb128 0x2c
 2979 0246 0B       		.uleb128 0xb
 2980 0247 01       		.byte	0x1
 2981 0248 55       		.uleb128 0x55
 2982 0249 06       		.uleb128 0x6
 2983 024a 00       		.byte	0
 2984 024b 00       		.byte	0
 2985 024c 2D       		.uleb128 0x2d
 2986 024d 34       		.uleb128 0x34
 2987 024e 00       		.byte	0
 2988 024f 31       		.uleb128 0x31
 2989 0250 13       		.uleb128 0x13
 2990 0251 02       		.uleb128 0x2
 2991 0252 06       		.uleb128 0x6
 2992 0253 00       		.byte	0
 2993 0254 00       		.byte	0
 2994 0255 2E       		.uleb128 0x2e
 2995 0256 34       		.uleb128 0x34
 2996 0257 00       		.byte	0
 2997 0258 31       		.uleb128 0x31
 2998 0259 13       		.uleb128 0x13
 2999 025a 00       		.byte	0
 3000 025b 00       		.byte	0
 3001 025c 2F       		.uleb128 0x2f
 3002 025d 2E       		.uleb128 0x2e
 3003 025e 01       		.byte	0x1
 3004 025f 3F       		.uleb128 0x3f
ARM GAS  /tmp/ccBk47cc.s 			page 54


 3005 0260 0C       		.uleb128 0xc
 3006 0261 03       		.uleb128 0x3
 3007 0262 0E       		.uleb128 0xe
 3008 0263 3A       		.uleb128 0x3a
 3009 0264 0B       		.uleb128 0xb
 3010 0265 3B       		.uleb128 0x3b
 3011 0266 0B       		.uleb128 0xb
 3012 0267 27       		.uleb128 0x27
 3013 0268 0C       		.uleb128 0xc
 3014 0269 11       		.uleb128 0x11
 3015 026a 01       		.uleb128 0x1
 3016 026b 12       		.uleb128 0x12
 3017 026c 01       		.uleb128 0x1
 3018 026d 40       		.uleb128 0x40
 3019 026e 0A       		.uleb128 0xa
 3020 026f 01       		.uleb128 0x1
 3021 0270 13       		.uleb128 0x13
 3022 0271 00       		.byte	0
 3023 0272 00       		.byte	0
 3024 0273 30       		.uleb128 0x30
 3025 0274 1D       		.uleb128 0x1d
 3026 0275 01       		.byte	0x1
 3027 0276 31       		.uleb128 0x31
 3028 0277 13       		.uleb128 0x13
 3029 0278 52       		.uleb128 0x52
 3030 0279 01       		.uleb128 0x1
 3031 027a 55       		.uleb128 0x55
 3032 027b 06       		.uleb128 0x6
 3033 027c 58       		.uleb128 0x58
 3034 027d 0B       		.uleb128 0xb
 3035 027e 59       		.uleb128 0x59
 3036 027f 0B       		.uleb128 0xb
 3037 0280 00       		.byte	0
 3038 0281 00       		.byte	0
 3039 0282 31       		.uleb128 0x31
 3040 0283 05       		.uleb128 0x5
 3041 0284 00       		.byte	0
 3042 0285 31       		.uleb128 0x31
 3043 0286 13       		.uleb128 0x13
 3044 0287 02       		.uleb128 0x2
 3045 0288 0A       		.uleb128 0xa
 3046 0289 00       		.byte	0
 3047 028a 00       		.byte	0
 3048 028b 32       		.uleb128 0x32
 3049 028c 2E       		.uleb128 0x2e
 3050 028d 01       		.byte	0x1
 3051 028e 31       		.uleb128 0x31
 3052 028f 13       		.uleb128 0x13
 3053 0290 11       		.uleb128 0x11
 3054 0291 01       		.uleb128 0x1
 3055 0292 12       		.uleb128 0x12
 3056 0293 01       		.uleb128 0x1
 3057 0294 40       		.uleb128 0x40
 3058 0295 0A       		.uleb128 0xa
 3059 0296 01       		.uleb128 0x1
 3060 0297 13       		.uleb128 0x13
 3061 0298 00       		.byte	0
ARM GAS  /tmp/ccBk47cc.s 			page 55


 3062 0299 00       		.byte	0
 3063 029a 33       		.uleb128 0x33
 3064 029b 2E       		.uleb128 0x2e
 3065 029c 01       		.byte	0x1
 3066 029d 3F       		.uleb128 0x3f
 3067 029e 0C       		.uleb128 0xc
 3068 029f 03       		.uleb128 0x3
 3069 02a0 0E       		.uleb128 0xe
 3070 02a1 3A       		.uleb128 0x3a
 3071 02a2 0B       		.uleb128 0xb
 3072 02a3 3B       		.uleb128 0x3b
 3073 02a4 0B       		.uleb128 0xb
 3074 02a5 27       		.uleb128 0x27
 3075 02a6 0C       		.uleb128 0xc
 3076 02a7 11       		.uleb128 0x11
 3077 02a8 01       		.uleb128 0x1
 3078 02a9 12       		.uleb128 0x12
 3079 02aa 01       		.uleb128 0x1
 3080 02ab 40       		.uleb128 0x40
 3081 02ac 06       		.uleb128 0x6
 3082 02ad 01       		.uleb128 0x1
 3083 02ae 13       		.uleb128 0x13
 3084 02af 00       		.byte	0
 3085 02b0 00       		.byte	0
 3086 02b1 34       		.uleb128 0x34
 3087 02b2 05       		.uleb128 0x5
 3088 02b3 00       		.byte	0
 3089 02b4 03       		.uleb128 0x3
 3090 02b5 0E       		.uleb128 0xe
 3091 02b6 3A       		.uleb128 0x3a
 3092 02b7 0B       		.uleb128 0xb
 3093 02b8 3B       		.uleb128 0x3b
 3094 02b9 0B       		.uleb128 0xb
 3095 02ba 49       		.uleb128 0x49
 3096 02bb 13       		.uleb128 0x13
 3097 02bc 02       		.uleb128 0x2
 3098 02bd 06       		.uleb128 0x6
 3099 02be 00       		.byte	0
 3100 02bf 00       		.byte	0
 3101 02c0 35       		.uleb128 0x35
 3102 02c1 34       		.uleb128 0x34
 3103 02c2 00       		.byte	0
 3104 02c3 03       		.uleb128 0x3
 3105 02c4 08       		.uleb128 0x8
 3106 02c5 3A       		.uleb128 0x3a
 3107 02c6 0B       		.uleb128 0xb
 3108 02c7 3B       		.uleb128 0x3b
 3109 02c8 0B       		.uleb128 0xb
 3110 02c9 49       		.uleb128 0x49
 3111 02ca 13       		.uleb128 0x13
 3112 02cb 02       		.uleb128 0x2
 3113 02cc 06       		.uleb128 0x6
 3114 02cd 00       		.byte	0
 3115 02ce 00       		.byte	0
 3116 02cf 36       		.uleb128 0x36
 3117 02d0 1D       		.uleb128 0x1d
 3118 02d1 01       		.byte	0x1
ARM GAS  /tmp/ccBk47cc.s 			page 56


 3119 02d2 31       		.uleb128 0x31
 3120 02d3 13       		.uleb128 0x13
 3121 02d4 52       		.uleb128 0x52
 3122 02d5 01       		.uleb128 0x1
 3123 02d6 55       		.uleb128 0x55
 3124 02d7 06       		.uleb128 0x6
 3125 02d8 58       		.uleb128 0x58
 3126 02d9 0B       		.uleb128 0xb
 3127 02da 59       		.uleb128 0x59
 3128 02db 05       		.uleb128 0x5
 3129 02dc 00       		.byte	0
 3130 02dd 00       		.byte	0
 3131 02de 37       		.uleb128 0x37
 3132 02df 2E       		.uleb128 0x2e
 3133 02e0 01       		.byte	0x1
 3134 02e1 3F       		.uleb128 0x3f
 3135 02e2 0C       		.uleb128 0xc
 3136 02e3 03       		.uleb128 0x3
 3137 02e4 0E       		.uleb128 0xe
 3138 02e5 3A       		.uleb128 0x3a
 3139 02e6 0B       		.uleb128 0xb
 3140 02e7 3B       		.uleb128 0x3b
 3141 02e8 05       		.uleb128 0x5
 3142 02e9 27       		.uleb128 0x27
 3143 02ea 0C       		.uleb128 0xc
 3144 02eb 49       		.uleb128 0x49
 3145 02ec 13       		.uleb128 0x13
 3146 02ed 11       		.uleb128 0x11
 3147 02ee 01       		.uleb128 0x1
 3148 02ef 12       		.uleb128 0x12
 3149 02f0 01       		.uleb128 0x1
 3150 02f1 40       		.uleb128 0x40
 3151 02f2 06       		.uleb128 0x6
 3152 02f3 01       		.uleb128 0x1
 3153 02f4 13       		.uleb128 0x13
 3154 02f5 00       		.byte	0
 3155 02f6 00       		.byte	0
 3156 02f7 38       		.uleb128 0x38
 3157 02f8 05       		.uleb128 0x5
 3158 02f9 00       		.byte	0
 3159 02fa 03       		.uleb128 0x3
 3160 02fb 0E       		.uleb128 0xe
 3161 02fc 3A       		.uleb128 0x3a
 3162 02fd 0B       		.uleb128 0xb
 3163 02fe 3B       		.uleb128 0x3b
 3164 02ff 05       		.uleb128 0x5
 3165 0300 49       		.uleb128 0x49
 3166 0301 13       		.uleb128 0x13
 3167 0302 02       		.uleb128 0x2
 3168 0303 06       		.uleb128 0x6
 3169 0304 00       		.byte	0
 3170 0305 00       		.byte	0
 3171 0306 39       		.uleb128 0x39
 3172 0307 0B       		.uleb128 0xb
 3173 0308 01       		.byte	0x1
 3174 0309 11       		.uleb128 0x11
 3175 030a 01       		.uleb128 0x1
ARM GAS  /tmp/ccBk47cc.s 			page 57


 3176 030b 12       		.uleb128 0x12
 3177 030c 01       		.uleb128 0x1
 3178 030d 00       		.byte	0
 3179 030e 00       		.byte	0
 3180 030f 3A       		.uleb128 0x3a
 3181 0310 34       		.uleb128 0x34
 3182 0311 00       		.byte	0
 3183 0312 03       		.uleb128 0x3
 3184 0313 08       		.uleb128 0x8
 3185 0314 3A       		.uleb128 0x3a
 3186 0315 0B       		.uleb128 0xb
 3187 0316 3B       		.uleb128 0x3b
 3188 0317 05       		.uleb128 0x5
 3189 0318 49       		.uleb128 0x49
 3190 0319 13       		.uleb128 0x13
 3191 031a 02       		.uleb128 0x2
 3192 031b 0A       		.uleb128 0xa
 3193 031c 00       		.byte	0
 3194 031d 00       		.byte	0
 3195 031e 3B       		.uleb128 0x3b
 3196 031f 2E       		.uleb128 0x2e
 3197 0320 01       		.byte	0x1
 3198 0321 3F       		.uleb128 0x3f
 3199 0322 0C       		.uleb128 0xc
 3200 0323 03       		.uleb128 0x3
 3201 0324 0E       		.uleb128 0xe
 3202 0325 3A       		.uleb128 0x3a
 3203 0326 0B       		.uleb128 0xb
 3204 0327 3B       		.uleb128 0x3b
 3205 0328 05       		.uleb128 0x5
 3206 0329 27       		.uleb128 0x27
 3207 032a 0C       		.uleb128 0xc
 3208 032b 11       		.uleb128 0x11
 3209 032c 01       		.uleb128 0x1
 3210 032d 12       		.uleb128 0x12
 3211 032e 01       		.uleb128 0x1
 3212 032f 40       		.uleb128 0x40
 3213 0330 06       		.uleb128 0x6
 3214 0331 01       		.uleb128 0x1
 3215 0332 13       		.uleb128 0x13
 3216 0333 00       		.byte	0
 3217 0334 00       		.byte	0
 3218 0335 3C       		.uleb128 0x3c
 3219 0336 34       		.uleb128 0x34
 3220 0337 00       		.byte	0
 3221 0338 03       		.uleb128 0x3
 3222 0339 0E       		.uleb128 0xe
 3223 033a 49       		.uleb128 0x49
 3224 033b 13       		.uleb128 0x13
 3225 033c 34       		.uleb128 0x34
 3226 033d 0C       		.uleb128 0xc
 3227 033e 00       		.byte	0
 3228 033f 00       		.byte	0
 3229 0340 3D       		.uleb128 0x3d
 3230 0341 05       		.uleb128 0x5
 3231 0342 00       		.byte	0
 3232 0343 31       		.uleb128 0x31
ARM GAS  /tmp/ccBk47cc.s 			page 58


 3233 0344 13       		.uleb128 0x13
 3234 0345 00       		.byte	0
 3235 0346 00       		.byte	0
 3236 0347 3E       		.uleb128 0x3e
 3237 0348 2E       		.uleb128 0x2e
 3238 0349 01       		.byte	0x1
 3239 034a 3F       		.uleb128 0x3f
 3240 034b 0C       		.uleb128 0xc
 3241 034c 03       		.uleb128 0x3
 3242 034d 0E       		.uleb128 0xe
 3243 034e 3A       		.uleb128 0x3a
 3244 034f 0B       		.uleb128 0xb
 3245 0350 3B       		.uleb128 0x3b
 3246 0351 05       		.uleb128 0x5
 3247 0352 27       		.uleb128 0x27
 3248 0353 0C       		.uleb128 0xc
 3249 0354 49       		.uleb128 0x49
 3250 0355 13       		.uleb128 0x13
 3251 0356 11       		.uleb128 0x11
 3252 0357 01       		.uleb128 0x1
 3253 0358 12       		.uleb128 0x12
 3254 0359 01       		.uleb128 0x1
 3255 035a 40       		.uleb128 0x40
 3256 035b 0A       		.uleb128 0xa
 3257 035c 01       		.uleb128 0x1
 3258 035d 13       		.uleb128 0x13
 3259 035e 00       		.byte	0
 3260 035f 00       		.byte	0
 3261 0360 3F       		.uleb128 0x3f
 3262 0361 2E       		.uleb128 0x2e
 3263 0362 01       		.byte	0x1
 3264 0363 3F       		.uleb128 0x3f
 3265 0364 0C       		.uleb128 0xc
 3266 0365 03       		.uleb128 0x3
 3267 0366 0E       		.uleb128 0xe
 3268 0367 3A       		.uleb128 0x3a
 3269 0368 0B       		.uleb128 0xb
 3270 0369 3B       		.uleb128 0x3b
 3271 036a 05       		.uleb128 0x5
 3272 036b 27       		.uleb128 0x27
 3273 036c 0C       		.uleb128 0xc
 3274 036d 11       		.uleb128 0x11
 3275 036e 01       		.uleb128 0x1
 3276 036f 12       		.uleb128 0x12
 3277 0370 01       		.uleb128 0x1
 3278 0371 40       		.uleb128 0x40
 3279 0372 0A       		.uleb128 0xa
 3280 0373 01       		.uleb128 0x1
 3281 0374 13       		.uleb128 0x13
 3282 0375 00       		.byte	0
 3283 0376 00       		.byte	0
 3284 0377 40       		.uleb128 0x40
 3285 0378 2E       		.uleb128 0x2e
 3286 0379 00       		.byte	0
 3287 037a 3F       		.uleb128 0x3f
 3288 037b 0C       		.uleb128 0xc
 3289 037c 03       		.uleb128 0x3
ARM GAS  /tmp/ccBk47cc.s 			page 59


 3290 037d 0E       		.uleb128 0xe
 3291 037e 3A       		.uleb128 0x3a
 3292 037f 0B       		.uleb128 0xb
 3293 0380 3B       		.uleb128 0x3b
 3294 0381 05       		.uleb128 0x5
 3295 0382 27       		.uleb128 0x27
 3296 0383 0C       		.uleb128 0xc
 3297 0384 11       		.uleb128 0x11
 3298 0385 01       		.uleb128 0x1
 3299 0386 12       		.uleb128 0x12
 3300 0387 01       		.uleb128 0x1
 3301 0388 40       		.uleb128 0x40
 3302 0389 0A       		.uleb128 0xa
 3303 038a 00       		.byte	0
 3304 038b 00       		.byte	0
 3305 038c 41       		.uleb128 0x41
 3306 038d 34       		.uleb128 0x34
 3307 038e 00       		.byte	0
 3308 038f 03       		.uleb128 0x3
 3309 0390 0E       		.uleb128 0xe
 3310 0391 3A       		.uleb128 0x3a
 3311 0392 0B       		.uleb128 0xb
 3312 0393 3B       		.uleb128 0x3b
 3313 0394 05       		.uleb128 0x5
 3314 0395 49       		.uleb128 0x49
 3315 0396 13       		.uleb128 0x13
 3316 0397 3F       		.uleb128 0x3f
 3317 0398 0C       		.uleb128 0xc
 3318 0399 3C       		.uleb128 0x3c
 3319 039a 0C       		.uleb128 0xc
 3320 039b 00       		.byte	0
 3321 039c 00       		.byte	0
 3322 039d 42       		.uleb128 0x42
 3323 039e 34       		.uleb128 0x34
 3324 039f 00       		.byte	0
 3325 03a0 03       		.uleb128 0x3
 3326 03a1 08       		.uleb128 0x8
 3327 03a2 3A       		.uleb128 0x3a
 3328 03a3 0B       		.uleb128 0xb
 3329 03a4 3B       		.uleb128 0x3b
 3330 03a5 05       		.uleb128 0x5
 3331 03a6 49       		.uleb128 0x49
 3332 03a7 13       		.uleb128 0x13
 3333 03a8 3F       		.uleb128 0x3f
 3334 03a9 0C       		.uleb128 0xc
 3335 03aa 3C       		.uleb128 0x3c
 3336 03ab 0C       		.uleb128 0xc
 3337 03ac 00       		.byte	0
 3338 03ad 00       		.byte	0
 3339 03ae 43       		.uleb128 0x43
 3340 03af 34       		.uleb128 0x34
 3341 03b0 00       		.byte	0
 3342 03b1 03       		.uleb128 0x3
 3343 03b2 08       		.uleb128 0x8
 3344 03b3 3A       		.uleb128 0x3a
 3345 03b4 0B       		.uleb128 0xb
 3346 03b5 3B       		.uleb128 0x3b
ARM GAS  /tmp/ccBk47cc.s 			page 60


 3347 03b6 0B       		.uleb128 0xb
 3348 03b7 49       		.uleb128 0x49
 3349 03b8 13       		.uleb128 0x13
 3350 03b9 3F       		.uleb128 0x3f
 3351 03ba 0C       		.uleb128 0xc
 3352 03bb 02       		.uleb128 0x2
 3353 03bc 0A       		.uleb128 0xa
 3354 03bd 00       		.byte	0
 3355 03be 00       		.byte	0
 3356 03bf 00       		.byte	0
 3357              		.section	.debug_loc,"",%progbits
 3358              	.Ldebug_loc0:
 3359              	.LLST0:
 3360 0000 00000000 		.4byte	.LVL0
 3361 0004 52000000 		.4byte	.LVL9
 3362 0008 0100     		.2byte	0x1
 3363 000a 50       		.byte	0x50
 3364 000b 58000000 		.4byte	.LVL10
 3365 000f 60000000 		.4byte	.LFE185
 3366 0013 0100     		.2byte	0x1
 3367 0015 50       		.byte	0x50
 3368 0016 00000000 		.4byte	0
 3369 001a 00000000 		.4byte	0
 3370              	.LLST2:
 3371 001e 20000000 		.4byte	.LVL2
 3372 0022 2A000000 		.4byte	.LVL3
 3373 0026 0100     		.2byte	0x1
 3374 0028 50       		.byte	0x50
 3375 0029 00000000 		.4byte	0
 3376 002d 00000000 		.4byte	0
 3377              	.LLST3:
 3378 0031 34000000 		.4byte	.LVL4
 3379 0035 50000000 		.4byte	.LVL8
 3380 0039 0100     		.2byte	0x1
 3381 003b 50       		.byte	0x50
 3382 003c 00000000 		.4byte	0
 3383 0040 00000000 		.4byte	0
 3384              	.LLST4:
 3385 0044 3A000000 		.4byte	.LVL5
 3386 0048 3E000000 		.4byte	.LVL6
 3387 004c 0600     		.2byte	0x6
 3388 004e 03       		.byte	0x3
 3389 004f 00000000 		.4byte	ch
 3390 0053 9F       		.byte	0x9f
 3391 0054 3E000000 		.4byte	.LVL6
 3392 0058 50000000 		.4byte	.LVL8
 3393 005c 0100     		.2byte	0x1
 3394 005e 53       		.byte	0x53
 3395 005f 00000000 		.4byte	0
 3396 0063 00000000 		.4byte	0
 3397              	.LLST5:
 3398 0067 50000000 		.4byte	.LVL8
 3399 006b 58000000 		.4byte	.LVL10
 3400 006f 0200     		.2byte	0x2
 3401 0071 30       		.byte	0x30
 3402 0072 9F       		.byte	0x9f
 3403 0073 00000000 		.4byte	0
ARM GAS  /tmp/ccBk47cc.s 			page 61


 3404 0077 00000000 		.4byte	0
 3405              	.LLST6:
 3406 007b 0A000000 		.4byte	.LVL13
 3407 007f 0E000000 		.4byte	.LVL14
 3408 0083 0600     		.2byte	0x6
 3409 0085 03       		.byte	0x3
 3410 0086 00000000 		.4byte	ch
 3411 008a 9F       		.byte	0x9f
 3412 008b 0E000000 		.4byte	.LVL14
 3413 008f 22000000 		.4byte	.LFE183
 3414 0093 0100     		.2byte	0x1
 3415 0095 53       		.byte	0x53
 3416 0096 00000000 		.4byte	0
 3417 009a 00000000 		.4byte	0
 3418              	.LLST7:
 3419 009e 00000000 		.4byte	.LFB184
 3420 00a2 06000000 		.4byte	.LCFI0
 3421 00a6 0200     		.2byte	0x2
 3422 00a8 7D       		.byte	0x7d
 3423 00a9 00       		.sleb128 0
 3424 00aa 06000000 		.4byte	.LCFI0
 3425 00ae 24000000 		.4byte	.LFE184
 3426 00b2 0200     		.2byte	0x2
 3427 00b4 7D       		.byte	0x7d
 3428 00b5 04       		.sleb128 4
 3429 00b6 00000000 		.4byte	0
 3430 00ba 00000000 		.4byte	0
 3431              	.LLST8:
 3432 00be 00000000 		.4byte	.LVL16
 3433 00c2 14000000 		.4byte	.LVL19
 3434 00c6 0100     		.2byte	0x1
 3435 00c8 50       		.byte	0x50
 3436 00c9 14000000 		.4byte	.LVL19
 3437 00cd 23000000 		.4byte	.LVL20-1
 3438 00d1 0800     		.2byte	0x8
 3439 00d3 03       		.byte	0x3
 3440 00d4 18000000 		.4byte	ch+24
 3441 00d8 06       		.byte	0x6
 3442 00d9 23       		.byte	0x23
 3443 00da 1C       		.uleb128 0x1c
 3444 00db 00000000 		.4byte	0
 3445 00df 00000000 		.4byte	0
 3446              	.LLST9:
 3447 00e3 0E000000 		.4byte	.LVL17
 3448 00e7 23000000 		.4byte	.LVL22-1
 3449 00eb 0500     		.2byte	0x5
 3450 00ed 03       		.byte	0x3
 3451 00ee 18000000 		.4byte	ch+24
 3452 00f2 00000000 		.4byte	0
 3453 00f6 00000000 		.4byte	0
 3454              	.LLST10:
 3455 00fa 12000000 		.4byte	.LVL18
 3456 00fe 23000000 		.4byte	.LVL21-1
 3457 0102 0500     		.2byte	0x5
 3458 0104 03       		.byte	0x3
 3459 0105 00000000 		.4byte	ch
 3460 0109 00000000 		.4byte	0
ARM GAS  /tmp/ccBk47cc.s 			page 62


 3461 010d 00000000 		.4byte	0
 3462              	.LLST11:
 3463 0111 00000000 		.4byte	.LFB186
 3464 0115 02000000 		.4byte	.LCFI1
 3465 0119 0200     		.2byte	0x2
 3466 011b 7D       		.byte	0x7d
 3467 011c 00       		.sleb128 0
 3468 011d 02000000 		.4byte	.LCFI1
 3469 0121 0A000000 		.4byte	.LCFI2
 3470 0125 0200     		.2byte	0x2
 3471 0127 7D       		.byte	0x7d
 3472 0128 0C       		.sleb128 12
 3473 0129 0A000000 		.4byte	.LCFI2
 3474 012d 4C000000 		.4byte	.LFE186
 3475 0131 0200     		.2byte	0x2
 3476 0133 7D       		.byte	0x7d
 3477 0134 28       		.sleb128 40
 3478 0135 00000000 		.4byte	0
 3479 0139 00000000 		.4byte	0
 3480              	.LLST12:
 3481 013d 00000000 		.4byte	.LVL23
 3482 0141 22000000 		.4byte	.LVL24
 3483 0145 0100     		.2byte	0x1
 3484 0147 50       		.byte	0x50
 3485 0148 3E000000 		.4byte	.LVL26
 3486 014c 45000000 		.4byte	.LVL27-1
 3487 0150 0100     		.2byte	0x1
 3488 0152 50       		.byte	0x50
 3489 0153 00000000 		.4byte	0
 3490 0157 00000000 		.4byte	0
 3491              	.LLST13:
 3492 015b 00000000 		.4byte	.LVL23
 3493 015f 25000000 		.4byte	.LVL25-1
 3494 0163 0100     		.2byte	0x1
 3495 0165 51       		.byte	0x51
 3496 0166 3E000000 		.4byte	.LVL26
 3497 016a 45000000 		.4byte	.LVL27-1
 3498 016e 0100     		.2byte	0x1
 3499 0170 51       		.byte	0x51
 3500 0171 00000000 		.4byte	0
 3501 0175 00000000 		.4byte	0
 3502              	.LLST14:
 3503 0179 00000000 		.4byte	.LFB187
 3504 017d 0A000000 		.4byte	.LCFI3
 3505 0181 0200     		.2byte	0x2
 3506 0183 7D       		.byte	0x7d
 3507 0184 00       		.sleb128 0
 3508 0185 0A000000 		.4byte	.LCFI3
 3509 0189 5A000000 		.4byte	.LFE187
 3510 018d 0200     		.2byte	0x2
 3511 018f 7D       		.byte	0x7d
 3512 0190 08       		.sleb128 8
 3513 0191 00000000 		.4byte	0
 3514 0195 00000000 		.4byte	0
 3515              	.LLST15:
 3516 0199 00000000 		.4byte	.LVL28
 3517 019d 12000000 		.4byte	.LVL29
ARM GAS  /tmp/ccBk47cc.s 			page 63


 3518 01a1 0100     		.2byte	0x1
 3519 01a3 50       		.byte	0x50
 3520 01a4 12000000 		.4byte	.LVL29
 3521 01a8 59000000 		.4byte	.LVL39-1
 3522 01ac 0100     		.2byte	0x1
 3523 01ae 53       		.byte	0x53
 3524 01af 00000000 		.4byte	0
 3525 01b3 00000000 		.4byte	0
 3526              	.LLST16:
 3527 01b7 00000000 		.4byte	.LVL28
 3528 01bb 16000000 		.4byte	.LVL30
 3529 01bf 0100     		.2byte	0x1
 3530 01c1 51       		.byte	0x51
 3531 01c2 16000000 		.4byte	.LVL30
 3532 01c6 59000000 		.4byte	.LVL38-1
 3533 01ca 0200     		.2byte	0x2
 3534 01cc 73       		.byte	0x73
 3535 01cd 20       		.sleb128 32
 3536 01ce 00000000 		.4byte	0
 3537 01d2 00000000 		.4byte	0
 3538              	.LLST17:
 3539 01d6 20000000 		.4byte	.LVL32
 3540 01da 38000000 		.4byte	.LVL35
 3541 01de 0100     		.2byte	0x1
 3542 01e0 53       		.byte	0x53
 3543 01e1 00000000 		.4byte	0
 3544 01e5 00000000 		.4byte	0
 3545              	.LLST18:
 3546 01e9 22000000 		.4byte	.LVL33
 3547 01ed 38000000 		.4byte	.LVL35
 3548 01f1 0100     		.2byte	0x1
 3549 01f3 52       		.byte	0x52
 3550 01f4 00000000 		.4byte	0
 3551 01f8 00000000 		.4byte	0
 3552              	.LLST19:
 3553 01fc 1C000000 		.4byte	.LVL31
 3554 0200 38000000 		.4byte	.LVL35
 3555 0204 0600     		.2byte	0x6
 3556 0206 03       		.byte	0x3
 3557 0207 00000000 		.4byte	ch
 3558 020b 9F       		.byte	0x9f
 3559 020c 38000000 		.4byte	.LVL35
 3560 0210 4A000000 		.4byte	.LVL37
 3561 0214 0100     		.2byte	0x1
 3562 0216 51       		.byte	0x51
 3563 0217 4A000000 		.4byte	.LVL37
 3564 021b 59000000 		.4byte	.LVL40-1
 3565 021f 0600     		.2byte	0x6
 3566 0221 03       		.byte	0x3
 3567 0222 18000000 		.4byte	ch+24
 3568 0226 06       		.byte	0x6
 3569 0227 00000000 		.4byte	0
 3570 022b 00000000 		.4byte	0
 3571              	.LLST20:
 3572 022f 00000000 		.4byte	.LFB190
 3573 0233 10000000 		.4byte	.LCFI4
 3574 0237 0200     		.2byte	0x2
ARM GAS  /tmp/ccBk47cc.s 			page 64


 3575 0239 7D       		.byte	0x7d
 3576 023a 00       		.sleb128 0
 3577 023b 10000000 		.4byte	.LCFI4
 3578 023f 3A000000 		.4byte	.LFE190
 3579 0243 0200     		.2byte	0x2
 3580 0245 7D       		.byte	0x7d
 3581 0246 08       		.sleb128 8
 3582 0247 00000000 		.4byte	0
 3583 024b 00000000 		.4byte	0
 3584              	.LLST21:
 3585 024f 0C000000 		.4byte	.LVL42
 3586 0253 39000000 		.4byte	.LVL49-1
 3587 0257 0500     		.2byte	0x5
 3588 0259 03       		.byte	0x3
 3589 025a 18000000 		.4byte	ch+24
 3590 025e 00000000 		.4byte	0
 3591 0262 00000000 		.4byte	0
 3592              	.LLST22:
 3593 0266 0C000000 		.4byte	.LVL42
 3594 026a 39000000 		.4byte	.LVL47-1
 3595 026e 0500     		.2byte	0x5
 3596 0270 03       		.byte	0x3
 3597 0271 00000000 		.4byte	ch
 3598 0275 00000000 		.4byte	0
 3599 0279 00000000 		.4byte	0
 3600              	.LLST23:
 3601 027d 1E000000 		.4byte	.LVL43
 3602 0281 39000000 		.4byte	.LVL50-1
 3603 0285 0500     		.2byte	0x5
 3604 0287 03       		.byte	0x3
 3605 0288 18000000 		.4byte	ch+24
 3606 028c 00000000 		.4byte	0
 3607 0290 00000000 		.4byte	0
 3608              	.LLST24:
 3609 0294 20000000 		.4byte	.LVL44
 3610 0298 22000000 		.4byte	.LVL45
 3611 029c 0600     		.2byte	0x6
 3612 029e 03       		.byte	0x3
 3613 029f 00000000 		.4byte	ch
 3614 02a3 9F       		.byte	0x9f
 3615 02a4 22000000 		.4byte	.LVL45
 3616 02a8 39000000 		.4byte	.LVL48-1
 3617 02ac 0100     		.2byte	0x1
 3618 02ae 53       		.byte	0x53
 3619 02af 00000000 		.4byte	0
 3620 02b3 00000000 		.4byte	0
 3621              	.LLST25:
 3622 02b7 00000000 		.4byte	.LFB191
 3623 02bb 10000000 		.4byte	.LCFI5
 3624 02bf 0200     		.2byte	0x2
 3625 02c1 7D       		.byte	0x7d
 3626 02c2 00       		.sleb128 0
 3627 02c3 10000000 		.4byte	.LCFI5
 3628 02c7 3A000000 		.4byte	.LFE191
 3629 02cb 0200     		.2byte	0x2
 3630 02cd 7D       		.byte	0x7d
 3631 02ce 08       		.sleb128 8
ARM GAS  /tmp/ccBk47cc.s 			page 65


 3632 02cf 00000000 		.4byte	0
 3633 02d3 00000000 		.4byte	0
 3634              	.LLST26:
 3635 02d7 0C000000 		.4byte	.LVL51
 3636 02db 39000000 		.4byte	.LVL57-1
 3637 02df 0500     		.2byte	0x5
 3638 02e1 03       		.byte	0x3
 3639 02e2 18000000 		.4byte	ch+24
 3640 02e6 00000000 		.4byte	0
 3641 02ea 00000000 		.4byte	0
 3642              	.LLST27:
 3643 02ee 20000000 		.4byte	.LVL52
 3644 02f2 22000000 		.4byte	.LVL53
 3645 02f6 0600     		.2byte	0x6
 3646 02f8 03       		.byte	0x3
 3647 02f9 00000000 		.4byte	ch
 3648 02fd 9F       		.byte	0x9f
 3649 02fe 22000000 		.4byte	.LVL53
 3650 0302 39000000 		.4byte	.LVL56-1
 3651 0306 0100     		.2byte	0x1
 3652 0308 53       		.byte	0x53
 3653 0309 00000000 		.4byte	0
 3654 030d 00000000 		.4byte	0
 3655              	.LLST28:
 3656 0311 0C000000 		.4byte	.LVL51
 3657 0315 39000000 		.4byte	.LVL55-1
 3658 0319 0500     		.2byte	0x5
 3659 031b 03       		.byte	0x3
 3660 031c 00000000 		.4byte	ch
 3661 0320 00000000 		.4byte	0
 3662 0324 00000000 		.4byte	0
 3663              		.section	.debug_aranges,"",%progbits
 3664 0000 6C000000 		.4byte	0x6c
 3665 0004 0200     		.2byte	0x2
 3666 0006 00000000 		.4byte	.Ldebug_info0
 3667 000a 04       		.byte	0x4
 3668 000b 00       		.byte	0
 3669 000c 0000     		.2byte	0
 3670 000e 0000     		.2byte	0
 3671 0010 00000000 		.4byte	.LFB185
 3672 0014 60000000 		.4byte	.LFE185-.LFB185
 3673 0018 00000000 		.4byte	.LFB182
 3674 001c 16000000 		.4byte	.LFE182-.LFB182
 3675 0020 00000000 		.4byte	.LFB183
 3676 0024 22000000 		.4byte	.LFE183-.LFB183
 3677 0028 00000000 		.4byte	.LFB184
 3678 002c 24000000 		.4byte	.LFE184-.LFB184
 3679 0030 00000000 		.4byte	.LFB186
 3680 0034 4C000000 		.4byte	.LFE186-.LFB186
 3681 0038 00000000 		.4byte	.LFB187
 3682 003c 5A000000 		.4byte	.LFE187-.LFB187
 3683 0040 00000000 		.4byte	.LFB189
 3684 0044 1A000000 		.4byte	.LFE189-.LFB189
 3685 0048 00000000 		.4byte	.LFB190
 3686 004c 3A000000 		.4byte	.LFE190-.LFB190
 3687 0050 00000000 		.4byte	.LFB191
 3688 0054 3A000000 		.4byte	.LFE191-.LFB191
ARM GAS  /tmp/ccBk47cc.s 			page 66


 3689 0058 00000000 		.4byte	.LFB188
 3690 005c 1E000000 		.4byte	.LFE188-.LFB188
 3691 0060 00000000 		.4byte	.LFB192
 3692 0064 04000000 		.4byte	.LFE192-.LFB192
 3693 0068 00000000 		.4byte	0
 3694 006c 00000000 		.4byte	0
 3695              		.section	.debug_ranges,"",%progbits
 3696              	.Ldebug_ranges0:
 3697 0000 2E000000 		.4byte	.LBB77
 3698 0004 32000000 		.4byte	.LBE77
 3699 0008 34000000 		.4byte	.LBB80
 3700 000c 50000000 		.4byte	.LBE80
 3701 0010 00000000 		.4byte	0
 3702 0014 00000000 		.4byte	0
 3703 0018 2E000000 		.4byte	.LBB78
 3704 001c 32000000 		.4byte	.LBE78
 3705 0020 34000000 		.4byte	.LBB79
 3706 0024 50000000 		.4byte	.LBE79
 3707 0028 00000000 		.4byte	0
 3708 002c 00000000 		.4byte	0
 3709 0030 00000000 		.4byte	.LBB86
 3710 0034 08000000 		.4byte	.LBE86
 3711 0038 0A000000 		.4byte	.LBB89
 3712 003c 0E000000 		.4byte	.LBE89
 3713 0040 00000000 		.4byte	0
 3714 0044 00000000 		.4byte	0
 3715 0048 0A000000 		.4byte	.LBB90
 3716 004c 0C000000 		.4byte	.LBE90
 3717 0050 0E000000 		.4byte	.LBB94
 3718 0054 10000000 		.4byte	.LBE94
 3719 0058 18000000 		.4byte	.LBB95
 3720 005c 1C000000 		.4byte	.LBE95
 3721 0060 00000000 		.4byte	0
 3722 0064 00000000 		.4byte	0
 3723 0068 0A000000 		.4byte	.LBB91
 3724 006c 0C000000 		.4byte	.LBE91
 3725 0070 0E000000 		.4byte	.LBB92
 3726 0074 10000000 		.4byte	.LBE92
 3727 0078 18000000 		.4byte	.LBB93
 3728 007c 1C000000 		.4byte	.LBE93
 3729 0080 00000000 		.4byte	0
 3730 0084 00000000 		.4byte	0
 3731 0088 14000000 		.4byte	.LBB97
 3732 008c 16000000 		.4byte	.LBE97
 3733 0090 20000000 		.4byte	.LBB107
 3734 0094 34000000 		.4byte	.LBE107
 3735 0098 00000000 		.4byte	0
 3736 009c 00000000 		.4byte	0
 3737 00a0 14000000 		.4byte	.LBB98
 3738 00a4 16000000 		.4byte	.LBE98
 3739 00a8 20000000 		.4byte	.LBB99
 3740 00ac 34000000 		.4byte	.LBE99
 3741 00b0 00000000 		.4byte	0
 3742 00b4 00000000 		.4byte	0
 3743 00b8 18000000 		.4byte	.LBB100
 3744 00bc 1E000000 		.4byte	.LBE100
 3745 00c0 38000000 		.4byte	.LBB108
ARM GAS  /tmp/ccBk47cc.s 			page 67


 3746 00c4 54000000 		.4byte	.LBE108
 3747 00c8 56000000 		.4byte	.LBB109
 3748 00cc 5A000000 		.4byte	.LBE109
 3749 00d0 00000000 		.4byte	0
 3750 00d4 00000000 		.4byte	0
 3751 00d8 18000000 		.4byte	.LBB101
 3752 00dc 1E000000 		.4byte	.LBE101
 3753 00e0 38000000 		.4byte	.LBB105
 3754 00e4 48000000 		.4byte	.LBE105
 3755 00e8 4A000000 		.4byte	.LBB106
 3756 00ec 4C000000 		.4byte	.LBE106
 3757 00f0 00000000 		.4byte	0
 3758 00f4 00000000 		.4byte	0
 3759 00f8 18000000 		.4byte	.LBB102
 3760 00fc 1E000000 		.4byte	.LBE102
 3761 0100 38000000 		.4byte	.LBB103
 3762 0104 48000000 		.4byte	.LBE103
 3763 0108 4A000000 		.4byte	.LBB104
 3764 010c 4C000000 		.4byte	.LBE104
 3765 0110 00000000 		.4byte	0
 3766 0114 00000000 		.4byte	0
 3767 0118 08000000 		.4byte	.LBB110
 3768 011c 0A000000 		.4byte	.LBE110
 3769 0120 0C000000 		.4byte	.LBB115
 3770 0124 0E000000 		.4byte	.LBE115
 3771 0128 10000000 		.4byte	.LBB116
 3772 012c 12000000 		.4byte	.LBE116
 3773 0130 16000000 		.4byte	.LBB121
 3774 0134 18000000 		.4byte	.LBE121
 3775 0138 00000000 		.4byte	0
 3776 013c 00000000 		.4byte	0
 3777 0140 08000000 		.4byte	.LBB111
 3778 0144 0A000000 		.4byte	.LBE111
 3779 0148 0C000000 		.4byte	.LBB112
 3780 014c 0E000000 		.4byte	.LBE112
 3781 0150 10000000 		.4byte	.LBB113
 3782 0154 12000000 		.4byte	.LBE113
 3783 0158 16000000 		.4byte	.LBB114
 3784 015c 18000000 		.4byte	.LBE114
 3785 0160 00000000 		.4byte	0
 3786 0164 00000000 		.4byte	0
 3787 0168 12000000 		.4byte	.LBB117
 3788 016c 14000000 		.4byte	.LBE117
 3789 0170 1A000000 		.4byte	.LBB122
 3790 0174 1C000000 		.4byte	.LBE122
 3791 0178 1E000000 		.4byte	.LBB123
 3792 017c 34000000 		.4byte	.LBE123
 3793 0180 00000000 		.4byte	0
 3794 0184 00000000 		.4byte	0
 3795 0188 12000000 		.4byte	.LBB118
 3796 018c 14000000 		.4byte	.LBE118
 3797 0190 1A000000 		.4byte	.LBB119
 3798 0194 1C000000 		.4byte	.LBE119
 3799 0198 1E000000 		.4byte	.LBB120
 3800 019c 34000000 		.4byte	.LBE120
 3801 01a0 00000000 		.4byte	0
 3802 01a4 00000000 		.4byte	0
ARM GAS  /tmp/ccBk47cc.s 			page 68


 3803 01a8 08000000 		.4byte	.LBB124
 3804 01ac 0A000000 		.4byte	.LBE124
 3805 01b0 0C000000 		.4byte	.LBB129
 3806 01b4 0E000000 		.4byte	.LBE129
 3807 01b8 10000000 		.4byte	.LBB130
 3808 01bc 12000000 		.4byte	.LBE130
 3809 01c0 16000000 		.4byte	.LBB131
 3810 01c4 18000000 		.4byte	.LBE131
 3811 01c8 00000000 		.4byte	0
 3812 01cc 00000000 		.4byte	0
 3813 01d0 08000000 		.4byte	.LBB125
 3814 01d4 0A000000 		.4byte	.LBE125
 3815 01d8 0C000000 		.4byte	.LBB126
 3816 01dc 0E000000 		.4byte	.LBE126
 3817 01e0 10000000 		.4byte	.LBB127
 3818 01e4 12000000 		.4byte	.LBE127
 3819 01e8 16000000 		.4byte	.LBB128
 3820 01ec 18000000 		.4byte	.LBE128
 3821 01f0 00000000 		.4byte	0
 3822 01f4 00000000 		.4byte	0
 3823 01f8 00000000 		.4byte	.LFB185
 3824 01fc 60000000 		.4byte	.LFE185
 3825 0200 00000000 		.4byte	.LFB182
 3826 0204 16000000 		.4byte	.LFE182
 3827 0208 00000000 		.4byte	.LFB183
 3828 020c 22000000 		.4byte	.LFE183
 3829 0210 00000000 		.4byte	.LFB184
 3830 0214 24000000 		.4byte	.LFE184
 3831 0218 00000000 		.4byte	.LFB186
 3832 021c 4C000000 		.4byte	.LFE186
 3833 0220 00000000 		.4byte	.LFB187
 3834 0224 5A000000 		.4byte	.LFE187
 3835 0228 00000000 		.4byte	.LFB189
 3836 022c 1A000000 		.4byte	.LFE189
 3837 0230 00000000 		.4byte	.LFB190
 3838 0234 3A000000 		.4byte	.LFE190
 3839 0238 00000000 		.4byte	.LFB191
 3840 023c 3A000000 		.4byte	.LFE191
 3841 0240 00000000 		.4byte	.LFB188
 3842 0244 1E000000 		.4byte	.LFE188
 3843 0248 00000000 		.4byte	.LFB192
 3844 024c 04000000 		.4byte	.LFE192
 3845 0250 00000000 		.4byte	0
 3846 0254 00000000 		.4byte	0
 3847              		.section	.debug_line,"",%progbits
 3848              	.Ldebug_line0:
 3849 0000 5C050000 		.section	.debug_str,"MS",%progbits,1
 3849      02000103 
 3849      00000201 
 3849      FB0E0D00 
 3849      01010101 
 3850              	.LASF45:
 3851 0000 63685F74 		.ascii	"ch_threads_list\000"
 3851      68726561 
 3851      64735F6C 
 3851      69737400 
 3852              	.LASF46:
ARM GAS  /tmp/ccBk47cc.s 			page 69


 3853 0010 74687265 		.ascii	"threads_queue_t\000"
 3853      6164735F 
 3853      71756575 
 3853      655F7400 
 3854              	.LASF35:
 3855 0020 705F7761 		.ascii	"p_waiting\000"
 3855      6974696E 
 3855      6700
 3856              	.LASF131:
 3857 002a 63685363 		.ascii	"chSchDoReschedule\000"
 3857      68446F52 
 3857      65736368 
 3857      6564756C 
 3857      6500
 3858              	.LASF87:
 3859 003c 77746D74 		.ascii	"wtmtxp\000"
 3859      787000
 3860              	.LASF81:
 3861 0043 746D5F63 		.ascii	"tm_calibration_t\000"
 3861      616C6962 
 3861      72617469 
 3861      6F6E5F74 
 3861      00
 3862              	.LASF96:
 3863 0054 63686172 		.ascii	"char\000"
 3863      00
 3864              	.LASF113:
 3865 0059 71756575 		.ascii	"queue_fifo_remove\000"
 3865      655F6669 
 3865      666F5F72 
 3865      656D6F76 
 3865      6500
 3866              	.LASF76:
 3867 006b 72656761 		.ascii	"regarm_t\000"
 3867      726D5F74 
 3867      00
 3868              	.LASF27:
 3869 0074 705F7072 		.ascii	"p_prio\000"
 3869      696F00
 3870              	.LASF23:
 3871 007b 73797374 		.ascii	"systime_t\000"
 3871      696D655F 
 3871      7400
 3872              	.LASF94:
 3873 0085 6D5F6F77 		.ascii	"m_owner\000"
 3873      6E657200 
 3874              	.LASF90:
 3875 008d 735F7175 		.ascii	"s_queue\000"
 3875      65756500 
 3876              	.LASF36:
 3877 0095 705F6D73 		.ascii	"p_msgqueue\000"
 3877      67717565 
 3877      756500
 3878              	.LASF0:
 3879 00a0 756E7369 		.ascii	"unsigned int\000"
 3879      676E6564 
 3879      20696E74 
ARM GAS  /tmp/ccBk47cc.s 			page 70


 3879      00
 3880              	.LASF43:
 3881 00ad 74687265 		.ascii	"threads_list_t\000"
 3881      6164735F 
 3881      6C697374 
 3881      5F7400
 3882              	.LASF84:
 3883 00bc 77746F62 		.ascii	"wtobjp\000"
 3883      6A7000
 3884              	.LASF100:
 3885 00c3 706F7274 		.ascii	"port_lock\000"
 3885      5F6C6F63 
 3885      6B00
 3886              	.LASF73:
 3887 00cd 76746C69 		.ascii	"vtlist\000"
 3887      737400
 3888              	.LASF102:
 3889 00d4 706F7274 		.ascii	"port_lock_from_isr\000"
 3889      5F6C6F63 
 3889      6B5F6672 
 3889      6F6D5F69 
 3889      737200
 3890              	.LASF49:
 3891 00e7 63685F72 		.ascii	"ch_ready_list\000"
 3891      65616479 
 3891      5F6C6973 
 3891      7400
 3892              	.LASF75:
 3893 00f5 69646C65 		.ascii	"idle_thread_wa\000"
 3893      5F746872 
 3893      6561645F 
 3893      776100
 3894              	.LASF88:
 3895 0104 65776D61 		.ascii	"ewmask\000"
 3895      736B00
 3896              	.LASF47:
 3897 010b 63685F74 		.ascii	"ch_threads_queue\000"
 3897      68726561 
 3897      64735F71 
 3897      75657565 
 3897      00
 3898              	.LASF108:
 3899 011c 63685379 		.ascii	"chSysLockFromISR\000"
 3899      734C6F63 
 3899      6B46726F 
 3899      6D495352 
 3899      00
 3900              	.LASF106:
 3901 012d 63685365 		.ascii	"chSemFastSignalI\000"
 3901      6D466173 
 3901      74536967 
 3901      6E616C49 
 3901      00
 3902              	.LASF56:
 3903 013e 76746675 		.ascii	"vtfunc_t\000"
 3903      6E635F74 
 3903      00
ARM GAS  /tmp/ccBk47cc.s 			page 71


 3904              	.LASF128:
 3905 0147 63685363 		.ascii	"chSchReadyI\000"
 3905      68526561 
 3905      64794900 
 3906              	.LASF91:
 3907 0153 735F636E 		.ascii	"s_cnt\000"
 3907      7400
 3908              	.LASF68:
 3909 0159 63685F73 		.ascii	"ch_system_debug\000"
 3909      79737465 
 3909      6D5F6465 
 3909      62756700 
 3910              	.LASF114:
 3911 0169 5F736368 		.ascii	"_scheduler_init\000"
 3911      6564756C 
 3911      65725F69 
 3911      6E697400 
 3912              	.LASF10:
 3913 0179 75696E74 		.ascii	"uint32_t\000"
 3913      33325F74 
 3913      00
 3914              	.LASF21:
 3915 0182 6576656E 		.ascii	"eventmask_t\000"
 3915      746D6173 
 3915      6B5F7400 
 3916              	.LASF51:
 3917 018e 725F7072 		.ascii	"r_prio\000"
 3917      696F00
 3918              	.LASF63:
 3919 0195 76745F70 		.ascii	"vt_par\000"
 3919      617200
 3920              	.LASF89:
 3921 019c 63685F73 		.ascii	"ch_semaphore\000"
 3921      656D6170 
 3921      686F7265 
 3921      00
 3922              	.LASF19:
 3923 01a9 74707269 		.ascii	"tprio_t\000"
 3923      6F5F7400 
 3924              	.LASF58:
 3925 01b1 63685F76 		.ascii	"ch_virtual_timer\000"
 3925      69727475 
 3925      616C5F74 
 3925      696D6572 
 3925      00
 3926              	.LASF14:
 3927 01c2 6C6F6E67 		.ascii	"long long unsigned int\000"
 3927      206C6F6E 
 3927      6720756E 
 3927      7369676E 
 3927      65642069 
 3928              	.LASF120:
 3929 01d9 63685363 		.ascii	"chSchIsPreemptionRequired\000"
 3929      68497350 
 3929      7265656D 
 3929      7074696F 
 3929      6E526571 
ARM GAS  /tmp/ccBk47cc.s 			page 72


 3930              	.LASF22:
 3931 01f3 636E745F 		.ascii	"cnt_t\000"
 3931      7400
 3932              	.LASF110:
 3933 01f9 63685654 		.ascii	"chVTIsArmedI\000"
 3933      49734172 
 3933      6D656449 
 3933      00
 3934              	.LASF117:
 3935 0206 74696D65 		.ascii	"time\000"
 3935      00
 3936              	.LASF97:
 3937 020b 73656D61 		.ascii	"semaphore_t\000"
 3937      70686F72 
 3937      655F7400 
 3938              	.LASF29:
 3939 0217 705F6E65 		.ascii	"p_newer\000"
 3939      77657200 
 3940              	.LASF104:
 3941 021f 76616C75 		.ascii	"value\000"
 3941      6500
 3942              	.LASF65:
 3943 0225 63685F76 		.ascii	"ch_virtual_timers_list\000"
 3943      69727475 
 3943      616C5F74 
 3943      696D6572 
 3943      735F6C69 
 3944              	.LASF24:
 3945 023c 74687265 		.ascii	"thread_t\000"
 3945      61645F74 
 3945      00
 3946              	.LASF109:
 3947 0245 63685379 		.ascii	"chSysUnlockFromISR\000"
 3947      73556E6C 
 3947      6F636B46 
 3947      726F6D49 
 3947      535200
 3948              	.LASF126:
 3949 0258 2E2E2F2E 		.ascii	"../../../resources/chibios/ChibiOS_16.1.8/os/rt/src"
 3949      2E2F2E2E 
 3949      2F726573 
 3949      6F757263 
 3949      65732F63 
 3950 028b 2F636873 		.ascii	"/chschd.c\000"
 3950      6368642E 
 3950      6300
 3951              	.LASF2:
 3952 0295 73697A65 		.ascii	"size_t\000"
 3952      5F7400
 3953              	.LASF82:
 3954 029c 7264796D 		.ascii	"rdymsg\000"
 3954      736700
 3955              	.LASF80:
 3956 02a3 6F666673 		.ascii	"offset\000"
 3956      657400
 3957              	.LASF99:
 3958 02aa 5F426F6F 		.ascii	"_Bool\000"
ARM GAS  /tmp/ccBk47cc.s 			page 73


 3958      6C00
 3959              	.LASF130:
 3960 02b0 77616B65 		.ascii	"wakeup\000"
 3960      757000
 3961              	.LASF121:
 3962 02b7 63685363 		.ascii	"chSchDoRescheduleBehind\000"
 3962      68446F52 
 3962      65736368 
 3962      6564756C 
 3962      65426568 
 3963              	.LASF92:
 3964 02cf 63685F6D 		.ascii	"ch_mutex\000"
 3964      75746578 
 3964      00
 3965              	.LASF123:
 3966 02d8 63685363 		.ascii	"chSchRescheduleS\000"
 3966      68526573 
 3966      63686564 
 3966      756C6553 
 3966      00
 3967              	.LASF31:
 3968 02e9 705F6E61 		.ascii	"p_name\000"
 3968      6D6500
 3969              	.LASF61:
 3970 02f0 76745F64 		.ascii	"vt_delta\000"
 3970      656C7461 
 3970      00
 3971              	.LASF42:
 3972 02f9 74687265 		.ascii	"thread_reference_t\000"
 3972      61645F72 
 3972      65666572 
 3972      656E6365 
 3972      5F7400
 3973              	.LASF66:
 3974 030c 76745F6C 		.ascii	"vt_lasttime\000"
 3974      61737474 
 3974      696D6500 
 3975              	.LASF17:
 3976 0318 74737461 		.ascii	"tstate_t\000"
 3976      74655F74 
 3976      00
 3977              	.LASF30:
 3978 0321 705F6F6C 		.ascii	"p_older\000"
 3978      64657200 
 3979              	.LASF32:
 3980 0329 705F7374 		.ascii	"p_state\000"
 3980      61746500 
 3981              	.LASF3:
 3982 0331 75696E74 		.ascii	"uint8_t\000"
 3982      385F7400 
 3983              	.LASF41:
 3984 0339 705F6D70 		.ascii	"p_mpool\000"
 3984      6F6F6C00 
 3985              	.LASF39:
 3986 0341 705F6D74 		.ascii	"p_mtxlist\000"
 3986      786C6973 
 3986      7400
ARM GAS  /tmp/ccBk47cc.s 			page 74


 3987              	.LASF44:
 3988 034b 63685F74 		.ascii	"ch_thread\000"
 3988      68726561 
 3988      6400
 3989              	.LASF67:
 3990 0355 73797374 		.ascii	"system_debug_t\000"
 3990      656D5F64 
 3990      65627567 
 3990      5F7400
 3991              	.LASF12:
 3992 0364 6C6F6E67 		.ascii	"long long int\000"
 3992      206C6F6E 
 3992      6720696E 
 3992      7400
 3993              	.LASF50:
 3994 0372 725F7175 		.ascii	"r_queue\000"
 3994      65756500 
 3995              	.LASF53:
 3996 037a 725F6E65 		.ascii	"r_newer\000"
 3996      77657200 
 3997              	.LASF20:
 3998 0382 6D73675F 		.ascii	"msg_t\000"
 3998      7400
 3999              	.LASF78:
 4000 0388 636F6E74 		.ascii	"context\000"
 4000      65787400 
 4001              	.LASF33:
 4002 0390 705F666C 		.ascii	"p_flags\000"
 4002      61677300 
 4003              	.LASF57:
 4004 0398 76697274 		.ascii	"virtual_timer_t\000"
 4004      75616C5F 
 4004      74696D65 
 4004      725F7400 
 4005              	.LASF127:
 4006 03a8 2F686F6D 		.ascii	"/home/madog/Documents/proyectos/CYCLE/repos/harvest"
 4006      652F6D61 
 4006      646F672F 
 4006      446F6375 
 4006      6D656E74 
 4007 03db 65722F73 		.ascii	"er/src\000"
 4007      726300
 4008              	.LASF54:
 4009 03e2 725F6F6C 		.ascii	"r_older\000"
 4009      64657200 
 4010              	.LASF69:
 4011 03ea 70616E69 		.ascii	"panic_msg\000"
 4011      635F6D73 
 4011      6700
 4012              	.LASF37:
 4013 03f4 705F6D73 		.ascii	"p_msg\000"
 4013      6700
 4014              	.LASF16:
 4015 03fa 746D6F64 		.ascii	"tmode_t\000"
 4015      655F7400 
 4016              	.LASF74:
 4017 0402 6D61696E 		.ascii	"mainthread\000"
ARM GAS  /tmp/ccBk47cc.s 			page 75


 4017      74687265 
 4017      616400
 4018              	.LASF129:
 4019 040d 63685363 		.ascii	"chSchIsRescRequiredI\000"
 4019      68497352 
 4019      65736352 
 4019      65717569 
 4019      72656449 
 4020              	.LASF6:
 4021 0422 75696E74 		.ascii	"uint16_t\000"
 4021      31365F74 
 4021      00
 4022              	.LASF15:
 4023 042b 7274636E 		.ascii	"rtcnt_t\000"
 4023      745F7400 
 4024              	.LASF40:
 4025 0433 705F7265 		.ascii	"p_realprio\000"
 4025      616C7072 
 4025      696F00
 4026              	.LASF5:
 4027 043e 73686F72 		.ascii	"short int\000"
 4027      7420696E 
 4027      7400
 4028              	.LASF55:
 4029 0448 725F6375 		.ascii	"r_current\000"
 4029      7272656E 
 4029      7400
 4030              	.LASF38:
 4031 0452 705F6570 		.ascii	"p_epending\000"
 4031      656E6469 
 4031      6E6700
 4032              	.LASF93:
 4033 045d 6D5F7175 		.ascii	"m_queue\000"
 4033      65756500 
 4034              	.LASF9:
 4035 0465 6C6F6E67 		.ascii	"long int\000"
 4035      20696E74 
 4035      00
 4036              	.LASF79:
 4037 046e 706F7274 		.ascii	"port_intctx\000"
 4037      5F696E74 
 4037      63747800 
 4038              	.LASF124:
 4039 047a 49544D5F 		.ascii	"ITM_RxBuffer\000"
 4039      52784275 
 4039      66666572 
 4039      00
 4040              	.LASF71:
 4041 0487 63685F73 		.ascii	"ch_system\000"
 4041      79737465 
 4041      6D00
 4042              	.LASF105:
 4043 0491 5F5F7365 		.ascii	"__set_BASEPRI\000"
 4043      745F4241 
 4043      53455052 
 4043      4900
 4044              	.LASF25:
ARM GAS  /tmp/ccBk47cc.s 			page 76


 4045 049f 705F6E65 		.ascii	"p_next\000"
 4045      787400
 4046              	.LASF13:
 4047 04a6 75696E74 		.ascii	"uint64_t\000"
 4047      36345F74 
 4047      00
 4048              	.LASF28:
 4049 04af 705F6374 		.ascii	"p_ctx\000"
 4049      7800
 4050              	.LASF72:
 4051 04b5 726C6973 		.ascii	"rlist\000"
 4051      7400
 4052              	.LASF111:
 4053 04bb 71756575 		.ascii	"queue_dequeue\000"
 4053      655F6465 
 4053      71756575 
 4053      6500
 4054              	.LASF115:
 4055 04c9 63685363 		.ascii	"chSchGoSleepS\000"
 4055      68476F53 
 4055      6C656570 
 4055      5300
 4056              	.LASF26:
 4057 04d7 705F7072 		.ascii	"p_prev\000"
 4057      657600
 4058              	.LASF18:
 4059 04de 74726566 		.ascii	"trefs_t\000"
 4059      735F7400 
 4060              	.LASF11:
 4061 04e6 6C6F6E67 		.ascii	"long unsigned int\000"
 4061      20756E73 
 4061      69676E65 
 4061      6420696E 
 4061      7400
 4062              	.LASF48:
 4063 04f8 72656164 		.ascii	"ready_list_t\000"
 4063      795F6C69 
 4063      73745F74 
 4063      00
 4064              	.LASF119:
 4065 0505 63685363 		.ascii	"chSchGoSleepTimeoutS\000"
 4065      68476F53 
 4065      6C656570 
 4065      54696D65 
 4065      6F757453 
 4066              	.LASF8:
 4067 051a 696E7433 		.ascii	"int32_t\000"
 4067      325F7400 
 4068              	.LASF116:
 4069 0522 6E657773 		.ascii	"newstate\000"
 4069      74617465 
 4069      00
 4070              	.LASF86:
 4071 052b 77747365 		.ascii	"wtsemp\000"
 4071      6D7000
 4072              	.LASF125:
 4073 0532 474E5520 		.ascii	"GNU C 4.6.1\000"
ARM GAS  /tmp/ccBk47cc.s 			page 77


 4073      4320342E 
 4073      362E3100 
 4074              	.LASF98:
 4075 053e 6D757465 		.ascii	"mutex_t\000"
 4075      785F7400 
 4076              	.LASF107:
 4077 0546 71756575 		.ascii	"queue_init\000"
 4077      655F696E 
 4077      697400
 4078              	.LASF103:
 4079 0551 706F7274 		.ascii	"port_unlock_from_isr\000"
 4079      5F756E6C 
 4079      6F636B5F 
 4079      66726F6D 
 4079      5F697372 
 4080              	.LASF4:
 4081 0566 756E7369 		.ascii	"unsigned char\000"
 4081      676E6564 
 4081      20636861 
 4081      7200
 4082              	.LASF64:
 4083 0574 76697274 		.ascii	"virtual_timers_list_t\000"
 4083      75616C5F 
 4083      74696D65 
 4083      72735F6C 
 4083      6973745F 
 4084              	.LASF34:
 4085 058a 705F7265 		.ascii	"p_refs\000"
 4085      667300
 4086              	.LASF118:
 4087 0591 63685363 		.ascii	"chSchWakeupS\000"
 4087      6857616B 
 4087      65757053 
 4087      00
 4088              	.LASF59:
 4089 059e 76745F6E 		.ascii	"vt_next\000"
 4089      65787400 
 4090              	.LASF122:
 4091 05a6 63685363 		.ascii	"chSchDoRescheduleAhead\000"
 4091      68446F52 
 4091      65736368 
 4091      6564756C 
 4091      65416865 
 4092              	.LASF70:
 4093 05bd 63685F73 		.ascii	"ch_system_t\000"
 4093      79737465 
 4093      6D5F7400 
 4094              	.LASF85:
 4095 05c9 77747472 		.ascii	"wttrp\000"
 4095      7000
 4096              	.LASF95:
 4097 05cf 6D5F6E65 		.ascii	"m_next\000"
 4097      787400
 4098              	.LASF1:
 4099 05d6 7369676E 		.ascii	"signed char\000"
 4099      65642063 
 4099      68617200 
ARM GAS  /tmp/ccBk47cc.s 			page 78


 4100              	.LASF7:
 4101 05e2 73686F72 		.ascii	"short unsigned int\000"
 4101      7420756E 
 4101      7369676E 
 4101      65642069 
 4101      6E7400
 4102              	.LASF52:
 4103 05f5 725F6374 		.ascii	"r_ctx\000"
 4103      7800
 4104              	.LASF77:
 4105 05fb 73746B61 		.ascii	"stkalign_t\000"
 4105      6C69676E 
 4105      5F7400
 4106              	.LASF112:
 4107 0606 5F5F6675 		.ascii	"__func__\000"
 4107      6E635F5F 
 4107      00
 4108              	.LASF62:
 4109 060f 76745F66 		.ascii	"vt_func\000"
 4109      756E6300 
 4110              	.LASF101:
 4111 0617 706F7274 		.ascii	"port_unlock\000"
 4111      5F756E6C 
 4111      6F636B00 
 4112              	.LASF60:
 4113 0623 76745F70 		.ascii	"vt_prev\000"
 4113      72657600 
 4114              	.LASF83:
 4115 062b 65786974 		.ascii	"exitcode\000"
 4115      636F6465 
 4115      00
 4116              		.ident	"GCC: (Sourcery CodeBench Lite 2011.09-69) 4.6.1"
ARM GAS  /tmp/ccBk47cc.s 			page 79


DEFINED SYMBOLS
                            *ABS*:00000000 chschd.c
     /tmp/ccBk47cc.s:19     .text.wakeup:00000000 $t
     /tmp/ccBk47cc.s:24     .text.wakeup:00000000 wakeup
     /tmp/ccBk47cc.s:56     .text.wakeup:00000010 $d
     /tmp/ccBk47cc.s:64     .text.wakeup:00000018 $t
     /tmp/ccBk47cc.s:825    .bss.ch:00000000 .LANCHOR0
     /tmp/ccBk47cc.s:166    .text._scheduler_init:00000000 $t
     /tmp/ccBk47cc.s:172    .text._scheduler_init:00000000 _scheduler_init
     /tmp/ccBk47cc.s:209    .text.chSchReadyI:00000000 $t
     /tmp/ccBk47cc.s:215    .text.chSchReadyI:00000000 chSchReadyI
     /tmp/ccBk47cc.s:257    .text.chSchGoSleepS:00000000 $t
     /tmp/ccBk47cc.s:263    .text.chSchGoSleepS:00000000 chSchGoSleepS
     /tmp/ccBk47cc.s:325    .text.chSchGoSleepTimeoutS:00000000 $t
     /tmp/ccBk47cc.s:331    .text.chSchGoSleepTimeoutS:00000000 chSchGoSleepTimeoutS
     /tmp/ccBk47cc.s:395    .text.chSchWakeupS:00000000 $t
     /tmp/ccBk47cc.s:401    .text.chSchWakeupS:00000000 chSchWakeupS
     /tmp/ccBk47cc.s:532    .text.chSchIsPreemptionRequired:00000000 $t
     /tmp/ccBk47cc.s:538    .text.chSchIsPreemptionRequired:00000000 chSchIsPreemptionRequired
     /tmp/ccBk47cc.s:566    .text.chSchDoRescheduleBehind:00000000 $t
     /tmp/ccBk47cc.s:572    .text.chSchDoRescheduleBehind:00000000 chSchDoRescheduleBehind
     /tmp/ccBk47cc.s:673    .text.chSchDoRescheduleAhead:00000000 $t
     /tmp/ccBk47cc.s:679    .text.chSchDoRescheduleAhead:00000000 chSchDoRescheduleAhead
     /tmp/ccBk47cc.s:767    .text.chSchRescheduleS:00000000 $t
     /tmp/ccBk47cc.s:773    .text.chSchRescheduleS:00000000 chSchRescheduleS
     /tmp/ccBk47cc.s:803    .text.chSchDoReschedule:00000000 $t
     /tmp/ccBk47cc.s:809    .text.chSchDoReschedule:00000000 chSchDoReschedule
     /tmp/ccBk47cc.s:828    .bss.ch:00000000 ch
     /tmp/ccBk47cc.s:824    .bss.ch:00000000 $d
                     .debug_frame:00000010 $d

UNDEFINED SYMBOLS
_port_switch
chVTDoSetI
chVTDoResetI
