ARM GAS  /tmp/ccLpew8u.s 			page 1


   1              		.syntax unified
   2              		.cpu cortex-m3
   3              		.fpu softvfp
   4              		.eabi_attribute 20, 1
   5              		.eabi_attribute 21, 1
   6              		.eabi_attribute 23, 3
   7              		.eabi_attribute 24, 1
   8              		.eabi_attribute 25, 1
   9              		.eabi_attribute 26, 1
  10              		.eabi_attribute 30, 2
  11              		.eabi_attribute 34, 1
  12              		.eabi_attribute 18, 4
  13              		.thumb
  14              		.file	"chtm.c"
  15              		.text
  16              	.Ltext0:
  17              		.cfi_sections	.debug_frame
  18              		.section	.text.chTMObjectInit,"ax",%progbits
  19              		.align	2
  20              		.p2align 4,,15
  21              		.global	chTMObjectInit
  22              		.thumb
  23              		.thumb_func
  24              		.type	chTMObjectInit, %function
  25              	chTMObjectInit:
  26              	.LFB184:
  27              		.file 1 "../../../resources/chibios/ChibiOS_16.1.8/os/rt/src/chtm.c"
  28              		.loc 1 97 0
  29              		.cfi_startproc
  30              		@ args = 0, pretend = 0, frame = 0
  31              		@ frame_needed = 0, uses_anonymous_args = 0
  32              		@ link register save eliminated.
  33              	.LVL0:
  34              		.loc 1 103 0
  35 0000 0022     		movs	r2, #0
  36 0002 0023     		movs	r3, #0
  37 0004 C0E90423 		strd	r2, [r0, #16]
  38              		.loc 1 100 0
  39 0008 0023     		movs	r3, #0
  40              		.loc 1 99 0
  41 000a 4FF0FF32 		mov	r2, #-1
  42              		.loc 1 100 0
  43 000e 80E80C00 		stmia	r0, {r2, r3}
  44              		.loc 1 101 0
  45 0012 8360     		str	r3, [r0, #8]
  46              		.loc 1 102 0
  47 0014 C360     		str	r3, [r0, #12]
  48              		.loc 1 104 0
  49 0016 7047     		bx	lr
  50              		.cfi_endproc
  51              	.LFE184:
  52              		.size	chTMObjectInit, .-chTMObjectInit
  53 0018 AFF30080 		.section	.text.chTMStartMeasurementX,"ax",%progbits
  53      AFF30080 
  54              		.align	2
  55              		.p2align 4,,15
  56              		.global	chTMStartMeasurementX
ARM GAS  /tmp/ccLpew8u.s 			page 2


  57              		.thumb
  58              		.thumb_func
  59              		.type	chTMStartMeasurementX, %function
  60              	chTMStartMeasurementX:
  61              	.LFB185:
  62              		.loc 1 114 0
  63              		.cfi_startproc
  64              		@ args = 0, pretend = 0, frame = 0
  65              		@ frame_needed = 0, uses_anonymous_args = 0
  66              		@ link register save eliminated.
  67              	.LVL1:
  68              	.LBB14:
  69              	.LBB15:
  70              		.file 2 "../../../resources/chibios/ChibiOS_16.1.8/os/rt/ports/ARMCMx/chcore_v7m.h"
  71              		.loc 2 570 0
  72 0000 4FF48051 		mov	r1, #4096
  73 0004 CEF20001 		movt	r1, 57344
  74 0008 4B68     		ldr	r3, [r1, #4]
  75              	.LBE15:
  76              	.LBE14:
  77              		.loc 1 116 0
  78 000a 8360     		str	r3, [r0, #8]
  79              		.loc 1 117 0
  80 000c 7047     		bx	lr
  81              		.cfi_endproc
  82              	.LFE185:
  83              		.size	chTMStartMeasurementX, .-chTMStartMeasurementX
  84 000e 00BF     		.section	.text.chTMStopMeasurementX,"ax",%progbits
  85              		.align	2
  86              		.p2align 4,,15
  87              		.global	chTMStopMeasurementX
  88              		.thumb
  89              		.thumb_func
  90              		.type	chTMStopMeasurementX, %function
  91              	chTMStopMeasurementX:
  92              	.LFB186:
  93              		.loc 1 127 0
  94              		.cfi_startproc
  95              		@ args = 0, pretend = 0, frame = 0
  96              		@ frame_needed = 0, uses_anonymous_args = 0
  97              		@ link register save eliminated.
  98              	.LVL2:
  99              	.LBB16:
 100              	.LBB17:
 101              		.loc 2 570 0
 102 0000 4FF48053 		mov	r3, #4096
 103 0004 CEF20003 		movt	r3, 57344
 104              	.LBE17:
 105              	.LBE16:
 106              		.loc 1 129 0
 107 0008 40F20002 		movw	r2, #:lower16:ch
 108              		.loc 1 127 0
 109 000c 30B4     		push	{r4, r5}
 110              	.LCFI0:
 111              		.cfi_def_cfa_offset 8
 112              		.cfi_offset 5, -4
 113              		.cfi_offset 4, -8
ARM GAS  /tmp/ccLpew8u.s 			page 3


 114              	.LBB19:
 115              	.LBB20:
 116              		.loc 1 58 0
 117 000e 8168     		ldr	r1, [r0, #8]
 118              	.LBE20:
 119              	.LBE19:
 120              	.LBB22:
 121              	.LBB18:
 122              		.loc 2 570 0
 123 0010 5C68     		ldr	r4, [r3, #4]
 124              	.LBE18:
 125              	.LBE22:
 126              		.loc 1 129 0
 127 0012 C0F20002 		movt	r2, #:upper16:ch
 128 0016 136F     		ldr	r3, [r2, #112]
 129              	.LVL3:
 130              	.LBB23:
 131              	.LBB21:
 132              		.loc 1 57 0
 133 0018 C568     		ldr	r5, [r0, #12]
 134              		.loc 1 58 0
 135 001a 611A     		subs	r1, r4, r1
 136 001c C91A     		subs	r1, r1, r3
 137              		.loc 1 57 0
 138 001e 0135     		adds	r5, r5, #1
 139              		.loc 1 59 0
 140 0020 D0E90423 		ldrd	r2, [r0, #16]
 141              	.LVL4:
 142 0024 5218     		adds	r2, r2, r1
 143 0026 43F10003 		adc	r3, r3, #0
 144              		.loc 1 60 0
 145 002a 4468     		ldr	r4, [r0, #4]
 146              	.LVL5:
 147              		.loc 1 59 0
 148 002c C0E90423 		strd	r2, [r0, #16]
 149              		.loc 1 63 0
 150 0030 0368     		ldr	r3, [r0, #0]
 151              		.loc 1 60 0
 152 0032 A142     		cmp	r1, r4
 153              		.loc 1 61 0
 154 0034 88BF     		it	hi
 155 0036 4160     		strhi	r1, [r0, #4]
 156              		.loc 1 63 0
 157 0038 9942     		cmp	r1, r3
 158              		.loc 1 57 0
 159 003a C560     		str	r5, [r0, #12]
 160              		.loc 1 58 0
 161 003c 8160     		str	r1, [r0, #8]
 162              		.loc 1 64 0
 163 003e 38BF     		it	cc
 164 0040 0160     		strcc	r1, [r0, #0]
 165              	.LBE21:
 166              	.LBE23:
 167              		.loc 1 130 0
 168 0042 30BC     		pop	{r4, r5}
 169 0044 7047     		bx	lr
 170              		.cfi_endproc
ARM GAS  /tmp/ccLpew8u.s 			page 4


 171              	.LFE186:
 172              		.size	chTMStopMeasurementX, .-chTMStopMeasurementX
 173              		.section	.text._tm_init,"ax",%progbits
 174              		.align	2
 175              		.p2align 4,,15
 176              		.global	_tm_init
 177              		.thumb
 178              		.thumb_func
 179              		.type	_tm_init, %function
 180              	_tm_init:
 181              	.LFB183:
 182              		.loc 1 77 0
 183              		.cfi_startproc
 184              		@ args = 0, pretend = 0, frame = 24
 185              		@ frame_needed = 0, uses_anonymous_args = 0
 186 0000 10B5     		push	{r4, lr}
 187              	.LCFI1:
 188              		.cfi_def_cfa_offset 8
 189              		.cfi_offset 14, -4
 190              		.cfi_offset 4, -8
 191              		.loc 1 83 0
 192 0002 40F20004 		movw	r4, #:lower16:ch
 193              		.loc 1 77 0
 194 0006 86B0     		sub	sp, sp, #24
 195              	.LCFI2:
 196              		.cfi_def_cfa_offset 32
 197              		.loc 1 83 0
 198 0008 0023     		movs	r3, #0
 199 000a C0F20004 		movt	r4, #:upper16:ch
 200              	.LBB24:
 201              	.LBB25:
 202              		.loc 1 99 0
 203 000e 4FF0FF32 		mov	r2, #-1
 204              		.loc 1 100 0
 205 0012 8DE80C00 		stmia	sp, {r2, r3}
 206              	.LBE25:
 207              	.LBE24:
 208              		.loc 1 85 0
 209 0016 6846     		mov	r0, sp
 210              	.LBB28:
 211              	.LBB26:
 212              		.loc 1 103 0
 213 0018 0022     		movs	r2, #0
 214              	.LBE26:
 215              	.LBE28:
 216              		.loc 1 83 0
 217 001a 2367     		str	r3, [r4, #112]
 218              	.LVL6:
 219              	.LBB29:
 220              	.LBB27:
 221              		.loc 1 101 0
 222 001c 0293     		str	r3, [sp, #8]
 223              		.loc 1 102 0
 224 001e 0393     		str	r3, [sp, #12]
 225              		.loc 1 103 0
 226 0020 0023     		movs	r3, #0
 227 0022 CDE90423 		strd	r2, [sp, #16]
ARM GAS  /tmp/ccLpew8u.s 			page 5


 228              	.LBE27:
 229              	.LBE29:
 230              		.loc 1 85 0
 231 0026 FFF7FEFF 		bl	chTMStartMeasurementX
 232              		.loc 1 86 0
 233 002a 6846     		mov	r0, sp
 234 002c FFF7FEFF 		bl	chTMStopMeasurementX
 235              		.loc 1 87 0
 236 0030 029B     		ldr	r3, [sp, #8]
 237 0032 2367     		str	r3, [r4, #112]
 238              		.loc 1 88 0
 239 0034 06B0     		add	sp, sp, #24
 240 0036 10BD     		pop	{r4, pc}
 241              		.cfi_endproc
 242              	.LFE183:
 243              		.size	_tm_init, .-_tm_init
 244 0038 AFF30080 		.section	.text.chTMChainMeasurementToX,"ax",%progbits
 244      AFF30080 
 245              		.align	2
 246              		.p2align 4,,15
 247              		.global	chTMChainMeasurementToX
 248              		.thumb
 249              		.thumb_func
 250              		.type	chTMChainMeasurementToX, %function
 251              	chTMChainMeasurementToX:
 252              	.LFB187:
 253              		.loc 1 145 0
 254              		.cfi_startproc
 255              		@ args = 0, pretend = 0, frame = 0
 256              		@ frame_needed = 0, uses_anonymous_args = 0
 257              		@ link register save eliminated.
 258              	.LVL7:
 259              	.LBB30:
 260              	.LBB31:
 261              		.loc 2 570 0
 262 0000 4FF48053 		mov	r3, #4096
 263 0004 CEF20003 		movt	r3, 57344
 264 0008 5B68     		ldr	r3, [r3, #4]
 265              	.LBE31:
 266              	.LBE30:
 267              		.loc 1 145 0
 268 000a 30B4     		push	{r4, r5}
 269              	.LCFI3:
 270              		.cfi_def_cfa_offset 8
 271              		.cfi_offset 5, -4
 272              		.cfi_offset 4, -8
 273              		.loc 1 148 0
 274 000c 8B60     		str	r3, [r1, #8]
 275              	.LVL8:
 276              	.LBB32:
 277              	.LBB33:
 278              		.loc 1 58 0
 279 000e 8168     		ldr	r1, [r0, #8]
 280              	.LVL9:
 281              		.loc 1 57 0
 282 0010 C568     		ldr	r5, [r0, #12]
 283              		.loc 1 58 0
ARM GAS  /tmp/ccLpew8u.s 			page 6


 284 0012 591A     		subs	r1, r3, r1
 285              		.loc 1 57 0
 286 0014 0135     		adds	r5, r5, #1
 287              		.loc 1 59 0
 288 0016 D0E90423 		ldrd	r2, [r0, #16]
 289 001a 5218     		adds	r2, r2, r1
 290 001c 43F10003 		adc	r3, r3, #0
 291              	.LVL10:
 292              		.loc 1 60 0
 293 0020 4468     		ldr	r4, [r0, #4]
 294              		.loc 1 59 0
 295 0022 C0E90423 		strd	r2, [r0, #16]
 296              		.loc 1 63 0
 297 0026 0368     		ldr	r3, [r0, #0]
 298              		.loc 1 60 0
 299 0028 A142     		cmp	r1, r4
 300              		.loc 1 61 0
 301 002a 88BF     		it	hi
 302 002c 4160     		strhi	r1, [r0, #4]
 303              		.loc 1 63 0
 304 002e 9942     		cmp	r1, r3
 305              		.loc 1 57 0
 306 0030 C560     		str	r5, [r0, #12]
 307              		.loc 1 58 0
 308 0032 8160     		str	r1, [r0, #8]
 309              		.loc 1 64 0
 310 0034 38BF     		it	cc
 311 0036 0160     		strcc	r1, [r0, #0]
 312              	.LBE33:
 313              	.LBE32:
 314              		.loc 1 152 0
 315 0038 30BC     		pop	{r4, r5}
 316 003a 7047     		bx	lr
 317              		.cfi_endproc
 318              	.LFE187:
 319              		.size	chTMChainMeasurementToX, .-chTMChainMeasurementToX
 320 003c AFF30080 		.text
 321              	.Letext0:
 322              		.file 3 "/home/madog/programs/CodeSourcery/Sourcery_CodeBench_Lite_for_ARM_EABI/bin/../lib/gcc/arm
 323              		.file 4 "../../../resources/chibios/ChibiOS_16.1.8/os/rt/ports/ARMCMx/compilers/GCC/chtypes.h"
 324              		.file 5 "../../../resources/chibios/ChibiOS_16.1.8/os/rt/include/chsystypes.h"
 325              		.file 6 "../../../resources/chibios/ChibiOS_16.1.8/os/rt/include/chschd.h"
 326              		.file 7 "../../../resources/chibios/ChibiOS_16.1.8/os/ext/CMSIS/include/core_cm3.h"
 327              		.file 8 "../../../resources/chibios/ChibiOS_16.1.8/os/rt/ports/ARMCMx/chcore.h"
 328              		.file 9 "../../../resources/chibios/ChibiOS_16.1.8/os/rt/include/chtm.h"
 329              		.file 10 "../../../resources/chibios/ChibiOS_16.1.8/os/rt/include/chsem.h"
 330              		.file 11 "../../../resources/chibios/ChibiOS_16.1.8/os/rt/include/chmtx.h"