ARM GAS  /tmp/cc6BEziT.s 			page 1


   1              		.syntax unified
   2              		.cpu cortex-m3
   3              		.fpu softvfp
   4              		.eabi_attribute 20, 1
   5              		.eabi_attribute 21, 1
   6              		.eabi_attribute 23, 3
   7              		.eabi_attribute 24, 1
   8              		.eabi_attribute 25, 1
   9              		.eabi_attribute 26, 1
  10              		.eabi_attribute 30, 2
  11              		.eabi_attribute 34, 1
  12              		.eabi_attribute 18, 4
  13              		.thumb
  14              		.file	"crt1.c"
  15              		.text
  16              	.Ltext0:
  17              		.cfi_sections	.debug_frame
  18              		.section	.text.__core_init,"ax",%progbits
  19              		.align	2
  20              		.p2align 4,,15
  21              		.weak	__core_init
  22              		.thumb
  23              		.thumb_func
  24              		.type	__core_init, %function
  25              	__core_init:
  26              	.LFB63:
  27              		.file 1 "../../../resources/chibios/ChibiOS_16.1.8/os/common/ports/ARMCMx/compilers/GCC/crt1.c"
  28              		.loc 1 136 0
  29              		.cfi_startproc
  30              		@ args = 0, pretend = 0, frame = 0
  31              		@ frame_needed = 0, uses_anonymous_args = 0
  32              		@ link register save eliminated.
  33              		.loc 1 142 0
  34 0000 7047     		bx	lr
  35              		.cfi_endproc
  36              	.LFE63:
  37              		.size	__core_init, .-__core_init
  38 0002 00BFAFF3 		.section	.text.__early_init,"ax",%progbits
  38      0080AFF3 
  38      0080AFF3 
  38      0080
  39              		.align	2
  40              		.p2align 4,,15
  41              		.weak	__early_init
  42              		.thumb
  43              		.thumb_func
  44              		.type	__early_init, %function
  45              	__early_init:
  46              	.LFB64:
  47              		.loc 1 155 0
  48              		.cfi_startproc
  49              		@ args = 0, pretend = 0, frame = 0
  50              		@ frame_needed = 0, uses_anonymous_args = 0
  51              		@ link register save eliminated.
  52              		.loc 1 155 0
  53 0000 7047     		bx	lr
  54              		.cfi_endproc
ARM GAS  /tmp/cc6BEziT.s 			page 2


  55              	.LFE64:
  56              		.size	__early_init, .-__early_init
  57 0002 00BFAFF3 		.section	.text.__late_init,"ax",%progbits
  57      0080AFF3 
  57      0080AFF3 
  57      0080
  58              		.align	2
  59              		.p2align 4,,15
  60              		.weak	__late_init
  61              		.thumb
  62              		.thumb_func
  63              		.type	__late_init, %function
  64              	__late_init:
  65              	.LFB65:
  66              		.loc 1 169 0
  67              		.cfi_startproc
  68              		@ args = 0, pretend = 0, frame = 0
  69              		@ frame_needed = 0, uses_anonymous_args = 0
  70              		@ link register save eliminated.
  71              		.loc 1 169 0
  72 0000 7047     		bx	lr
  73              		.cfi_endproc
  74              	.LFE65:
  75              		.size	__late_init, .-__late_init
  76 0002 00BFAFF3 		.section	.text.__default_exit,"ax",%progbits
  76      0080AFF3 
  76      0080AFF3 
  76      0080
  77              		.align	2
  78              		.p2align 4,,15
  79              		.weak	__default_exit
  80              		.thumb
  81              		.thumb_func
  82              		.type	__default_exit, %function
  83              	__default_exit:
  84              	.LFB66:
  85              		.loc 1 182 0
  86              		.cfi_startproc
  87              		@ Volatile: function does not return.
  88              		@ args = 0, pretend = 0, frame = 0
  89              		@ frame_needed = 0, uses_anonymous_args = 0
  90              		@ link register save eliminated.
  91              	.L5:
  92 0000 FEE7     		b	.L5
  93              		.cfi_endproc
  94              	.LFE66:
  95              		.size	__default_exit, .-__default_exit
  96 0002 00BFAFF3 		.section	.text.__init_ram_areas,"ax",%progbits
  96      0080AFF3 
  96      0080AFF3 
  96      0080
  97              		.align	2
  98              		.p2align 4,,15
  99              		.global	__init_ram_areas
 100              		.thumb
 101              		.thumb_func
 102              		.type	__init_ram_areas, %function
ARM GAS  /tmp/cc6BEziT.s 			page 3


 103              	__init_ram_areas:
 104              	.LFB67:
 105              		.loc 1 192 0
 106              		.cfi_startproc
 107              		@ args = 0, pretend = 0, frame = 0
 108              		@ frame_needed = 0, uses_anonymous_args = 0
 109              		@ link register save eliminated.
 110              	.LVL0:
 111              		.loc 1 192 0
 112 0000 2DE9F001 		push	{r4, r5, r6, r7, r8}
 113              	.LCFI0:
 114              		.cfi_def_cfa_offset 20
 115              		.cfi_offset 8, -4
 116              		.cfi_offset 7, -8
 117              		.cfi_offset 6, -12
 118              		.cfi_offset 5, -16
 119              		.cfi_offset 4, -20
 120              		.loc 1 194 0
 121 0004 40F20007 		movw	r7, #:lower16:.LANCHOR0
 122 0008 C0F20007 		movt	r7, #:upper16:.LANCHOR0
 123 000c 07F1800C 		add	ip, r7, #128
 124              	.LBB2:
 125              		.loc 1 209 0
 126 0010 0024     		movs	r4, #0
 127              	.LVL1:
 128              	.L11:
 129              		.loc 1 198 0
 130 0012 7E68     		ldr	r6, [r7, #4]
 131              		.loc 1 201 0
 132 0014 BD68     		ldr	r5, [r7, #8]
 133              		.loc 1 197 0
 134 0016 3968     		ldr	r1, [r7, #0]
 135              	.LVL2:
 136              		.loc 1 201 0
 137 0018 AE42     		cmp	r6, r5
 138 001a 26D2     		bcs	.L7
 139              		.loc 1 202 0
 140 001c 0A46     		mov	r2, r1
 141 001e 52F8048B 		ldr	r8, [r2], #4
 142 0022 3346     		mov	r3, r6
 143 0024 F043     		mvns	r0, r6
 144 0026 43F8048B 		str	r8, [r3], #4
 145              	.LVL3:
 146 002a 2818     		adds	r0, r5, r0
 147              		.loc 1 201 0
 148 002c AB42     		cmp	r3, r5
 149 002e C0F38000 		ubfx	r0, r0, #2, #1
 150 0032 14D2     		bcs	.L26
 151 0034 28B1     		cbz	r0, .L8
 152              		.loc 1 202 0
 153 0036 4968     		ldr	r1, [r1, #4]
 154 0038 0432     		adds	r2, r2, #4
 155 003a 43F8041B 		str	r1, [r3], #4
 156              	.LVL4:
 157              		.loc 1 201 0
 158 003e AB42     		cmp	r3, r5
 159 0040 0DD2     		bcs	.L26
ARM GAS  /tmp/cc6BEziT.s 			page 4


 160              	.L8:
 161              		.loc 1 202 0
 162 0042 1046     		mov	r0, r2
 163 0044 50F8048B 		ldr	r8, [r0], #4
 164 0048 1946     		mov	r1, r3
 165 004a 41F8048B 		str	r8, [r1], #4
 166 004e D2F80480 		ldr	r8, [r2, #4]
 167 0052 021D     		adds	r2, r0, #4
 168 0054 C3F80480 		str	r8, [r3, #4]
 169              		.loc 1 203 0
 170 0058 0B1D     		adds	r3, r1, #4
 171              		.loc 1 201 0
 172 005a AB42     		cmp	r3, r5
 173 005c F1D3     		bcc	.L8
 174              	.L26:
 175              		.loc 1 192 0
 176 005e F343     		mvns	r3, r6
 177 0060 5A19     		adds	r2, r3, r5
 178 0062 22F00305 		bic	r5, r2, #3
 179 0066 0435     		adds	r5, r5, #4
 180 0068 7619     		adds	r6, r6, r5
 181              	.L7:
 182              	.LVL5:
 183              		.loc 1 208 0 discriminator 1
 184 006a F968     		ldr	r1, [r7, #12]
 185 006c 8E42     		cmp	r6, r1
 186 006e 14D2     		bcs	.L9
 187              		.loc 1 209 0
 188 0070 3346     		mov	r3, r6
 189 0072 F243     		mvns	r2, r6
 190 0074 43F8044B 		str	r4, [r3], #4
 191 0078 8818     		adds	r0, r1, r2
 192              		.loc 1 208 0
 193 007a 8B42     		cmp	r3, r1
 194 007c C0F38002 		ubfx	r2, r0, #2, #1
 195 0080 0BD2     		bcs	.L9
 196 0082 1AB1     		cbz	r2, .L12
 197              		.loc 1 209 0
 198 0084 43F8044B 		str	r4, [r3], #4
 199              	.LVL6:
 200              		.loc 1 208 0
 201 0088 8B42     		cmp	r3, r1
 202 008a 06D2     		bcs	.L9
 203              	.L12:
 204              		.loc 1 209 0
 205 008c 1846     		mov	r0, r3
 206 008e 40F8044B 		str	r4, [r0], #4
 207 0092 5C60     		str	r4, [r3, #4]
 208              		.loc 1 210 0
 209 0094 031D     		adds	r3, r0, #4
 210              		.loc 1 208 0
 211 0096 8B42     		cmp	r3, r1
 212 0098 F8D3     		bcc	.L12
 213              	.L9:
 214              		.loc 1 212 0
 215 009a 1037     		adds	r7, r7, #16
 216              	.LVL7:
ARM GAS  /tmp/cc6BEziT.s 			page 5


 217              	.LBE2:
 218              		.loc 1 214 0
 219 009c 6745     		cmp	r7, ip
 220 009e B8D3     		bcc	.L11
 221              		.loc 1 216 0
 222 00a0 BDE8F001 		pop	{r4, r5, r6, r7, r8}
 223 00a4 7047     		bx	lr
 224              		.cfi_endproc
 225              	.LFE67:
 226              		.size	__init_ram_areas, .-__init_ram_areas
 227 00a6 00BFAFF3 		.section	.rodata.ram_areas,"a",%progbits
 227      0080AFF3 
 227      0080
 228              		.align	2
 229              		.set	.LANCHOR0,. + 0
 230              		.type	ram_areas, %object
 231              		.size	ram_areas, 128
 232              	ram_areas:
 233 0000 00000000 		.word	__ram0_init_text__
 234 0004 00000000 		.word	__ram0_init__
 235 0008 00000000 		.word	__ram0_clear__
 236 000c 00000000 		.word	__ram0_noinit__
 237 0010 00000000 		.word	__ram1_init_text__
 238 0014 00000000 		.word	__ram1_init__
 239 0018 00000000 		.word	__ram1_clear__
 240 001c 00000000 		.word	__ram1_noinit__
 241 0020 00000000 		.word	__ram2_init_text__
 242 0024 00000000 		.word	__ram2_init__
 243 0028 00000000 		.word	__ram2_clear__
 244 002c 00000000 		.word	__ram2_noinit__
 245 0030 00000000 		.word	__ram3_init_text__
 246 0034 00000000 		.word	__ram3_init__
 247 0038 00000000 		.word	__ram3_clear__
 248 003c 00000000 		.word	__ram3_noinit__
 249 0040 00000000 		.word	__ram4_init_text__
 250 0044 00000000 		.word	__ram4_init__
 251 0048 00000000 		.word	__ram4_clear__
 252 004c 00000000 		.word	__ram4_noinit__
 253 0050 00000000 		.word	__ram5_init_text__
 254 0054 00000000 		.word	__ram5_init__
 255 0058 00000000 		.word	__ram5_clear__
 256 005c 00000000 		.word	__ram5_noinit__
 257 0060 00000000 		.word	__ram6_init_text__
 258 0064 00000000 		.word	__ram6_init__
 259 0068 00000000 		.word	__ram6_clear__
 260 006c 00000000 		.word	__ram6_noinit__
 261 0070 00000000 		.word	__ram7_init_text__
 262 0074 00000000 		.word	__ram7_init__
 263 0078 00000000 		.word	__ram7_clear__
 264 007c 00000000 		.word	__ram7_noinit__
 265              		.text
 266              	.Letext0:
 267              		.file 2 "/home/madog/programs/CodeSourcery/Sourcery_CodeBench_Lite_for_ARM_EABI/bin/../lib/gcc/arm
 268              		.file 3 "../../../resources/chibios/ChibiOS_16.1.8/os/ext/CMSIS/include/core_cm3.h"
 269              		.section	.debug_info,"",%progbits
 270              	.Ldebug_info0:
 271 0000 04050000 		.4byte	0x504
ARM GAS  /tmp/cc6BEziT.s 			page 6


 272 0004 0200     		.2byte	0x2
 273 0006 00000000 		.4byte	.Ldebug_abbrev0
 274 000a 04       		.byte	0x4
 275 000b 01       		.uleb128 0x1
 276 000c 01030000 		.4byte	.LASF54
 277 0010 01       		.byte	0x1
 278 0011 11000000 		.4byte	.LASF55
 279 0015 39030000 		.4byte	.LASF56
 280 0019 00000000 		.4byte	0
 281 001d 00000000 		.4byte	0
 282 0021 00000000 		.4byte	.Ldebug_ranges0+0
 283 0025 00000000 		.4byte	.Ldebug_line0
 284 0029 02       		.uleb128 0x2
 285 002a 01       		.byte	0x1
 286 002b 06       		.byte	0x6
 287 002c B3030000 		.4byte	.LASF0
 288 0030 02       		.uleb128 0x2
 289 0031 01       		.byte	0x1
 290 0032 08       		.byte	0x8
 291 0033 D0010000 		.4byte	.LASF1
 292 0037 02       		.uleb128 0x2
 293 0038 02       		.byte	0x2
 294 0039 05       		.byte	0x5
 295 003a 2F030000 		.4byte	.LASF2
 296 003e 02       		.uleb128 0x2
 297 003f 02       		.byte	0x2
 298 0040 07       		.byte	0x7
 299 0041 C8000000 		.4byte	.LASF3
 300 0045 03       		.uleb128 0x3
 301 0046 70010000 		.4byte	.LASF5
 302 004a 02       		.byte	0x2
 303 004b 4F       		.byte	0x4f
 304 004c 50000000 		.4byte	0x50
 305 0050 02       		.uleb128 0x2
 306 0051 04       		.byte	0x4
 307 0052 05       		.byte	0x5
 308 0053 9A030000 		.4byte	.LASF4
 309 0057 03       		.uleb128 0x3
 310 0058 91030000 		.4byte	.LASF6
 311 005c 02       		.byte	0x2
 312 005d 50       		.byte	0x50
 313 005e 62000000 		.4byte	0x62
 314 0062 02       		.uleb128 0x2
 315 0063 04       		.byte	0x4
 316 0064 07       		.byte	0x7
 317 0065 78010000 		.4byte	.LASF7
 318 0069 02       		.uleb128 0x2
 319 006a 08       		.byte	0x8
 320 006b 05       		.byte	0x5
 321 006c D0020000 		.4byte	.LASF8
 322 0070 02       		.uleb128 0x2
 323 0071 08       		.byte	0x8
 324 0072 07       		.byte	0x7
 325 0073 6C020000 		.4byte	.LASF9
 326 0077 04       		.uleb128 0x4
 327 0078 04       		.byte	0x4
 328 0079 05       		.byte	0x5
ARM GAS  /tmp/cc6BEziT.s 			page 7


 329 007a 696E7400 		.ascii	"int\000"
 330 007e 02       		.uleb128 0x2
 331 007f 04       		.byte	0x4
 332 0080 07       		.byte	0x7
 333 0081 5F020000 		.4byte	.LASF10
 334 0085 05       		.uleb128 0x5
 335 0086 10       		.byte	0x10
 336 0087 01       		.byte	0x1
 337 0088 34       		.byte	0x34
 338 0089 C6000000 		.4byte	0xc6
 339 008d 06       		.uleb128 0x6
 340 008e 73030000 		.4byte	.LASF11
 341 0092 01       		.byte	0x1
 342 0093 35       		.byte	0x35
 343 0094 C6000000 		.4byte	0xc6
 344 0098 02       		.byte	0x2
 345 0099 23       		.byte	0x23
 346 009a 00       		.uleb128 0
 347 009b 06       		.uleb128 0x6
 348 009c A1000000 		.4byte	.LASF12
 349 00a0 01       		.byte	0x1
 350 00a1 36       		.byte	0x36
 351 00a2 C6000000 		.4byte	0xc6
 352 00a6 02       		.byte	0x2
 353 00a7 23       		.byte	0x23
 354 00a8 04       		.uleb128 0x4
 355 00a9 06       		.uleb128 0x6
 356 00aa 4A010000 		.4byte	.LASF13
 357 00ae 01       		.byte	0x1
 358 00af 37       		.byte	0x37
 359 00b0 C6000000 		.4byte	0xc6
 360 00b4 02       		.byte	0x2
 361 00b5 23       		.byte	0x23
 362 00b6 08       		.uleb128 0x8
 363 00b7 06       		.uleb128 0x6
 364 00b8 B3020000 		.4byte	.LASF14
 365 00bc 01       		.byte	0x1
 366 00bd 38       		.byte	0x38
 367 00be C6000000 		.4byte	0xc6
 368 00c2 02       		.byte	0x2
 369 00c3 23       		.byte	0x23
 370 00c4 0C       		.uleb128 0xc
 371 00c5 00       		.byte	0
 372 00c6 07       		.uleb128 0x7
 373 00c7 04       		.byte	0x4
 374 00c8 57000000 		.4byte	0x57
 375 00cc 03       		.uleb128 0x3
 376 00cd 00020000 		.4byte	.LASF15
 377 00d1 01       		.byte	0x1
 378 00d2 39       		.byte	0x39
 379 00d3 85000000 		.4byte	0x85
 380 00d7 08       		.uleb128 0x8
 381 00d8 01       		.byte	0x1
 382 00d9 85000000 		.4byte	.LASF16
 383 00dd 01       		.byte	0x1
 384 00de 88       		.byte	0x88
 385 00df 01       		.byte	0x1
ARM GAS  /tmp/cc6BEziT.s 			page 8


 386 00e0 00000000 		.4byte	.LFB63
 387 00e4 02000000 		.4byte	.LFE63
 388 00e8 02       		.byte	0x2
 389 00e9 7D       		.byte	0x7d
 390 00ea 00       		.sleb128 0
 391 00eb 08       		.uleb128 0x8
 392 00ec 01       		.byte	0x1
 393 00ed 96020000 		.4byte	.LASF17
 394 00f1 01       		.byte	0x1
 395 00f2 9B       		.byte	0x9b
 396 00f3 01       		.byte	0x1
 397 00f4 00000000 		.4byte	.LFB64
 398 00f8 02000000 		.4byte	.LFE64
 399 00fc 02       		.byte	0x2
 400 00fd 7D       		.byte	0x7d
 401 00fe 00       		.sleb128 0
 402 00ff 08       		.uleb128 0x8
 403 0100 01       		.byte	0x1
 404 0101 55010000 		.4byte	.LASF18
 405 0105 01       		.byte	0x1
 406 0106 A9       		.byte	0xa9
 407 0107 01       		.byte	0x1
 408 0108 00000000 		.4byte	.LFB65
 409 010c 02000000 		.4byte	.LFE65
 410 0110 02       		.byte	0x2
 411 0111 7D       		.byte	0x7d
 412 0112 00       		.sleb128 0
 413 0113 08       		.uleb128 0x8
 414 0114 01       		.byte	0x1
 415 0115 DE010000 		.4byte	.LASF19
 416 0119 01       		.byte	0x1
 417 011a B6       		.byte	0xb6
 418 011b 01       		.byte	0x1
 419 011c 00000000 		.4byte	.LFB66
 420 0120 02000000 		.4byte	.LFE66
 421 0124 02       		.byte	0x2
 422 0125 7D       		.byte	0x7d
 423 0126 00       		.sleb128 0
 424 0127 09       		.uleb128 0x9
 425 0128 01       		.byte	0x1
 426 0129 00000000 		.4byte	.LASF57
 427 012d 01       		.byte	0x1
 428 012e C0       		.byte	0xc0
 429 012f 01       		.byte	0x1
 430 0130 00000000 		.4byte	.LFB67
 431 0134 A6000000 		.4byte	.LFE67
 432 0138 00000000 		.4byte	.LLST0
 433 013c 75010000 		.4byte	0x175
 434 0140 0A       		.uleb128 0xa
 435 0141 72617000 		.ascii	"rap\000"
 436 0145 01       		.byte	0x1
 437 0146 C2       		.byte	0xc2
 438 0147 75010000 		.4byte	0x175
 439 014b 20000000 		.4byte	.LLST1
 440 014f 0B       		.uleb128 0xb
 441 0150 10000000 		.4byte	.LBB2
 442 0154 9C000000 		.4byte	.LBE2
ARM GAS  /tmp/cc6BEziT.s 			page 9


 443 0158 0A       		.uleb128 0xa
 444 0159 747000   		.ascii	"tp\000"
 445 015c 01       		.byte	0x1
 446 015d C5       		.byte	0xc5
 447 015e C6000000 		.4byte	0xc6
 448 0162 43000000 		.4byte	.LLST2
 449 0166 0A       		.uleb128 0xa
 450 0167 7000     		.ascii	"p\000"
 451 0169 01       		.byte	0x1
 452 016a C6       		.byte	0xc6
 453 016b C6000000 		.4byte	0xc6
 454 016f 57000000 		.4byte	.LLST3
 455 0173 00       		.byte	0
 456 0174 00       		.byte	0
 457 0175 07       		.uleb128 0x7
 458 0176 04       		.byte	0x4
 459 0177 7B010000 		.4byte	0x17b
 460 017b 0C       		.uleb128 0xc
 461 017c CC000000 		.4byte	0xcc
 462 0180 0D       		.uleb128 0xd
 463 0181 B5010000 		.4byte	.LASF20
 464 0185 03       		.byte	0x3
 465 0186 5506     		.2byte	0x655
 466 0188 8E010000 		.4byte	0x18e
 467 018c 01       		.byte	0x1
 468 018d 01       		.byte	0x1
 469 018e 0E       		.uleb128 0xe
 470 018f 45000000 		.4byte	0x45
 471 0193 0F       		.uleb128 0xf
 472 0194 B5000000 		.4byte	.LASF21
 473 0198 01       		.byte	0x1
 474 0199 40       		.byte	0x40
 475 019a 57000000 		.4byte	0x57
 476 019e 01       		.byte	0x1
 477 019f 01       		.byte	0x1
 478 01a0 0F       		.uleb128 0xf
 479 01a1 8A010000 		.4byte	.LASF22
 480 01a5 01       		.byte	0x1
 481 01a6 40       		.byte	0x40
 482 01a7 57000000 		.4byte	0x57
 483 01ab 01       		.byte	0x1
 484 01ac 01       		.byte	0x1
 485 01ad 0F       		.uleb128 0xf
 486 01ae 82030000 		.4byte	.LASF23
 487 01b2 01       		.byte	0x1
 488 01b3 40       		.byte	0x40
 489 01b4 57000000 		.4byte	0x57
 490 01b8 01       		.byte	0x1
 491 01b9 01       		.byte	0x1
 492 01ba 0F       		.uleb128 0xf
 493 01bb 75000000 		.4byte	.LASF24
 494 01bf 01       		.byte	0x1
 495 01c0 40       		.byte	0x40
 496 01c1 57000000 		.4byte	0x57
 497 01c5 01       		.byte	0x1
 498 01c6 01       		.byte	0x1
 499 01c7 0F       		.uleb128 0xf
ARM GAS  /tmp/cc6BEziT.s 			page 10


 500 01c8 EE020000 		.4byte	.LASF25
 501 01cc 01       		.byte	0x1
 502 01cd 43       		.byte	0x43
 503 01ce 57000000 		.4byte	0x57
 504 01d2 01       		.byte	0x1
 505 01d3 01       		.byte	0x1
 506 01d4 0F       		.uleb128 0xf
 507 01d5 EA000000 		.4byte	.LASF26
 508 01d9 01       		.byte	0x1
 509 01da 43       		.byte	0x43
 510 01db 57000000 		.4byte	0x57
 511 01df 01       		.byte	0x1
 512 01e0 01       		.byte	0x1
 513 01e1 0F       		.uleb128 0xf
 514 01e2 A6010000 		.4byte	.LASF27
 515 01e6 01       		.byte	0x1
 516 01e7 43       		.byte	0x43
 517 01e8 57000000 		.4byte	0x57
 518 01ec 01       		.byte	0x1
 519 01ed 01       		.byte	0x1
 520 01ee 0F       		.uleb128 0xf
 521 01ef A3030000 		.4byte	.LASF28
 522 01f3 01       		.byte	0x1
 523 01f4 43       		.byte	0x43
 524 01f5 57000000 		.4byte	0x57
 525 01f9 01       		.byte	0x1
 526 01fa 01       		.byte	0x1
 527 01fb 0F       		.uleb128 0xf
 528 01fc ED010000 		.4byte	.LASF29
 529 0200 01       		.byte	0x1
 530 0201 46       		.byte	0x46
 531 0202 57000000 		.4byte	0x57
 532 0206 01       		.byte	0x1
 533 0207 01       		.byte	0x1
 534 0208 0F       		.uleb128 0xf
 535 0209 06010000 		.4byte	.LASF30
 536 020d 01       		.byte	0x1
 537 020e 46       		.byte	0x46
 538 020f 57000000 		.4byte	0x57
 539 0213 01       		.byte	0x1
 540 0214 01       		.byte	0x1
 541 0215 0F       		.uleb128 0xf
 542 0216 0D030000 		.4byte	.LASF31
 543 021a 01       		.byte	0x1
 544 021b 46       		.byte	0x46
 545 021c 57000000 		.4byte	0x57
 546 0220 01       		.byte	0x1
 547 0221 01       		.byte	0x1
 548 0222 0F       		.uleb128 0xf
 549 0223 DE020000 		.4byte	.LASF32
 550 0227 01       		.byte	0x1
 551 0228 46       		.byte	0x46
 552 0229 57000000 		.4byte	0x57
 553 022d 01       		.byte	0x1
 554 022e 01       		.byte	0x1
 555 022f 0F       		.uleb128 0xf
 556 0230 37010000 		.4byte	.LASF33
ARM GAS  /tmp/cc6BEziT.s 			page 11


 557 0234 01       		.byte	0x1
 558 0235 49       		.byte	0x49
 559 0236 57000000 		.4byte	0x57
 560 023a 01       		.byte	0x1
 561 023b 01       		.byte	0x1
 562 023c 0F       		.uleb128 0xf
 563 023d C2010000 		.4byte	.LASF34
 564 0241 01       		.byte	0x1
 565 0242 49       		.byte	0x49
 566 0243 57000000 		.4byte	0x57
 567 0247 01       		.byte	0x1
 568 0248 01       		.byte	0x1
 569 0249 0F       		.uleb128 0xf
 570 024a DB000000 		.4byte	.LASF35
 571 024e 01       		.byte	0x1
 572 024f 49       		.byte	0x49
 573 0250 57000000 		.4byte	0x57
 574 0254 01       		.byte	0x1
 575 0255 01       		.byte	0x1
 576 0256 0F       		.uleb128 0xf
 577 0257 C0020000 		.4byte	.LASF36
 578 025b 01       		.byte	0x1
 579 025c 49       		.byte	0x49
 580 025d 57000000 		.4byte	0x57
 581 0261 01       		.byte	0x1
 582 0262 01       		.byte	0x1
 583 0263 0F       		.uleb128 0xf
 584 0264 1C030000 		.4byte	.LASF37
 585 0268 01       		.byte	0x1
 586 0269 4C       		.byte	0x4c
 587 026a 57000000 		.4byte	0x57
 588 026e 01       		.byte	0x1
 589 026f 01       		.byte	0x1
 590 0270 0F       		.uleb128 0xf
 591 0271 32020000 		.4byte	.LASF38
 592 0275 01       		.byte	0x1
 593 0276 4C       		.byte	0x4c
 594 0277 57000000 		.4byte	0x57
 595 027b 01       		.byte	0x1
 596 027c 01       		.byte	0x1
 597 027d 0F       		.uleb128 0xf
 598 027e 40020000 		.4byte	.LASF39
 599 0282 01       		.byte	0x1
 600 0283 4C       		.byte	0x4c
 601 0284 57000000 		.4byte	0x57
 602 0288 01       		.byte	0x1
 603 0289 01       		.byte	0x1
 604 028a 0F       		.uleb128 0xf
 605 028b 4F020000 		.4byte	.LASF40
 606 028f 01       		.byte	0x1
 607 0290 4C       		.byte	0x4c
 608 0291 57000000 		.4byte	0x57
 609 0295 01       		.byte	0x1
 610 0296 01       		.byte	0x1
 611 0297 0F       		.uleb128 0xf
 612 0298 10020000 		.4byte	.LASF41
 613 029c 01       		.byte	0x1
ARM GAS  /tmp/cc6BEziT.s 			page 12


 614 029d 4F       		.byte	0x4f
 615 029e 57000000 		.4byte	0x57
 616 02a2 01       		.byte	0x1
 617 02a3 01       		.byte	0x1
 618 02a4 0F       		.uleb128 0xf
 619 02a5 98010000 		.4byte	.LASF42
 620 02a9 01       		.byte	0x1
 621 02aa 4F       		.byte	0x4f
 622 02ab 57000000 		.4byte	0x57
 623 02af 01       		.byte	0x1
 624 02b0 01       		.byte	0x1
 625 02b1 0F       		.uleb128 0xf
 626 02b2 BF030000 		.4byte	.LASF43
 627 02b6 01       		.byte	0x1
 628 02b7 4F       		.byte	0x4f
 629 02b8 57000000 		.4byte	0x57
 630 02bc 01       		.byte	0x1
 631 02bd 01       		.byte	0x1
 632 02be 0F       		.uleb128 0xf
 633 02bf A3020000 		.4byte	.LASF44
 634 02c3 01       		.byte	0x1
 635 02c4 4F       		.byte	0x4f
 636 02c5 57000000 		.4byte	0x57
 637 02c9 01       		.byte	0x1
 638 02ca 01       		.byte	0x1
 639 02cb 0F       		.uleb128 0xf
 640 02cc 14010000 		.4byte	.LASF45
 641 02d0 01       		.byte	0x1
 642 02d1 52       		.byte	0x52
 643 02d2 57000000 		.4byte	0x57
 644 02d6 01       		.byte	0x1
 645 02d7 01       		.byte	0x1
 646 02d8 0F       		.uleb128 0xf
 647 02d9 F8000000 		.4byte	.LASF46
 648 02dd 01       		.byte	0x1
 649 02de 52       		.byte	0x52
 650 02df 57000000 		.4byte	0x57
 651 02e3 01       		.byte	0x1
 652 02e4 01       		.byte	0x1
 653 02e5 0F       		.uleb128 0xf
 654 02e6 61010000 		.4byte	.LASF47
 655 02ea 01       		.byte	0x1
 656 02eb 52       		.byte	0x52
 657 02ec 57000000 		.4byte	0x57
 658 02f0 01       		.byte	0x1
 659 02f1 01       		.byte	0x1
 660 02f2 0F       		.uleb128 0xf
 661 02f3 27010000 		.4byte	.LASF48
 662 02f7 01       		.byte	0x1
 663 02f8 52       		.byte	0x52
 664 02f9 57000000 		.4byte	0x57
 665 02fd 01       		.byte	0x1
 666 02fe 01       		.byte	0x1
 667 02ff 0F       		.uleb128 0xf
 668 0300 83020000 		.4byte	.LASF49
 669 0304 01       		.byte	0x1
 670 0305 55       		.byte	0x55
ARM GAS  /tmp/cc6BEziT.s 			page 13


 671 0306 57000000 		.4byte	0x57
 672 030a 01       		.byte	0x1
 673 030b 01       		.byte	0x1
 674 030c 0F       		.uleb128 0xf
 675 030d 67000000 		.4byte	.LASF50
 676 0311 01       		.byte	0x1
 677 0312 55       		.byte	0x55
 678 0313 57000000 		.4byte	0x57
 679 0317 01       		.byte	0x1
 680 0318 01       		.byte	0x1
 681 0319 0F       		.uleb128 0xf
 682 031a 23020000 		.4byte	.LASF51
 683 031e 01       		.byte	0x1
 684 031f 55       		.byte	0x55
 685 0320 57000000 		.4byte	0x57
 686 0324 01       		.byte	0x1
 687 0325 01       		.byte	0x1
 688 0326 0F       		.uleb128 0xf
 689 0327 91000000 		.4byte	.LASF52
 690 032b 01       		.byte	0x1
 691 032c 55       		.byte	0x55
 692 032d 57000000 		.4byte	0x57
 693 0331 01       		.byte	0x1
 694 0332 01       		.byte	0x1
 695 0333 10       		.uleb128 0x10
 696 0334 CC000000 		.4byte	0xcc
 697 0338 43030000 		.4byte	0x343
 698 033c 11       		.uleb128 0x11
 699 033d 7E000000 		.4byte	0x7e
 700 0341 07       		.byte	0x7
 701 0342 00       		.byte	0
 702 0343 12       		.uleb128 0x12
 703 0344 AB000000 		.4byte	.LASF53
 704 0348 01       		.byte	0x1
 705 0349 5C       		.byte	0x5c
 706 034a 54030000 		.4byte	0x354
 707 034e 05       		.byte	0x5
 708 034f 03       		.byte	0x3
 709 0350 00000000 		.4byte	ram_areas
 710 0354 0C       		.uleb128 0xc
 711 0355 33030000 		.4byte	0x333
 712 0359 0D       		.uleb128 0xd
 713 035a B5010000 		.4byte	.LASF20
 714 035e 03       		.byte	0x3
 715 035f 5506     		.2byte	0x655
 716 0361 8E010000 		.4byte	0x18e
 717 0365 01       		.byte	0x1
 718 0366 01       		.byte	0x1
 719 0367 0F       		.uleb128 0xf
 720 0368 B5000000 		.4byte	.LASF21
 721 036c 01       		.byte	0x1
 722 036d 40       		.byte	0x40
 723 036e 57000000 		.4byte	0x57
 724 0372 01       		.byte	0x1
 725 0373 01       		.byte	0x1
 726 0374 0F       		.uleb128 0xf
 727 0375 8A010000 		.4byte	.LASF22
ARM GAS  /tmp/cc6BEziT.s 			page 14


 728 0379 01       		.byte	0x1
 729 037a 40       		.byte	0x40
 730 037b 57000000 		.4byte	0x57
 731 037f 01       		.byte	0x1
 732 0380 01       		.byte	0x1
 733 0381 0F       		.uleb128 0xf
 734 0382 82030000 		.4byte	.LASF23
 735 0386 01       		.byte	0x1
 736 0387 40       		.byte	0x40
 737 0388 57000000 		.4byte	0x57
 738 038c 01       		.byte	0x1
 739 038d 01       		.byte	0x1
 740 038e 0F       		.uleb128 0xf
 741 038f 75000000 		.4byte	.LASF24
 742 0393 01       		.byte	0x1
 743 0394 40       		.byte	0x40
 744 0395 57000000 		.4byte	0x57
 745 0399 01       		.byte	0x1
 746 039a 01       		.byte	0x1
 747 039b 0F       		.uleb128 0xf
 748 039c EE020000 		.4byte	.LASF25
 749 03a0 01       		.byte	0x1
 750 03a1 43       		.byte	0x43
 751 03a2 57000000 		.4byte	0x57
 752 03a6 01       		.byte	0x1
 753 03a7 01       		.byte	0x1
 754 03a8 0F       		.uleb128 0xf
 755 03a9 EA000000 		.4byte	.LASF26
 756 03ad 01       		.byte	0x1
 757 03ae 43       		.byte	0x43
 758 03af 57000000 		.4byte	0x57
 759 03b3 01       		.byte	0x1
 760 03b4 01       		.byte	0x1
 761 03b5 0F       		.uleb128 0xf
 762 03b6 A6010000 		.4byte	.LASF27
 763 03ba 01       		.byte	0x1
 764 03bb 43       		.byte	0x43
 765 03bc 57000000 		.4byte	0x57
 766 03c0 01       		.byte	0x1
 767 03c1 01       		.byte	0x1
 768 03c2 0F       		.uleb128 0xf
 769 03c3 A3030000 		.4byte	.LASF28
 770 03c7 01       		.byte	0x1
 771 03c8 43       		.byte	0x43
 772 03c9 57000000 		.4byte	0x57
 773 03cd 01       		.byte	0x1
 774 03ce 01       		.byte	0x1
 775 03cf 0F       		.uleb128 0xf
 776 03d0 ED010000 		.4byte	.LASF29
 777 03d4 01       		.byte	0x1
 778 03d5 46       		.byte	0x46
 779 03d6 57000000 		.4byte	0x57
 780 03da 01       		.byte	0x1
 781 03db 01       		.byte	0x1
 782 03dc 0F       		.uleb128 0xf
 783 03dd 06010000 		.4byte	.LASF30
 784 03e1 01       		.byte	0x1
ARM GAS  /tmp/cc6BEziT.s 			page 15


 785 03e2 46       		.byte	0x46
 786 03e3 57000000 		.4byte	0x57
 787 03e7 01       		.byte	0x1
 788 03e8 01       		.byte	0x1
 789 03e9 0F       		.uleb128 0xf
 790 03ea 0D030000 		.4byte	.LASF31
 791 03ee 01       		.byte	0x1
 792 03ef 46       		.byte	0x46
 793 03f0 57000000 		.4byte	0x57
 794 03f4 01       		.byte	0x1
 795 03f5 01       		.byte	0x1
 796 03f6 0F       		.uleb128 0xf
 797 03f7 DE020000 		.4byte	.LASF32
 798 03fb 01       		.byte	0x1
 799 03fc 46       		.byte	0x46
 800 03fd 57000000 		.4byte	0x57
 801 0401 01       		.byte	0x1
 802 0402 01       		.byte	0x1
 803 0403 0F       		.uleb128 0xf
 804 0404 37010000 		.4byte	.LASF33
 805 0408 01       		.byte	0x1
 806 0409 49       		.byte	0x49
 807 040a 57000000 		.4byte	0x57
 808 040e 01       		.byte	0x1
 809 040f 01       		.byte	0x1
 810 0410 0F       		.uleb128 0xf
 811 0411 C2010000 		.4byte	.LASF34
 812 0415 01       		.byte	0x1
 813 0416 49       		.byte	0x49
 814 0417 57000000 		.4byte	0x57
 815 041b 01       		.byte	0x1
 816 041c 01       		.byte	0x1
 817 041d 0F       		.uleb128 0xf
 818 041e DB000000 		.4byte	.LASF35
 819 0422 01       		.byte	0x1
 820 0423 49       		.byte	0x49
 821 0424 57000000 		.4byte	0x57
 822 0428 01       		.byte	0x1
 823 0429 01       		.byte	0x1
 824 042a 0F       		.uleb128 0xf
 825 042b C0020000 		.4byte	.LASF36
 826 042f 01       		.byte	0x1
 827 0430 49       		.byte	0x49
 828 0431 57000000 		.4byte	0x57
 829 0435 01       		.byte	0x1
 830 0436 01       		.byte	0x1
 831 0437 0F       		.uleb128 0xf
 832 0438 1C030000 		.4byte	.LASF37
 833 043c 01       		.byte	0x1
 834 043d 4C       		.byte	0x4c
 835 043e 57000000 		.4byte	0x57
 836 0442 01       		.byte	0x1
 837 0443 01       		.byte	0x1
 838 0444 0F       		.uleb128 0xf
 839 0445 32020000 		.4byte	.LASF38
 840 0449 01       		.byte	0x1
 841 044a 4C       		.byte	0x4c
ARM GAS  /tmp/cc6BEziT.s 			page 16


 842 044b 57000000 		.4byte	0x57
 843 044f 01       		.byte	0x1
 844 0450 01       		.byte	0x1
 845 0451 0F       		.uleb128 0xf
 846 0452 40020000 		.4byte	.LASF39
 847 0456 01       		.byte	0x1
 848 0457 4C       		.byte	0x4c
 849 0458 57000000 		.4byte	0x57
 850 045c 01       		.byte	0x1
 851 045d 01       		.byte	0x1
 852 045e 0F       		.uleb128 0xf
 853 045f 4F020000 		.4byte	.LASF40
 854 0463 01       		.byte	0x1
 855 0464 4C       		.byte	0x4c
 856 0465 57000000 		.4byte	0x57
 857 0469 01       		.byte	0x1
 858 046a 01       		.byte	0x1
 859 046b 0F       		.uleb128 0xf
 860 046c 10020000 		.4byte	.LASF41
 861 0470 01       		.byte	0x1
 862 0471 4F       		.byte	0x4f
 863 0472 57000000 		.4byte	0x57
 864 0476 01       		.byte	0x1
 865 0477 01       		.byte	0x1
 866 0478 0F       		.uleb128 0xf
 867 0479 98010000 		.4byte	.LASF42
 868 047d 01       		.byte	0x1
 869 047e 4F       		.byte	0x4f
 870 047f 57000000 		.4byte	0x57
 871 0483 01       		.byte	0x1
 872 0484 01       		.byte	0x1
 873 0485 0F       		.uleb128 0xf
 874 0486 BF030000 		.4byte	.LASF43
 875 048a 01       		.byte	0x1
 876 048b 4F       		.byte	0x4f
 877 048c 57000000 		.4byte	0x57
 878 0490 01       		.byte	0x1
 879 0491 01       		.byte	0x1
 880 0492 0F       		.uleb128 0xf
 881 0493 A3020000 		.4byte	.LASF44
 882 0497 01       		.byte	0x1
 883 0498 4F       		.byte	0x4f
 884 0499 57000000 		.4byte	0x57
 885 049d 01       		.byte	0x1
 886 049e 01       		.byte	0x1
 887 049f 0F       		.uleb128 0xf
 888 04a0 14010000 		.4byte	.LASF45
 889 04a4 01       		.byte	0x1
 890 04a5 52       		.byte	0x52
 891 04a6 57000000 		.4byte	0x57
 892 04aa 01       		.byte	0x1
 893 04ab 01       		.byte	0x1
 894 04ac 0F       		.uleb128 0xf
 895 04ad F8000000 		.4byte	.LASF46
 896 04b1 01       		.byte	0x1
 897 04b2 52       		.byte	0x52
 898 04b3 57000000 		.4byte	0x57
ARM GAS  /tmp/cc6BEziT.s 			page 17


 899 04b7 01       		.byte	0x1
 900 04b8 01       		.byte	0x1
 901 04b9 0F       		.uleb128 0xf
 902 04ba 61010000 		.4byte	.LASF47
 903 04be 01       		.byte	0x1
 904 04bf 52       		.byte	0x52
 905 04c0 57000000 		.4byte	0x57
 906 04c4 01       		.byte	0x1
 907 04c5 01       		.byte	0x1
 908 04c6 0F       		.uleb128 0xf
 909 04c7 27010000 		.4byte	.LASF48
 910 04cb 01       		.byte	0x1
 911 04cc 52       		.byte	0x52
 912 04cd 57000000 		.4byte	0x57
 913 04d1 01       		.byte	0x1
 914 04d2 01       		.byte	0x1
 915 04d3 0F       		.uleb128 0xf
 916 04d4 83020000 		.4byte	.LASF49
 917 04d8 01       		.byte	0x1
 918 04d9 55       		.byte	0x55
 919 04da 57000000 		.4byte	0x57
 920 04de 01       		.byte	0x1
 921 04df 01       		.byte	0x1
 922 04e0 0F       		.uleb128 0xf
 923 04e1 67000000 		.4byte	.LASF50
 924 04e5 01       		.byte	0x1
 925 04e6 55       		.byte	0x55
 926 04e7 57000000 		.4byte	0x57
 927 04eb 01       		.byte	0x1
 928 04ec 01       		.byte	0x1
 929 04ed 0F       		.uleb128 0xf
 930 04ee 23020000 		.4byte	.LASF51
 931 04f2 01       		.byte	0x1
 932 04f3 55       		.byte	0x55
 933 04f4 57000000 		.4byte	0x57
 934 04f8 01       		.byte	0x1
 935 04f9 01       		.byte	0x1
 936 04fa 0F       		.uleb128 0xf
 937 04fb 91000000 		.4byte	.LASF52
 938 04ff 01       		.byte	0x1
 939 0500 55       		.byte	0x55
 940 0501 57000000 		.4byte	0x57
 941 0505 01       		.byte	0x1
 942 0506 01       		.byte	0x1
 943 0507 00       		.byte	0
 944              		.section	.debug_abbrev,"",%progbits
 945              	.Ldebug_abbrev0:
 946 0000 01       		.uleb128 0x1
 947 0001 11       		.uleb128 0x11
 948 0002 01       		.byte	0x1
 949 0003 25       		.uleb128 0x25
 950 0004 0E       		.uleb128 0xe
 951 0005 13       		.uleb128 0x13
 952 0006 0B       		.uleb128 0xb
 953 0007 03       		.uleb128 0x3
 954 0008 0E       		.uleb128 0xe
 955 0009 1B       		.uleb128 0x1b
ARM GAS  /tmp/cc6BEziT.s 			page 18


 956 000a 0E       		.uleb128 0xe
 957 000b 11       		.uleb128 0x11
 958 000c 01       		.uleb128 0x1
 959 000d 52       		.uleb128 0x52
 960 000e 01       		.uleb128 0x1
 961 000f 55       		.uleb128 0x55
 962 0010 06       		.uleb128 0x6
 963 0011 10       		.uleb128 0x10
 964 0012 06       		.uleb128 0x6
 965 0013 00       		.byte	0
 966 0014 00       		.byte	0
 967 0015 02       		.uleb128 0x2
 968 0016 24       		.uleb128 0x24
 969 0017 00       		.byte	0
 970 0018 0B       		.uleb128 0xb
 971 0019 0B       		.uleb128 0xb
 972 001a 3E       		.uleb128 0x3e
 973 001b 0B       		.uleb128 0xb
 974 001c 03       		.uleb128 0x3
 975 001d 0E       		.uleb128 0xe
 976 001e 00       		.byte	0
 977 001f 00       		.byte	0
 978 0020 03       		.uleb128 0x3
 979 0021 16       		.uleb128 0x16
 980 0022 00       		.byte	0
 981 0023 03       		.uleb128 0x3
 982 0024 0E       		.uleb128 0xe
 983 0025 3A       		.uleb128 0x3a
 984 0026 0B       		.uleb128 0xb
 985 0027 3B       		.uleb128 0x3b
 986 0028 0B       		.uleb128 0xb
 987 0029 49       		.uleb128 0x49
 988 002a 13       		.uleb128 0x13
 989 002b 00       		.byte	0
 990 002c 00       		.byte	0
 991 002d 04       		.uleb128 0x4
 992 002e 24       		.uleb128 0x24
 993 002f 00       		.byte	0
 994 0030 0B       		.uleb128 0xb
 995 0031 0B       		.uleb128 0xb
 996 0032 3E       		.uleb128 0x3e
 997 0033 0B       		.uleb128 0xb
 998 0034 03       		.uleb128 0x3
 999 0035 08       		.uleb128 0x8
 1000 0036 00       		.byte	0
 1001 0037 00       		.byte	0
 1002 0038 05       		.uleb128 0x5
 1003 0039 13       		.uleb128 0x13
 1004 003a 01       		.byte	0x1
 1005 003b 0B       		.uleb128 0xb
 1006 003c 0B       		.uleb128 0xb
 1007 003d 3A       		.uleb128 0x3a
 1008 003e 0B       		.uleb128 0xb
 1009 003f 3B       		.uleb128 0x3b
 1010 0040 0B       		.uleb128 0xb
 1011 0041 01       		.uleb128 0x1
 1012 0042 13       		.uleb128 0x13
ARM GAS  /tmp/cc6BEziT.s 			page 19


 1013 0043 00       		.byte	0
 1014 0044 00       		.byte	0
 1015 0045 06       		.uleb128 0x6
 1016 0046 0D       		.uleb128 0xd
 1017 0047 00       		.byte	0
 1018 0048 03       		.uleb128 0x3
 1019 0049 0E       		.uleb128 0xe
 1020 004a 3A       		.uleb128 0x3a
 1021 004b 0B       		.uleb128 0xb
 1022 004c 3B       		.uleb128 0x3b
 1023 004d 0B       		.uleb128 0xb
 1024 004e 49       		.uleb128 0x49
 1025 004f 13       		.uleb128 0x13
 1026 0050 38       		.uleb128 0x38
 1027 0051 0A       		.uleb128 0xa
 1028 0052 00       		.byte	0
 1029 0053 00       		.byte	0
 1030 0054 07       		.uleb128 0x7
 1031 0055 0F       		.uleb128 0xf
 1032 0056 00       		.byte	0
 1033 0057 0B       		.uleb128 0xb
 1034 0058 0B       		.uleb128 0xb
 1035 0059 49       		.uleb128 0x49
 1036 005a 13       		.uleb128 0x13
 1037 005b 00       		.byte	0
 1038 005c 00       		.byte	0
 1039 005d 08       		.uleb128 0x8
 1040 005e 2E       		.uleb128 0x2e
 1041 005f 00       		.byte	0
 1042 0060 3F       		.uleb128 0x3f
 1043 0061 0C       		.uleb128 0xc
 1044 0062 03       		.uleb128 0x3
 1045 0063 0E       		.uleb128 0xe
 1046 0064 3A       		.uleb128 0x3a
 1047 0065 0B       		.uleb128 0xb
 1048 0066 3B       		.uleb128 0x3b
 1049 0067 0B       		.uleb128 0xb
 1050 0068 27       		.uleb128 0x27
 1051 0069 0C       		.uleb128 0xc
 1052 006a 11       		.uleb128 0x11
 1053 006b 01       		.uleb128 0x1
 1054 006c 12       		.uleb128 0x12
 1055 006d 01       		.uleb128 0x1
 1056 006e 40       		.uleb128 0x40
 1057 006f 0A       		.uleb128 0xa
 1058 0070 00       		.byte	0
 1059 0071 00       		.byte	0
 1060 0072 09       		.uleb128 0x9
 1061 0073 2E       		.uleb128 0x2e
 1062 0074 01       		.byte	0x1
 1063 0075 3F       		.uleb128 0x3f
 1064 0076 0C       		.uleb128 0xc
 1065 0077 03       		.uleb128 0x3
 1066 0078 0E       		.uleb128 0xe
 1067 0079 3A       		.uleb128 0x3a
 1068 007a 0B       		.uleb128 0xb
 1069 007b 3B       		.uleb128 0x3b
ARM GAS  /tmp/cc6BEziT.s 			page 20


 1070 007c 0B       		.uleb128 0xb
 1071 007d 27       		.uleb128 0x27
 1072 007e 0C       		.uleb128 0xc
 1073 007f 11       		.uleb128 0x11
 1074 0080 01       		.uleb128 0x1
 1075 0081 12       		.uleb128 0x12
 1076 0082 01       		.uleb128 0x1
 1077 0083 40       		.uleb128 0x40
 1078 0084 06       		.uleb128 0x6
 1079 0085 01       		.uleb128 0x1
 1080 0086 13       		.uleb128 0x13
 1081 0087 00       		.byte	0
 1082 0088 00       		.byte	0
 1083 0089 0A       		.uleb128 0xa
 1084 008a 34       		.uleb128 0x34
 1085 008b 00       		.byte	0
 1086 008c 03       		.uleb128 0x3
 1087 008d 08       		.uleb128 0x8
 1088 008e 3A       		.uleb128 0x3a
 1089 008f 0B       		.uleb128 0xb
 1090 0090 3B       		.uleb128 0x3b
 1091 0091 0B       		.uleb128 0xb
 1092 0092 49       		.uleb128 0x49
 1093 0093 13       		.uleb128 0x13
 1094 0094 02       		.uleb128 0x2
 1095 0095 06       		.uleb128 0x6
 1096 0096 00       		.byte	0
 1097 0097 00       		.byte	0
 1098 0098 0B       		.uleb128 0xb
 1099 0099 0B       		.uleb128 0xb
 1100 009a 01       		.byte	0x1
 1101 009b 11       		.uleb128 0x11
 1102 009c 01       		.uleb128 0x1
 1103 009d 12       		.uleb128 0x12
 1104 009e 01       		.uleb128 0x1
 1105 009f 00       		.byte	0
 1106 00a0 00       		.byte	0
 1107 00a1 0C       		.uleb128 0xc
 1108 00a2 26       		.uleb128 0x26
 1109 00a3 00       		.byte	0
 1110 00a4 49       		.uleb128 0x49
 1111 00a5 13       		.uleb128 0x13
 1112 00a6 00       		.byte	0
 1113 00a7 00       		.byte	0
 1114 00a8 0D       		.uleb128 0xd
 1115 00a9 34       		.uleb128 0x34
 1116 00aa 00       		.byte	0
 1117 00ab 03       		.uleb128 0x3
 1118 00ac 0E       		.uleb128 0xe
 1119 00ad 3A       		.uleb128 0x3a
 1120 00ae 0B       		.uleb128 0xb
 1121 00af 3B       		.uleb128 0x3b
 1122 00b0 05       		.uleb128 0x5
 1123 00b1 49       		.uleb128 0x49
 1124 00b2 13       		.uleb128 0x13
 1125 00b3 3F       		.uleb128 0x3f
 1126 00b4 0C       		.uleb128 0xc
ARM GAS  /tmp/cc6BEziT.s 			page 21


 1127 00b5 3C       		.uleb128 0x3c
 1128 00b6 0C       		.uleb128 0xc
 1129 00b7 00       		.byte	0
 1130 00b8 00       		.byte	0
 1131 00b9 0E       		.uleb128 0xe
 1132 00ba 35       		.uleb128 0x35
 1133 00bb 00       		.byte	0
 1134 00bc 49       		.uleb128 0x49
 1135 00bd 13       		.uleb128 0x13
 1136 00be 00       		.byte	0
 1137 00bf 00       		.byte	0
 1138 00c0 0F       		.uleb128 0xf
 1139 00c1 34       		.uleb128 0x34
 1140 00c2 00       		.byte	0
 1141 00c3 03       		.uleb128 0x3
 1142 00c4 0E       		.uleb128 0xe
 1143 00c5 3A       		.uleb128 0x3a
 1144 00c6 0B       		.uleb128 0xb
 1145 00c7 3B       		.uleb128 0x3b
 1146 00c8 0B       		.uleb128 0xb
 1147 00c9 49       		.uleb128 0x49
 1148 00ca 13       		.uleb128 0x13
 1149 00cb 3F       		.uleb128 0x3f
 1150 00cc 0C       		.uleb128 0xc
 1151 00cd 3C       		.uleb128 0x3c
 1152 00ce 0C       		.uleb128 0xc
 1153 00cf 00       		.byte	0
 1154 00d0 00       		.byte	0
 1155 00d1 10       		.uleb128 0x10
 1156 00d2 01       		.uleb128 0x1
 1157 00d3 01       		.byte	0x1
 1158 00d4 49       		.uleb128 0x49
 1159 00d5 13       		.uleb128 0x13
 1160 00d6 01       		.uleb128 0x1
 1161 00d7 13       		.uleb128 0x13
 1162 00d8 00       		.byte	0
 1163 00d9 00       		.byte	0
 1164 00da 11       		.uleb128 0x11
 1165 00db 21       		.uleb128 0x21
 1166 00dc 00       		.byte	0
 1167 00dd 49       		.uleb128 0x49
 1168 00de 13       		.uleb128 0x13
 1169 00df 2F       		.uleb128 0x2f
 1170 00e0 0B       		.uleb128 0xb
 1171 00e1 00       		.byte	0
 1172 00e2 00       		.byte	0
 1173 00e3 12       		.uleb128 0x12
 1174 00e4 34       		.uleb128 0x34
 1175 00e5 00       		.byte	0
 1176 00e6 03       		.uleb128 0x3
 1177 00e7 0E       		.uleb128 0xe
 1178 00e8 3A       		.uleb128 0x3a
 1179 00e9 0B       		.uleb128 0xb
 1180 00ea 3B       		.uleb128 0x3b
 1181 00eb 0B       		.uleb128 0xb
 1182 00ec 49       		.uleb128 0x49
 1183 00ed 13       		.uleb128 0x13
ARM GAS  /tmp/cc6BEziT.s 			page 22


 1184 00ee 02       		.uleb128 0x2
 1185 00ef 0A       		.uleb128 0xa
 1186 00f0 00       		.byte	0
 1187 00f1 00       		.byte	0
 1188 00f2 00       		.byte	0
 1189              		.section	.debug_loc,"",%progbits
 1190              	.Ldebug_loc0:
 1191              	.LLST0:
 1192 0000 00000000 		.4byte	.LFB67
 1193 0004 04000000 		.4byte	.LCFI0
 1194 0008 0200     		.2byte	0x2
 1195 000a 7D       		.byte	0x7d
 1196 000b 00       		.sleb128 0
 1197 000c 04000000 		.4byte	.LCFI0
 1198 0010 A6000000 		.4byte	.LFE67
 1199 0014 0200     		.2byte	0x2
 1200 0016 7D       		.byte	0x7d
 1201 0017 14       		.sleb128 20
 1202 0018 00000000 		.4byte	0
 1203 001c 00000000 		.4byte	0
 1204              	.LLST1:
 1205 0020 00000000 		.4byte	.LVL0
 1206 0024 12000000 		.4byte	.LVL1
 1207 0028 0600     		.2byte	0x6
 1208 002a 03       		.byte	0x3
 1209 002b 00000000 		.4byte	ram_areas
 1210 002f 9F       		.byte	0x9f
 1211 0030 12000000 		.4byte	.LVL1
 1212 0034 A6000000 		.4byte	.LFE67
 1213 0038 0100     		.2byte	0x1
 1214 003a 57       		.byte	0x57
 1215 003b 00000000 		.4byte	0
 1216 003f 00000000 		.4byte	0
 1217              	.LLST2:
 1218 0043 18000000 		.4byte	.LVL2
 1219 0047 2A000000 		.4byte	.LVL3
 1220 004b 0200     		.2byte	0x2
 1221 004d 77       		.byte	0x77
 1222 004e 00       		.sleb128 0
 1223 004f 00000000 		.4byte	0
 1224 0053 00000000 		.4byte	0
 1225              	.LLST3:
 1226 0057 18000000 		.4byte	.LVL2
 1227 005b 3E000000 		.4byte	.LVL4
 1228 005f 0200     		.2byte	0x2
 1229 0061 77       		.byte	0x77
 1230 0062 04       		.sleb128 4
 1231 0063 6A000000 		.4byte	.LVL5
 1232 0067 88000000 		.4byte	.LVL6
 1233 006b 0100     		.2byte	0x1
 1234 006d 56       		.byte	0x56
 1235 006e 00000000 		.4byte	0
 1236 0072 00000000 		.4byte	0
 1237              		.section	.debug_aranges,"",%progbits
 1238 0000 3C000000 		.4byte	0x3c
 1239 0004 0200     		.2byte	0x2
 1240 0006 00000000 		.4byte	.Ldebug_info0
ARM GAS  /tmp/cc6BEziT.s 			page 23


 1241 000a 04       		.byte	0x4
 1242 000b 00       		.byte	0
 1243 000c 0000     		.2byte	0
 1244 000e 0000     		.2byte	0
 1245 0010 00000000 		.4byte	.LFB63
 1246 0014 02000000 		.4byte	.LFE63-.LFB63
 1247 0018 00000000 		.4byte	.LFB64
 1248 001c 02000000 		.4byte	.LFE64-.LFB64
 1249 0020 00000000 		.4byte	.LFB65
 1250 0024 02000000 		.4byte	.LFE65-.LFB65
 1251 0028 00000000 		.4byte	.LFB66
 1252 002c 02000000 		.4byte	.LFE66-.LFB66
 1253 0030 00000000 		.4byte	.LFB67
 1254 0034 A6000000 		.4byte	.LFE67-.LFB67
 1255 0038 00000000 		.4byte	0
 1256 003c 00000000 		.4byte	0
 1257              		.section	.debug_ranges,"",%progbits
 1258              	.Ldebug_ranges0:
 1259 0000 00000000 		.4byte	.LFB63
 1260 0004 02000000 		.4byte	.LFE63
 1261 0008 00000000 		.4byte	.LFB64
 1262 000c 02000000 		.4byte	.LFE64
 1263 0010 00000000 		.4byte	.LFB65
 1264 0014 02000000 		.4byte	.LFE65
 1265 0018 00000000 		.4byte	.LFB66
 1266 001c 02000000 		.4byte	.LFE66
 1267 0020 00000000 		.4byte	.LFB67
 1268 0024 A6000000 		.4byte	.LFE67
 1269 0028 00000000 		.4byte	0
 1270 002c 00000000 		.4byte	0
 1271              		.section	.debug_line,"",%progbits
 1272              	.Ldebug_line0:
 1273 0000 D0010000 		.section	.debug_str,"MS",%progbits,1
 1273      02005101 
 1273      00000201 
 1273      FB0E0D00 
 1273      01010101 
 1274              	.LASF57:
 1275 0000 5F5F696E 		.ascii	"__init_ram_areas\000"
 1275      69745F72 
 1275      616D5F61 
 1275      72656173 
 1275      00
 1276              	.LASF55:
 1277 0011 2E2E2F2E 		.ascii	"../../../resources/chibios/ChibiOS_16.1.8/os/common"
 1277      2E2F2E2E 
 1277      2F726573 
 1277      6F757263 
 1277      65732F63 
 1278 0044 2F706F72 		.ascii	"/ports/ARMCMx/compilers/GCC/crt1.c\000"
 1278      74732F41 
 1278      524D434D 
 1278      782F636F 
 1278      6D70696C 
 1279              	.LASF50:
 1280 0067 5F5F7261 		.ascii	"__ram7_init__\000"
 1280      6D375F69 
ARM GAS  /tmp/cc6BEziT.s 			page 24


 1280      6E69745F 
 1280      5F00
 1281              	.LASF24:
 1282 0075 5F5F7261 		.ascii	"__ram0_noinit__\000"
 1282      6D305F6E 
 1282      6F696E69 
 1282      745F5F00 
 1283              	.LASF16:
 1284 0085 5F5F636F 		.ascii	"__core_init\000"
 1284      72655F69 
 1284      6E697400 
 1285              	.LASF52:
 1286 0091 5F5F7261 		.ascii	"__ram7_noinit__\000"
 1286      6D375F6E 
 1286      6F696E69 
 1286      745F5F00 
 1287              	.LASF12:
 1288 00a1 696E6974 		.ascii	"init_area\000"
 1288      5F617265 
 1288      6100
 1289              	.LASF53:
 1290 00ab 72616D5F 		.ascii	"ram_areas\000"
 1290      61726561 
 1290      7300
 1291              	.LASF21:
 1292 00b5 5F5F7261 		.ascii	"__ram0_init_text__\000"
 1292      6D305F69 
 1292      6E69745F 
 1292      74657874 
 1292      5F5F00
 1293              	.LASF3:
 1294 00c8 73686F72 		.ascii	"short unsigned int\000"
 1294      7420756E 
 1294      7369676E 
 1294      65642069 
 1294      6E7400
 1295              	.LASF35:
 1296 00db 5F5F7261 		.ascii	"__ram3_clear__\000"
 1296      6D335F63 
 1296      6C656172 
 1296      5F5F00
 1297              	.LASF26:
 1298 00ea 5F5F7261 		.ascii	"__ram1_init__\000"
 1298      6D315F69 
 1298      6E69745F 
 1298      5F00
 1299              	.LASF46:
 1300 00f8 5F5F7261 		.ascii	"__ram6_init__\000"
 1300      6D365F69 
 1300      6E69745F 
 1300      5F00
 1301              	.LASF30:
 1302 0106 5F5F7261 		.ascii	"__ram2_init__\000"
 1302      6D325F69 
 1302      6E69745F 
 1302      5F00
 1303              	.LASF45:
ARM GAS  /tmp/cc6BEziT.s 			page 25


 1304 0114 5F5F7261 		.ascii	"__ram6_init_text__\000"
 1304      6D365F69 
 1304      6E69745F 
 1304      74657874 
 1304      5F5F00
 1305              	.LASF48:
 1306 0127 5F5F7261 		.ascii	"__ram6_noinit__\000"
 1306      6D365F6E 
 1306      6F696E69 
 1306      745F5F00 
 1307              	.LASF33:
 1308 0137 5F5F7261 		.ascii	"__ram3_init_text__\000"
 1308      6D335F69 
 1308      6E69745F 
 1308      74657874 
 1308      5F5F00
 1309              	.LASF13:
 1310 014a 636C6561 		.ascii	"clear_area\000"
 1310      725F6172 
 1310      656100
 1311              	.LASF18:
 1312 0155 5F5F6C61 		.ascii	"__late_init\000"
 1312      74655F69 
 1312      6E697400 
 1313              	.LASF47:
 1314 0161 5F5F7261 		.ascii	"__ram6_clear__\000"
 1314      6D365F63 
 1314      6C656172 
 1314      5F5F00
 1315              	.LASF5:
 1316 0170 696E7433 		.ascii	"int32_t\000"
 1316      325F7400 
 1317              	.LASF7:
 1318 0178 6C6F6E67 		.ascii	"long unsigned int\000"
 1318      20756E73 
 1318      69676E65 
 1318      6420696E 
 1318      7400
 1319              	.LASF22:
 1320 018a 5F5F7261 		.ascii	"__ram0_init__\000"
 1320      6D305F69 
 1320      6E69745F 
 1320      5F00
 1321              	.LASF42:
 1322 0198 5F5F7261 		.ascii	"__ram5_init__\000"
 1322      6D355F69 
 1322      6E69745F 
 1322      5F00
 1323              	.LASF27:
 1324 01a6 5F5F7261 		.ascii	"__ram1_clear__\000"
 1324      6D315F63 
 1324      6C656172 
 1324      5F5F00
 1325              	.LASF20:
 1326 01b5 49544D5F 		.ascii	"ITM_RxBuffer\000"
 1326      52784275 
 1326      66666572 
ARM GAS  /tmp/cc6BEziT.s 			page 26


 1326      00
 1327              	.LASF34:
 1328 01c2 5F5F7261 		.ascii	"__ram3_init__\000"
 1328      6D335F69 
 1328      6E69745F 
 1328      5F00
 1329              	.LASF1:
 1330 01d0 756E7369 		.ascii	"unsigned char\000"
 1330      676E6564 
 1330      20636861 
 1330      7200
 1331              	.LASF19:
 1332 01de 5F5F6465 		.ascii	"__default_exit\000"
 1332      6661756C 
 1332      745F6578 
 1332      697400
 1333              	.LASF29:
 1334 01ed 5F5F7261 		.ascii	"__ram2_init_text__\000"
 1334      6D325F69 
 1334      6E69745F 
 1334      74657874 
 1334      5F5F00
 1335              	.LASF15:
 1336 0200 72616D5F 		.ascii	"ram_init_area_t\000"
 1336      696E6974 
 1336      5F617265 
 1336      615F7400 
 1337              	.LASF41:
 1338 0210 5F5F7261 		.ascii	"__ram5_init_text__\000"
 1338      6D355F69 
 1338      6E69745F 
 1338      74657874 
 1338      5F5F00
 1339              	.LASF51:
 1340 0223 5F5F7261 		.ascii	"__ram7_clear__\000"
 1340      6D375F63 
 1340      6C656172 
 1340      5F5F00
 1341              	.LASF38:
 1342 0232 5F5F7261 		.ascii	"__ram4_init__\000"
 1342      6D345F69 
 1342      6E69745F 
 1342      5F00
 1343              	.LASF39:
 1344 0240 5F5F7261 		.ascii	"__ram4_clear__\000"
 1344      6D345F63 
 1344      6C656172 
 1344      5F5F00
 1345              	.LASF40:
 1346 024f 5F5F7261 		.ascii	"__ram4_noinit__\000"
 1346      6D345F6E 
 1346      6F696E69 
 1346      745F5F00 
 1347              	.LASF10:
 1348 025f 756E7369 		.ascii	"unsigned int\000"
 1348      676E6564 
 1348      20696E74 
ARM GAS  /tmp/cc6BEziT.s 			page 27


 1348      00
 1349              	.LASF9:
 1350 026c 6C6F6E67 		.ascii	"long long unsigned int\000"
 1350      206C6F6E 
 1350      6720756E 
 1350      7369676E 
 1350      65642069 
 1351              	.LASF49:
 1352 0283 5F5F7261 		.ascii	"__ram7_init_text__\000"
 1352      6D375F69 
 1352      6E69745F 
 1352      74657874 
 1352      5F5F00
 1353              	.LASF17:
 1354 0296 5F5F6561 		.ascii	"__early_init\000"
 1354      726C795F 
 1354      696E6974 
 1354      00
 1355              	.LASF44:
 1356 02a3 5F5F7261 		.ascii	"__ram5_noinit__\000"
 1356      6D355F6E 
 1356      6F696E69 
 1356      745F5F00 
 1357              	.LASF14:
 1358 02b3 6E6F5F69 		.ascii	"no_init_area\000"
 1358      6E69745F 
 1358      61726561 
 1358      00
 1359              	.LASF36:
 1360 02c0 5F5F7261 		.ascii	"__ram3_noinit__\000"
 1360      6D335F6E 
 1360      6F696E69 
 1360      745F5F00 
 1361              	.LASF8:
 1362 02d0 6C6F6E67 		.ascii	"long long int\000"
 1362      206C6F6E 
 1362      6720696E 
 1362      7400
 1363              	.LASF32:
 1364 02de 5F5F7261 		.ascii	"__ram2_noinit__\000"
 1364      6D325F6E 
 1364      6F696E69 
 1364      745F5F00 
 1365              	.LASF25:
 1366 02ee 5F5F7261 		.ascii	"__ram1_init_text__\000"
 1366      6D315F69 
 1366      6E69745F 
 1366      74657874 
 1366      5F5F00
 1367              	.LASF54:
 1368 0301 474E5520 		.ascii	"GNU C 4.6.1\000"
 1368      4320342E 
 1368      362E3100 
 1369              	.LASF31:
 1370 030d 5F5F7261 		.ascii	"__ram2_clear__\000"
 1370      6D325F63 
 1370      6C656172 
ARM GAS  /tmp/cc6BEziT.s 			page 28


 1370      5F5F00
 1371              	.LASF37:
 1372 031c 5F5F7261 		.ascii	"__ram4_init_text__\000"
 1372      6D345F69 
 1372      6E69745F 
 1372      74657874 
 1372      5F5F00
 1373              	.LASF2:
 1374 032f 73686F72 		.ascii	"short int\000"
 1374      7420696E 
 1374      7400
 1375              	.LASF56:
 1376 0339 2F686F6D 		.ascii	"/home/madog/Documents/proyectos/CYCLE/repos/harvest"
 1376      652F6D61 
 1376      646F672F 
 1376      446F6375 
 1376      6D656E74 
 1377 036c 65722F73 		.ascii	"er/src\000"
 1377      726300
 1378              	.LASF11:
 1379 0373 696E6974 		.ascii	"init_text_area\000"
 1379      5F746578 
 1379      745F6172 
 1379      656100
 1380              	.LASF23:
 1381 0382 5F5F7261 		.ascii	"__ram0_clear__\000"
 1381      6D305F63 
 1381      6C656172 
 1381      5F5F00
 1382              	.LASF6:
 1383 0391 75696E74 		.ascii	"uint32_t\000"
 1383      33325F74 
 1383      00
 1384              	.LASF4:
 1385 039a 6C6F6E67 		.ascii	"long int\000"
 1385      20696E74 
 1385      00
 1386              	.LASF28:
 1387 03a3 5F5F7261 		.ascii	"__ram1_noinit__\000"
 1387      6D315F6E 
 1387      6F696E69 
 1387      745F5F00 
 1388              	.LASF0:
 1389 03b3 7369676E 		.ascii	"signed char\000"
 1389      65642063 
 1389      68617200 
 1390              	.LASF43:
 1391 03bf 5F5F7261 		.ascii	"__ram5_clear__\000"
 1391      6D355F63 
 1391      6C656172 
 1391      5F5F00
 1392              		.ident	"GCC: (Sourcery CodeBench Lite 2011.09-69) 4.6.1"
ARM GAS  /tmp/cc6BEziT.s 			page 29


DEFINED SYMBOLS
                            *ABS*:00000000 crt1.c
     /tmp/cc6BEziT.s:19     .text.__core_init:00000000 $t
     /tmp/cc6BEziT.s:25     .text.__core_init:00000000 __core_init
     /tmp/cc6BEziT.s:39     .text.__early_init:00000000 $t
     /tmp/cc6BEziT.s:45     .text.__early_init:00000000 __early_init
     /tmp/cc6BEziT.s:58     .text.__late_init:00000000 $t
     /tmp/cc6BEziT.s:64     .text.__late_init:00000000 __late_init
     /tmp/cc6BEziT.s:77     .text.__default_exit:00000000 $t
     /tmp/cc6BEziT.s:83     .text.__default_exit:00000000 __default_exit
     /tmp/cc6BEziT.s:97     .text.__init_ram_areas:00000000 $t
     /tmp/cc6BEziT.s:103    .text.__init_ram_areas:00000000 __init_ram_areas
     /tmp/cc6BEziT.s:229    .rodata.ram_areas:00000000 .LANCHOR0
     /tmp/cc6BEziT.s:228    .rodata.ram_areas:00000000 $d
     /tmp/cc6BEziT.s:232    .rodata.ram_areas:00000000 ram_areas
                     .debug_frame:00000010 $d

UNDEFINED SYMBOLS
__ram0_init_text__
__ram0_init__
__ram0_clear__
__ram0_noinit__
__ram1_init_text__
__ram1_init__
__ram1_clear__
__ram1_noinit__
__ram2_init_text__
__ram2_init__
__ram2_clear__
__ram2_noinit__
__ram3_init_text__
__ram3_init__
__ram3_clear__
__ram3_noinit__
__ram4_init_text__
__ram4_init__
__ram4_clear__
__ram4_noinit__
__ram5_init_text__
__ram5_init__
__ram5_clear__
__ram5_noinit__
__ram6_init_text__
__ram6_init__
__ram6_clear__
__ram6_noinit__
__ram7_init_text__
__ram7_init__
__ram7_clear__
__ram7_noinit__
