ARM GAS  /tmp/cc6BEziT.s 			page 1


   1              		.syntax unified
   2              		.cpu cortex-m3
   3              		.fpu softvfp
   4              		.eabi_attribute 20, 1
   5              		.eabi_attribute 21, 1
   6              		.eabi_attribute 23, 3
   7              		.eabi_attribute 24, 1
   8              		.eabi_attribute 25, 1
   9              		.eabi_attribute 26, 1
  10              		.eabi_attribute 30, 2
  11              		.eabi_attribute 34, 1
  12              		.eabi_attribute 18, 4
  13              		.thumb
  14              		.file	"crt1.c"
  15              		.text
  16              	.Ltext0:
  17              		.cfi_sections	.debug_frame
  18              		.section	.text.__core_init,"ax",%progbits
  19              		.align	2
  20              		.p2align 4,,15
  21              		.weak	__core_init
  22              		.thumb
  23              		.thumb_func
  24              		.type	__core_init, %function
  25              	__core_init:
  26              	.LFB63:
  27              		.file 1 "../../../resources/chibios/ChibiOS_16.1.8/os/common/ports/ARMCMx/compilers/GCC/crt1.c"
  28              		.loc 1 136 0
  29              		.cfi_startproc
  30              		@ args = 0, pretend = 0, frame = 0
  31              		@ frame_needed = 0, uses_anonymous_args = 0
  32              		@ link register save eliminated.
  33              		.loc 1 142 0
  34 0000 7047     		bx	lr
  35              		.cfi_endproc
  36              	.LFE63:
  37              		.size	__core_init, .-__core_init
  38 0002 00BFAFF3 		.section	.text.__early_init,"ax",%progbits
  38      0080AFF3 
  38      0080AFF3 
  38      0080
  39              		.align	2
  40              		.p2align 4,,15
  41              		.weak	__early_init
  42              		.thumb
  43              		.thumb_func
  44              		.type	__early_init, %function
  45              	__early_init:
  46              	.LFB64:
  47              		.loc 1 155 0
  48              		.cfi_startproc
  49              		@ args = 0, pretend = 0, frame = 0
  50              		@ frame_needed = 0, uses_anonymous_args = 0
  51              		@ link register save eliminated.
  52              		.loc 1 155 0
  53 0000 7047     		bx	lr
  54              		.cfi_endproc
ARM GAS  /tmp/cc6BEziT.s 			page 2


  55              	.LFE64:
  56              		.size	__early_init, .-__early_init
  57 0002 00BFAFF3 		.section	.text.__late_init,"ax",%progbits
  57      0080AFF3 
  57      0080AFF3 
  57      0080
  58              		.align	2
  59              		.p2align 4,,15
  60              		.weak	__late_init
  61              		.thumb
  62              		.thumb_func
  63              		.type	__late_init, %function
  64              	__late_init:
  65              	.LFB65:
  66              		.loc 1 169 0
  67              		.cfi_startproc
  68              		@ args = 0, pretend = 0, frame = 0
  69              		@ frame_needed = 0, uses_anonymous_args = 0
  70              		@ link register save eliminated.
  71              		.loc 1 169 0
  72 0000 7047     		bx	lr
  73              		.cfi_endproc
  74              	.LFE65:
  75              		.size	__late_init, .-__late_init
  76 0002 00BFAFF3 		.section	.text.__default_exit,"ax",%progbits
  76      0080AFF3 
  76      0080AFF3 
  76      0080
  77              		.align	2
  78              		.p2align 4,,15
  79              		.weak	__default_exit
  80              		.thumb
  81              		.thumb_func
  82              		.type	__default_exit, %function
  83              	__default_exit:
  84              	.LFB66:
  85              		.loc 1 182 0
  86              		.cfi_startproc
  87              		@ Volatile: function does not return.
  88              		@ args = 0, pretend = 0, frame = 0
  89              		@ frame_needed = 0, uses_anonymous_args = 0
  90              		@ link register save eliminated.
  91              	.L5:
  92 0000 FEE7     		b	.L5
  93              		.cfi_endproc
  94              	.LFE66:
  95              		.size	__default_exit, .-__default_exit
  96 0002 00BFAFF3 		.section	.text.__init_ram_areas,"ax",%progbits
  96      0080AFF3 
  96      0080AFF3 
  96      0080
  97              		.align	2
  98              		.p2align 4,,15
  99              		.global	__init_ram_areas
 100              		.thumb
 101              		.thumb_func
 102              		.type	__init_ram_areas, %function
ARM GAS  /tmp/cc6BEziT.s 			page 3


 103              	__init_ram_areas:
 104              	.LFB67:
 105              		.loc 1 192 0
 106              		.cfi_startproc
 107              		@ args = 0, pretend = 0, frame = 0
 108              		@ frame_needed = 0, uses_anonymous_args = 0
 109              		@ link register save eliminated.
 110              	.LVL0:
 111              		.loc 1 192 0
 112 0000 2DE9F001 		push	{r4, r5, r6, r7, r8}
 113              	.LCFI0:
 114              		.cfi_def_cfa_offset 20
 115              		.cfi_offset 8, -4
 116              		.cfi_offset 7, -8
 117              		.cfi_offset 6, -12
 118              		.cfi_offset 5, -16
 119              		.cfi_offset 4, -20
 120              		.loc 1 194 0
 121 0004 40F20007 		movw	r7, #:lower16:.LANCHOR0
 122 0008 C0F20007 		movt	r7, #:upper16:.LANCHOR0
 123 000c 07F1800C 		add	ip, r7, #128
 124              	.LBB2:
 125              		.loc 1 209 0
 126 0010 0024     		movs	r4, #0
 127              	.LVL1:
 128              	.L11:
 129              		.loc 1 198 0
 130 0012 7E68     		ldr	r6, [r7, #4]
 131              		.loc 1 201 0
 132 0014 BD68     		ldr	r5, [r7, #8]
 133              		.loc 1 197 0
 134 0016 3968     		ldr	r1, [r7, #0]
 135              	.LVL2:
 136              		.loc 1 201 0
 137 0018 AE42     		cmp	r6, r5
 138 001a 26D2     		bcs	.L7
 139              		.loc 1 202 0
 140 001c 0A46     		mov	r2, r1
 141 001e 52F8048B 		ldr	r8, [r2], #4
 142 0022 3346     		mov	r3, r6
 143 0024 F043     		mvns	r0, r6
 144 0026 43F8048B 		str	r8, [r3], #4
 145              	.LVL3:
 146 002a 2818     		adds	r0, r5, r0
 147              		.loc 1 201 0
 148 002c AB42     		cmp	r3, r5
 149 002e C0F38000 		ubfx	r0, r0, #2, #1
 150 0032 14D2     		bcs	.L26
 151 0034 28B1     		cbz	r0, .L8
 152              		.loc 1 202 0
 153 0036 4968     		ldr	r1, [r1, #4]
 154 0038 0432     		adds	r2, r2, #4
 155 003a 43F8041B 		str	r1, [r3], #4
 156              	.LVL4:
 157              		.loc 1 201 0
 158 003e AB42     		cmp	r3, r5
 159 0040 0DD2     		bcs	.L26
ARM GAS  /tmp/cc6BEziT.s 			page 4


 160              	.L8:
 161              		.loc 1 202 0
 162 0042 1046     		mov	r0, r2
 163 0044 50F8048B 		ldr	r8, [r0], #4
 164 0048 1946     		mov	r1, r3
 165 004a 41F8048B 		str	r8, [r1], #4
 166 004e D2F80480 		ldr	r8, [r2, #4]
 167 0052 021D     		adds	r2, r0, #4
 168 0054 C3F80480 		str	r8, [r3, #4]
 169              		.loc 1 203 0
 170 0058 0B1D     		adds	r3, r1, #4
 171              		.loc 1 201 0
 172 005a AB42     		cmp	r3, r5
 173 005c F1D3     		bcc	.L8
 174              	.L26:
 175              		.loc 1 192 0
 176 005e F343     		mvns	r3, r6
 177 0060 5A19     		adds	r2, r3, r5
 178 0062 22F00305 		bic	r5, r2, #3
 179 0066 0435     		adds	r5, r5, #4
 180 0068 7619     		adds	r6, r6, r5
 181              	.L7:
 182              	.LVL5:
 183              		.loc 1 208 0 discriminator 1
 184 006a F968     		ldr	r1, [r7, #12]
 185 006c 8E42     		cmp	r6, r1
 186 006e 14D2     		bcs	.L9
 187              		.loc 1 209 0
 188 0070 3346     		mov	r3, r6
 189 0072 F243     		mvns	r2, r6
 190 0074 43F8044B 		str	r4, [r3], #4
 191 0078 8818     		adds	r0, r1, r2
 192              		.loc 1 208 0
 193 007a 8B42     		cmp	r3, r1
 194 007c C0F38002 		ubfx	r2, r0, #2, #1
 195 0080 0BD2     		bcs	.L9
 196 0082 1AB1     		cbz	r2, .L12
 197              		.loc 1 209 0
 198 0084 43F8044B 		str	r4, [r3], #4
 199              	.LVL6:
 200              		.loc 1 208 0
 201 0088 8B42     		cmp	r3, r1
 202 008a 06D2     		bcs	.L9
 203              	.L12:
 204              		.loc 1 209 0
 205 008c 1846     		mov	r0, r3
 206 008e 40F8044B 		str	r4, [r0], #4
 207 0092 5C60     		str	r4, [r3, #4]
 208              		.loc 1 210 0
 209 0094 031D     		adds	r3, r0, #4
 210              		.loc 1 208 0
 211 0096 8B42     		cmp	r3, r1
 212 0098 F8D3     		bcc	.L12
 213              	.L9:
 214              		.loc 1 212 0
 215 009a 1037     		adds	r7, r7, #16
 216              	.LVL7:
ARM GAS  /tmp/cc6BEziT.s 			page 5


 217              	.LBE2:
 218              		.loc 1 214 0
 219 009c 6745     		cmp	r7, ip
 220 009e B8D3     		bcc	.L11
 221              		.loc 1 216 0
 222 00a0 BDE8F001 		pop	{r4, r5, r6, r7, r8}
 223 00a4 7047     		bx	lr
 224              		.cfi_endproc
 225              	.LFE67:
 226              		.size	__init_ram_areas, .-__init_ram_areas
 227 00a6 00BFAFF3 		.section	.rodata.ram_areas,"a",%progbits
 227      0080AFF3 
 227      0080
 228              		.align	2
 229              		.set	.LANCHOR0,. + 0
 230              		.type	ram_areas, %object
 231              		.size	ram_areas, 128
 232              	ram_areas:
 233 0000 00000000 		.word	__ram0_init_text__
 234 0004 00000000 		.word	__ram0_init__
 235 0008 00000000 		.word	__ram0_clear__
 236 000c 00000000 		.word	__ram0_noinit__
 237 0010 00000000 		.word	__ram1_init_text__
 238 0014 00000000 		.word	__ram1_init__
 239 0018 00000000 		.word	__ram1_clear__
 240 001c 00000000 		.word	__ram1_noinit__
 241 0020 00000000 		.word	__ram2_init_text__
 242 0024 00000000 		.word	__ram2_init__
 243 0028 00000000 		.word	__ram2_clear__
 244 002c 00000000 		.word	__ram2_noinit__
 245 0030 00000000 		.word	__ram3_init_text__
 246 0034 00000000 		.word	__ram3_init__
 247 0038 00000000 		.word	__ram3_clear__
 248 003c 00000000 		.word	__ram3_noinit__
 249 0040 00000000 		.word	__ram4_init_text__
 250 0044 00000000 		.word	__ram4_init__
 251 0048 00000000 		.word	__ram4_clear__
 252 004c 00000000 		.word	__ram4_noinit__
 253 0050 00000000 		.word	__ram5_init_text__
 254 0054 00000000 		.word	__ram5_init__
 255 0058 00000000 		.word	__ram5_clear__
 256 005c 00000000 		.word	__ram5_noinit__
 257 0060 00000000 		.word	__ram6_init_text__
 258 0064 00000000 		.word	__ram6_init__
 259 0068 00000000 		.word	__ram6_clear__
 260 006c 00000000 		.word	__ram6_noinit__
 261 0070 00000000 		.word	__ram7_init_text__
 262 0074 00000000 		.word	__ram7_init__
 263 0078 00000000 		.word	__ram7_clear__
 264 007c 00000000 		.word	__ram7_noinit__
 265              		.text
 266              	.Letext0:
 267              		.file 2 "/home/madog/programs/CodeSourcery/Sourcery_CodeBench_Lite_for_ARM_EABI/bin/../lib/gcc/arm
 268              		.file 3 "../../../resources/chibios/ChibiOS_16.1.8/os/ext/CMSIS/include/core_cm3.h"