ARM GAS  /tmp/ccGRLsx6.s 			page 1


   1              		.syntax unified
   2              		.cpu cortex-m3
   3              		.fpu softvfp
   4              		.eabi_attribute 20, 1
   5              		.eabi_attribute 21, 1
   6              		.eabi_attribute 23, 3
   7              		.eabi_attribute 24, 1
   8              		.eabi_attribute 25, 1
   9              		.eabi_attribute 26, 1
  10              		.eabi_attribute 30, 2
  11              		.eabi_attribute 34, 1
  12              		.eabi_attribute 18, 4
  13              		.thumb
  14              		.file	"hal_buffers.c"
  15              		.text
  16              	.Ltext0:
  17              		.cfi_sections	.debug_frame
  18              		.section	.text.ibqObjectInit,"ax",%progbits
  19              		.align	2
  20              		.p2align 4,,15
  21              		.global	ibqObjectInit
  22              		.thumb
  23              		.thumb_func
  24              		.type	ibqObjectInit, %function
  25              	ibqObjectInit:
  26              	.LFB213:
  27              		.file 1 "../../../resources/chibios/ChibiOS_16.1.8/os/hal/src/hal_buffers.c"
  28              		.loc 1 77 0
  29              		.cfi_startproc
  30              		@ args = 8, pretend = 0, frame = 0
  31              		@ frame_needed = 0, uses_anonymous_args = 0
  32              		@ link register save eliminated.
  33              	.LVL0:
  34              		.loc 1 85 0
  35 0000 0432     		adds	r2, r2, #4
  36              	.LVL1:
  37              		.loc 1 77 0
  38 0002 30B4     		push	{r4, r5}
  39              	.LCFI0:
  40              		.cfi_def_cfa_offset 8
  41              		.cfi_offset 5, -4
  42              		.cfi_offset 4, -8
  43              		.loc 1 85 0
  44 0004 02FB0314 		mla	r4, r2, r3, r1
  45              	.LVL2:
  46              		.loc 1 83 0
  47 0008 0161     		str	r1, [r0, #16]
  48              		.loc 1 84 0
  49 000a C160     		str	r1, [r0, #12]
  50              		.loc 1 87 0
  51 000c C361     		str	r3, [r0, #28]
  52              		.loc 1 88 0
  53 000e 0162     		str	r1, [r0, #32]
  54              		.loc 1 92 0
  55 0010 039B     		ldr	r3, [sp, #12]
  56              	.LVL3:
  57              		.loc 1 91 0
ARM GAS  /tmp/ccGRLsx6.s 			page 2


  58 0012 0299     		ldr	r1, [sp, #8]
  59              	.LVL4:
  60              		.loc 1 82 0
  61 0014 0025     		movs	r5, #0
  62              	.LBB273:
  63              	.LBB274:
  64              	.LBB275:
  65              	.LBB276:
  66              		.file 2 "../../../resources/chibios/ChibiOS_16.1.8/os/rt/include/chschd.h"
  67              		.loc 2 604 0
  68 0016 0060     		str	r0, [r0, #0]
  69              		.loc 2 605 0
  70 0018 4060     		str	r0, [r0, #4]
  71              	.LBE276:
  72              	.LBE275:
  73              	.LBE274:
  74              	.LBE273:
  75              		.loc 1 82 0
  76 001a 8560     		str	r5, [r0, #8]
  77              		.loc 1 85 0
  78 001c 4461     		str	r4, [r0, #20]
  79              		.loc 1 86 0
  80 001e 8261     		str	r2, [r0, #24]
  81              		.loc 1 89 0
  82 0020 4562     		str	r5, [r0, #36]
  83              		.loc 1 90 0
  84 0022 8562     		str	r5, [r0, #40]
  85              		.loc 1 91 0
  86 0024 C162     		str	r1, [r0, #44]
  87              		.loc 1 92 0
  88 0026 0363     		str	r3, [r0, #48]
  89              		.loc 1 93 0
  90 0028 30BC     		pop	{r4, r5}
  91 002a 7047     		bx	lr
  92              		.cfi_endproc
  93              	.LFE213:
  94              		.size	ibqObjectInit, .-ibqObjectInit
  95 002c AFF30080 		.section	.text.ibqResetI,"ax",%progbits
  96              		.align	2
  97              		.p2align 4,,15
  98              		.global	ibqResetI
  99              		.thumb
 100              		.thumb_func
 101              		.type	ibqResetI, %function
 102              	ibqResetI:
 103              	.LFB214:
 104              		.loc 1 106 0
 105              		.cfi_startproc
 106              		@ args = 0, pretend = 0, frame = 0
 107              		@ frame_needed = 0, uses_anonymous_args = 0
 108              		@ link register save eliminated.
 109              	.LVL5:
 110              		.loc 1 111 0
 111 0000 016A     		ldr	r1, [r0, #32]
 112              		.loc 1 110 0
 113 0002 0022     		movs	r2, #0
 114              		.loc 1 111 0
ARM GAS  /tmp/ccGRLsx6.s 			page 3


 115 0004 0161     		str	r1, [r0, #16]
 116              		.loc 1 112 0
 117 0006 C160     		str	r1, [r0, #12]
 118              	.LBB277:
 119              	.LBB278:
 120              		.file 3 "../../../resources/chibios/ChibiOS_16.1.8/os/hal/osal/rt/osal.h"
 121              		.loc 3 810 0
 122 0008 6FF00101 		mvn	r1, #1
 123              	.LBE278:
 124              	.LBE277:
 125              		.loc 1 110 0
 126 000c 8260     		str	r2, [r0, #8]
 127              		.loc 1 113 0
 128 000e 4262     		str	r2, [r0, #36]
 129              		.loc 1 114 0
 130 0010 8262     		str	r2, [r0, #40]
 131              	.LVL6:
 132              		.loc 1 116 0
 133              	.LBB280:
 134              	.LBB279:
 135              		.loc 3 810 0
 136 0012 FFF7FEBF 		b	chThdDequeueAllI
 137              	.LVL7:
 138              	.LVL8:
 139              	.LBE279:
 140              	.LBE280:
 141              		.cfi_endproc
 142              	.LFE214:
 143              		.size	ibqResetI, .-ibqResetI
 144 0016 00BFAFF3 		.section	.text.ibqGetEmptyBufferI,"ax",%progbits
 144      0080AFF3 
 144      0080
 145              		.align	2
 146              		.p2align 4,,15
 147              		.global	ibqGetEmptyBufferI
 148              		.thumb
 149              		.thumb_func
 150              		.type	ibqGetEmptyBufferI, %function
 151              	ibqGetEmptyBufferI:
 152              	.LFB215:
 153              		.loc 1 128 0
 154              		.cfi_startproc
 155              		@ args = 0, pretend = 0, frame = 0
 156              		@ frame_needed = 0, uses_anonymous_args = 0
 157              		@ link register save eliminated.
 158              	.LVL9:
 159              		.loc 1 132 0
 160 0000 C368     		ldr	r3, [r0, #12]
 161 0002 0269     		ldr	r2, [r0, #16]
 162 0004 9342     		cmp	r3, r2
 163 0006 01D0     		beq	.L7
 164              	.LVL10:
 165              	.L4:
 166              		.loc 1 136 0
 167 0008 181D     		adds	r0, r3, #4
 168 000a 7047     		bx	lr
 169              	.LVL11:
ARM GAS  /tmp/ccGRLsx6.s 			page 4


 170              	.L7:
 171              		.loc 1 132 0 discriminator 1
 172 000c 8068     		ldr	r0, [r0, #8]
 173              	.LVL12:
 174 000e 0028     		cmp	r0, #0
 175 0010 FAD0     		beq	.L4
 176              		.loc 1 133 0
 177 0012 0020     		movs	r0, #0
 178              		.loc 1 137 0
 179 0014 7047     		bx	lr
 180              		.cfi_endproc
 181              	.LFE215:
 182              		.size	ibqGetEmptyBufferI, .-ibqGetEmptyBufferI
 183 0016 00BFAFF3 		.section	.text.ibqPostFullBufferI,"ax",%progbits
 183      0080AFF3 
 183      0080
 184              		.align	2
 185              		.p2align 4,,15
 186              		.global	ibqPostFullBufferI
 187              		.thumb
 188              		.thumb_func
 189              		.type	ibqPostFullBufferI, %function
 190              	ibqPostFullBufferI:
 191              	.LFB216:
 192              		.loc 1 147 0
 193              		.cfi_startproc
 194              		@ args = 0, pretend = 0, frame = 0
 195              		@ frame_needed = 0, uses_anonymous_args = 0
 196              		@ link register save eliminated.
 197              	.LVL13:
 198              		.loc 1 155 0
 199 0000 C368     		ldr	r3, [r0, #12]
 200              		.loc 1 147 0
 201 0002 10B4     		push	{r4}
 202              	.LCFI1:
 203              		.cfi_def_cfa_offset 4
 204              		.cfi_offset 4, -4
 205              		.loc 1 160 0
 206 0004 4269     		ldr	r2, [r0, #20]
 207              		.loc 1 155 0
 208 0006 1960     		str	r1, [r3, #0]
 209              		.loc 1 159 0
 210 0008 8469     		ldr	r4, [r0, #24]
 211              		.loc 1 158 0
 212 000a 8168     		ldr	r1, [r0, #8]
 213              	.LVL14:
 214              		.loc 1 159 0
 215 000c 1B19     		adds	r3, r3, r4
 216              		.loc 1 158 0
 217 000e 0131     		adds	r1, r1, #1
 218              		.loc 1 160 0
 219 0010 9342     		cmp	r3, r2
 220              		.loc 1 159 0
 221 0012 C360     		str	r3, [r0, #12]
 222              		.loc 1 161 0
 223 0014 28BF     		it	cs
 224 0016 036A     		ldrcs	r3, [r0, #32]
ARM GAS  /tmp/ccGRLsx6.s 			page 5


 225              		.loc 1 158 0
 226 0018 8160     		str	r1, [r0, #8]
 227              		.loc 1 161 0
 228 001a 28BF     		it	cs
 229 001c C360     		strcs	r3, [r0, #12]
 230              	.LVL15:
 231              	.LBB281:
 232              	.LBB282:
 233              		.loc 3 797 0
 234 001e 0021     		movs	r1, #0
 235              	.LBE282:
 236              	.LBE281:
 237              		.loc 1 166 0
 238 0020 10BC     		pop	{r4}
 239              	.LBB284:
 240              	.LBB283:
 241              		.loc 3 797 0
 242 0022 FFF7FEBF 		b	chThdDequeueNextI
 243              	.LVL16:
 244              	.LVL17:
 245              	.LVL18:
 246              	.LBE283:
 247              	.LBE284:
 248              		.cfi_endproc
 249              	.LFE216:
 250              		.size	ibqPostFullBufferI, .-ibqPostFullBufferI
 251 0026 00BFAFF3 		.section	.text.ibqGetFullBufferTimeoutS,"ax",%progbits
 251      0080AFF3 
 251      0080
 252              		.align	2
 253              		.p2align 4,,15
 254              		.global	ibqGetFullBufferTimeoutS
 255              		.thumb
 256              		.thumb_func
 257              		.type	ibqGetFullBufferTimeoutS, %function
 258              	ibqGetFullBufferTimeoutS:
 259              	.LFB218:
 260              		.loc 1 220 0
 261              		.cfi_startproc
 262              		@ args = 0, pretend = 0, frame = 0
 263              		@ frame_needed = 0, uses_anonymous_args = 0
 264              	.LVL19:
 265 0000 38B5     		push	{r3, r4, r5, lr}
 266              	.LCFI2:
 267              		.cfi_def_cfa_offset 16
 268              		.cfi_offset 14, -4
 269              		.cfi_offset 5, -8
 270              		.cfi_offset 4, -12
 271              		.cfi_offset 3, -16
 272              		.loc 1 220 0
 273 0002 0446     		mov	r4, r0
 274 0004 0D46     		mov	r5, r1
 275              	.LVL20:
 276              	.L11:
 277              		.loc 1 224 0 discriminator 1
 278 0006 A368     		ldr	r3, [r4, #8]
 279              	.LBB293:
ARM GAS  /tmp/ccGRLsx6.s 			page 6


 280              	.LBB294:
 281              	.LBB295:
 282              		.loc 3 784 0 discriminator 1
 283 0008 2046     		mov	r0, r4
 284 000a 2946     		mov	r1, r5
 285              	.LBE295:
 286              	.LBE294:
 287              	.LBE293:
 288              		.loc 1 224 0 discriminator 1
 289 000c 23B9     		cbnz	r3, .L14
 290              	.LVL21:
 291              	.LBB298:
 292              	.LBB297:
 293              	.LBB296:
 294              		.loc 3 784 0
 295 000e FFF7FEFF 		bl	chThdEnqueueTimeoutS
 296              	.LBE296:
 297              	.LBE297:
 298              		.loc 1 226 0
 299 0012 0028     		cmp	r0, #0
 300 0014 F7DA     		bge	.L11
 301              	.LBE298:
 302              		.loc 1 238 0
 303 0016 38BD     		pop	{r3, r4, r5, pc}
 304              	.LVL22:
 305              	.L14:
 306              	.LBB299:
 307              	.LBB300:
 308              		.loc 1 234 0
 309 0018 2369     		ldr	r3, [r4, #16]
 310              		.loc 1 235 0
 311 001a 0020     		movs	r0, #0
 312 001c 1A68     		ldr	r2, [r3, #0]
 313              		.loc 1 234 0
 314 001e 191D     		adds	r1, r3, #4
 315              		.loc 1 235 0
 316 0020 8A18     		adds	r2, r1, r2
 317              		.loc 1 234 0
 318 0022 6162     		str	r1, [r4, #36]
 319              		.loc 1 235 0
 320 0024 A262     		str	r2, [r4, #40]
 321              	.LBE300:
 322              	.LBE299:
 323              		.loc 1 238 0
 324 0026 38BD     		pop	{r3, r4, r5, pc}
 325              		.cfi_endproc
 326              	.LFE218:
 327              		.size	ibqGetFullBufferTimeoutS, .-ibqGetFullBufferTimeoutS
 328 0028 AFF30080 		.section	.text.ibqGetFullBufferTimeout,"ax",%progbits
 328      AFF30080 
 329              		.align	2
 330              		.p2align 4,,15
 331              		.global	ibqGetFullBufferTimeout
 332              		.thumb
 333              		.thumb_func
 334              		.type	ibqGetFullBufferTimeout, %function
 335              	ibqGetFullBufferTimeout:
ARM GAS  /tmp/ccGRLsx6.s 			page 7


 336              	.LFB217:
 337              		.loc 1 189 0
 338              		.cfi_startproc
 339              		@ args = 0, pretend = 0, frame = 0
 340              		@ frame_needed = 0, uses_anonymous_args = 0
 341              	.LVL23:
 342 0000 08B5     		push	{r3, lr}
 343              	.LCFI3:
 344              		.cfi_def_cfa_offset 8
 345              		.cfi_offset 14, -4
 346              		.cfi_offset 3, -8
 347              	.LBB301:
 348              	.LBB302:
 349              	.LBB303:
 350              	.LBB304:
 351              	.LBB305:
 352              		.file 4 "../../../resources/chibios/ChibiOS_16.1.8/os/ext/CMSIS/include/core_cmFunc.h"
 353              		.loc 4 548 0
 354 0002 2022     		movs	r2, #32
 355              	@ 548 "../../../resources/chibios/ChibiOS_16.1.8/os/ext/CMSIS/include/core_cmFunc.h" 1
 356 0004 82F31188 		MSR basepri, r2
 357              	@ 0 "" 2
 358              		.thumb
 359              	.LBE305:
 360              	.LBE304:
 361              	.LBE303:
 362              	.LBE302:
 363              	.LBE301:
 364              		.loc 1 193 0
 365 0008 FFF7FEFF 		bl	ibqGetFullBufferTimeoutS
 366              	.LVL24:
 367              	.LBB306:
 368              	.LBB307:
 369              	.LBB308:
 370              	.LBB309:
 371              	.LBB310:
 372              	.LBB311:
 373              		.loc 4 548 0
 374 000c 0023     		movs	r3, #0
 375              	@ 548 "../../../resources/chibios/ChibiOS_16.1.8/os/ext/CMSIS/include/core_cmFunc.h" 1
 376 000e 83F31188 		MSR basepri, r3
 377              	@ 0 "" 2
 378              		.thumb
 379              	.LBE311:
 380              	.LBE310:
 381              	.LBE309:
 382              	.LBE308:
 383              	.LBE307:
 384              	.LBE306:
 385              		.loc 1 197 0
 386 0012 08BD     		pop	{r3, pc}
 387              		.cfi_endproc
 388              	.LFE217:
 389              		.size	ibqGetFullBufferTimeout, .-ibqGetFullBufferTimeout
 390 0014 AFF30080 		.section	.text.ibqReleaseEmptyBufferS,"ax",%progbits
 390      AFF30080 
 390      AFF30080 
ARM GAS  /tmp/ccGRLsx6.s 			page 8


 391              		.align	2
 392              		.p2align 4,,15
 393              		.global	ibqReleaseEmptyBufferS
 394              		.thumb
 395              		.thumb_func
 396              		.type	ibqReleaseEmptyBufferS, %function
 397              	ibqReleaseEmptyBufferS:
 398              	.LFB220:
 399              		.loc 1 263 0
 400              		.cfi_startproc
 401              		@ args = 0, pretend = 0, frame = 0
 402              		@ frame_needed = 0, uses_anonymous_args = 0
 403              	.LVL25:
 404 0000 10B5     		push	{r4, lr}
 405              	.LCFI4:
 406              		.cfi_def_cfa_offset 8
 407              		.cfi_offset 14, -4
 408              		.cfi_offset 4, -8
 409              		.loc 1 270 0
 410 0002 8369     		ldr	r3, [r0, #24]
 411 0004 0469     		ldr	r4, [r0, #16]
 412              		.loc 1 269 0
 413 0006 8168     		ldr	r1, [r0, #8]
 414              		.loc 1 271 0
 415 0008 4269     		ldr	r2, [r0, #20]
 416              		.loc 1 270 0
 417 000a E318     		adds	r3, r4, r3
 418              		.loc 1 269 0
 419 000c 0139     		subs	r1, r1, #1
 420              		.loc 1 271 0
 421 000e 9342     		cmp	r3, r2
 422              		.loc 1 270 0
 423 0010 0361     		str	r3, [r0, #16]
 424              		.loc 1 272 0
 425 0012 28BF     		it	cs
 426 0014 036A     		ldrcs	r3, [r0, #32]
 427              		.loc 1 269 0
 428 0016 8160     		str	r1, [r0, #8]
 429              		.loc 1 272 0
 430 0018 28BF     		it	cs
 431 001a 0361     		strcs	r3, [r0, #16]
 432              		.loc 1 279 0
 433 001c C36A     		ldr	r3, [r0, #44]
 434              		.loc 1 276 0
 435 001e 0022     		movs	r2, #0
 436 0020 4262     		str	r2, [r0, #36]
 437              		.loc 1 279 0
 438 0022 03B1     		cbz	r3, .L16
 439              		.loc 1 280 0
 440 0024 9847     		blx	r3
 441              	.LVL26:
 442              	.L16:
 443 0026 10BD     		pop	{r4, pc}
 444              		.cfi_endproc
 445              	.LFE220:
 446              		.size	ibqReleaseEmptyBufferS, .-ibqReleaseEmptyBufferS
 447 0028 AFF30080 		.section	.text.ibqReleaseEmptyBuffer,"ax",%progbits
ARM GAS  /tmp/ccGRLsx6.s 			page 9


 447      AFF30080 
 448              		.align	2
 449              		.p2align 4,,15
 450              		.global	ibqReleaseEmptyBuffer
 451              		.thumb
 452              		.thumb_func
 453              		.type	ibqReleaseEmptyBuffer, %function
 454              	ibqReleaseEmptyBuffer:
 455              	.LFB219:
 456              		.loc 1 248 0
 457              		.cfi_startproc
 458              		@ args = 0, pretend = 0, frame = 0
 459              		@ frame_needed = 0, uses_anonymous_args = 0
 460              	.LVL27:
 461 0000 08B5     		push	{r3, lr}
 462              	.LCFI5:
 463              		.cfi_def_cfa_offset 8
 464              		.cfi_offset 14, -4
 465              		.cfi_offset 3, -8
 466              	.LBB312:
 467              	.LBB313:
 468              	.LBB314:
 469              	.LBB315:
 470              	.LBB316:
 471              		.loc 4 548 0
 472 0002 2021     		movs	r1, #32
 473              	@ 548 "../../../resources/chibios/ChibiOS_16.1.8/os/ext/CMSIS/include/core_cmFunc.h" 1
 474 0004 81F31188 		MSR basepri, r1
 475              	@ 0 "" 2
 476              		.thumb
 477              	.LBE316:
 478              	.LBE315:
 479              	.LBE314:
 480              	.LBE313:
 481              	.LBE312:
 482              		.loc 1 251 0
 483 0008 FFF7FEFF 		bl	ibqReleaseEmptyBufferS
 484              	.LVL28:
 485              	.LBB317:
 486              	.LBB318:
 487              	.LBB319:
 488              	.LBB320:
 489              	.LBB321:
 490              	.LBB322:
 491              		.loc 4 548 0
 492 000c 0023     		movs	r3, #0
 493              	@ 548 "../../../resources/chibios/ChibiOS_16.1.8/os/ext/CMSIS/include/core_cmFunc.h" 1
 494 000e 83F31188 		MSR basepri, r3
 495              	@ 0 "" 2
 496              		.thumb
 497              	.LBE322:
 498              	.LBE321:
 499              	.LBE320:
 500              	.LBE319:
 501              	.LBE318:
 502              	.LBE317:
 503              		.loc 1 253 0
ARM GAS  /tmp/ccGRLsx6.s 			page 10


 504 0012 08BD     		pop	{r3, pc}
 505              		.cfi_endproc
 506              	.LFE219:
 507              		.size	ibqReleaseEmptyBuffer, .-ibqReleaseEmptyBuffer
 508 0014 AFF30080 		.section	.text.ibqGetTimeout,"ax",%progbits
 508      AFF30080 
 508      AFF30080 
 509              		.align	2
 510              		.p2align 4,,15
 511              		.global	ibqGetTimeout
 512              		.thumb
 513              		.thumb_func
 514              		.type	ibqGetTimeout, %function
 515              	ibqGetTimeout:
 516              	.LFB221:
 517              		.loc 1 302 0
 518              		.cfi_startproc
 519              		@ args = 0, pretend = 0, frame = 0
 520              		@ frame_needed = 0, uses_anonymous_args = 0
 521              	.LVL29:
 522 0000 70B5     		push	{r4, r5, r6, lr}
 523              	.LCFI6:
 524              		.cfi_def_cfa_offset 16
 525              		.cfi_offset 14, -4
 526              		.cfi_offset 6, -8
 527              		.cfi_offset 5, -12
 528              		.cfi_offset 4, -16
 529              	.LBB323:
 530              	.LBB324:
 531              	.LBB325:
 532              	.LBB326:
 533              	.LBB327:
 534              		.loc 4 548 0
 535 0002 2023     		movs	r3, #32
 536              	.LBE327:
 537              	.LBE326:
 538              	.LBE325:
 539              	.LBE324:
 540              	.LBE323:
 541              		.loc 1 302 0
 542 0004 0446     		mov	r4, r0
 543              	.LBB332:
 544              	.LBB331:
 545              	.LBB330:
 546              	.LBB329:
 547              	.LBB328:
 548              		.loc 4 548 0
 549              	@ 548 "../../../resources/chibios/ChibiOS_16.1.8/os/ext/CMSIS/include/core_cmFunc.h" 1
 550 0006 83F31188 		MSR basepri, r3
 551              	@ 0 "" 2
 552              		.thumb
 553              	.LBE328:
 554              	.LBE329:
 555              	.LBE330:
 556              	.LBE331:
 557              	.LBE332:
 558              		.loc 1 308 0
ARM GAS  /tmp/ccGRLsx6.s 			page 11


 559 000a 456A     		ldr	r5, [r0, #36]
 560 000c 75B1     		cbz	r5, .L25
 561              	.LVL30:
 562              	.L21:
 563              		.loc 1 317 0
 564 000e 15F8016B 		ldrb	r6, [r5], #1	@ zero_extendqisi2
 565              	.LVL31:
 566              		.loc 1 322 0
 567 0012 A06A     		ldr	r0, [r4, #40]
 568              		.loc 1 318 0
 569 0014 6562     		str	r5, [r4, #36]
 570              		.loc 1 322 0
 571 0016 8542     		cmp	r5, r0
 572 0018 04D2     		bcs	.L26
 573              	.L24:
 574              	.LVL32:
 575              	.LBB333:
 576              	.LBB334:
 577              	.LBB335:
 578              	.LBB336:
 579              	.LBB337:
 580              	.LBB338:
 581              		.loc 4 548 0
 582 001a 0021     		movs	r1, #0
 583              	@ 548 "../../../resources/chibios/ChibiOS_16.1.8/os/ext/CMSIS/include/core_cmFunc.h" 1
 584 001c 81F31188 		MSR basepri, r1
 585              	@ 0 "" 2
 586              	.LVL33:
 587              		.thumb
 588              	.L23:
 589              	.LBE338:
 590              	.LBE337:
 591              	.LBE336:
 592              	.LBE335:
 593              	.LBE334:
 594              	.LBE333:
 595              		.loc 1 328 0
 596 0020 3046     		mov	r0, r6
 597 0022 70BD     		pop	{r4, r5, r6, pc}
 598              	.L26:
 599              		.loc 1 323 0
 600 0024 2046     		mov	r0, r4
 601 0026 FFF7FEFF 		bl	ibqReleaseEmptyBufferS
 602 002a F6E7     		b	.L24
 603              	.LVL34:
 604              	.L25:
 605              		.loc 1 309 0
 606 002c FFF7FEFF 		bl	ibqGetFullBufferTimeoutS
 607              	.LVL35:
 608              		.loc 1 310 0
 609 0030 0646     		mov	r6, r0
 610 0032 08B9     		cbnz	r0, .L22
 611 0034 656A     		ldr	r5, [r4, #36]
 612 0036 EAE7     		b	.L21
 613              	.L22:
 614              	.LVL36:
 615              	.LBB339:
ARM GAS  /tmp/ccGRLsx6.s 			page 12


 616              	.LBB340:
 617              	.LBB341:
 618              	.LBB342:
 619              	.LBB343:
 620              	.LBB344:
 621              		.loc 4 548 0
 622              	@ 548 "../../../resources/chibios/ChibiOS_16.1.8/os/ext/CMSIS/include/core_cmFunc.h" 1
 623 0038 85F31188 		MSR basepri, r5
 624              	@ 0 "" 2
 625              		.thumb
 626              	.LBE344:
 627              	.LBE343:
 628              	.LBE342:
 629              	.LBE341:
 630              	.LBE340:
 631              	.LBE339:
 632              		.loc 1 312 0
 633 003c F0E7     		b	.L23
 634              		.cfi_endproc
 635              	.LFE221:
 636              		.size	ibqGetTimeout, .-ibqGetTimeout
 637 003e 00BF     		.section	.text.ibqReadTimeout,"ax",%progbits
 638              		.align	2
 639              		.p2align 4,,15
 640              		.global	ibqReadTimeout
 641              		.thumb
 642              		.thumb_func
 643              		.type	ibqReadTimeout, %function
 644              	ibqReadTimeout:
 645              	.LFB222:
 646              		.loc 1 352 0
 647              		.cfi_startproc
 648              		@ args = 0, pretend = 0, frame = 8
 649              		@ frame_needed = 0, uses_anonymous_args = 0
 650              	.LVL37:
 651 0000 2DE9F04F 		push	{r4, r5, r6, r7, r8, r9, sl, fp, lr}
 652              	.LCFI7:
 653              		.cfi_def_cfa_offset 36
 654              		.cfi_offset 14, -4
 655              		.cfi_offset 11, -8
 656              		.cfi_offset 10, -12
 657              		.cfi_offset 9, -16
 658              		.cfi_offset 8, -20
 659              		.cfi_offset 7, -24
 660              		.cfi_offset 6, -28
 661              		.cfi_offset 5, -32
 662              		.cfi_offset 4, -36
 663 0004 0546     		mov	r5, r0
 664 0006 83B0     		sub	sp, sp, #12
 665              	.LCFI8:
 666              		.cfi_def_cfa_offset 48
 667              		.loc 1 352 0
 668 0008 0C46     		mov	r4, r1
 669 000a 1646     		mov	r6, r2
 670 000c 9946     		mov	r9, r3
 671              	.LBB345:
 672              	.LBB346:
ARM GAS  /tmp/ccGRLsx6.s 			page 13


 673              	.LBB347:
 674              	.LBB348:
 675              	.LBB349:
 676              		.loc 4 548 0
 677 000e 2020     		movs	r0, #32
 678              	.LVL38:
 679              	@ 548 "../../../resources/chibios/ChibiOS_16.1.8/os/ext/CMSIS/include/core_cmFunc.h" 1
 680 0010 80F31188 		MSR basepri, r0
 681              	@ 0 "" 2
 682              		.thumb
 683              	.LBE349:
 684              	.LBE348:
 685              	.LBE347:
 686              	.LBE346:
 687              	.LBE345:
 688              	.LBB350:
 689              	.LBB351:
 690              	.LBB352:
 691              	.LBB353:
 692              	.LBB354:
 693              		.file 5 "../../../resources/chibios/ChibiOS_16.1.8/os/hal/ports/STM32/LLD/TIMv1/st_lld.h"
 694              		.loc 5 141 0
 695 0014 4FF08047 		mov	r7, #1073741824
 696 0018 7A6A     		ldr	r2, [r7, #36]
 697              	.LVL39:
 698              	.LBE354:
 699              	.LBE353:
 700              	.LBE352:
 701              	.LBE351:
 702              	.LBE350:
 703              	.LBB355:
 704              	.LBB356:
 705              		.loc 1 370 0
 706 001a 03F1FF30 		add	r0, r3, #-1
 707              	.LBE356:
 708              	.LBE355:
 709              		.loc 1 359 0
 710 001e 9918     		adds	r1, r3, r2
 711              	.LVL40:
 712 0020 8BB2     		uxth	r3, r1
 713              	.LVL41:
 714 0022 0193     		str	r3, [sp, #4]
 715              	.LVL42:
 716              		.loc 1 353 0
 717 0024 0027     		movs	r7, #0
 718              	.LBB400:
 719              	.LBB381:
 720              		.loc 1 370 0
 721 0026 1FFA80FB 		uxth	fp, r0
 722 002a CA46     		mov	sl, r9
 723 002c 3EE0     		b	.L38
 724              	.LVL43:
 725              	.L46:
 726              	.LBE381:
 727              		.loc 1 403 0
 728 002e D1F80080 		ldr	r8, [r1, #0]	@ unaligned
 729              	.LVL44:
ARM GAS  /tmp/ccGRLsx6.s 			page 14


 730 0032 8868     		ldr	r0, [r1, #8]	@ unaligned
 731 0034 CA68     		ldr	r2, [r1, #12]	@ unaligned
 732 0036 D1F804C0 		ldr	ip, [r1, #4]	@ unaligned
 733 003a 0B46     		mov	r3, r1
 734 003c C4F80080 		str	r8, [r4, #0]	@ unaligned
 735 0040 C4F804C0 		str	ip, [r4, #4]	@ unaligned
 736 0044 A060     		str	r0, [r4, #8]	@ unaligned
 737 0046 E260     		str	r2, [r4, #12]	@ unaligned
 738 0048 53F8109F 		ldr	r9, [r3, #16]!	@ unaligned
 739              		.loc 1 406 0
 740 004c 4037     		adds	r7, r7, #64
 741              	.LVL45:
 742              		.loc 1 403 0
 743 004e D3F80480 		ldr	r8, [r3, #4]	@ unaligned
 744 0052 9A68     		ldr	r2, [r3, #8]	@ unaligned
 745 0054 D868     		ldr	r0, [r3, #12]	@ unaligned
 746 0056 C4F81090 		str	r9, [r4, #16]	@ unaligned
 747 005a C4F81480 		str	r8, [r4, #20]	@ unaligned
 748 005e A261     		str	r2, [r4, #24]	@ unaligned
 749 0060 E061     		str	r0, [r4, #28]	@ unaligned
 750 0062 53F8109F 		ldr	r9, [r3, #16]!	@ unaligned
 751 0066 9A68     		ldr	r2, [r3, #8]	@ unaligned
 752 0068 D3F80480 		ldr	r8, [r3, #4]	@ unaligned
 753 006c DB68     		ldr	r3, [r3, #12]	@ unaligned
 754 006e C4F82090 		str	r9, [r4, #32]	@ unaligned
 755 0072 C4F82480 		str	r8, [r4, #36]	@ unaligned
 756 0076 A262     		str	r2, [r4, #40]	@ unaligned
 757 0078 E362     		str	r3, [r4, #44]	@ unaligned
 758 007a 51F830CF 		ldr	ip, [r1, #48]!	@ unaligned
 759 007e 8A68     		ldr	r2, [r1, #8]	@ unaligned
 760 0080 CB68     		ldr	r3, [r1, #12]	@ unaligned
 761 0082 4868     		ldr	r0, [r1, #4]	@ unaligned
 762 0084 A263     		str	r2, [r4, #56]	@ unaligned
 763 0086 C4F830C0 		str	ip, [r4, #48]	@ unaligned
 764 008a 6063     		str	r0, [r4, #52]	@ unaligned
 765 008c E363     		str	r3, [r4, #60]	@ unaligned
 766              		.loc 1 405 0
 767 008e 6B6A     		ldr	r3, [r5, #36]
 768              		.loc 1 404 0
 769 0090 4034     		adds	r4, r4, #64
 770              	.LVL46:
 771              		.loc 1 405 0
 772 0092 4033     		adds	r3, r3, #64
 773 0094 6B62     		str	r3, [r5, #36]
 774              	.LVL47:
 775              		.loc 1 416 0
 776 0096 AA6A     		ldr	r2, [r5, #40]
 777 0098 9A42     		cmp	r2, r3
 778 009a 21D9     		bls	.L44
 779              	.L37:
 780              	.LVL48:
 781              	.LBB382:
 782              	.LBB383:
 783              	.LBB384:
 784              	.LBB385:
 785              	.LBB386:
 786              	.LBB387:
ARM GAS  /tmp/ccGRLsx6.s 			page 15


 787              		.loc 4 548 0
 788 009c 0023     		movs	r3, #0
 789              	@ 548 "../../../resources/chibios/ChibiOS_16.1.8/os/ext/CMSIS/include/core_cmFunc.h" 1
 790 009e 83F31188 		MSR basepri, r3
 791              	@ 0 "" 2
 792              		.thumb
 793              	.LBE387:
 794              	.LBE386:
 795              	.LBE385:
 796              	.LBE384:
 797              	.LBE383:
 798              	.LBE382:
 799              		.loc 1 422 0
 800 00a2 B742     		cmp	r7, r6
 801 00a4 24D2     		bcs	.L32
 802              	.L47:
 803              	.LVL49:
 804              	.LBB393:
 805              	.LBB394:
 806              	.LBB395:
 807              	.LBB396:
 808              	.LBB397:
 809              		.loc 4 548 0
 810 00a6 2020     		movs	r0, #32
 811              	@ 548 "../../../resources/chibios/ChibiOS_16.1.8/os/ext/CMSIS/include/core_cmFunc.h" 1
 812 00a8 80F31188 		MSR basepri, r0
 813              	@ 0 "" 2
 814              	.LVL50:
 815              		.thumb
 816              	.L38:
 817              	.LBE397:
 818              	.LBE396:
 819              	.LBE395:
 820              	.LBE394:
 821              	.LBE393:
 822              		.loc 1 365 0
 823 00ac 696A     		ldr	r1, [r5, #36]
 824 00ae 0029     		cmp	r1, #0
 825 00b0 22D0     		beq	.L45
 826              	.L28:
 827              		.loc 1 394 0
 828 00b2 AA6A     		ldr	r2, [r5, #40]
 829              		.loc 1 395 0
 830 00b4 F01B     		subs	r0, r6, r7
 831              		.loc 1 394 0
 832 00b6 C1EB0208 		rsb	r8, r1, r2
 833              	.LVL51:
 834 00ba 8045     		cmp	r8, r0
 835 00bc 28BF     		it	cs
 836 00be 8046     		movcs	r8, r0
 837              	.LVL52:
 838              		.loc 1 401 0
 839 00c0 B8F1400F 		cmp	r8, #64
 840 00c4 B3D8     		bhi	.L46
 841              		.loc 1 409 0
 842 00c6 2046     		mov	r0, r4
 843 00c8 4246     		mov	r2, r8
ARM GAS  /tmp/ccGRLsx6.s 			page 16


 844 00ca FFF7FEFF 		bl	memcpy
 845              		.loc 1 411 0
 846 00ce 696A     		ldr	r1, [r5, #36]
 847              		.loc 1 416 0
 848 00d0 AA6A     		ldr	r2, [r5, #40]
 849              		.loc 1 411 0
 850 00d2 01EB0803 		add	r3, r1, r8
 851              		.loc 1 416 0
 852 00d6 9A42     		cmp	r2, r3
 853              		.loc 1 410 0
 854 00d8 4444     		add	r4, r4, r8
 855              	.LVL53:
 856              		.loc 1 411 0
 857 00da 6B62     		str	r3, [r5, #36]
 858              		.loc 1 412 0
 859 00dc 4744     		add	r7, r7, r8
 860              	.LVL54:
 861              		.loc 1 416 0
 862 00de DDD8     		bhi	.L37
 863              	.LVL55:
 864              	.L44:
 865              		.loc 1 417 0
 866 00e0 2846     		mov	r0, r5
 867 00e2 FFF7FEFF 		bl	ibqReleaseEmptyBufferS
 868              	.LVL56:
 869              	.LBB398:
 870              	.LBB392:
 871              	.LBB391:
 872              	.LBB390:
 873              	.LBB389:
 874              	.LBB388:
 875              		.loc 4 548 0
 876 00e6 0023     		movs	r3, #0
 877              	@ 548 "../../../resources/chibios/ChibiOS_16.1.8/os/ext/CMSIS/include/core_cmFunc.h" 1
 878 00e8 83F31188 		MSR basepri, r3
 879              	@ 0 "" 2
 880              		.thumb
 881              	.LBE388:
 882              	.LBE389:
 883              	.LBE390:
 884              	.LBE391:
 885              	.LBE392:
 886              	.LBE398:
 887              		.loc 1 422 0
 888 00ec B742     		cmp	r7, r6
 889 00ee DAD3     		bcc	.L47
 890              	.LVL57:
 891              	.L32:
 892              	.LBE400:
 893              		.loc 1 427 0
 894 00f0 3846     		mov	r0, r7
 895 00f2 03B0     		add	sp, sp, #12
 896 00f4 BDE8F08F 		pop	{r4, r5, r6, r7, r8, r9, sl, fp, pc}
 897              	.L45:
 898              	.LBB401:
 899              	.LBB399:
 900              		.loc 1 370 0
ARM GAS  /tmp/ccGRLsx6.s 			page 17


 901 00f8 4FF6FD73 		movw	r3, #65533
 902 00fc 9B45     		cmp	fp, r3
 903 00fe 0FD8     		bhi	.L48
 904              	.LBB357:
 905              	.LBB358:
 906              	.LBB359:
 907              	.LBB360:
 908              	.LBB361:
 909              	.LBB362:
 910              		.loc 5 141 0
 911 0100 4FF0804C 		mov	ip, #1073741824
 912              	.LBE362:
 913              	.LBE361:
 914              	.LBE360:
 915              	.LBE359:
 916              	.LBE358:
 917              		.loc 1 374 0
 918 0104 019B     		ldr	r3, [sp, #4]
 919              	.LBB367:
 920              	.LBB366:
 921              	.LBB365:
 922              	.LBB364:
 923              	.LBB363:
 924              		.loc 5 141 0
 925 0106 DCF82400 		ldr	r0, [ip, #36]
 926              	.LBE363:
 927              	.LBE364:
 928              	.LBE365:
 929              	.LBE366:
 930              	.LBE367:
 931              		.loc 1 374 0
 932 010a 1A1A     		subs	r2, r3, r0
 933 010c 93B2     		uxth	r3, r2
 934              	.LVL58:
 935              		.loc 1 379 0
 936 010e 9A45     		cmp	sl, r3
 937 0110 10D3     		bcc	.L49
 938              		.loc 1 383 0
 939 0112 2846     		mov	r0, r5
 940 0114 1946     		mov	r1, r3
 941 0116 FFF7FEFF 		bl	ibqGetFullBufferTimeoutS
 942              	.LVL59:
 943              	.LBE357:
 944              		.loc 1 387 0
 945 011a 38B9     		cbnz	r0, .L33
 946              	.L50:
 947 011c 696A     		ldr	r1, [r5, #36]
 948 011e C8E7     		b	.L28
 949              	.LVL60:
 950              	.L48:
 951              		.loc 1 371 0
 952 0120 2846     		mov	r0, r5
 953 0122 5146     		mov	r1, sl
 954 0124 FFF7FEFF 		bl	ibqGetFullBufferTimeoutS
 955              	.LVL61:
 956              		.loc 1 387 0
 957 0128 0028     		cmp	r0, #0
ARM GAS  /tmp/ccGRLsx6.s 			page 18


 958 012a F7D0     		beq	.L50
 959              	.L33:
 960              	.LVL62:
 961              	.LBB374:
 962              	.LBB375:
 963              	.LBB376:
 964              	.LBB377:
 965              	.LBB378:
 966              	.LBB379:
 967              		.loc 4 548 0
 968 012c 0021     		movs	r1, #0
 969              	@ 548 "../../../resources/chibios/ChibiOS_16.1.8/os/ext/CMSIS/include/core_cmFunc.h" 1
 970 012e 81F31188 		MSR basepri, r1
 971              	@ 0 "" 2
 972              		.thumb
 973              	.LBE379:
 974              	.LBE378:
 975              	.LBE377:
 976              	.LBE376:
 977              	.LBE375:
 978              	.LBE374:
 979              		.loc 1 389 0
 980 0132 DDE7     		b	.L32
 981              	.LVL63:
 982              	.L49:
 983              	.LBB380:
 984              	.LBB368:
 985              	.LBB369:
 986              	.LBB370:
 987              	.LBB371:
 988              	.LBB372:
 989              	.LBB373:
 990              		.loc 4 548 0
 991              	@ 548 "../../../resources/chibios/ChibiOS_16.1.8/os/ext/CMSIS/include/core_cmFunc.h" 1
 992 0134 81F31188 		MSR basepri, r1
 993              	@ 0 "" 2
 994              		.thumb
 995              	.LBE373:
 996              	.LBE372:
 997              	.LBE371:
 998              	.LBE370:
 999              	.LBE369:
 1000              	.LBE368:
 1001              		.loc 1 381 0
 1002 0138 DAE7     		b	.L32
 1003              	.LBE380:
 1004              	.LBE399:
 1005              	.LBE401:
 1006              		.cfi_endproc
 1007              	.LFE222:
 1008              		.size	ibqReadTimeout, .-ibqReadTimeout
 1009 013a 00BFAFF3 		.section	.text.obqObjectInit,"ax",%progbits
 1009      0080
 1010              		.align	2
 1011              		.p2align 4,,15
 1012              		.global	obqObjectInit
 1013              		.thumb
ARM GAS  /tmp/ccGRLsx6.s 			page 19


 1014              		.thumb_func
 1015              		.type	obqObjectInit, %function
 1016              	obqObjectInit:
 1017              	.LFB223:
 1018              		.loc 1 443 0
 1019              		.cfi_startproc
 1020              		@ args = 8, pretend = 0, frame = 0
 1021              		@ frame_needed = 0, uses_anonymous_args = 0
 1022              		@ link register save eliminated.
 1023              	.LVL64:
 1024              		.loc 1 451 0
 1025 0000 0432     		adds	r2, r2, #4
 1026              	.LVL65:
 1027              		.loc 1 443 0
 1028 0002 30B4     		push	{r4, r5}
 1029              	.LCFI9:
 1030              		.cfi_def_cfa_offset 8
 1031              		.cfi_offset 5, -4
 1032              		.cfi_offset 4, -8
 1033              		.loc 1 451 0
 1034 0004 03FB0214 		mla	r4, r3, r2, r1
 1035              	.LVL66:
 1036              		.loc 1 448 0
 1037 0008 8360     		str	r3, [r0, #8]
 1038              		.loc 1 449 0
 1039 000a 0161     		str	r1, [r0, #16]
 1040              		.loc 1 450 0
 1041 000c C160     		str	r1, [r0, #12]
 1042              		.loc 1 453 0
 1043 000e C361     		str	r3, [r0, #28]
 1044              		.loc 1 454 0
 1045 0010 0162     		str	r1, [r0, #32]
 1046              		.loc 1 458 0
 1047 0012 039B     		ldr	r3, [sp, #12]
 1048              	.LVL67:
 1049              		.loc 1 457 0
 1050 0014 0299     		ldr	r1, [sp, #8]
 1051              	.LVL68:
 1052              		.loc 1 455 0
 1053 0016 0025     		movs	r5, #0
 1054              	.LBB402:
 1055              	.LBB403:
 1056              	.LBB404:
 1057              	.LBB405:
 1058              		.loc 2 604 0
 1059 0018 0060     		str	r0, [r0, #0]
 1060              		.loc 2 605 0
 1061 001a 4060     		str	r0, [r0, #4]
 1062              	.LBE405:
 1063              	.LBE404:
 1064              	.LBE403:
 1065              	.LBE402:
 1066              		.loc 1 451 0
 1067 001c 4461     		str	r4, [r0, #20]
 1068              		.loc 1 452 0
 1069 001e 8261     		str	r2, [r0, #24]
 1070              		.loc 1 455 0
ARM GAS  /tmp/ccGRLsx6.s 			page 20


 1071 0020 4562     		str	r5, [r0, #36]
 1072              		.loc 1 456 0
 1073 0022 8562     		str	r5, [r0, #40]
 1074              		.loc 1 457 0
 1075 0024 C162     		str	r1, [r0, #44]
 1076              		.loc 1 458 0
 1077 0026 0363     		str	r3, [r0, #48]
 1078              		.loc 1 459 0
 1079 0028 30BC     		pop	{r4, r5}
 1080 002a 7047     		bx	lr
 1081              		.cfi_endproc
 1082              	.LFE223:
 1083              		.size	obqObjectInit, .-obqObjectInit
 1084 002c AFF30080 		.section	.text.obqResetI,"ax",%progbits
 1085              		.align	2
 1086              		.p2align 4,,15
 1087              		.global	obqResetI
 1088              		.thumb
 1089              		.thumb_func
 1090              		.type	obqResetI, %function
 1091              	obqResetI:
 1092              	.LFB224:
 1093              		.loc 1 472 0
 1094              		.cfi_startproc
 1095              		@ args = 0, pretend = 0, frame = 0
 1096              		@ frame_needed = 0, uses_anonymous_args = 0
 1097              		@ link register save eliminated.
 1098              	.LVL69:
 1099 0000 10B4     		push	{r4}
 1100              	.LCFI10:
 1101              		.cfi_def_cfa_offset 4
 1102              		.cfi_offset 4, -4
 1103              		.loc 1 477 0
 1104 0002 016A     		ldr	r1, [r0, #32]
 1105              		.loc 1 476 0
 1106 0004 C469     		ldr	r4, [r0, #28]
 1107              		.loc 1 479 0
 1108 0006 0022     		movs	r2, #0
 1109              		.loc 1 477 0
 1110 0008 0161     		str	r1, [r0, #16]
 1111              		.loc 1 478 0
 1112 000a C160     		str	r1, [r0, #12]
 1113              	.LBB406:
 1114              	.LBB407:
 1115              		.loc 3 810 0
 1116 000c 6FF00101 		mvn	r1, #1
 1117              	.LBE407:
 1118              	.LBE406:
 1119              		.loc 1 476 0
 1120 0010 8460     		str	r4, [r0, #8]
 1121              		.loc 1 479 0
 1122 0012 4262     		str	r2, [r0, #36]
 1123              		.loc 1 480 0
 1124 0014 8262     		str	r2, [r0, #40]
 1125              	.LVL70:
 1126              		.loc 1 482 0
 1127 0016 10BC     		pop	{r4}
ARM GAS  /tmp/ccGRLsx6.s 			page 21


 1128              	.LBB409:
 1129              	.LBB408:
 1130              		.loc 3 810 0
 1131 0018 FFF7FEBF 		b	chThdDequeueAllI
 1132              	.LVL71:
 1133              	.LVL72:
 1134              	.LBE408:
 1135              	.LBE409:
 1136              		.cfi_endproc
 1137              	.LFE224:
 1138              		.size	obqResetI, .-obqResetI
 1139 001c AFF30080 		.section	.text.obqGetFullBufferI,"ax",%progbits
 1140              		.align	2
 1141              		.p2align 4,,15
 1142              		.global	obqGetFullBufferI
 1143              		.thumb
 1144              		.thumb_func
 1145              		.type	obqGetFullBufferI, %function
 1146              	obqGetFullBufferI:
 1147              	.LFB225:
 1148              		.loc 1 496 0
 1149              		.cfi_startproc
 1150              		@ args = 0, pretend = 0, frame = 0
 1151              		@ frame_needed = 0, uses_anonymous_args = 0
 1152              		@ link register save eliminated.
 1153              	.LVL73:
 1154              		.loc 1 500 0
 1155 0000 0369     		ldr	r3, [r0, #16]
 1156 0002 C268     		ldr	r2, [r0, #12]
 1157 0004 9A42     		cmp	r2, r3
 1158 0006 04D0     		beq	.L56
 1159              	.LVL74:
 1160              	.L54:
 1161              		.loc 1 505 0
 1162 0008 1846     		mov	r0, r3
 1163 000a 50F8043B 		ldr	r3, [r0], #4
 1164 000e 0B60     		str	r3, [r1, #0]
 1165              		.loc 1 507 0
 1166 0010 7047     		bx	lr
 1167              	.LVL75:
 1168              	.L56:
 1169              		.loc 1 500 0 discriminator 1
 1170 0012 8068     		ldr	r0, [r0, #8]
 1171              	.LVL76:
 1172 0014 0028     		cmp	r0, #0
 1173 0016 F7D0     		beq	.L54
 1174              		.loc 1 501 0
 1175 0018 0020     		movs	r0, #0
 1176              		.loc 1 508 0
 1177 001a 7047     		bx	lr
 1178              		.cfi_endproc
 1179              	.LFE225:
 1180              		.size	obqGetFullBufferI, .-obqGetFullBufferI
 1181 001c AFF30080 		.section	.text.obqReleaseEmptyBufferI,"ax",%progbits
 1182              		.align	2
 1183              		.p2align 4,,15
 1184              		.global	obqReleaseEmptyBufferI
ARM GAS  /tmp/ccGRLsx6.s 			page 22


 1185              		.thumb
 1186              		.thumb_func
 1187              		.type	obqReleaseEmptyBufferI, %function
 1188              	obqReleaseEmptyBufferI:
 1189              	.LFB226:
 1190              		.loc 1 517 0
 1191              		.cfi_startproc
 1192              		@ args = 0, pretend = 0, frame = 0
 1193              		@ frame_needed = 0, uses_anonymous_args = 0
 1194              		@ link register save eliminated.
 1195              	.LVL77:
 1196 0000 10B4     		push	{r4}
 1197              	.LCFI11:
 1198              		.cfi_def_cfa_offset 4
 1199              		.cfi_offset 4, -4
 1200              		.loc 1 524 0
 1201 0002 8369     		ldr	r3, [r0, #24]
 1202 0004 0469     		ldr	r4, [r0, #16]
 1203              		.loc 1 523 0
 1204 0006 8168     		ldr	r1, [r0, #8]
 1205              		.loc 1 525 0
 1206 0008 4269     		ldr	r2, [r0, #20]
 1207              		.loc 1 524 0
 1208 000a E318     		adds	r3, r4, r3
 1209              		.loc 1 523 0
 1210 000c 0131     		adds	r1, r1, #1
 1211              		.loc 1 525 0
 1212 000e 9342     		cmp	r3, r2
 1213              		.loc 1 524 0
 1214 0010 0361     		str	r3, [r0, #16]
 1215              		.loc 1 526 0
 1216 0012 28BF     		it	cs
 1217 0014 036A     		ldrcs	r3, [r0, #32]
 1218              		.loc 1 523 0
 1219 0016 8160     		str	r1, [r0, #8]
 1220              		.loc 1 526 0
 1221 0018 28BF     		it	cs
 1222 001a 0361     		strcs	r3, [r0, #16]
 1223              	.LVL78:
 1224              	.LBB410:
 1225              	.LBB411:
 1226              		.loc 3 797 0
 1227 001c 0021     		movs	r1, #0
 1228              	.LBE411:
 1229              	.LBE410:
 1230              		.loc 1 531 0
 1231 001e 10BC     		pop	{r4}
 1232              	.LBB413:
 1233              	.LBB412:
 1234              		.loc 3 797 0
 1235 0020 FFF7FEBF 		b	chThdDequeueNextI
 1236              	.LVL79:
 1237              	.LVL80:
 1238              	.LBE412:
 1239              	.LBE413:
 1240              		.cfi_endproc
 1241              	.LFE226:
ARM GAS  /tmp/ccGRLsx6.s 			page 23


 1242              		.size	obqReleaseEmptyBufferI, .-obqReleaseEmptyBufferI
 1243 0024 AFF30080 		.section	.text.obqGetEmptyBufferTimeoutS,"ax",%progbits
 1243      AFF30080 
 1243      AFF30080 
 1244              		.align	2
 1245              		.p2align 4,,15
 1246              		.global	obqGetEmptyBufferTimeoutS
 1247              		.thumb
 1248              		.thumb_func
 1249              		.type	obqGetEmptyBufferTimeoutS, %function
 1250              	obqGetEmptyBufferTimeoutS:
 1251              	.LFB228:
 1252              		.loc 1 585 0
 1253              		.cfi_startproc
 1254              		@ args = 0, pretend = 0, frame = 0
 1255              		@ frame_needed = 0, uses_anonymous_args = 0
 1256              	.LVL81:
 1257 0000 38B5     		push	{r3, r4, r5, lr}
 1258              	.LCFI12:
 1259              		.cfi_def_cfa_offset 16
 1260              		.cfi_offset 14, -4
 1261              		.cfi_offset 5, -8
 1262              		.cfi_offset 4, -12
 1263              		.cfi_offset 3, -16
 1264              		.loc 1 585 0
 1265 0002 0446     		mov	r4, r0
 1266 0004 0D46     		mov	r5, r1
 1267              	.LVL82:
 1268              	.L60:
 1269              		.loc 1 589 0 discriminator 1
 1270 0006 A368     		ldr	r3, [r4, #8]
 1271              	.LBB422:
 1272              	.LBB423:
 1273              	.LBB424:
 1274              		.loc 3 784 0 discriminator 1
 1275 0008 2046     		mov	r0, r4
 1276 000a 2946     		mov	r1, r5
 1277              	.LBE424:
 1278              	.LBE423:
 1279              	.LBE422:
 1280              		.loc 1 589 0 discriminator 1
 1281 000c 23B9     		cbnz	r3, .L63
 1282              	.LVL83:
 1283              	.LBB427:
 1284              	.LBB426:
 1285              	.LBB425:
 1286              		.loc 3 784 0
 1287 000e FFF7FEFF 		bl	chThdEnqueueTimeoutS
 1288              	.LBE425:
 1289              	.LBE426:
 1290              		.loc 1 591 0
 1291 0012 0028     		cmp	r0, #0
 1292 0014 F7DA     		bge	.L60
 1293              	.LBE427:
 1294              		.loc 1 603 0
 1295 0016 38BD     		pop	{r3, r4, r5, pc}
 1296              	.LVL84:
ARM GAS  /tmp/ccGRLsx6.s 			page 24


 1297              	.L63:
 1298              	.LBB428:
 1299              	.LBB429:
 1300              		.loc 1 599 0
 1301 0018 E368     		ldr	r3, [r4, #12]
 1302              		.loc 1 600 0
 1303 001a A169     		ldr	r1, [r4, #24]
 1304              		.loc 1 599 0
 1305 001c 1A1D     		adds	r2, r3, #4
 1306              		.loc 1 600 0
 1307 001e 5818     		adds	r0, r3, r1
 1308 0020 A062     		str	r0, [r4, #40]
 1309              		.loc 1 599 0
 1310 0022 6262     		str	r2, [r4, #36]
 1311              		.loc 1 600 0
 1312 0024 0020     		movs	r0, #0
 1313              	.LBE429:
 1314              	.LBE428:
 1315              		.loc 1 603 0
 1316 0026 38BD     		pop	{r3, r4, r5, pc}
 1317              		.cfi_endproc
 1318              	.LFE228:
 1319              		.size	obqGetEmptyBufferTimeoutS, .-obqGetEmptyBufferTimeoutS
 1320 0028 AFF30080 		.section	.text.obqGetEmptyBufferTimeout,"ax",%progbits
 1320      AFF30080 
 1321              		.align	2
 1322              		.p2align 4,,15
 1323              		.global	obqGetEmptyBufferTimeout
 1324              		.thumb
 1325              		.thumb_func
 1326              		.type	obqGetEmptyBufferTimeout, %function
 1327              	obqGetEmptyBufferTimeout:
 1328              	.LFB227:
 1329              		.loc 1 554 0
 1330              		.cfi_startproc
 1331              		@ args = 0, pretend = 0, frame = 0
 1332              		@ frame_needed = 0, uses_anonymous_args = 0
 1333              	.LVL85:
 1334 0000 08B5     		push	{r3, lr}
 1335              	.LCFI13:
 1336              		.cfi_def_cfa_offset 8
 1337              		.cfi_offset 14, -4
 1338              		.cfi_offset 3, -8
 1339              	.LBB430:
 1340              	.LBB431:
 1341              	.LBB432:
 1342              	.LBB433:
 1343              	.LBB434:
 1344              		.loc 4 548 0
 1345 0002 2022     		movs	r2, #32
 1346              	@ 548 "../../../resources/chibios/ChibiOS_16.1.8/os/ext/CMSIS/include/core_cmFunc.h" 1
 1347 0004 82F31188 		MSR basepri, r2
 1348              	@ 0 "" 2
 1349              		.thumb
 1350              	.LBE434:
 1351              	.LBE433:
 1352              	.LBE432:
ARM GAS  /tmp/ccGRLsx6.s 			page 25


 1353              	.LBE431:
 1354              	.LBE430:
 1355              		.loc 1 558 0
 1356 0008 FFF7FEFF 		bl	obqGetEmptyBufferTimeoutS
 1357              	.LVL86:
 1358              	.LBB435:
 1359              	.LBB436:
 1360              	.LBB437:
 1361              	.LBB438:
 1362              	.LBB439:
 1363              	.LBB440:
 1364              		.loc 4 548 0
 1365 000c 0023     		movs	r3, #0
 1366              	@ 548 "../../../resources/chibios/ChibiOS_16.1.8/os/ext/CMSIS/include/core_cmFunc.h" 1
 1367 000e 83F31188 		MSR basepri, r3
 1368              	@ 0 "" 2
 1369              		.thumb
 1370              	.LBE440:
 1371              	.LBE439:
 1372              	.LBE438:
 1373              	.LBE437:
 1374              	.LBE436:
 1375              	.LBE435:
 1376              		.loc 1 562 0
 1377 0012 08BD     		pop	{r3, pc}
 1378              		.cfi_endproc
 1379              	.LFE227:
 1380              		.size	obqGetEmptyBufferTimeout, .-obqGetEmptyBufferTimeout
 1381 0014 AFF30080 		.section	.text.obqPostFullBufferS,"ax",%progbits
 1381      AFF30080 
 1381      AFF30080 
 1382              		.align	2
 1383              		.p2align 4,,15
 1384              		.global	obqPostFullBufferS
 1385              		.thumb
 1386              		.thumb_func
 1387              		.type	obqPostFullBufferS, %function
 1388              	obqPostFullBufferS:
 1389              	.LFB230:
 1390              		.loc 1 630 0
 1391              		.cfi_startproc
 1392              		@ args = 0, pretend = 0, frame = 0
 1393              		@ frame_needed = 0, uses_anonymous_args = 0
 1394              	.LVL87:
 1395              		.loc 1 637 0
 1396 0000 C368     		ldr	r3, [r0, #12]
 1397              		.loc 1 642 0
 1398 0002 4269     		ldr	r2, [r0, #20]
 1399              		.loc 1 630 0
 1400 0004 10B5     		push	{r4, lr}
 1401              	.LCFI14:
 1402              		.cfi_def_cfa_offset 8
 1403              		.cfi_offset 14, -4
 1404              		.cfi_offset 4, -8
 1405              		.loc 1 637 0
 1406 0006 1960     		str	r1, [r3, #0]
 1407              		.loc 1 641 0
ARM GAS  /tmp/ccGRLsx6.s 			page 26


 1408 0008 8469     		ldr	r4, [r0, #24]
 1409              		.loc 1 640 0
 1410 000a 8168     		ldr	r1, [r0, #8]
 1411              	.LVL88:
 1412              		.loc 1 641 0
 1413 000c 1B19     		adds	r3, r3, r4
 1414              		.loc 1 640 0
 1415 000e 0139     		subs	r1, r1, #1
 1416              		.loc 1 642 0
 1417 0010 9342     		cmp	r3, r2
 1418              		.loc 1 641 0
 1419 0012 C360     		str	r3, [r0, #12]
 1420              		.loc 1 643 0
 1421 0014 28BF     		it	cs
 1422 0016 036A     		ldrcs	r3, [r0, #32]
 1423              		.loc 1 640 0
 1424 0018 8160     		str	r1, [r0, #8]
 1425              		.loc 1 643 0
 1426 001a 28BF     		it	cs
 1427 001c C360     		strcs	r3, [r0, #12]
 1428              		.loc 1 650 0
 1429 001e C36A     		ldr	r3, [r0, #44]
 1430              		.loc 1 647 0
 1431 0020 0022     		movs	r2, #0
 1432 0022 4262     		str	r2, [r0, #36]
 1433              		.loc 1 650 0
 1434 0024 03B1     		cbz	r3, .L65
 1435              		.loc 1 651 0
 1436 0026 9847     		blx	r3
 1437              	.LVL89:
 1438              	.L65:
 1439 0028 10BD     		pop	{r4, pc}
 1440              		.cfi_endproc
 1441              	.LFE230:
 1442              		.size	obqPostFullBufferS, .-obqPostFullBufferS
 1443 002a 00BFAFF3 		.section	.text.obqPostFullBuffer,"ax",%progbits
 1443      0080
 1444              		.align	2
 1445              		.p2align 4,,15
 1446              		.global	obqPostFullBuffer
 1447              		.thumb
 1448              		.thumb_func
 1449              		.type	obqPostFullBuffer, %function
 1450              	obqPostFullBuffer:
 1451              	.LFB229:
 1452              		.loc 1 614 0
 1453              		.cfi_startproc
 1454              		@ args = 0, pretend = 0, frame = 0
 1455              		@ frame_needed = 0, uses_anonymous_args = 0
 1456              	.LVL90:
 1457 0000 08B5     		push	{r3, lr}
 1458              	.LCFI15:
 1459              		.cfi_def_cfa_offset 8
 1460              		.cfi_offset 14, -4
 1461              		.cfi_offset 3, -8
 1462              	.LBB441:
 1463              	.LBB442:
ARM GAS  /tmp/ccGRLsx6.s 			page 27


 1464              	.LBB443:
 1465              	.LBB444:
 1466              	.LBB445:
 1467              		.loc 4 548 0
 1468 0002 2022     		movs	r2, #32
 1469              	@ 548 "../../../resources/chibios/ChibiOS_16.1.8/os/ext/CMSIS/include/core_cmFunc.h" 1
 1470 0004 82F31188 		MSR basepri, r2
 1471              	@ 0 "" 2
 1472              		.thumb
 1473              	.LBE445:
 1474              	.LBE444:
 1475              	.LBE443:
 1476              	.LBE442:
 1477              	.LBE441:
 1478              		.loc 1 617 0
 1479 0008 FFF7FEFF 		bl	obqPostFullBufferS
 1480              	.LVL91:
 1481              	.LBB446:
 1482              	.LBB447:
 1483              	.LBB448:
 1484              	.LBB449:
 1485              	.LBB450:
 1486              	.LBB451:
 1487              		.loc 4 548 0
 1488 000c 0023     		movs	r3, #0
 1489              	@ 548 "../../../resources/chibios/ChibiOS_16.1.8/os/ext/CMSIS/include/core_cmFunc.h" 1
 1490 000e 83F31188 		MSR basepri, r3
 1491              	@ 0 "" 2
 1492              		.thumb
 1493              	.LBE451:
 1494              	.LBE450:
 1495              	.LBE449:
 1496              	.LBE448:
 1497              	.LBE447:
 1498              	.LBE446:
 1499              		.loc 1 619 0
 1500 0012 08BD     		pop	{r3, pc}
 1501              		.cfi_endproc
 1502              	.LFE229:
 1503              		.size	obqPostFullBuffer, .-obqPostFullBuffer
 1504 0014 AFF30080 		.section	.text.obqPutTimeout,"ax",%progbits
 1504      AFF30080 
 1504      AFF30080 
 1505              		.align	2
 1506              		.p2align 4,,15
 1507              		.global	obqPutTimeout
 1508              		.thumb
 1509              		.thumb_func
 1510              		.type	obqPutTimeout, %function
 1511              	obqPutTimeout:
 1512              	.LFB231:
 1513              		.loc 1 675 0
 1514              		.cfi_startproc
 1515              		@ args = 0, pretend = 0, frame = 0
 1516              		@ frame_needed = 0, uses_anonymous_args = 0
 1517              	.LVL92:
 1518 0000 70B5     		push	{r4, r5, r6, lr}
ARM GAS  /tmp/ccGRLsx6.s 			page 28


 1519              	.LCFI16:
 1520              		.cfi_def_cfa_offset 16
 1521              		.cfi_offset 14, -4
 1522              		.cfi_offset 6, -8
 1523              		.cfi_offset 5, -12
 1524              		.cfi_offset 4, -16
 1525              	.LBB452:
 1526              	.LBB453:
 1527              	.LBB454:
 1528              	.LBB455:
 1529              	.LBB456:
 1530              		.loc 4 548 0
 1531 0002 2023     		movs	r3, #32
 1532              	.LBE456:
 1533              	.LBE455:
 1534              	.LBE454:
 1535              	.LBE453:
 1536              	.LBE452:
 1537              		.loc 1 675 0
 1538 0004 0446     		mov	r4, r0
 1539 0006 0D46     		mov	r5, r1
 1540              	.LBB461:
 1541              	.LBB460:
 1542              	.LBB459:
 1543              	.LBB458:
 1544              	.LBB457:
 1545              		.loc 4 548 0
 1546              	@ 548 "../../../resources/chibios/ChibiOS_16.1.8/os/ext/CMSIS/include/core_cmFunc.h" 1
 1547 0008 83F31188 		MSR basepri, r3
 1548              	@ 0 "" 2
 1549              		.thumb
 1550              	.LBE457:
 1551              	.LBE458:
 1552              	.LBE459:
 1553              	.LBE460:
 1554              	.LBE461:
 1555              		.loc 1 681 0
 1556 000c 466A     		ldr	r6, [r0, #36]
 1557 000e 9EB1     		cbz	r6, .L74
 1558              	.LVL93:
 1559              	.L70:
 1560              		.loc 1 690 0
 1561 0010 3570     		strb	r5, [r6, #0]
 1562              		.loc 1 691 0
 1563 0012 616A     		ldr	r1, [r4, #36]
 1564              		.loc 1 695 0
 1565 0014 A26A     		ldr	r2, [r4, #40]
 1566              		.loc 1 691 0
 1567 0016 481C     		adds	r0, r1, #1
 1568              		.loc 1 695 0
 1569 0018 9042     		cmp	r0, r2
 1570              		.loc 1 691 0
 1571 001a 6062     		str	r0, [r4, #36]
 1572              		.loc 1 695 0
 1573 001c 03D2     		bcs	.L75
 1574              	.LVL94:
 1575              	.LBB462:
ARM GAS  /tmp/ccGRLsx6.s 			page 29


 1576              	.LBB463:
 1577              	.LBB464:
 1578              	.LBB465:
 1579              	.LBB466:
 1580              	.LBB467:
 1581              		.loc 4 548 0
 1582 001e 0020     		movs	r0, #0
 1583              	@ 548 "../../../resources/chibios/ChibiOS_16.1.8/os/ext/CMSIS/include/core_cmFunc.h" 1
 1584 0020 80F31188 		MSR basepri, r0
 1585              	@ 0 "" 2
 1586              		.thumb
 1587              	.LBE467:
 1588              	.LBE466:
 1589              	.LBE465:
 1590              	.LBE464:
 1591              	.LBE463:
 1592              	.LBE462:
 1593              		.loc 1 701 0
 1594 0024 70BD     		pop	{r4, r5, r6, pc}
 1595              	.LVL95:
 1596              	.L75:
 1597              		.loc 1 696 0
 1598 0026 A369     		ldr	r3, [r4, #24]
 1599 0028 2046     		mov	r0, r4
 1600 002a 191F     		subs	r1, r3, #4
 1601 002c FFF7FEFF 		bl	obqPostFullBufferS
 1602              	.LVL96:
 1603              	.LBB473:
 1604              	.LBB472:
 1605              	.LBB471:
 1606              	.LBB470:
 1607              	.LBB469:
 1608              	.LBB468:
 1609              		.loc 4 548 0
 1610 0030 0020     		movs	r0, #0
 1611              	@ 548 "../../../resources/chibios/ChibiOS_16.1.8/os/ext/CMSIS/include/core_cmFunc.h" 1
 1612 0032 80F31188 		MSR basepri, r0
 1613              	@ 0 "" 2
 1614              		.thumb
 1615              	.LBE468:
 1616              	.LBE469:
 1617              	.LBE470:
 1618              	.LBE471:
 1619              	.LBE472:
 1620              	.LBE473:
 1621              		.loc 1 701 0
 1622 0036 70BD     		pop	{r4, r5, r6, pc}
 1623              	.LVL97:
 1624              	.L74:
 1625              		.loc 1 682 0
 1626 0038 1146     		mov	r1, r2
 1627              	.LVL98:
 1628 003a FFF7FEFF 		bl	obqGetEmptyBufferTimeoutS
 1629              	.LVL99:
 1630              		.loc 1 683 0
 1631 003e 08B9     		cbnz	r0, .L71
 1632 0040 666A     		ldr	r6, [r4, #36]
ARM GAS  /tmp/ccGRLsx6.s 			page 30


 1633 0042 E5E7     		b	.L70
 1634              	.L71:
 1635              	.LVL100:
 1636              	.LBB474:
 1637              	.LBB475:
 1638              	.LBB476:
 1639              	.LBB477:
 1640              	.LBB478:
 1641              	.LBB479:
 1642              		.loc 4 548 0
 1643              	@ 548 "../../../resources/chibios/ChibiOS_16.1.8/os/ext/CMSIS/include/core_cmFunc.h" 1
 1644 0044 86F31188 		MSR basepri, r6
 1645              	@ 0 "" 2
 1646              		.thumb
 1647              	.LBE479:
 1648              	.LBE478:
 1649              	.LBE477:
 1650              	.LBE476:
 1651              	.LBE475:
 1652              	.LBE474:
 1653              		.loc 1 685 0
 1654 0048 70BD     		pop	{r4, r5, r6, pc}
 1655              		.cfi_endproc
 1656              	.LFE231:
 1657              		.size	obqPutTimeout, .-obqPutTimeout
 1658 004a 00BFAFF3 		.section	.text.obqWriteTimeout,"ax",%progbits
 1658      0080
 1659              		.align	2
 1660              		.p2align 4,,15
 1661              		.global	obqWriteTimeout
 1662              		.thumb
 1663              		.thumb_func
 1664              		.type	obqWriteTimeout, %function
 1665              	obqWriteTimeout:
 1666              	.LFB232:
 1667              		.loc 1 725 0
 1668              		.cfi_startproc
 1669              		@ args = 0, pretend = 0, frame = 8
 1670              		@ frame_needed = 0, uses_anonymous_args = 0
 1671              	.LVL101:
 1672 0000 2DE9F04F 		push	{r4, r5, r6, r7, r8, r9, sl, fp, lr}
 1673              	.LCFI17:
 1674              		.cfi_def_cfa_offset 36
 1675              		.cfi_offset 14, -4
 1676              		.cfi_offset 11, -8
 1677              		.cfi_offset 10, -12
 1678              		.cfi_offset 9, -16
 1679              		.cfi_offset 8, -20
 1680              		.cfi_offset 7, -24
 1681              		.cfi_offset 6, -28
 1682              		.cfi_offset 5, -32
 1683              		.cfi_offset 4, -36
 1684 0004 9B46     		mov	fp, r3
 1685 0006 83B0     		sub	sp, sp, #12
 1686              	.LCFI18:
 1687              		.cfi_def_cfa_offset 48
 1688              		.loc 1 725 0
ARM GAS  /tmp/ccGRLsx6.s 			page 31


 1689 0008 0446     		mov	r4, r0
 1690 000a 0D46     		mov	r5, r1
 1691 000c 1646     		mov	r6, r2
 1692              	.LBB480:
 1693              	.LBB481:
 1694              	.LBB482:
 1695              	.LBB483:
 1696              	.LBB484:
 1697              		.loc 4 548 0
 1698 000e 2023     		movs	r3, #32
 1699              	.LVL102:
 1700              	@ 548 "../../../resources/chibios/ChibiOS_16.1.8/os/ext/CMSIS/include/core_cmFunc.h" 1
 1701 0010 83F31188 		MSR basepri, r3
 1702              	@ 0 "" 2
 1703              		.thumb
 1704              	.LBE484:
 1705              	.LBE483:
 1706              	.LBE482:
 1707              	.LBE481:
 1708              	.LBE480:
 1709              	.LBB485:
 1710              	.LBB486:
 1711              	.LBB487:
 1712              	.LBB488:
 1713              	.LBB489:
 1714              		.loc 5 141 0
 1715 0014 4FF0804C 		mov	ip, #1073741824
 1716 0018 DCF82470 		ldr	r7, [ip, #36]
 1717              	.LBE489:
 1718              	.LBE488:
 1719              	.LBE487:
 1720              	.LBE486:
 1721              	.LBE485:
 1722              	.LBB490:
 1723              	.LBB491:
 1724              		.loc 1 743 0
 1725 001c 0BF1FF30 		add	r0, fp, #-1
 1726              	.LVL103:
 1727              	.LBE491:
 1728              	.LBE490:
 1729              		.loc 1 732 0
 1730 0020 0BEB0701 		add	r1, fp, r7
 1731              	.LVL104:
 1732 0024 8AB2     		uxth	r2, r1
 1733              	.LVL105:
 1734              	.LBB536:
 1735              	.LBB516:
 1736              		.loc 1 743 0
 1737 0026 83B2     		uxth	r3, r0
 1738              	.LBE516:
 1739              	.LBE536:
 1740              		.loc 1 732 0
 1741 0028 0192     		str	r2, [sp, #4]
 1742              	.LVL106:
 1743              		.loc 1 726 0
 1744 002a 0027     		movs	r7, #0
 1745              	.LBB537:
ARM GAS  /tmp/ccGRLsx6.s 			page 32


 1746              	.LBB517:
 1747              		.loc 1 743 0
 1748 002c 0093     		str	r3, [sp, #0]
 1749 002e 3FE0     		b	.L87
 1750              	.LVL107:
 1751              	.L95:
 1752              	.LBE517:
 1753              		.loc 1 776 0
 1754 0030 D5F804A0 		ldr	sl, [r5, #4]	@ unaligned
 1755 0034 A968     		ldr	r1, [r5, #8]	@ unaligned
 1756 0036 EA68     		ldr	r2, [r5, #12]	@ unaligned
 1757 0038 D5F800C0 		ldr	ip, [r5, #0]	@ unaligned
 1758 003c 2B46     		mov	r3, r5
 1759 003e C0F800C0 		str	ip, [r0, #0]	@ unaligned
 1760 0042 C0F804A0 		str	sl, [r0, #4]	@ unaligned
 1761 0046 8160     		str	r1, [r0, #8]	@ unaligned
 1762 0048 C260     		str	r2, [r0, #12]	@ unaligned
 1763 004a 53F8109F 		ldr	r9, [r3, #16]!	@ unaligned
 1764              		.loc 1 779 0
 1765 004e 4037     		adds	r7, r7, #64
 1766              	.LVL108:
 1767              		.loc 1 776 0
 1768 0050 D3F80480 		ldr	r8, [r3, #4]	@ unaligned
 1769              	.LVL109:
 1770 0054 9A68     		ldr	r2, [r3, #8]	@ unaligned
 1771 0056 D968     		ldr	r1, [r3, #12]	@ unaligned
 1772 0058 C0F81090 		str	r9, [r0, #16]	@ unaligned
 1773 005c C0F81480 		str	r8, [r0, #20]	@ unaligned
 1774 0060 8261     		str	r2, [r0, #24]	@ unaligned
 1775 0062 C161     		str	r1, [r0, #28]	@ unaligned
 1776 0064 53F810AF 		ldr	sl, [r3, #16]!	@ unaligned
 1777 0068 9A68     		ldr	r2, [r3, #8]	@ unaligned
 1778 006a D968     		ldr	r1, [r3, #12]	@ unaligned
 1779 006c D3F80490 		ldr	r9, [r3, #4]	@ unaligned
 1780 0070 C0F820A0 		str	sl, [r0, #32]	@ unaligned
 1781 0074 C0F82490 		str	r9, [r0, #36]	@ unaligned
 1782 0078 8262     		str	r2, [r0, #40]	@ unaligned
 1783 007a C162     		str	r1, [r0, #44]	@ unaligned
 1784 007c 2B46     		mov	r3, r5
 1785 007e 53F8308F 		ldr	r8, [r3, #48]!	@ unaligned
 1786              		.loc 1 777 0
 1787 0082 4035     		adds	r5, r5, #64
 1788              	.LVL110:
 1789              		.loc 1 776 0
 1790 0084 5A68     		ldr	r2, [r3, #4]	@ unaligned
 1791 0086 9968     		ldr	r1, [r3, #8]	@ unaligned
 1792 0088 DB68     		ldr	r3, [r3, #12]	@ unaligned
 1793 008a 4263     		str	r2, [r0, #52]	@ unaligned
 1794 008c C0F83080 		str	r8, [r0, #48]	@ unaligned
 1795 0090 8163     		str	r1, [r0, #56]	@ unaligned
 1796 0092 C363     		str	r3, [r0, #60]	@ unaligned
 1797              		.loc 1 778 0
 1798 0094 636A     		ldr	r3, [r4, #36]
 1799 0096 4033     		adds	r3, r3, #64
 1800 0098 6362     		str	r3, [r4, #36]
 1801              	.LVL111:
 1802              		.loc 1 789 0
ARM GAS  /tmp/ccGRLsx6.s 			page 33


 1803 009a A26A     		ldr	r2, [r4, #40]
 1804 009c 9A42     		cmp	r2, r3
 1805 009e 21D9     		bls	.L93
 1806              	.L86:
 1807              	.LVL112:
 1808              	.LBB518:
 1809              	.LBB519:
 1810              	.LBB520:
 1811              	.LBB521:
 1812              	.LBB522:
 1813              	.LBB523:
 1814              		.loc 4 548 0
 1815 00a0 0021     		movs	r1, #0
 1816              	@ 548 "../../../resources/chibios/ChibiOS_16.1.8/os/ext/CMSIS/include/core_cmFunc.h" 1
 1817 00a2 81F31188 		MSR basepri, r1
 1818              	@ 0 "" 2
 1819              		.thumb
 1820              	.LBE523:
 1821              	.LBE522:
 1822              	.LBE521:
 1823              	.LBE520:
 1824              	.LBE519:
 1825              	.LBE518:
 1826              		.loc 1 795 0
 1827 00a6 B742     		cmp	r7, r6
 1828 00a8 26D2     		bcs	.L81
 1829              	.L96:
 1830              	.LVL113:
 1831              	.LBB529:
 1832              	.LBB530:
 1833              	.LBB531:
 1834              	.LBB532:
 1835              	.LBB533:
 1836              		.loc 4 548 0
 1837 00aa 2020     		movs	r0, #32
 1838              	@ 548 "../../../resources/chibios/ChibiOS_16.1.8/os/ext/CMSIS/include/core_cmFunc.h" 1
 1839 00ac 80F31188 		MSR basepri, r0
 1840              	@ 0 "" 2
 1841              	.LVL114:
 1842              		.thumb
 1843              	.L87:
 1844              	.LBE533:
 1845              	.LBE532:
 1846              	.LBE531:
 1847              	.LBE530:
 1848              	.LBE529:
 1849              		.loc 1 738 0
 1850 00b0 606A     		ldr	r0, [r4, #36]
 1851 00b2 0028     		cmp	r0, #0
 1852 00b4 24D0     		beq	.L94
 1853              	.L77:
 1854              		.loc 1 767 0
 1855 00b6 A26A     		ldr	r2, [r4, #40]
 1856              		.loc 1 768 0
 1857 00b8 F31B     		subs	r3, r6, r7
 1858              		.loc 1 767 0
 1859 00ba C0EB0208 		rsb	r8, r0, r2
ARM GAS  /tmp/ccGRLsx6.s 			page 34


 1860              	.LVL115:
 1861 00be 9845     		cmp	r8, r3
 1862 00c0 28BF     		it	cs
 1863 00c2 9846     		movcs	r8, r3
 1864              	.LVL116:
 1865              		.loc 1 774 0
 1866 00c4 B8F1400F 		cmp	r8, #64
 1867 00c8 B2D8     		bhi	.L95
 1868              		.loc 1 782 0
 1869 00ca 2946     		mov	r1, r5
 1870 00cc 4246     		mov	r2, r8
 1871 00ce FFF7FEFF 		bl	memcpy
 1872              		.loc 1 784 0
 1873 00d2 606A     		ldr	r0, [r4, #36]
 1874              		.loc 1 789 0
 1875 00d4 A26A     		ldr	r2, [r4, #40]
 1876              		.loc 1 784 0
 1877 00d6 00EB0803 		add	r3, r0, r8
 1878              		.loc 1 789 0
 1879 00da 9A42     		cmp	r2, r3
 1880              		.loc 1 783 0
 1881 00dc 4544     		add	r5, r5, r8
 1882              	.LVL117:
 1883              		.loc 1 784 0
 1884 00de 6362     		str	r3, [r4, #36]
 1885              		.loc 1 785 0
 1886 00e0 4744     		add	r7, r7, r8
 1887              	.LVL118:
 1888              		.loc 1 789 0
 1889 00e2 DDD8     		bhi	.L86
 1890              	.LVL119:
 1891              	.L93:
 1892              		.loc 1 790 0
 1893 00e4 A369     		ldr	r3, [r4, #24]
 1894 00e6 2046     		mov	r0, r4
 1895 00e8 191F     		subs	r1, r3, #4
 1896 00ea FFF7FEFF 		bl	obqPostFullBufferS
 1897              	.LVL120:
 1898              	.LBB534:
 1899              	.LBB528:
 1900              	.LBB527:
 1901              	.LBB526:
 1902              	.LBB525:
 1903              	.LBB524:
 1904              		.loc 4 548 0
 1905 00ee 0021     		movs	r1, #0
 1906              	@ 548 "../../../resources/chibios/ChibiOS_16.1.8/os/ext/CMSIS/include/core_cmFunc.h" 1
 1907 00f0 81F31188 		MSR basepri, r1
 1908              	@ 0 "" 2
 1909              		.thumb
 1910              	.LBE524:
 1911              	.LBE525:
 1912              	.LBE526:
 1913              	.LBE527:
 1914              	.LBE528:
 1915              	.LBE534:
 1916              		.loc 1 795 0
ARM GAS  /tmp/ccGRLsx6.s 			page 35


 1917 00f4 B742     		cmp	r7, r6
 1918 00f6 D8D3     		bcc	.L96
 1919              	.LVL121:
 1920              	.L81:
 1921              	.LBE537:
 1922              		.loc 1 800 0
 1923 00f8 3846     		mov	r0, r7
 1924 00fa 03B0     		add	sp, sp, #12
 1925 00fc BDE8F08F 		pop	{r4, r5, r6, r7, r8, r9, sl, fp, pc}
 1926              	.L94:
 1927              	.LBB538:
 1928              	.LBB535:
 1929              		.loc 1 743 0
 1930 0100 0099     		ldr	r1, [sp, #0]
 1931 0102 4FF6FD72 		movw	r2, #65533
 1932 0106 9142     		cmp	r1, r2
 1933 0108 0ED8     		bhi	.L97
 1934              	.LBB492:
 1935              	.LBB493:
 1936              	.LBB494:
 1937              	.LBB495:
 1938              	.LBB496:
 1939              	.LBB497:
 1940              		.loc 5 141 0
 1941 010a 4FF0804C 		mov	ip, #1073741824
 1942              	.LBE497:
 1943              	.LBE496:
 1944              	.LBE495:
 1945              	.LBE494:
 1946              	.LBE493:
 1947              		.loc 1 747 0
 1948 010e 0199     		ldr	r1, [sp, #4]
 1949              	.LBB502:
 1950              	.LBB501:
 1951              	.LBB500:
 1952              	.LBB499:
 1953              	.LBB498:
 1954              		.loc 5 141 0
 1955 0110 DCF82420 		ldr	r2, [ip, #36]
 1956              	.LBE498:
 1957              	.LBE499:
 1958              	.LBE500:
 1959              	.LBE501:
 1960              	.LBE502:
 1961              		.loc 1 747 0
 1962 0114 8B1A     		subs	r3, r1, r2
 1963 0116 99B2     		uxth	r1, r3
 1964              	.LVL122:
 1965              		.loc 1 752 0
 1966 0118 8B45     		cmp	fp, r1
 1967 011a 0FD3     		bcc	.L98
 1968              		.loc 1 756 0
 1969 011c 2046     		mov	r0, r4
 1970 011e FFF7FEFF 		bl	obqGetEmptyBufferTimeoutS
 1971              	.LVL123:
 1972              	.LBE492:
 1973              		.loc 1 760 0
ARM GAS  /tmp/ccGRLsx6.s 			page 36


 1974 0122 38B9     		cbnz	r0, .L82
 1975              	.L99:
 1976 0124 606A     		ldr	r0, [r4, #36]
 1977              	.LVL124:
 1978 0126 C6E7     		b	.L77
 1979              	.L97:
 1980              		.loc 1 744 0
 1981 0128 2046     		mov	r0, r4
 1982 012a 5946     		mov	r1, fp
 1983 012c FFF7FEFF 		bl	obqGetEmptyBufferTimeoutS
 1984              	.LVL125:
 1985              		.loc 1 760 0
 1986 0130 0028     		cmp	r0, #0
 1987 0132 F7D0     		beq	.L99
 1988              	.L82:
 1989              	.LVL126:
 1990              	.LBB509:
 1991              	.LBB510:
 1992              	.LBB511:
 1993              	.LBB512:
 1994              	.LBB513:
 1995              	.LBB514:
 1996              		.loc 4 548 0
 1997 0134 0020     		movs	r0, #0
 1998              	.LVL127:
 1999              	@ 548 "../../../resources/chibios/ChibiOS_16.1.8/os/ext/CMSIS/include/core_cmFunc.h" 1
 2000 0136 80F31188 		MSR basepri, r0
 2001              	@ 0 "" 2
 2002              		.thumb
 2003              	.LBE514:
 2004              	.LBE513:
 2005              	.LBE512:
 2006              	.LBE511:
 2007              	.LBE510:
 2008              	.LBE509:
 2009              		.loc 1 762 0
 2010 013a DDE7     		b	.L81
 2011              	.LVL128:
 2012              	.L98:
 2013              	.LBB515:
 2014              	.LBB503:
 2015              	.LBB504:
 2016              	.LBB505:
 2017              	.LBB506:
 2018              	.LBB507:
 2019              	.LBB508:
 2020              		.loc 4 548 0
 2021              	@ 548 "../../../resources/chibios/ChibiOS_16.1.8/os/ext/CMSIS/include/core_cmFunc.h" 1
 2022 013c 80F31188 		MSR basepri, r0
 2023              	@ 0 "" 2
 2024              		.thumb
 2025              	.LBE508:
 2026              	.LBE507:
 2027              	.LBE506:
 2028              	.LBE505:
 2029              	.LBE504:
 2030              	.LBE503:
ARM GAS  /tmp/ccGRLsx6.s 			page 37


 2031              		.loc 1 754 0
 2032 0140 DAE7     		b	.L81
 2033              	.LBE515:
 2034              	.LBE535:
 2035              	.LBE538:
 2036              		.cfi_endproc
 2037              	.LFE232:
 2038              		.size	obqWriteTimeout, .-obqWriteTimeout
 2039 0142 00BFAFF3 		.section	.text.obqTryFlushI,"ax",%progbits
 2039      0080AFF3 
 2039      0080AFF3 
 2039      0080
 2040              		.align	2
 2041              		.p2align 4,,15
 2042              		.global	obqTryFlushI
 2043              		.thumb
 2044              		.thumb_func
 2045              		.type	obqTryFlushI, %function
 2046              	obqTryFlushI:
 2047              	.LFB233:
 2048              		.loc 1 815 0
 2049              		.cfi_startproc
 2050              		@ args = 0, pretend = 0, frame = 0
 2051              		@ frame_needed = 0, uses_anonymous_args = 0
 2052              		@ link register save eliminated.
 2053              	.LVL129:
 2054              		.loc 1 821 0
 2055 0000 C368     		ldr	r3, [r0, #12]
 2056 0002 0269     		ldr	r2, [r0, #16]
 2057              		.loc 1 815 0
 2058 0004 10B4     		push	{r4}
 2059              	.LCFI19:
 2060              		.cfi_def_cfa_offset 4
 2061              		.cfi_offset 4, -4
 2062              		.loc 1 821 0
 2063 0006 9342     		cmp	r3, r2
 2064 0008 02D0     		beq	.L107
 2065              		.loc 1 842 0
 2066 000a 0020     		movs	r0, #0
 2067              	.LVL130:
 2068              	.L101:
 2069              		.loc 1 843 0
 2070 000c 10BC     		pop	{r4}
 2071 000e 7047     		bx	lr
 2072              	.LVL131:
 2073              	.L107:
 2074              		.loc 1 821 0 discriminator 1
 2075 0010 8268     		ldr	r2, [r0, #8]
 2076 0012 AAB1     		cbz	r2, .L106
 2077              		.loc 1 821 0 is_stmt 0 discriminator 4
 2078 0014 426A     		ldr	r2, [r0, #36]
 2079 0016 9AB1     		cbz	r2, .L106
 2080              	.LBB539:
 2081              		.loc 1 822 0 is_stmt 1
 2082 0018 111F     		subs	r1, r2, #4
 2083              	.LVL132:
 2084              		.loc 1 824 0
ARM GAS  /tmp/ccGRLsx6.s 			page 38


 2085 001a CA1A     		subs	r2, r1, r3
 2086 001c 10D0     		beq	.L106
 2087              		.loc 1 827 0
 2088 001e 1A60     		str	r2, [r3, #0]
 2089              		.loc 1 831 0
 2090 0020 8469     		ldr	r4, [r0, #24]
 2091              		.loc 1 830 0
 2092 0022 8168     		ldr	r1, [r0, #8]
 2093              	.LVL133:
 2094              		.loc 1 832 0
 2095 0024 4269     		ldr	r2, [r0, #20]
 2096              	.LVL134:
 2097              		.loc 1 831 0
 2098 0026 1B19     		adds	r3, r3, r4
 2099              	.LVL135:
 2100              		.loc 1 830 0
 2101 0028 0139     		subs	r1, r1, #1
 2102              		.loc 1 832 0
 2103 002a 9342     		cmp	r3, r2
 2104              		.loc 1 831 0
 2105 002c C360     		str	r3, [r0, #12]
 2106              		.loc 1 833 0
 2107 002e 28BF     		it	cs
 2108 0030 036A     		ldrcs	r3, [r0, #32]
 2109              		.loc 1 830 0
 2110 0032 8160     		str	r1, [r0, #8]
 2111              		.loc 1 833 0
 2112 0034 28BF     		it	cs
 2113 0036 C360     		strcs	r3, [r0, #12]
 2114              		.loc 1 837 0
 2115 0038 0023     		movs	r3, #0
 2116 003a 4362     		str	r3, [r0, #36]
 2117              		.loc 1 839 0
 2118 003c 0120     		movs	r0, #1
 2119              	.LVL136:
 2120 003e E5E7     		b	.L101
 2121              	.LVL137:
 2122              	.L106:
 2123              		.loc 1 842 0
 2124 0040 1046     		mov	r0, r2
 2125              	.LVL138:
 2126 0042 E3E7     		b	.L101
 2127              	.LBE539:
 2128              		.cfi_endproc
 2129              	.LFE233:
 2130              		.size	obqTryFlushI, .-obqTryFlushI
 2131 0044 AFF30080 		.section	.text.obqFlush,"ax",%progbits
 2131      AFF30080 
 2131      AFF30080 
 2132              		.align	2
 2133              		.p2align 4,,15
 2134              		.global	obqFlush
 2135              		.thumb
 2136              		.thumb_func
 2137              		.type	obqFlush, %function
 2138              	obqFlush:
 2139              	.LFB234:
ARM GAS  /tmp/ccGRLsx6.s 			page 39


 2140              		.loc 1 852 0
 2141              		.cfi_startproc
 2142              		@ args = 0, pretend = 0, frame = 0
 2143              		@ frame_needed = 0, uses_anonymous_args = 0
 2144              	.LVL139:
 2145 0000 08B5     		push	{r3, lr}
 2146              	.LCFI20:
 2147              		.cfi_def_cfa_offset 8
 2148              		.cfi_offset 14, -4
 2149              		.cfi_offset 3, -8
 2150              	.LBB540:
 2151              	.LBB541:
 2152              	.LBB542:
 2153              	.LBB543:
 2154              	.LBB544:
 2155              		.loc 4 548 0
 2156 0002 2023     		movs	r3, #32
 2157              	@ 548 "../../../resources/chibios/ChibiOS_16.1.8/os/ext/CMSIS/include/core_cmFunc.h" 1
 2158 0004 83F31188 		MSR basepri, r3
 2159              	@ 0 "" 2
 2160              		.thumb
 2161              	.LBE544:
 2162              	.LBE543:
 2163              	.LBE542:
 2164              	.LBE541:
 2165              	.LBE540:
 2166              		.loc 1 857 0
 2167 0008 436A     		ldr	r3, [r0, #36]
 2168 000a 2BB1     		cbz	r3, .L109
 2169              	.LBB545:
 2170              		.loc 1 858 0
 2171 000c C268     		ldr	r2, [r0, #12]
 2172 000e 191F     		subs	r1, r3, #4
 2173              	.LVL140:
 2174              		.loc 1 860 0
 2175 0010 891A     		subs	r1, r1, r2
 2176              	.LVL141:
 2177 0012 01D0     		beq	.L109
 2178              		.loc 1 861 0
 2179 0014 FFF7FEFF 		bl	obqPostFullBufferS
 2180              	.LVL142:
 2181              	.L109:
 2182              	.LBE545:
 2183              	.LBB546:
 2184              	.LBB547:
 2185              	.LBB548:
 2186              	.LBB549:
 2187              	.LBB550:
 2188              	.LBB551:
 2189              		.loc 4 548 0
 2190 0018 0020     		movs	r0, #0
 2191              	@ 548 "../../../resources/chibios/ChibiOS_16.1.8/os/ext/CMSIS/include/core_cmFunc.h" 1
 2192 001a 80F31188 		MSR basepri, r0
 2193              	@ 0 "" 2
 2194              		.thumb
 2195              	.LBE551:
 2196              	.LBE550:
ARM GAS  /tmp/ccGRLsx6.s 			page 40


 2197              	.LBE549:
 2198              	.LBE548:
 2199              	.LBE547:
 2200              	.LBE546:
 2201              		.loc 1 866 0
 2202 001e 08BD     		pop	{r3, pc}
 2203              		.cfi_endproc
 2204              	.LFE234:
 2205              		.size	obqFlush, .-obqFlush
 2206              		.text
 2207              	.Letext0:
 2208              		.file 6 "/home/madog/programs/CodeSourcery/Sourcery_CodeBench_Lite_for_ARM_EABI/bin/../lib/gcc/arm
 2209              		.file 7 "/home/madog/programs/CodeSourcery/Sourcery_CodeBench_Lite_for_ARM_EABI/bin/../lib/gcc/arm
 2210              		.file 8 "../../../resources/chibios/ChibiOS_16.1.8/os/rt/ports/ARMCMx/compilers/GCC/chtypes.h"
 2211              		.file 9 "../../../resources/chibios/ChibiOS_16.1.8/os/rt/include/chsystypes.h"
 2212              		.file 10 "../../../resources/chibios/ChibiOS_16.1.8/os/rt/ports/ARMCMx/chcore.h"
 2213              		.file 11 "../../../resources/chibios/ChibiOS_16.1.8/os/rt/ports/ARMCMx/chcore_v7m.h"
 2214              		.file 12 "../../../resources/chibios/ChibiOS_16.1.8/os/hal/ports/STM32/LLD/TIMv1/stm32_tim.h"
 2215              		.file 13 "../../../resources/chibios/ChibiOS_16.1.8/os/rt/include/chtm.h"
 2216              		.file 14 "../../../resources/chibios/ChibiOS_16.1.8/os/rt/include/chsem.h"
 2217              		.file 15 "../../../resources/chibios/ChibiOS_16.1.8/os/rt/include/chmtx.h"
 2218              		.file 16 "../../../resources/chibios/ChibiOS_16.1.8/os/hal/include/hal_buffers.h"
 2219              		.file 17 "../../../resources/chibios/ChibiOS_16.1.8/os/rt/ports/ARMCMx/chcore_timer.h"
 2220              		.file 18 "../../../resources/chibios/ChibiOS_16.1.8/os/rt/include/chsys.h"
 2221              		.file 19 "../../../resources/chibios/ChibiOS_16.1.8/os/rt/include/chvt.h"
 2222              		.file 20 "../../../resources/chibios/ChibiOS_16.1.8/os/rt/include/chthreads.h"
 2223              		.file 21 "../../../resources/chibios/ChibiOS_16.1.8/os/ext/CMSIS/include/core_cm3.h"