ARM GAS  /tmp/ccrc9sNv.s 			page 1


   1              		.syntax unified
   2              		.cpu cortex-m3
   3              		.fpu softvfp
   4              		.eabi_attribute 20, 1
   5              		.eabi_attribute 21, 1
   6              		.eabi_attribute 23, 3
   7              		.eabi_attribute 24, 1
   8              		.eabi_attribute 25, 1
   9              		.eabi_attribute 26, 1
  10              		.eabi_attribute 30, 2
  11              		.eabi_attribute 34, 1
  12              		.eabi_attribute 18, 4
  13              		.thumb
  14              		.file	"nvic.c"
  15              		.text
  16              	.Ltext0:
  17              		.cfi_sections	.debug_frame
  18              		.section	.text.nvicEnableVector,"ax",%progbits
  19              		.align	2
  20              		.p2align 4,,15
  21              		.global	nvicEnableVector
  22              		.thumb
  23              		.thumb_func
  24              		.type	nvicEnableVector, %function
  25              	nvicEnableVector:
  26              	.LFB213:
  27              		.file 1 "../../../resources/chibios/ChibiOS_16.1.8/os/hal/ports/common/ARMCMx/nvic.c"
  28              		.loc 1 57 0
  29              		.cfi_startproc
  30              		@ args = 0, pretend = 0, frame = 0
  31              		@ frame_needed = 0, uses_anonymous_args = 0
  32              		@ link register save eliminated.
  33              	.LVL0:
  34 0000 30B4     		push	{r4, r5}
  35              	.LCFI0:
  36              		.cfi_def_cfa_offset 8
  37              		.cfi_offset 5, -4
  38              		.cfi_offset 4, -8
  39              		.loc 1 65 0
  40 0002 00F01F05 		and	r5, r0, #31
  41 0006 0124     		movs	r4, #1
  42 0008 AC40     		lsls	r4, r4, r5
  43              		.loc 1 63 0
  44 000a 4FF46143 		mov	r3, #57600
  45 000e CEF20003 		movt	r3, 57344
  46              		.loc 1 65 0
  47 0012 4209     		lsrs	r2, r0, #5
  48              		.loc 1 63 0
  49 0014 0901     		lsls	r1, r1, #4
  50              	.LVL1:
  51 0016 1818     		adds	r0, r3, r0
  52              	.LVL2:
  53              		.loc 1 65 0
  54 0018 02F16005 		add	r5, r2, #96
  55              		.loc 1 63 0
  56 001c 80F80013 		strb	r1, [r0, #768]
  57              		.loc 1 65 0
ARM GAS  /tmp/ccrc9sNv.s 			page 2


  58 0020 43F82540 		str	r4, [r3, r5, lsl #2]
  59              		.loc 1 66 0
  60 0024 43F82240 		str	r4, [r3, r2, lsl #2]
  61              		.loc 1 67 0
  62 0028 30BC     		pop	{r4, r5}
  63 002a 7047     		bx	lr
  64              		.cfi_endproc
  65              	.LFE213:
  66              		.size	nvicEnableVector, .-nvicEnableVector
  67 002c AFF30080 		.section	.text.nvicDisableVector,"ax",%progbits
  68              		.align	2
  69              		.p2align 4,,15
  70              		.global	nvicDisableVector
  71              		.thumb
  72              		.thumb_func
  73              		.type	nvicDisableVector, %function
  74              	nvicDisableVector:
  75              	.LFB214:
  76              		.loc 1 74 0
  77              		.cfi_startproc
  78              		@ args = 0, pretend = 0, frame = 0
  79              		@ frame_needed = 0, uses_anonymous_args = 0
  80              		@ link register save eliminated.
  81              	.LVL3:
  82              		.loc 1 76 0
  83 0000 00F01F03 		and	r3, r0, #31
  84 0004 0121     		movs	r1, #1
  85 0006 9940     		lsls	r1, r1, r3
  86 0008 4FF4614C 		mov	ip, #57600
  87 000c CEF2000C 		movt	ip, 57344
  88 0010 4209     		lsrs	r2, r0, #5
  89 0012 2032     		adds	r2, r2, #32
  90              		.loc 1 80 0
  91 0014 6044     		add	r0, ip, r0
  92              	.LVL4:
  93 0016 0023     		movs	r3, #0
  94              		.loc 1 76 0
  95 0018 4CF82210 		str	r1, [ip, r2, lsl #2]
  96              		.loc 1 80 0
  97 001c 80F80033 		strb	r3, [r0, #768]
  98              		.loc 1 82 0
  99 0020 7047     		bx	lr
 100              		.cfi_endproc
 101              	.LFE214:
 102              		.size	nvicDisableVector, .-nvicDisableVector
 103 0022 00BFAFF3 		.section	.text.nvicSetSystemHandlerPriority,"ax",%progbits
 103      0080AFF3 
 103      0080AFF3 
 103      0080
 104              		.align	2
 105              		.p2align 4,,15
 106              		.global	nvicSetSystemHandlerPriority
 107              		.thumb
 108              		.thumb_func
 109              		.type	nvicSetSystemHandlerPriority, %function
 110              	nvicSetSystemHandlerPriority:
 111              	.LFB215:
ARM GAS  /tmp/ccrc9sNv.s 			page 3


 112              		.loc 1 90 0
 113              		.cfi_startproc
 114              		@ args = 0, pretend = 0, frame = 0
 115              		@ frame_needed = 0, uses_anonymous_args = 0
 116              		@ link register save eliminated.
 117              	.LVL5:
 118              		.loc 1 100 0
 119 0000 4FF46D42 		mov	r2, #60672
 120 0004 CEF20002 		movt	r2, 57344
 121 0008 0901     		lsls	r1, r1, #4
 122              	.LVL6:
 123 000a 8318     		adds	r3, r0, r2
 124 000c 1976     		strb	r1, [r3, #24]
 125              		.loc 1 102 0
 126 000e 7047     		bx	lr
 127              		.cfi_endproc
 128              	.LFE215:
 129              		.size	nvicSetSystemHandlerPriority, .-nvicSetSystemHandlerPriority
 130              		.section	.text.nvicClearPending,"ax",%progbits
 131              		.align	2
 132              		.p2align 4,,15
 133              		.global	nvicClearPending
 134              		.thumb
 135              		.thumb_func
 136              		.type	nvicClearPending, %function
 137              	nvicClearPending:
 138              	.LFB216:
 139              		.loc 1 109 0
 140              		.cfi_startproc
 141              		@ args = 0, pretend = 0, frame = 0
 142              		@ frame_needed = 0, uses_anonymous_args = 0
 143              		@ link register save eliminated.
 144              	.LVL7:
 145              		.loc 1 111 0
 146 0000 00F01F02 		and	r2, r0, #31
 147 0004 0121     		movs	r1, #1
 148 0006 11FA02F2 		lsls	r2, r1, r2
 149 000a 4009     		lsrs	r0, r0, #5
 150              	.LVL8:
 151 000c 4FF46143 		mov	r3, #57600
 152 0010 CEF20003 		movt	r3, 57344
 153 0014 6030     		adds	r0, r0, #96
 154 0016 43F82020 		str	r2, [r3, r0, lsl #2]
 155              		.loc 1 112 0
 156 001a 7047     		bx	lr
 157              		.cfi_endproc
 158              	.LFE216:
 159              		.size	nvicClearPending, .-nvicClearPending
 160 001c AFF30080 		.text
 161              	.Letext0:
 162              		.file 2 "/home/madog/programs/CodeSourcery/Sourcery_CodeBench_Lite_for_ARM_EABI/bin/../lib/gcc/arm
 163              		.file 3 "../../../resources/chibios/ChibiOS_16.1.8/os/rt/ports/ARMCMx/compilers/GCC/chtypes.h"
 164              		.file 4 "../../../resources/chibios/ChibiOS_16.1.8/os/rt/include/chsystypes.h"
 165              		.file 5 "../../../resources/chibios/ChibiOS_16.1.8/os/rt/include/chschd.h"
 166              		.file 6 "../../../resources/chibios/ChibiOS_16.1.8/os/ext/CMSIS/include/core_cm3.h"
 167              		.file 7 "../../../resources/chibios/ChibiOS_16.1.8/os/rt/ports/ARMCMx/chcore.h"
 168              		.file 8 "../../../resources/chibios/ChibiOS_16.1.8/os/rt/ports/ARMCMx/chcore_v7m.h"
ARM GAS  /tmp/ccrc9sNv.s 			page 4


 169              		.file 9 "../../../resources/chibios/ChibiOS_16.1.8/os/rt/include/chtm.h"
 170              		.file 10 "../../../resources/chibios/ChibiOS_16.1.8/os/rt/include/chsem.h"
 171              		.file 11 "../../../resources/chibios/ChibiOS_16.1.8/os/rt/include/chmtx.h"