ARM GAS  /tmp/ccrc9sNv.s 			page 1


   1              		.syntax unified
   2              		.cpu cortex-m3
   3              		.fpu softvfp
   4              		.eabi_attribute 20, 1
   5              		.eabi_attribute 21, 1
   6              		.eabi_attribute 23, 3
   7              		.eabi_attribute 24, 1
   8              		.eabi_attribute 25, 1
   9              		.eabi_attribute 26, 1
  10              		.eabi_attribute 30, 2
  11              		.eabi_attribute 34, 1
  12              		.eabi_attribute 18, 4
  13              		.thumb
  14              		.file	"nvic.c"
  15              		.text
  16              	.Ltext0:
  17              		.cfi_sections	.debug_frame
  18              		.section	.text.nvicEnableVector,"ax",%progbits
  19              		.align	2
  20              		.p2align 4,,15
  21              		.global	nvicEnableVector
  22              		.thumb
  23              		.thumb_func
  24              		.type	nvicEnableVector, %function
  25              	nvicEnableVector:
  26              	.LFB213:
  27              		.file 1 "../../../resources/chibios/ChibiOS_16.1.8/os/hal/ports/common/ARMCMx/nvic.c"
  28              		.loc 1 57 0
  29              		.cfi_startproc
  30              		@ args = 0, pretend = 0, frame = 0
  31              		@ frame_needed = 0, uses_anonymous_args = 0
  32              		@ link register save eliminated.
  33              	.LVL0:
  34 0000 30B4     		push	{r4, r5}
  35              	.LCFI0:
  36              		.cfi_def_cfa_offset 8
  37              		.cfi_offset 5, -4
  38              		.cfi_offset 4, -8
  39              		.loc 1 65 0
  40 0002 00F01F05 		and	r5, r0, #31
  41 0006 0124     		movs	r4, #1
  42 0008 AC40     		lsls	r4, r4, r5
  43              		.loc 1 63 0
  44 000a 4FF46143 		mov	r3, #57600
  45 000e CEF20003 		movt	r3, 57344
  46              		.loc 1 65 0
  47 0012 4209     		lsrs	r2, r0, #5
  48              		.loc 1 63 0
  49 0014 0901     		lsls	r1, r1, #4
  50              	.LVL1:
  51 0016 1818     		adds	r0, r3, r0
  52              	.LVL2:
  53              		.loc 1 65 0
  54 0018 02F16005 		add	r5, r2, #96
  55              		.loc 1 63 0
  56 001c 80F80013 		strb	r1, [r0, #768]
  57              		.loc 1 65 0
ARM GAS  /tmp/ccrc9sNv.s 			page 2


  58 0020 43F82540 		str	r4, [r3, r5, lsl #2]
  59              		.loc 1 66 0
  60 0024 43F82240 		str	r4, [r3, r2, lsl #2]
  61              		.loc 1 67 0
  62 0028 30BC     		pop	{r4, r5}
  63 002a 7047     		bx	lr
  64              		.cfi_endproc
  65              	.LFE213:
  66              		.size	nvicEnableVector, .-nvicEnableVector
  67 002c AFF30080 		.section	.text.nvicDisableVector,"ax",%progbits
  68              		.align	2
  69              		.p2align 4,,15
  70              		.global	nvicDisableVector
  71              		.thumb
  72              		.thumb_func
  73              		.type	nvicDisableVector, %function
  74              	nvicDisableVector:
  75              	.LFB214:
  76              		.loc 1 74 0
  77              		.cfi_startproc
  78              		@ args = 0, pretend = 0, frame = 0
  79              		@ frame_needed = 0, uses_anonymous_args = 0
  80              		@ link register save eliminated.
  81              	.LVL3:
  82              		.loc 1 76 0
  83 0000 00F01F03 		and	r3, r0, #31
  84 0004 0121     		movs	r1, #1
  85 0006 9940     		lsls	r1, r1, r3
  86 0008 4FF4614C 		mov	ip, #57600
  87 000c CEF2000C 		movt	ip, 57344
  88 0010 4209     		lsrs	r2, r0, #5
  89 0012 2032     		adds	r2, r2, #32
  90              		.loc 1 80 0
  91 0014 6044     		add	r0, ip, r0
  92              	.LVL4:
  93 0016 0023     		movs	r3, #0
  94              		.loc 1 76 0
  95 0018 4CF82210 		str	r1, [ip, r2, lsl #2]
  96              		.loc 1 80 0
  97 001c 80F80033 		strb	r3, [r0, #768]
  98              		.loc 1 82 0
  99 0020 7047     		bx	lr
 100              		.cfi_endproc
 101              	.LFE214:
 102              		.size	nvicDisableVector, .-nvicDisableVector
 103 0022 00BFAFF3 		.section	.text.nvicSetSystemHandlerPriority,"ax",%progbits
 103      0080AFF3 
 103      0080AFF3 
 103      0080
 104              		.align	2
 105              		.p2align 4,,15
 106              		.global	nvicSetSystemHandlerPriority
 107              		.thumb
 108              		.thumb_func
 109              		.type	nvicSetSystemHandlerPriority, %function
 110              	nvicSetSystemHandlerPriority:
 111              	.LFB215:
ARM GAS  /tmp/ccrc9sNv.s 			page 3


 112              		.loc 1 90 0
 113              		.cfi_startproc
 114              		@ args = 0, pretend = 0, frame = 0
 115              		@ frame_needed = 0, uses_anonymous_args = 0
 116              		@ link register save eliminated.
 117              	.LVL5:
 118              		.loc 1 100 0
 119 0000 4FF46D42 		mov	r2, #60672
 120 0004 CEF20002 		movt	r2, 57344
 121 0008 0901     		lsls	r1, r1, #4
 122              	.LVL6:
 123 000a 8318     		adds	r3, r0, r2
 124 000c 1976     		strb	r1, [r3, #24]
 125              		.loc 1 102 0
 126 000e 7047     		bx	lr
 127              		.cfi_endproc
 128              	.LFE215:
 129              		.size	nvicSetSystemHandlerPriority, .-nvicSetSystemHandlerPriority
 130              		.section	.text.nvicClearPending,"ax",%progbits
 131              		.align	2
 132              		.p2align 4,,15
 133              		.global	nvicClearPending
 134              		.thumb
 135              		.thumb_func
 136              		.type	nvicClearPending, %function
 137              	nvicClearPending:
 138              	.LFB216:
 139              		.loc 1 109 0
 140              		.cfi_startproc
 141              		@ args = 0, pretend = 0, frame = 0
 142              		@ frame_needed = 0, uses_anonymous_args = 0
 143              		@ link register save eliminated.
 144              	.LVL7:
 145              		.loc 1 111 0
 146 0000 00F01F02 		and	r2, r0, #31
 147 0004 0121     		movs	r1, #1
 148 0006 11FA02F2 		lsls	r2, r1, r2
 149 000a 4009     		lsrs	r0, r0, #5
 150              	.LVL8:
 151 000c 4FF46143 		mov	r3, #57600
 152 0010 CEF20003 		movt	r3, 57344
 153 0014 6030     		adds	r0, r0, #96
 154 0016 43F82020 		str	r2, [r3, r0, lsl #2]
 155              		.loc 1 112 0
 156 001a 7047     		bx	lr
 157              		.cfi_endproc
 158              	.LFE216:
 159              		.size	nvicClearPending, .-nvicClearPending
 160 001c AFF30080 		.text
 161              	.Letext0:
 162              		.file 2 "/home/madog/programs/CodeSourcery/Sourcery_CodeBench_Lite_for_ARM_EABI/bin/../lib/gcc/arm
 163              		.file 3 "../../../resources/chibios/ChibiOS_16.1.8/os/rt/ports/ARMCMx/compilers/GCC/chtypes.h"
 164              		.file 4 "../../../resources/chibios/ChibiOS_16.1.8/os/rt/include/chsystypes.h"
 165              		.file 5 "../../../resources/chibios/ChibiOS_16.1.8/os/rt/include/chschd.h"
 166              		.file 6 "../../../resources/chibios/ChibiOS_16.1.8/os/ext/CMSIS/include/core_cm3.h"
 167              		.file 7 "../../../resources/chibios/ChibiOS_16.1.8/os/rt/ports/ARMCMx/chcore.h"
 168              		.file 8 "../../../resources/chibios/ChibiOS_16.1.8/os/rt/ports/ARMCMx/chcore_v7m.h"
ARM GAS  /tmp/ccrc9sNv.s 			page 4


 169              		.file 9 "../../../resources/chibios/ChibiOS_16.1.8/os/rt/include/chtm.h"
 170              		.file 10 "../../../resources/chibios/ChibiOS_16.1.8/os/rt/include/chsem.h"
 171              		.file 11 "../../../resources/chibios/ChibiOS_16.1.8/os/rt/include/chmtx.h"
 172              		.section	.debug_info,"",%progbits
 173              	.Ldebug_info0:
 174 0000 900A0000 		.4byte	0xa90
 175 0004 0200     		.2byte	0x2
 176 0006 00000000 		.4byte	.Ldebug_abbrev0
 177 000a 04       		.byte	0x4
 178 000b 01       		.uleb128 0x1
 179 000c B0040000 		.4byte	.LASF133
 180 0010 01       		.byte	0x1
 181 0011 C0020000 		.4byte	.LASF134
 182 0015 24030000 		.4byte	.LASF135
 183 0019 00000000 		.4byte	0
 184 001d 00000000 		.4byte	0
 185 0021 00000000 		.4byte	.Ldebug_ranges0+0
 186 0025 00000000 		.4byte	.Ldebug_line0
 187 0029 02       		.uleb128 0x2
 188 002a 04       		.byte	0x4
 189 002b 05       		.byte	0x5
 190 002c 696E7400 		.ascii	"int\000"
 191 0030 03       		.uleb128 0x3
 192 0031 04       		.byte	0x4
 193 0032 07       		.byte	0x7
 194 0033 82000000 		.4byte	.LASF0
 195 0037 03       		.uleb128 0x3
 196 0038 01       		.byte	0x1
 197 0039 06       		.byte	0x6
 198 003a 21050000 		.4byte	.LASF1
 199 003e 04       		.uleb128 0x4
 200 003f 56020000 		.4byte	.LASF4
 201 0043 02       		.byte	0x2
 202 0044 2A       		.byte	0x2a
 203 0045 49000000 		.4byte	0x49
 204 0049 03       		.uleb128 0x3
 205 004a 01       		.byte	0x1
 206 004b 08       		.byte	0x8
 207 004c C4040000 		.4byte	.LASF2
 208 0050 03       		.uleb128 0x3
 209 0051 02       		.byte	0x2
 210 0052 05       		.byte	0x5
 211 0053 EE030000 		.4byte	.LASF3
 212 0057 04       		.uleb128 0x4
 213 0058 8E030000 		.4byte	.LASF5
 214 005c 02       		.byte	0x2
 215 005d 36       		.byte	0x36
 216 005e 62000000 		.4byte	0x62
 217 0062 03       		.uleb128 0x3
 218 0063 02       		.byte	0x2
 219 0064 07       		.byte	0x7
 220 0065 2D050000 		.4byte	.LASF6
 221 0069 04       		.uleb128 0x4
 222 006a A8040000 		.4byte	.LASF7
 223 006e 02       		.byte	0x2
 224 006f 4F       		.byte	0x4f
 225 0070 74000000 		.4byte	0x74
ARM GAS  /tmp/ccrc9sNv.s 			page 5


 226 0074 03       		.uleb128 0x3
 227 0075 04       		.byte	0x4
 228 0076 05       		.byte	0x5
 229 0077 15040000 		.4byte	.LASF8
 230 007b 04       		.uleb128 0x4
 231 007c 1F010000 		.4byte	.LASF9
 232 0080 02       		.byte	0x2
 233 0081 50       		.byte	0x50
 234 0082 86000000 		.4byte	0x86
 235 0086 03       		.uleb128 0x3
 236 0087 04       		.byte	0x4
 237 0088 07       		.byte	0x7
 238 0089 89040000 		.4byte	.LASF10
 239 008d 03       		.uleb128 0x3
 240 008e 08       		.byte	0x8
 241 008f 05       		.byte	0x5
 242 0090 89020000 		.4byte	.LASF11
 243 0094 04       		.uleb128 0x4
 244 0095 48040000 		.4byte	.LASF12
 245 0099 02       		.byte	0x2
 246 009a 78       		.byte	0x78
 247 009b 9F000000 		.4byte	0x9f
 248 009f 03       		.uleb128 0x3
 249 00a0 08       		.byte	0x8
 250 00a1 07       		.byte	0x7
 251 00a2 7B010000 		.4byte	.LASF13
 252 00a6 04       		.uleb128 0x4
 253 00a7 9C030000 		.4byte	.LASF14
 254 00ab 03       		.byte	0x3
 255 00ac 39       		.byte	0x39
 256 00ad 7B000000 		.4byte	0x7b
 257 00b1 04       		.uleb128 0x4
 258 00b2 7B030000 		.4byte	.LASF15
 259 00b6 03       		.byte	0x3
 260 00b7 3C       		.byte	0x3c
 261 00b8 3E000000 		.4byte	0x3e
 262 00bc 04       		.uleb128 0x4
 263 00bd 37020000 		.4byte	.LASF16
 264 00c1 03       		.byte	0x3
 265 00c2 3D       		.byte	0x3d
 266 00c3 3E000000 		.4byte	0x3e
 267 00c7 04       		.uleb128 0x4
 268 00c8 81040000 		.4byte	.LASF17
 269 00cc 03       		.byte	0x3
 270 00cd 3E       		.byte	0x3e
 271 00ce 3E000000 		.4byte	0x3e
 272 00d2 04       		.uleb128 0x4
 273 00d3 59010000 		.4byte	.LASF18
 274 00d7 03       		.byte	0x3
 275 00d8 40       		.byte	0x40
 276 00d9 7B000000 		.4byte	0x7b
 277 00dd 04       		.uleb128 0x4
 278 00de AD020000 		.4byte	.LASF19
 279 00e2 03       		.byte	0x3
 280 00e3 41       		.byte	0x41
 281 00e4 69000000 		.4byte	0x69
 282 00e8 04       		.uleb128 0x4
ARM GAS  /tmp/ccrc9sNv.s 			page 6


 283 00e9 2D010000 		.4byte	.LASF20
 284 00ed 03       		.byte	0x3
 285 00ee 43       		.byte	0x43
 286 00ef 7B000000 		.4byte	0x7b
 287 00f3 04       		.uleb128 0x4
 288 00f4 92010000 		.4byte	.LASF21
 289 00f8 03       		.byte	0x3
 290 00f9 45       		.byte	0x45
 291 00fa 69000000 		.4byte	0x69
 292 00fe 04       		.uleb128 0x4
 293 00ff 5D000000 		.4byte	.LASF22
 294 0103 04       		.byte	0x4
 295 0104 35       		.byte	0x35
 296 0105 57000000 		.4byte	0x57
 297 0109 04       		.uleb128 0x4
 298 010a B7010000 		.4byte	.LASF23
 299 010e 04       		.byte	0x4
 300 010f 3F       		.byte	0x3f
 301 0110 14010000 		.4byte	0x114
 302 0114 05       		.uleb128 0x5
 303 0115 70020000 		.4byte	.LASF43
 304 0119 44       		.byte	0x44
 305 011a 05       		.byte	0x5
 306 011b C2       		.byte	0xc2
 307 011c 25020000 		.4byte	0x225
 308 0120 06       		.uleb128 0x6
 309 0121 41040000 		.4byte	.LASF24
 310 0125 05       		.byte	0x5
 311 0126 C3       		.byte	0xc3
 312 0127 30020000 		.4byte	0x230
 313 012b 02       		.byte	0x2
 314 012c 23       		.byte	0x23
 315 012d 00       		.uleb128 0
 316 012e 06       		.uleb128 0x6
 317 012f 7A040000 		.4byte	.LASF25
 318 0133 05       		.byte	0x5
 319 0134 C5       		.byte	0xc5
 320 0135 30020000 		.4byte	0x230
 321 0139 02       		.byte	0x2
 322 013a 23       		.byte	0x23
 323 013b 04       		.uleb128 0x4
 324 013c 06       		.uleb128 0x6
 325 013d 56000000 		.4byte	.LASF26
 326 0141 05       		.byte	0x5
 327 0142 C7       		.byte	0xc7
 328 0143 D2000000 		.4byte	0xd2
 329 0147 02       		.byte	0x2
 330 0148 23       		.byte	0x23
 331 0149 08       		.uleb128 0x8
 332 014a 06       		.uleb128 0x6
 333 014b 51040000 		.4byte	.LASF27
 334 014f 05       		.byte	0x5
 335 0150 C8       		.byte	0xc8
 336 0151 9E070000 		.4byte	0x79e
 337 0155 02       		.byte	0x2
 338 0156 23       		.byte	0x23
 339 0157 0C       		.uleb128 0xc
ARM GAS  /tmp/ccrc9sNv.s 			page 7


 340 0158 06       		.uleb128 0x6
 341 0159 98010000 		.4byte	.LASF28
 342 015d 05       		.byte	0x5
 343 015e CA       		.byte	0xca
 344 015f 30020000 		.4byte	0x230
 345 0163 02       		.byte	0x2
 346 0164 23       		.byte	0x23
 347 0165 10       		.uleb128 0x10
 348 0166 06       		.uleb128 0x6
 349 0167 46020000 		.4byte	.LASF29
 350 016b 05       		.byte	0x5
 351 016c CB       		.byte	0xcb
 352 016d 30020000 		.4byte	0x230
 353 0171 02       		.byte	0x2
 354 0172 23       		.byte	0x23
 355 0173 14       		.uleb128 0x14
 356 0174 06       		.uleb128 0x6
 357 0175 F9010000 		.4byte	.LASF30
 358 0179 05       		.byte	0x5
 359 017a D2       		.byte	0xd2
 360 017b 3D090000 		.4byte	0x93d
 361 017f 02       		.byte	0x2
 362 0180 23       		.byte	0x23
 363 0181 18       		.uleb128 0x18
 364 0182 06       		.uleb128 0x6
 365 0183 4E020000 		.4byte	.LASF31
 366 0187 05       		.byte	0x5
 367 0188 DD       		.byte	0xdd
 368 0189 BC000000 		.4byte	0xbc
 369 018d 02       		.byte	0x2
 370 018e 23       		.byte	0x23
 371 018f 1C       		.uleb128 0x1c
 372 0190 06       		.uleb128 0x6
 373 0191 0C030000 		.4byte	.LASF32
 374 0195 05       		.byte	0x5
 375 0196 E1       		.byte	0xe1
 376 0197 B1000000 		.4byte	0xb1
 377 019b 02       		.byte	0x2
 378 019c 23       		.byte	0x23
 379 019d 1D       		.uleb128 0x1d
 380 019e 06       		.uleb128 0x6
 381 019f E8040000 		.4byte	.LASF33
 382 01a3 05       		.byte	0x5
 383 01a4 E6       		.byte	0xe6
 384 01a5 C7000000 		.4byte	0xc7
 385 01a9 02       		.byte	0x2
 386 01aa 23       		.byte	0x23
 387 01ab 1E       		.uleb128 0x1e
 388 01ac 07       		.uleb128 0x7
 389 01ad 705F7500 		.ascii	"p_u\000"
 390 01b1 05       		.byte	0x5
 391 01b2 3101     		.2byte	0x131
 392 01b4 6E080000 		.4byte	0x86e
 393 01b8 02       		.byte	0x2
 394 01b9 23       		.byte	0x23
 395 01ba 20       		.uleb128 0x20
 396 01bb 08       		.uleb128 0x8
ARM GAS  /tmp/ccrc9sNv.s 			page 8


 397 01bc 20000000 		.4byte	.LASF34
 398 01c0 05       		.byte	0x5
 399 01c1 3601     		.2byte	0x136
 400 01c3 36020000 		.4byte	0x236
 401 01c7 02       		.byte	0x2
 402 01c8 23       		.byte	0x23
 403 01c9 24       		.uleb128 0x24
 404 01ca 08       		.uleb128 0x8
 405 01cb 77000000 		.4byte	.LASF35
 406 01cf 05       		.byte	0x5
 407 01d0 3C01     		.2byte	0x13c
 408 01d2 5C020000 		.4byte	0x25c
 409 01d6 02       		.byte	0x2
 410 01d7 23       		.byte	0x23
 411 01d8 28       		.uleb128 0x28
 412 01d9 08       		.uleb128 0x8
 413 01da 75030000 		.4byte	.LASF36
 414 01de 05       		.byte	0x5
 415 01df 4001     		.2byte	0x140
 416 01e1 DD000000 		.4byte	0xdd
 417 01e5 02       		.byte	0x2
 418 01e6 23       		.byte	0x23
 419 01e7 30       		.uleb128 0x30
 420 01e8 08       		.uleb128 0x8
 421 01e9 02040000 		.4byte	.LASF37
 422 01ed 05       		.byte	0x5
 423 01ee 4601     		.2byte	0x146
 424 01f0 E8000000 		.4byte	0xe8
 425 01f4 02       		.byte	0x2
 426 01f5 23       		.byte	0x23
 427 01f6 34       		.uleb128 0x34
 428 01f7 08       		.uleb128 0x8
 429 01f8 66020000 		.4byte	.LASF38
 430 01fc 05       		.byte	0x5
 431 01fd 4D01     		.2byte	0x14d
 432 01ff 37090000 		.4byte	0x937
 433 0203 02       		.byte	0x2
 434 0204 23       		.byte	0x23
 435 0205 38       		.uleb128 0x38
 436 0206 08       		.uleb128 0x8
 437 0207 BB030000 		.4byte	.LASF39
 438 020b 05       		.byte	0x5
 439 020c 5101     		.2byte	0x151
 440 020e D2000000 		.4byte	0xd2
 441 0212 02       		.byte	0x2
 442 0213 23       		.byte	0x23
 443 0214 3C       		.uleb128 0x3c
 444 0215 08       		.uleb128 0x8
 445 0216 5E020000 		.4byte	.LASF40
 446 021a 05       		.byte	0x5
 447 021b 5801     		.2byte	0x158
 448 021d 20030000 		.4byte	0x320
 449 0221 02       		.byte	0x2
 450 0222 23       		.byte	0x23
 451 0223 40       		.uleb128 0x40
 452 0224 00       		.byte	0
 453 0225 04       		.uleb128 0x4
ARM GAS  /tmp/ccrc9sNv.s 			page 9


 454 0226 13020000 		.4byte	.LASF41
 455 022a 04       		.byte	0x4
 456 022b 44       		.byte	0x44
 457 022c 30020000 		.4byte	0x230
 458 0230 09       		.uleb128 0x9
 459 0231 04       		.byte	0x4
 460 0232 09010000 		.4byte	0x109
 461 0236 04       		.uleb128 0x4
 462 0237 8F000000 		.4byte	.LASF42
 463 023b 04       		.byte	0x4
 464 023c 49       		.byte	0x49
 465 023d 41020000 		.4byte	0x241
 466 0241 05       		.uleb128 0x5
 467 0242 00000000 		.4byte	.LASF44
 468 0246 04       		.byte	0x4
 469 0247 05       		.byte	0x5
 470 0248 B0       		.byte	0xb0
 471 0249 5C020000 		.4byte	0x25c
 472 024d 06       		.uleb128 0x6
 473 024e 41040000 		.4byte	.LASF24
 474 0252 05       		.byte	0x5
 475 0253 B1       		.byte	0xb1
 476 0254 30020000 		.4byte	0x230
 477 0258 02       		.byte	0x2
 478 0259 23       		.byte	0x23
 479 025a 00       		.uleb128 0
 480 025b 00       		.byte	0
 481 025c 04       		.uleb128 0x4
 482 025d 10000000 		.4byte	.LASF45
 483 0261 04       		.byte	0x4
 484 0262 50       		.byte	0x50
 485 0263 67020000 		.4byte	0x267
 486 0267 05       		.uleb128 0x5
 487 0268 EF000000 		.4byte	.LASF46
 488 026c 08       		.byte	0x8
 489 026d 05       		.byte	0x5
 490 026e B7       		.byte	0xb7
 491 026f 90020000 		.4byte	0x290
 492 0273 06       		.uleb128 0x6
 493 0274 41040000 		.4byte	.LASF24
 494 0278 05       		.byte	0x5
 495 0279 B8       		.byte	0xb8
 496 027a 30020000 		.4byte	0x230
 497 027e 02       		.byte	0x2
 498 027f 23       		.byte	0x23
 499 0280 00       		.uleb128 0
 500 0281 06       		.uleb128 0x6
 501 0282 7A040000 		.4byte	.LASF25
 502 0286 05       		.byte	0x5
 503 0287 B9       		.byte	0xb9
 504 0288 30020000 		.4byte	0x230
 505 028c 02       		.byte	0x2
 506 028d 23       		.byte	0x23
 507 028e 04       		.uleb128 0x4
 508 028f 00       		.byte	0
 509 0290 04       		.uleb128 0x4
 510 0291 9B040000 		.4byte	.LASF47
ARM GAS  /tmp/ccrc9sNv.s 			page 10


 511 0295 04       		.byte	0x4
 512 0296 57       		.byte	0x57
 513 0297 9B020000 		.4byte	0x29b
 514 029b 0A       		.uleb128 0xa
 515 029c B9000000 		.4byte	.LASF48
 516 02a0 1C       		.byte	0x1c
 517 02a1 05       		.byte	0x5
 518 02a2 9001     		.2byte	0x190
 519 02a4 03030000 		.4byte	0x303
 520 02a8 08       		.uleb128 0x8
 521 02a9 9D020000 		.4byte	.LASF49
 522 02ad 05       		.byte	0x5
 523 02ae 9101     		.2byte	0x191
 524 02b0 5C020000 		.4byte	0x25c
 525 02b4 02       		.byte	0x2
 526 02b5 23       		.byte	0x23
 527 02b6 00       		.uleb128 0
 528 02b7 08       		.uleb128 0x8
 529 02b8 39010000 		.4byte	.LASF50
 530 02bc 05       		.byte	0x5
 531 02bd 9201     		.2byte	0x192
 532 02bf D2000000 		.4byte	0xd2
 533 02c3 02       		.byte	0x2
 534 02c4 23       		.byte	0x23
 535 02c5 08       		.uleb128 0x8
 536 02c6 08       		.uleb128 0x8
 537 02c7 40050000 		.4byte	.LASF51
 538 02cb 05       		.byte	0x5
 539 02cc 9401     		.2byte	0x194
 540 02ce 9E070000 		.4byte	0x79e
 541 02d2 02       		.byte	0x2
 542 02d3 23       		.byte	0x23
 543 02d4 0C       		.uleb128 0xc
 544 02d5 08       		.uleb128 0x8
 545 02d6 A5020000 		.4byte	.LASF52
 546 02da 05       		.byte	0x5
 547 02db 9701     		.2byte	0x197
 548 02dd 30020000 		.4byte	0x230
 549 02e1 02       		.byte	0x2
 550 02e2 23       		.byte	0x23
 551 02e3 10       		.uleb128 0x10
 552 02e4 08       		.uleb128 0x8
 553 02e5 5E030000 		.4byte	.LASF53
 554 02e9 05       		.byte	0x5
 555 02ea 9801     		.2byte	0x198
 556 02ec 30020000 		.4byte	0x230
 557 02f0 02       		.byte	0x2
 558 02f1 23       		.byte	0x23
 559 02f2 14       		.uleb128 0x14
 560 02f3 08       		.uleb128 0x8
 561 02f4 F8030000 		.4byte	.LASF54
 562 02f8 05       		.byte	0x5
 563 02f9 9B01     		.2byte	0x19b
 564 02fb 30020000 		.4byte	0x230
 565 02ff 02       		.byte	0x2
 566 0300 23       		.byte	0x23
 567 0301 18       		.uleb128 0x18
ARM GAS  /tmp/ccrc9sNv.s 			page 11


 568 0302 00       		.byte	0
 569 0303 04       		.uleb128 0x4
 570 0304 00010000 		.4byte	.LASF55
 571 0308 04       		.byte	0x4
 572 0309 5C       		.byte	0x5c
 573 030a 0E030000 		.4byte	0x30e
 574 030e 09       		.uleb128 0x9
 575 030f 04       		.byte	0x4
 576 0310 14030000 		.4byte	0x314
 577 0314 0B       		.uleb128 0xb
 578 0315 01       		.byte	0x1
 579 0316 20030000 		.4byte	0x320
 580 031a 0C       		.uleb128 0xc
 581 031b 20030000 		.4byte	0x320
 582 031f 00       		.byte	0
 583 0320 0D       		.uleb128 0xd
 584 0321 04       		.byte	0x4
 585 0322 04       		.uleb128 0x4
 586 0323 14030000 		.4byte	.LASF56
 587 0327 04       		.byte	0x4
 588 0328 61       		.byte	0x61
 589 0329 2D030000 		.4byte	0x32d
 590 032d 0A       		.uleb128 0xa
 591 032e 6A010000 		.4byte	.LASF57
 592 0332 14       		.byte	0x14
 593 0333 05       		.byte	0x5
 594 0334 6B01     		.2byte	0x16b
 595 0336 86030000 		.4byte	0x386
 596 033a 08       		.uleb128 0x8
 597 033b F9040000 		.4byte	.LASF58
 598 033f 05       		.byte	0x5
 599 0340 6C01     		.2byte	0x16c
 600 0342 4F090000 		.4byte	0x94f
 601 0346 02       		.byte	0x2
 602 0347 23       		.byte	0x23
 603 0348 00       		.uleb128 0
 604 0349 08       		.uleb128 0x8
 605 034a 67050000 		.4byte	.LASF59
 606 034e 05       		.byte	0x5
 607 034f 6D01     		.2byte	0x16d
 608 0351 4F090000 		.4byte	0x94f
 609 0355 02       		.byte	0x2
 610 0356 23       		.byte	0x23
 611 0357 04       		.uleb128 0x4
 612 0358 08       		.uleb128 0x8
 613 0359 0A020000 		.4byte	.LASF60
 614 035d 05       		.byte	0x5
 615 035e 6E01     		.2byte	0x16e
 616 0360 FE000000 		.4byte	0xfe
 617 0364 02       		.byte	0x2
 618 0365 23       		.byte	0x23
 619 0366 08       		.uleb128 0x8
 620 0367 08       		.uleb128 0x8
 621 0368 5F050000 		.4byte	.LASF61
 622 036c 05       		.byte	0x5
 623 036d 6F01     		.2byte	0x16f
 624 036f 03030000 		.4byte	0x303
ARM GAS  /tmp/ccrc9sNv.s 			page 12


 625 0373 02       		.byte	0x2
 626 0374 23       		.byte	0x23
 627 0375 0C       		.uleb128 0xc
 628 0376 08       		.uleb128 0x8
 629 0377 40010000 		.4byte	.LASF62
 630 037b 05       		.byte	0x5
 631 037c 7101     		.2byte	0x171
 632 037e 20030000 		.4byte	0x320
 633 0382 02       		.byte	0x2
 634 0383 23       		.byte	0x23
 635 0384 10       		.uleb128 0x10
 636 0385 00       		.byte	0
 637 0386 04       		.uleb128 0x4
 638 0387 D2040000 		.4byte	.LASF63
 639 038b 04       		.byte	0x4
 640 038c 66       		.byte	0x66
 641 038d 91030000 		.4byte	0x391
 642 0391 0A       		.uleb128 0xa
 643 0392 A0010000 		.4byte	.LASF64
 644 0396 0C       		.byte	0xc
 645 0397 05       		.byte	0x5
 646 0398 7B01     		.2byte	0x17b
 647 039a DB030000 		.4byte	0x3db
 648 039e 08       		.uleb128 0x8
 649 039f F9040000 		.4byte	.LASF58
 650 03a3 05       		.byte	0x5
 651 03a4 7C01     		.2byte	0x17c
 652 03a6 4F090000 		.4byte	0x94f
 653 03aa 02       		.byte	0x2
 654 03ab 23       		.byte	0x23
 655 03ac 00       		.uleb128 0
 656 03ad 08       		.uleb128 0x8
 657 03ae 67050000 		.4byte	.LASF59
 658 03b2 05       		.byte	0x5
 659 03b3 7E01     		.2byte	0x17e
 660 03b5 4F090000 		.4byte	0x94f
 661 03b9 02       		.byte	0x2
 662 03ba 23       		.byte	0x23
 663 03bb 04       		.uleb128 0x4
 664 03bc 08       		.uleb128 0x8
 665 03bd 0A020000 		.4byte	.LASF60
 666 03c1 05       		.byte	0x5
 667 03c2 8001     		.2byte	0x180
 668 03c4 FE000000 		.4byte	0xfe
 669 03c8 02       		.byte	0x2
 670 03c9 23       		.byte	0x23
 671 03ca 08       		.uleb128 0x8
 672 03cb 08       		.uleb128 0x8
 673 03cc 26020000 		.4byte	.LASF65
 674 03d0 05       		.byte	0x5
 675 03d1 8801     		.2byte	0x188
 676 03d3 FE000000 		.4byte	0xfe
 677 03d7 02       		.byte	0x2
 678 03d8 23       		.byte	0x23
 679 03d9 0A       		.uleb128 0xa
 680 03da 00       		.byte	0
 681 03db 04       		.uleb128 0x4
ARM GAS  /tmp/ccrc9sNv.s 			page 13


 682 03dc 7A020000 		.4byte	.LASF66
 683 03e0 04       		.byte	0x4
 684 03e1 6B       		.byte	0x6b
 685 03e2 E6030000 		.4byte	0x3e6
 686 03e6 0A       		.uleb128 0xa
 687 03e7 0F010000 		.4byte	.LASF67
 688 03eb 04       		.byte	0x4
 689 03ec 05       		.byte	0x5
 690 03ed A201     		.2byte	0x1a2
 691 03ef 03040000 		.4byte	0x403
 692 03f3 08       		.uleb128 0x8
 693 03f4 6B030000 		.4byte	.LASF68
 694 03f8 05       		.byte	0x5
 695 03f9 AA01     		.2byte	0x1aa
 696 03fb 55090000 		.4byte	0x955
 697 03ff 02       		.byte	0x2
 698 0400 23       		.byte	0x23
 699 0401 00       		.uleb128 0
 700 0402 00       		.byte	0
 701 0403 04       		.uleb128 0x4
 702 0404 01050000 		.4byte	.LASF69
 703 0408 04       		.byte	0x4
 704 0409 70       		.byte	0x70
 705 040a 0E040000 		.4byte	0x40e
 706 040e 0E       		.uleb128 0xe
 707 040f 37040000 		.4byte	.LASF70
 708 0413 5001     		.2byte	0x150
 709 0415 05       		.byte	0x5
 710 0416 C201     		.2byte	0x1c2
 711 0418 76040000 		.4byte	0x476
 712 041c 08       		.uleb128 0x8
 713 041d 57040000 		.4byte	.LASF71
 714 0421 05       		.byte	0x5
 715 0422 C601     		.2byte	0x1c6
 716 0424 90020000 		.4byte	0x290
 717 0428 02       		.byte	0x2
 718 0429 23       		.byte	0x23
 719 042a 00       		.uleb128 0
 720 042b 08       		.uleb128 0x8
 721 042c B2000000 		.4byte	.LASF72
 722 0430 05       		.byte	0x5
 723 0431 CA01     		.2byte	0x1ca
 724 0433 86030000 		.4byte	0x386
 725 0437 02       		.byte	0x2
 726 0438 23       		.byte	0x23
 727 0439 1C       		.uleb128 0x1c
 728 043a 07       		.uleb128 0x7
 729 043b 64626700 		.ascii	"dbg\000"
 730 043f 05       		.byte	0x5
 731 0440 CE01     		.2byte	0x1ce
 732 0442 DB030000 		.4byte	0x3db
 733 0446 02       		.byte	0x2
 734 0447 23       		.byte	0x23
 735 0448 28       		.uleb128 0x28
 736 0449 08       		.uleb128 0x8
 737 044a 83030000 		.4byte	.LASF73
 738 044e 05       		.byte	0x5
ARM GAS  /tmp/ccrc9sNv.s 			page 14


 739 044f D201     		.2byte	0x1d2
 740 0451 09010000 		.4byte	0x109
 741 0455 02       		.byte	0x2
 742 0456 23       		.byte	0x23
 743 0457 2C       		.uleb128 0x2c
 744 0458 07       		.uleb128 0x7
 745 0459 746D00   		.ascii	"tm\000"
 746 045c 05       		.byte	0x5
 747 045d D701     		.2byte	0x1d7
 748 045f 63080000 		.4byte	0x863
 749 0463 02       		.byte	0x2
 750 0464 23       		.byte	0x23
 751 0465 70       		.uleb128 0x70
 752 0466 08       		.uleb128 0x8
 753 0467 C7000000 		.4byte	.LASF74
 754 046b 05       		.byte	0x5
 755 046c E301     		.2byte	0x1e3
 756 046e 5A090000 		.4byte	0x95a
 757 0472 02       		.byte	0x2
 758 0473 23       		.byte	0x23
 759 0474 78       		.uleb128 0x78
 760 0475 00       		.byte	0
 761 0476 0F       		.uleb128 0xf
 762 0477 040E     		.2byte	0xe04
 763 0479 06       		.byte	0x6
 764 047a 6301     		.2byte	0x163
 765 047c 4E050000 		.4byte	0x54e
 766 0480 08       		.uleb128 0x8
 767 0481 47010000 		.4byte	.LASF75
 768 0485 06       		.byte	0x6
 769 0486 6501     		.2byte	0x165
 770 0488 5E050000 		.4byte	0x55e
 771 048c 02       		.byte	0x2
 772 048d 23       		.byte	0x23
 773 048e 00       		.uleb128 0
 774 048f 08       		.uleb128 0x8
 775 0490 6F050000 		.4byte	.LASF76
 776 0494 06       		.byte	0x6
 777 0495 6601     		.2byte	0x166
 778 0497 63050000 		.4byte	0x563
 779 049b 02       		.byte	0x2
 780 049c 23       		.byte	0x23
 781 049d 20       		.uleb128 0x20
 782 049e 08       		.uleb128 0x8
 783 049f EF040000 		.4byte	.LASF77
 784 04a3 06       		.byte	0x6
 785 04a4 6701     		.2byte	0x167
 786 04a6 73050000 		.4byte	0x573
 787 04aa 03       		.byte	0x3
 788 04ab 23       		.byte	0x23
 789 04ac 8001     		.uleb128 0x80
 790 04ae 08       		.uleb128 0x8
 791 04af 61010000 		.4byte	.LASF78
 792 04b3 06       		.byte	0x6
 793 04b4 6801     		.2byte	0x168
 794 04b6 63050000 		.4byte	0x563
 795 04ba 03       		.byte	0x3
ARM GAS  /tmp/ccrc9sNv.s 			page 15


 796 04bb 23       		.byte	0x23
 797 04bc A001     		.uleb128 0xa0
 798 04be 08       		.uleb128 0x8
 799 04bf 5A050000 		.4byte	.LASF79
 800 04c3 06       		.byte	0x6
 801 04c4 6901     		.2byte	0x169
 802 04c6 78050000 		.4byte	0x578
 803 04ca 03       		.byte	0x3
 804 04cb 23       		.byte	0x23
 805 04cc 8002     		.uleb128 0x100
 806 04ce 08       		.uleb128 0x8
 807 04cf C6030000 		.4byte	.LASF80
 808 04d3 06       		.byte	0x6
 809 04d4 6A01     		.2byte	0x16a
 810 04d6 63050000 		.4byte	0x563
 811 04da 03       		.byte	0x3
 812 04db 23       		.byte	0x23
 813 04dc A002     		.uleb128 0x120
 814 04de 08       		.uleb128 0x8
 815 04df 66030000 		.4byte	.LASF81
 816 04e3 06       		.byte	0x6
 817 04e4 6B01     		.2byte	0x16b
 818 04e6 7D050000 		.4byte	0x57d
 819 04ea 03       		.byte	0x3
 820 04eb 23       		.byte	0x23
 821 04ec 8003     		.uleb128 0x180
 822 04ee 08       		.uleb128 0x8
 823 04ef D0030000 		.4byte	.LASF82
 824 04f3 06       		.byte	0x6
 825 04f4 6C01     		.2byte	0x16c
 826 04f6 63050000 		.4byte	0x563
 827 04fa 03       		.byte	0x3
 828 04fb 23       		.byte	0x23
 829 04fc A003     		.uleb128 0x1a0
 830 04fe 08       		.uleb128 0x8
 831 04ff F4040000 		.4byte	.LASF83
 832 0503 06       		.byte	0x6
 833 0504 6D01     		.2byte	0x16d
 834 0506 82050000 		.4byte	0x582
 835 050a 03       		.byte	0x3
 836 050b 23       		.byte	0x23
 837 050c 8004     		.uleb128 0x200
 838 050e 08       		.uleb128 0x8
 839 050f DA030000 		.4byte	.LASF84
 840 0513 06       		.byte	0x6
 841 0514 6E01     		.2byte	0x16e
 842 0516 87050000 		.4byte	0x587
 843 051a 03       		.byte	0x3
 844 051b 23       		.byte	0x23
 845 051c A004     		.uleb128 0x220
 846 051e 07       		.uleb128 0x7
 847 051f 495000   		.ascii	"IP\000"
 848 0522 06       		.byte	0x6
 849 0523 6F01     		.2byte	0x16f
 850 0525 A7050000 		.4byte	0x5a7
 851 0529 03       		.byte	0x3
 852 052a 23       		.byte	0x23
ARM GAS  /tmp/ccrc9sNv.s 			page 16


 853 052b 8006     		.uleb128 0x300
 854 052d 08       		.uleb128 0x8
 855 052e E4030000 		.4byte	.LASF85
 856 0532 06       		.byte	0x6
 857 0533 7001     		.2byte	0x170
 858 0535 AC050000 		.4byte	0x5ac
 859 0539 03       		.byte	0x3
 860 053a 23       		.byte	0x23
 861 053b F007     		.uleb128 0x3f0
 862 053d 08       		.uleb128 0x8
 863 053e 97030000 		.4byte	.LASF86
 864 0542 06       		.byte	0x6
 865 0543 7101     		.2byte	0x171
 866 0545 BD050000 		.4byte	0x5bd
 867 0549 03       		.byte	0x3
 868 054a 23       		.byte	0x23
 869 054b 801C     		.uleb128 0xe00
 870 054d 00       		.byte	0
 871 054e 10       		.uleb128 0x10
 872 054f 7B000000 		.4byte	0x7b
 873 0553 5E050000 		.4byte	0x55e
 874 0557 11       		.uleb128 0x11
 875 0558 30000000 		.4byte	0x30
 876 055c 07       		.byte	0x7
 877 055d 00       		.byte	0
 878 055e 12       		.uleb128 0x12
 879 055f 4E050000 		.4byte	0x54e
 880 0563 10       		.uleb128 0x10
 881 0564 7B000000 		.4byte	0x7b
 882 0568 73050000 		.4byte	0x573
 883 056c 11       		.uleb128 0x11
 884 056d 30000000 		.4byte	0x30
 885 0571 17       		.byte	0x17
 886 0572 00       		.byte	0
 887 0573 12       		.uleb128 0x12
 888 0574 4E050000 		.4byte	0x54e
 889 0578 12       		.uleb128 0x12
 890 0579 4E050000 		.4byte	0x54e
 891 057d 12       		.uleb128 0x12
 892 057e 4E050000 		.4byte	0x54e
 893 0582 12       		.uleb128 0x12
 894 0583 4E050000 		.4byte	0x54e
 895 0587 10       		.uleb128 0x10
 896 0588 7B000000 		.4byte	0x7b
 897 058c 97050000 		.4byte	0x597
 898 0590 11       		.uleb128 0x11
 899 0591 30000000 		.4byte	0x30
 900 0595 37       		.byte	0x37
 901 0596 00       		.byte	0
 902 0597 10       		.uleb128 0x10
 903 0598 3E000000 		.4byte	0x3e
 904 059c A7050000 		.4byte	0x5a7
 905 05a0 11       		.uleb128 0x11
 906 05a1 30000000 		.4byte	0x30
 907 05a5 EF       		.byte	0xef
 908 05a6 00       		.byte	0
 909 05a7 12       		.uleb128 0x12
ARM GAS  /tmp/ccrc9sNv.s 			page 17


 910 05a8 97050000 		.4byte	0x597
 911 05ac 10       		.uleb128 0x10
 912 05ad 7B000000 		.4byte	0x7b
 913 05b1 BD050000 		.4byte	0x5bd
 914 05b5 13       		.uleb128 0x13
 915 05b6 30000000 		.4byte	0x30
 916 05ba 8302     		.2byte	0x283
 917 05bc 00       		.byte	0
 918 05bd 12       		.uleb128 0x12
 919 05be 7B000000 		.4byte	0x7b
 920 05c2 14       		.uleb128 0x14
 921 05c3 5D040000 		.4byte	.LASF87
 922 05c7 06       		.byte	0x6
 923 05c8 7201     		.2byte	0x172
 924 05ca 76040000 		.4byte	0x476
 925 05ce 15       		.uleb128 0x15
 926 05cf 8C       		.byte	0x8c
 927 05d0 06       		.byte	0x6
 928 05d1 8301     		.2byte	0x183
 929 05d3 14070000 		.4byte	0x714
 930 05d7 08       		.uleb128 0x8
 931 05d8 CE010000 		.4byte	.LASF88
 932 05dc 06       		.byte	0x6
 933 05dd 8501     		.2byte	0x185
 934 05df 14070000 		.4byte	0x714
 935 05e3 02       		.byte	0x2
 936 05e4 23       		.byte	0x23
 937 05e5 00       		.uleb128 0
 938 05e6 08       		.uleb128 0x8
 939 05e7 32020000 		.4byte	.LASF89
 940 05eb 06       		.byte	0x6
 941 05ec 8601     		.2byte	0x186
 942 05ee BD050000 		.4byte	0x5bd
 943 05f2 02       		.byte	0x2
 944 05f3 23       		.byte	0x23
 945 05f4 04       		.uleb128 0x4
 946 05f5 08       		.uleb128 0x8
 947 05f6 75040000 		.4byte	.LASF90
 948 05fa 06       		.byte	0x6
 949 05fb 8701     		.2byte	0x187
 950 05fd BD050000 		.4byte	0x5bd
 951 0601 02       		.byte	0x2
 952 0602 23       		.byte	0x23
 953 0603 08       		.uleb128 0x8
 954 0604 08       		.uleb128 0x8
 955 0605 40020000 		.4byte	.LASF91
 956 0609 06       		.byte	0x6
 957 060a 8801     		.2byte	0x188
 958 060c BD050000 		.4byte	0x5bd
 959 0610 02       		.byte	0x2
 960 0611 23       		.byte	0x23
 961 0612 0C       		.uleb128 0xc
 962 0613 07       		.uleb128 0x7
 963 0614 53435200 		.ascii	"SCR\000"
 964 0618 06       		.byte	0x6
 965 0619 8901     		.2byte	0x189
 966 061b BD050000 		.4byte	0x5bd
ARM GAS  /tmp/ccrc9sNv.s 			page 18


 967 061f 02       		.byte	0x2
 968 0620 23       		.byte	0x23
 969 0621 10       		.uleb128 0x10
 970 0622 07       		.uleb128 0x7
 971 0623 43435200 		.ascii	"CCR\000"
 972 0627 06       		.byte	0x6
 973 0628 8A01     		.2byte	0x18a
 974 062a BD050000 		.4byte	0x5bd
 975 062e 02       		.byte	0x2
 976 062f 23       		.byte	0x23
 977 0630 14       		.uleb128 0x14
 978 0631 07       		.uleb128 0x7
 979 0632 53485000 		.ascii	"SHP\000"
 980 0636 06       		.byte	0x6
 981 0637 8B01     		.2byte	0x18b
 982 0639 29070000 		.4byte	0x729
 983 063d 02       		.byte	0x2
 984 063e 23       		.byte	0x23
 985 063f 18       		.uleb128 0x18
 986 0640 08       		.uleb128 0x8
 987 0641 97020000 		.4byte	.LASF92
 988 0645 06       		.byte	0x6
 989 0646 8C01     		.2byte	0x18c
 990 0648 BD050000 		.4byte	0x5bd
 991 064c 02       		.byte	0x2
 992 064d 23       		.byte	0x23
 993 064e 24       		.uleb128 0x24
 994 064f 08       		.uleb128 0x8
 995 0650 B3020000 		.4byte	.LASF93
 996 0654 06       		.byte	0x6
 997 0655 8D01     		.2byte	0x18d
 998 0657 BD050000 		.4byte	0x5bd
 999 065b 02       		.byte	0x2
 1000 065c 23       		.byte	0x23
 1001 065d 28       		.uleb128 0x28
 1002 065e 08       		.uleb128 0x8
 1003 065f 00020000 		.4byte	.LASF94
 1004 0663 06       		.byte	0x6
 1005 0664 8E01     		.2byte	0x18e
 1006 0666 BD050000 		.4byte	0x5bd
 1007 066a 02       		.byte	0x2
 1008 066b 23       		.byte	0x23
 1009 066c 2C       		.uleb128 0x2c
 1010 066d 08       		.uleb128 0x8
 1011 066e 9E000000 		.4byte	.LASF95
 1012 0672 06       		.byte	0x6
 1013 0673 8F01     		.2byte	0x18f
 1014 0675 BD050000 		.4byte	0x5bd
 1015 0679 02       		.byte	0x2
 1016 067a 23       		.byte	0x23
 1017 067b 30       		.uleb128 0x30
 1018 067c 08       		.uleb128 0x8
 1019 067d B5030000 		.4byte	.LASF96
 1020 0681 06       		.byte	0x6
 1021 0682 9001     		.2byte	0x190
 1022 0684 BD050000 		.4byte	0x5bd
 1023 0688 02       		.byte	0x2
ARM GAS  /tmp/ccrc9sNv.s 			page 19


 1024 0689 23       		.byte	0x23
 1025 068a 34       		.uleb128 0x34
 1026 068b 08       		.uleb128 0x8
 1027 068c 70040000 		.4byte	.LASF97
 1028 0690 06       		.byte	0x6
 1029 0691 9101     		.2byte	0x191
 1030 0693 BD050000 		.4byte	0x5bd
 1031 0697 02       		.byte	0x2
 1032 0698 23       		.byte	0x23
 1033 0699 38       		.uleb128 0x38
 1034 069a 08       		.uleb128 0x8
 1035 069b E3010000 		.4byte	.LASF98
 1036 069f 06       		.byte	0x6
 1037 06a0 9201     		.2byte	0x192
 1038 06a2 BD050000 		.4byte	0x5bd
 1039 06a6 02       		.byte	0x2
 1040 06a7 23       		.byte	0x23
 1041 06a8 3C       		.uleb128 0x3c
 1042 06a9 07       		.uleb128 0x7
 1043 06aa 50465200 		.ascii	"PFR\000"
 1044 06ae 06       		.byte	0x6
 1045 06af 9301     		.2byte	0x193
 1046 06b1 3E070000 		.4byte	0x73e
 1047 06b5 02       		.byte	0x2
 1048 06b6 23       		.byte	0x23
 1049 06b7 40       		.uleb128 0x40
 1050 06b8 07       		.uleb128 0x7
 1051 06b9 44465200 		.ascii	"DFR\000"
 1052 06bd 06       		.byte	0x6
 1053 06be 9401     		.2byte	0x194
 1054 06c0 14070000 		.4byte	0x714
 1055 06c4 02       		.byte	0x2
 1056 06c5 23       		.byte	0x23
 1057 06c6 48       		.uleb128 0x48
 1058 06c7 07       		.uleb128 0x7
 1059 06c8 41445200 		.ascii	"ADR\000"
 1060 06cc 06       		.byte	0x6
 1061 06cd 9501     		.2byte	0x195
 1062 06cf 14070000 		.4byte	0x714
 1063 06d3 02       		.byte	0x2
 1064 06d4 23       		.byte	0x23
 1065 06d5 4C       		.uleb128 0x4c
 1066 06d6 08       		.uleb128 0x8
 1067 06d7 28010000 		.4byte	.LASF99
 1068 06db 06       		.byte	0x6
 1069 06dc 9601     		.2byte	0x196
 1070 06de 58070000 		.4byte	0x758
 1071 06e2 02       		.byte	0x2
 1072 06e3 23       		.byte	0x23
 1073 06e4 50       		.uleb128 0x50
 1074 06e5 08       		.uleb128 0x8
 1075 06e6 79050000 		.4byte	.LASF100
 1076 06ea 06       		.byte	0x6
 1077 06eb 9701     		.2byte	0x197
 1078 06ed 72070000 		.4byte	0x772
 1079 06f1 02       		.byte	0x2
 1080 06f2 23       		.byte	0x23
ARM GAS  /tmp/ccrc9sNv.s 			page 20


 1081 06f3 60       		.uleb128 0x60
 1082 06f4 08       		.uleb128 0x8
 1083 06f5 6F050000 		.4byte	.LASF76
 1084 06f9 06       		.byte	0x6
 1085 06fa 9801     		.2byte	0x198
 1086 06fc 62070000 		.4byte	0x762
 1087 0700 02       		.byte	0x2
 1088 0701 23       		.byte	0x23
 1089 0702 74       		.uleb128 0x74
 1090 0703 08       		.uleb128 0x8
 1091 0704 2A000000 		.4byte	.LASF101
 1092 0708 06       		.byte	0x6
 1093 0709 9901     		.2byte	0x199
 1094 070b BD050000 		.4byte	0x5bd
 1095 070f 03       		.byte	0x3
 1096 0710 23       		.byte	0x23
 1097 0711 8801     		.uleb128 0x88
 1098 0713 00       		.byte	0
 1099 0714 16       		.uleb128 0x16
 1100 0715 BD050000 		.4byte	0x5bd
 1101 0719 10       		.uleb128 0x10
 1102 071a 3E000000 		.4byte	0x3e
 1103 071e 29070000 		.4byte	0x729
 1104 0722 11       		.uleb128 0x11
 1105 0723 30000000 		.4byte	0x30
 1106 0727 0B       		.byte	0xb
 1107 0728 00       		.byte	0
 1108 0729 12       		.uleb128 0x12
 1109 072a 19070000 		.4byte	0x719
 1110 072e 10       		.uleb128 0x10
 1111 072f 7B000000 		.4byte	0x7b
 1112 0733 3E070000 		.4byte	0x73e
 1113 0737 11       		.uleb128 0x11
 1114 0738 30000000 		.4byte	0x30
 1115 073c 01       		.byte	0x1
 1116 073d 00       		.byte	0
 1117 073e 16       		.uleb128 0x16
 1118 073f 43070000 		.4byte	0x743
 1119 0743 12       		.uleb128 0x12
 1120 0744 2E070000 		.4byte	0x72e
 1121 0748 10       		.uleb128 0x10
 1122 0749 7B000000 		.4byte	0x7b
 1123 074d 58070000 		.4byte	0x758
 1124 0751 11       		.uleb128 0x11
 1125 0752 30000000 		.4byte	0x30
 1126 0756 03       		.byte	0x3
 1127 0757 00       		.byte	0
 1128 0758 16       		.uleb128 0x16
 1129 0759 5D070000 		.4byte	0x75d
 1130 075d 12       		.uleb128 0x12
 1131 075e 48070000 		.4byte	0x748
 1132 0762 10       		.uleb128 0x10
 1133 0763 7B000000 		.4byte	0x7b
 1134 0767 72070000 		.4byte	0x772
 1135 076b 11       		.uleb128 0x11
 1136 076c 30000000 		.4byte	0x30
 1137 0770 04       		.byte	0x4
ARM GAS  /tmp/ccrc9sNv.s 			page 21


 1138 0771 00       		.byte	0
 1139 0772 16       		.uleb128 0x16
 1140 0773 77070000 		.4byte	0x777
 1141 0777 12       		.uleb128 0x12
 1142 0778 62070000 		.4byte	0x762
 1143 077c 14       		.uleb128 0x14
 1144 077d 67040000 		.4byte	.LASF102
 1145 0781 06       		.byte	0x6
 1146 0782 9A01     		.2byte	0x19a
 1147 0784 CE050000 		.4byte	0x5ce
 1148 0788 04       		.uleb128 0x4
 1149 0789 4D000000 		.4byte	.LASF103
 1150 078d 07       		.byte	0x7
 1151 078e 65       		.byte	0x65
 1152 078f 20030000 		.4byte	0x320
 1153 0793 04       		.uleb128 0x4
 1154 0794 46050000 		.4byte	.LASF104
 1155 0798 07       		.byte	0x7
 1156 0799 6D       		.byte	0x6d
 1157 079a 94000000 		.4byte	0x94
 1158 079e 05       		.uleb128 0x5
 1159 079f B8020000 		.4byte	.LASF105
 1160 07a3 04       		.byte	0x4
 1161 07a4 07       		.byte	0x7
 1162 07a5 89       		.byte	0x89
 1163 07a6 B9070000 		.4byte	0x7b9
 1164 07aa 17       		.uleb128 0x17
 1165 07ab 72313300 		.ascii	"r13\000"
 1166 07af 07       		.byte	0x7
 1167 07b0 8A       		.byte	0x8a
 1168 07b1 46080000 		.4byte	0x846
 1169 07b5 02       		.byte	0x2
 1170 07b6 23       		.byte	0x23
 1171 07b7 00       		.uleb128 0
 1172 07b8 00       		.byte	0
 1173 07b9 05       		.uleb128 0x5
 1174 07ba 1E040000 		.4byte	.LASF106
 1175 07be 24       		.byte	0x24
 1176 07bf 08       		.byte	0x8
 1177 07c0 FD       		.byte	0xfd
 1178 07c1 46080000 		.4byte	0x846
 1179 07c5 07       		.uleb128 0x7
 1180 07c6 723400   		.ascii	"r4\000"
 1181 07c9 08       		.byte	0x8
 1182 07ca 1001     		.2byte	0x110
 1183 07cc 88070000 		.4byte	0x788
 1184 07d0 02       		.byte	0x2
 1185 07d1 23       		.byte	0x23
 1186 07d2 00       		.uleb128 0
 1187 07d3 07       		.uleb128 0x7
 1188 07d4 723500   		.ascii	"r5\000"
 1189 07d7 08       		.byte	0x8
 1190 07d8 1101     		.2byte	0x111
 1191 07da 88070000 		.4byte	0x788
 1192 07de 02       		.byte	0x2
 1193 07df 23       		.byte	0x23
 1194 07e0 04       		.uleb128 0x4
ARM GAS  /tmp/ccrc9sNv.s 			page 22


 1195 07e1 07       		.uleb128 0x7
 1196 07e2 723600   		.ascii	"r6\000"
 1197 07e5 08       		.byte	0x8
 1198 07e6 1201     		.2byte	0x112
 1199 07e8 88070000 		.4byte	0x788
 1200 07ec 02       		.byte	0x2
 1201 07ed 23       		.byte	0x23
 1202 07ee 08       		.uleb128 0x8
 1203 07ef 07       		.uleb128 0x7
 1204 07f0 723700   		.ascii	"r7\000"
 1205 07f3 08       		.byte	0x8
 1206 07f4 1301     		.2byte	0x113
 1207 07f6 88070000 		.4byte	0x788
 1208 07fa 02       		.byte	0x2
 1209 07fb 23       		.byte	0x23
 1210 07fc 0C       		.uleb128 0xc
 1211 07fd 07       		.uleb128 0x7
 1212 07fe 723800   		.ascii	"r8\000"
 1213 0801 08       		.byte	0x8
 1214 0802 1401     		.2byte	0x114
 1215 0804 88070000 		.4byte	0x788
 1216 0808 02       		.byte	0x2
 1217 0809 23       		.byte	0x23
 1218 080a 10       		.uleb128 0x10
 1219 080b 07       		.uleb128 0x7
 1220 080c 723900   		.ascii	"r9\000"
 1221 080f 08       		.byte	0x8
 1222 0810 1501     		.2byte	0x115
 1223 0812 88070000 		.4byte	0x788
 1224 0816 02       		.byte	0x2
 1225 0817 23       		.byte	0x23
 1226 0818 14       		.uleb128 0x14
 1227 0819 07       		.uleb128 0x7
 1228 081a 72313000 		.ascii	"r10\000"
 1229 081e 08       		.byte	0x8
 1230 081f 1601     		.2byte	0x116
 1231 0821 88070000 		.4byte	0x788
 1232 0825 02       		.byte	0x2
 1233 0826 23       		.byte	0x23
 1234 0827 18       		.uleb128 0x18
 1235 0828 07       		.uleb128 0x7
 1236 0829 72313100 		.ascii	"r11\000"
 1237 082d 08       		.byte	0x8
 1238 082e 1701     		.2byte	0x117
 1239 0830 88070000 		.4byte	0x788
 1240 0834 02       		.byte	0x2
 1241 0835 23       		.byte	0x23
 1242 0836 1C       		.uleb128 0x1c
 1243 0837 07       		.uleb128 0x7
 1244 0838 6C7200   		.ascii	"lr\000"
 1245 083b 08       		.byte	0x8
 1246 083c 1801     		.2byte	0x118
 1247 083e 88070000 		.4byte	0x788
 1248 0842 02       		.byte	0x2
 1249 0843 23       		.byte	0x23
 1250 0844 20       		.uleb128 0x20
 1251 0845 00       		.byte	0
ARM GAS  /tmp/ccrc9sNv.s 			page 23


 1252 0846 09       		.uleb128 0x9
 1253 0847 04       		.byte	0x4
 1254 0848 B9070000 		.4byte	0x7b9
 1255 084c 18       		.uleb128 0x18
 1256 084d 04       		.byte	0x4
 1257 084e 09       		.byte	0x9
 1258 084f 38       		.byte	0x38
 1259 0850 63080000 		.4byte	0x863
 1260 0854 06       		.uleb128 0x6
 1261 0855 C7010000 		.4byte	.LASF107
 1262 0859 09       		.byte	0x9
 1263 085a 3C       		.byte	0x3c
 1264 085b A6000000 		.4byte	0xa6
 1265 085f 02       		.byte	0x2
 1266 0860 23       		.byte	0x23
 1267 0861 00       		.uleb128 0
 1268 0862 00       		.byte	0
 1269 0863 04       		.uleb128 0x4
 1270 0864 37000000 		.4byte	.LASF108
 1271 0868 09       		.byte	0x9
 1272 0869 3D       		.byte	0x3d
 1273 086a 4C080000 		.4byte	0x84c
 1274 086e 19       		.uleb128 0x19
 1275 086f 04       		.byte	0x4
 1276 0870 05       		.byte	0x5
 1277 0871 FA       		.byte	0xfa
 1278 0872 CB080000 		.4byte	0x8cb
 1279 0876 1A       		.uleb128 0x1a
 1280 0877 C0010000 		.4byte	.LASF109
 1281 087b 05       		.byte	0x5
 1282 087c 0101     		.2byte	0x101
 1283 087e DD000000 		.4byte	0xdd
 1284 0882 1A       		.uleb128 0x1a
 1285 0883 7E050000 		.4byte	.LASF110
 1286 0887 05       		.byte	0x5
 1287 0888 0801     		.2byte	0x108
 1288 088a DD000000 		.4byte	0xdd
 1289 088e 1A       		.uleb128 0x1a
 1290 088f A3000000 		.4byte	.LASF111
 1291 0893 05       		.byte	0x5
 1292 0894 0F01     		.2byte	0x10f
 1293 0896 20030000 		.4byte	0x320
 1294 089a 1A       		.uleb128 0x1a
 1295 089b 14050000 		.4byte	.LASF112
 1296 089f 05       		.byte	0x5
 1297 08a0 1601     		.2byte	0x116
 1298 08a2 CB080000 		.4byte	0x8cb
 1299 08a6 1A       		.uleb128 0x1a
 1300 08a7 0D050000 		.4byte	.LASF113
 1301 08ab 05       		.byte	0x5
 1302 08ac 1E01     		.2byte	0x11e
 1303 08ae FA080000 		.4byte	0x8fa
 1304 08b2 1A       		.uleb128 0x1a
 1305 08b3 30000000 		.4byte	.LASF114
 1306 08b7 05       		.byte	0x5
 1307 08b8 2701     		.2byte	0x127
 1308 08ba 37090000 		.4byte	0x937
ARM GAS  /tmp/ccrc9sNv.s 			page 24


 1309 08be 1A       		.uleb128 0x1a
 1310 08bf D6000000 		.4byte	.LASF115
 1311 08c3 05       		.byte	0x5
 1312 08c4 2F01     		.2byte	0x12f
 1313 08c6 E8000000 		.4byte	0xe8
 1314 08ca 00       		.byte	0
 1315 08cb 09       		.uleb128 0x9
 1316 08cc 04       		.byte	0x4
 1317 08cd 25020000 		.4byte	0x225
 1318 08d1 05       		.uleb128 0x5
 1319 08d2 4C010000 		.4byte	.LASF116
 1320 08d6 0C       		.byte	0xc
 1321 08d7 0A       		.byte	0xa
 1322 08d8 34       		.byte	0x34
 1323 08d9 FA080000 		.4byte	0x8fa
 1324 08dd 06       		.uleb128 0x6
 1325 08de 6F000000 		.4byte	.LASF117
 1326 08e2 0A       		.byte	0xa
 1327 08e3 35       		.byte	0x35
 1328 08e4 5C020000 		.4byte	0x25c
 1329 08e8 02       		.byte	0x2
 1330 08e9 23       		.byte	0x23
 1331 08ea 00       		.uleb128 0
 1332 08eb 06       		.uleb128 0x6
 1333 08ec 09010000 		.4byte	.LASF118
 1334 08f0 0A       		.byte	0xa
 1335 08f1 37       		.byte	0x37
 1336 08f2 F3000000 		.4byte	0xf3
 1337 08f6 02       		.byte	0x2
 1338 08f7 23       		.byte	0x23
 1339 08f8 08       		.uleb128 0x8
 1340 08f9 00       		.byte	0
 1341 08fa 09       		.uleb128 0x9
 1342 08fb 04       		.byte	0x4
 1343 08fc D1080000 		.4byte	0x8d1
 1344 0900 05       		.uleb128 0x5
 1345 0901 DA010000 		.4byte	.LASF119
 1346 0905 10       		.byte	0x10
 1347 0906 0B       		.byte	0xb
 1348 0907 39       		.byte	0x39
 1349 0908 37090000 		.4byte	0x937
 1350 090c 06       		.uleb128 0x6
 1351 090d 0D040000 		.4byte	.LASF120
 1352 0911 0B       		.byte	0xb
 1353 0912 3A       		.byte	0x3a
 1354 0913 5C020000 		.4byte	0x25c
 1355 0917 02       		.byte	0x2
 1356 0918 23       		.byte	0x23
 1357 0919 00       		.uleb128 0
 1358 091a 06       		.uleb128 0x6
 1359 091b 67000000 		.4byte	.LASF121
 1360 091f 0B       		.byte	0xb
 1361 0920 3C       		.byte	0x3c
 1362 0921 30020000 		.4byte	0x230
 1363 0925 02       		.byte	0x2
 1364 0926 23       		.byte	0x23
 1365 0927 08       		.uleb128 0x8
ARM GAS  /tmp/ccrc9sNv.s 			page 25


 1366 0928 06       		.uleb128 0x6
 1367 0929 1A050000 		.4byte	.LASF122
 1368 092d 0B       		.byte	0xb
 1369 092e 3E       		.byte	0x3e
 1370 092f 75090000 		.4byte	0x975
 1371 0933 02       		.byte	0x2
 1372 0934 23       		.byte	0x23
 1373 0935 0C       		.uleb128 0xc
 1374 0936 00       		.byte	0
 1375 0937 09       		.uleb128 0x9
 1376 0938 04       		.byte	0x4
 1377 0939 00090000 		.4byte	0x900
 1378 093d 09       		.uleb128 0x9
 1379 093e 04       		.byte	0x4
 1380 093f 43090000 		.4byte	0x943
 1381 0943 16       		.uleb128 0x16
 1382 0944 48090000 		.4byte	0x948
 1383 0948 03       		.uleb128 0x3
 1384 0949 01       		.byte	0x1
 1385 094a 08       		.byte	0x8
 1386 094b 48000000 		.4byte	.LASF123
 1387 094f 09       		.uleb128 0x9
 1388 0950 04       		.byte	0x4
 1389 0951 22030000 		.4byte	0x322
 1390 0955 12       		.uleb128 0x12
 1391 0956 3D090000 		.4byte	0x93d
 1392 095a 10       		.uleb128 0x10
 1393 095b 93070000 		.4byte	0x793
 1394 095f 6A090000 		.4byte	0x96a
 1395 0963 11       		.uleb128 0x11
 1396 0964 30000000 		.4byte	0x30
 1397 0968 1A       		.byte	0x1a
 1398 0969 00       		.byte	0
 1399 096a 04       		.uleb128 0x4
 1400 096b BC040000 		.4byte	.LASF124
 1401 096f 0B       		.byte	0xb
 1402 0970 34       		.byte	0x34
 1403 0971 00090000 		.4byte	0x900
 1404 0975 09       		.uleb128 0x9
 1405 0976 04       		.byte	0x4
 1406 0977 6A090000 		.4byte	0x96a
 1407 097b 03       		.uleb128 0x3
 1408 097c 01       		.byte	0x1
 1409 097d 02       		.byte	0x2
 1410 097e D4010000 		.4byte	.LASF125
 1411 0982 1B       		.uleb128 0x1b
 1412 0983 01       		.byte	0x1
 1413 0984 A4030000 		.4byte	.LASF127
 1414 0988 01       		.byte	0x1
 1415 0989 39       		.byte	0x39
 1416 098a 01       		.byte	0x1
 1417 098b 00000000 		.4byte	.LFB213
 1418 098f 2C000000 		.4byte	.LFE213
 1419 0993 00000000 		.4byte	.LLST0
 1420 0997 B8090000 		.4byte	0x9b8
 1421 099b 1C       		.uleb128 0x1c
 1422 099c 6E00     		.ascii	"n\000"
ARM GAS  /tmp/ccrc9sNv.s 			page 26


 1423 099e 01       		.byte	0x1
 1424 099f 39       		.byte	0x39
 1425 09a0 7B000000 		.4byte	0x7b
 1426 09a4 20000000 		.4byte	.LLST1
 1427 09a8 1D       		.uleb128 0x1d
 1428 09a9 05020000 		.4byte	.LASF126
 1429 09ad 01       		.byte	0x1
 1430 09ae 39       		.byte	0x39
 1431 09af 7B000000 		.4byte	0x7b
 1432 09b3 33000000 		.4byte	.LLST2
 1433 09b7 00       		.byte	0
 1434 09b8 1E       		.uleb128 0x1e
 1435 09b9 01       		.byte	0x1
 1436 09ba DD000000 		.4byte	.LASF128
 1437 09be 01       		.byte	0x1
 1438 09bf 4A       		.byte	0x4a
 1439 09c0 01       		.byte	0x1
 1440 09c1 00000000 		.4byte	.LFB214
 1441 09c5 22000000 		.4byte	.LFE214
 1442 09c9 02       		.byte	0x2
 1443 09ca 7D       		.byte	0x7d
 1444 09cb 00       		.sleb128 0
 1445 09cc DE090000 		.4byte	0x9de
 1446 09d0 1C       		.uleb128 0x1c
 1447 09d1 6E00     		.ascii	"n\000"
 1448 09d3 01       		.byte	0x1
 1449 09d4 4A       		.byte	0x4a
 1450 09d5 7B000000 		.4byte	0x7b
 1451 09d9 46000000 		.4byte	.LLST3
 1452 09dd 00       		.byte	0
 1453 09de 1E       		.uleb128 0x1e
 1454 09df 01       		.byte	0x1
 1455 09e0 87050000 		.4byte	.LASF129
 1456 09e4 01       		.byte	0x1
 1457 09e5 5A       		.byte	0x5a
 1458 09e6 01       		.byte	0x1
 1459 09e7 00000000 		.4byte	.LFB215
 1460 09eb 10000000 		.4byte	.LFE215
 1461 09ef 02       		.byte	0x2
 1462 09f0 7D       		.byte	0x7d
 1463 09f1 00       		.sleb128 0
 1464 09f2 1D0A0000 		.4byte	0xa1d
 1465 09f6 1F       		.uleb128 0x1f
 1466 09f7 AA000000 		.4byte	.LASF130
 1467 09fb 01       		.byte	0x1
 1468 09fc 5A       		.byte	0x5a
 1469 09fd 7B000000 		.4byte	0x7b
 1470 0a01 01       		.byte	0x1
 1471 0a02 50       		.byte	0x50
 1472 0a03 1D       		.uleb128 0x1d
 1473 0a04 05020000 		.4byte	.LASF126
 1474 0a08 01       		.byte	0x1
 1475 0a09 5A       		.byte	0x5a
 1476 0a0a 7B000000 		.4byte	0x7b
 1477 0a0e 59000000 		.4byte	.LLST4
 1478 0a12 20       		.uleb128 0x20
 1479 0a13 51050000 		.4byte	.LASF136
ARM GAS  /tmp/ccrc9sNv.s 			page 27


 1480 0a17 2D0A0000 		.4byte	0xa2d
 1481 0a1b 01       		.byte	0x1
 1482 0a1c 00       		.byte	0
 1483 0a1d 10       		.uleb128 0x10
 1484 0a1e 48090000 		.4byte	0x948
 1485 0a22 2D0A0000 		.4byte	0xa2d
 1486 0a26 11       		.uleb128 0x11
 1487 0a27 30000000 		.4byte	0x30
 1488 0a2b 1C       		.byte	0x1c
 1489 0a2c 00       		.byte	0
 1490 0a2d 16       		.uleb128 0x16
 1491 0a2e 1D0A0000 		.4byte	0xa1d
 1492 0a32 1E       		.uleb128 0x1e
 1493 0a33 01       		.byte	0x1
 1494 0a34 E8010000 		.4byte	.LASF131
 1495 0a38 01       		.byte	0x1
 1496 0a39 6D       		.byte	0x6d
 1497 0a3a 01       		.byte	0x1
 1498 0a3b 00000000 		.4byte	.LFB216
 1499 0a3f 1C000000 		.4byte	.LFE216
 1500 0a43 02       		.byte	0x2
 1501 0a44 7D       		.byte	0x7d
 1502 0a45 00       		.sleb128 0
 1503 0a46 580A0000 		.4byte	0xa58
 1504 0a4a 1C       		.uleb128 0x1c
 1505 0a4b 6E00     		.ascii	"n\000"
 1506 0a4d 01       		.byte	0x1
 1507 0a4e 6D       		.byte	0x6d
 1508 0a4f 7B000000 		.4byte	0x7b
 1509 0a53 6C000000 		.4byte	.LLST5
 1510 0a57 00       		.byte	0
 1511 0a58 21       		.uleb128 0x21
 1512 0a59 2A040000 		.4byte	.LASF132
 1513 0a5d 06       		.byte	0x6
 1514 0a5e 5506     		.2byte	0x655
 1515 0a60 660A0000 		.4byte	0xa66
 1516 0a64 01       		.byte	0x1
 1517 0a65 01       		.byte	0x1
 1518 0a66 12       		.uleb128 0x12
 1519 0a67 69000000 		.4byte	0x69
 1520 0a6b 22       		.uleb128 0x22
 1521 0a6c 636800   		.ascii	"ch\000"
 1522 0a6f 05       		.byte	0x5
 1523 0a70 0902     		.2byte	0x209
 1524 0a72 03040000 		.4byte	0x403
 1525 0a76 01       		.byte	0x1
 1526 0a77 01       		.byte	0x1
 1527 0a78 21       		.uleb128 0x21
 1528 0a79 2A040000 		.4byte	.LASF132
 1529 0a7d 06       		.byte	0x6
 1530 0a7e 5506     		.2byte	0x655
 1531 0a80 660A0000 		.4byte	0xa66
 1532 0a84 01       		.byte	0x1
 1533 0a85 01       		.byte	0x1
 1534 0a86 22       		.uleb128 0x22
 1535 0a87 636800   		.ascii	"ch\000"
 1536 0a8a 05       		.byte	0x5
ARM GAS  /tmp/ccrc9sNv.s 			page 28


 1537 0a8b 0902     		.2byte	0x209
 1538 0a8d 03040000 		.4byte	0x403
 1539 0a91 01       		.byte	0x1
 1540 0a92 01       		.byte	0x1
 1541 0a93 00       		.byte	0
 1542              		.section	.debug_abbrev,"",%progbits
 1543              	.Ldebug_abbrev0:
 1544 0000 01       		.uleb128 0x1
 1545 0001 11       		.uleb128 0x11
 1546 0002 01       		.byte	0x1
 1547 0003 25       		.uleb128 0x25
 1548 0004 0E       		.uleb128 0xe
 1549 0005 13       		.uleb128 0x13
 1550 0006 0B       		.uleb128 0xb
 1551 0007 03       		.uleb128 0x3
 1552 0008 0E       		.uleb128 0xe
 1553 0009 1B       		.uleb128 0x1b
 1554 000a 0E       		.uleb128 0xe
 1555 000b 11       		.uleb128 0x11
 1556 000c 01       		.uleb128 0x1
 1557 000d 52       		.uleb128 0x52
 1558 000e 01       		.uleb128 0x1
 1559 000f 55       		.uleb128 0x55
 1560 0010 06       		.uleb128 0x6
 1561 0011 10       		.uleb128 0x10
 1562 0012 06       		.uleb128 0x6
 1563 0013 00       		.byte	0
 1564 0014 00       		.byte	0
 1565 0015 02       		.uleb128 0x2
 1566 0016 24       		.uleb128 0x24
 1567 0017 00       		.byte	0
 1568 0018 0B       		.uleb128 0xb
 1569 0019 0B       		.uleb128 0xb
 1570 001a 3E       		.uleb128 0x3e
 1571 001b 0B       		.uleb128 0xb
 1572 001c 03       		.uleb128 0x3
 1573 001d 08       		.uleb128 0x8
 1574 001e 00       		.byte	0
 1575 001f 00       		.byte	0
 1576 0020 03       		.uleb128 0x3
 1577 0021 24       		.uleb128 0x24
 1578 0022 00       		.byte	0
 1579 0023 0B       		.uleb128 0xb
 1580 0024 0B       		.uleb128 0xb
 1581 0025 3E       		.uleb128 0x3e
 1582 0026 0B       		.uleb128 0xb
 1583 0027 03       		.uleb128 0x3
 1584 0028 0E       		.uleb128 0xe
 1585 0029 00       		.byte	0
 1586 002a 00       		.byte	0
 1587 002b 04       		.uleb128 0x4
 1588 002c 16       		.uleb128 0x16
 1589 002d 00       		.byte	0
 1590 002e 03       		.uleb128 0x3
 1591 002f 0E       		.uleb128 0xe
 1592 0030 3A       		.uleb128 0x3a
 1593 0031 0B       		.uleb128 0xb
ARM GAS  /tmp/ccrc9sNv.s 			page 29


 1594 0032 3B       		.uleb128 0x3b
 1595 0033 0B       		.uleb128 0xb
 1596 0034 49       		.uleb128 0x49
 1597 0035 13       		.uleb128 0x13
 1598 0036 00       		.byte	0
 1599 0037 00       		.byte	0
 1600 0038 05       		.uleb128 0x5
 1601 0039 13       		.uleb128 0x13
 1602 003a 01       		.byte	0x1
 1603 003b 03       		.uleb128 0x3
 1604 003c 0E       		.uleb128 0xe
 1605 003d 0B       		.uleb128 0xb
 1606 003e 0B       		.uleb128 0xb
 1607 003f 3A       		.uleb128 0x3a
 1608 0040 0B       		.uleb128 0xb
 1609 0041 3B       		.uleb128 0x3b
 1610 0042 0B       		.uleb128 0xb
 1611 0043 01       		.uleb128 0x1
 1612 0044 13       		.uleb128 0x13
 1613 0045 00       		.byte	0
 1614 0046 00       		.byte	0
 1615 0047 06       		.uleb128 0x6
 1616 0048 0D       		.uleb128 0xd
 1617 0049 00       		.byte	0
 1618 004a 03       		.uleb128 0x3
 1619 004b 0E       		.uleb128 0xe
 1620 004c 3A       		.uleb128 0x3a
 1621 004d 0B       		.uleb128 0xb
 1622 004e 3B       		.uleb128 0x3b
 1623 004f 0B       		.uleb128 0xb
 1624 0050 49       		.uleb128 0x49
 1625 0051 13       		.uleb128 0x13
 1626 0052 38       		.uleb128 0x38
 1627 0053 0A       		.uleb128 0xa
 1628 0054 00       		.byte	0
 1629 0055 00       		.byte	0
 1630 0056 07       		.uleb128 0x7
 1631 0057 0D       		.uleb128 0xd
 1632 0058 00       		.byte	0
 1633 0059 03       		.uleb128 0x3
 1634 005a 08       		.uleb128 0x8
 1635 005b 3A       		.uleb128 0x3a
 1636 005c 0B       		.uleb128 0xb
 1637 005d 3B       		.uleb128 0x3b
 1638 005e 05       		.uleb128 0x5
 1639 005f 49       		.uleb128 0x49
 1640 0060 13       		.uleb128 0x13
 1641 0061 38       		.uleb128 0x38
 1642 0062 0A       		.uleb128 0xa
 1643 0063 00       		.byte	0
 1644 0064 00       		.byte	0
 1645 0065 08       		.uleb128 0x8
 1646 0066 0D       		.uleb128 0xd
 1647 0067 00       		.byte	0
 1648 0068 03       		.uleb128 0x3
 1649 0069 0E       		.uleb128 0xe
 1650 006a 3A       		.uleb128 0x3a
ARM GAS  /tmp/ccrc9sNv.s 			page 30


 1651 006b 0B       		.uleb128 0xb
 1652 006c 3B       		.uleb128 0x3b
 1653 006d 05       		.uleb128 0x5
 1654 006e 49       		.uleb128 0x49
 1655 006f 13       		.uleb128 0x13
 1656 0070 38       		.uleb128 0x38
 1657 0071 0A       		.uleb128 0xa
 1658 0072 00       		.byte	0
 1659 0073 00       		.byte	0
 1660 0074 09       		.uleb128 0x9
 1661 0075 0F       		.uleb128 0xf
 1662 0076 00       		.byte	0
 1663 0077 0B       		.uleb128 0xb
 1664 0078 0B       		.uleb128 0xb
 1665 0079 49       		.uleb128 0x49
 1666 007a 13       		.uleb128 0x13
 1667 007b 00       		.byte	0
 1668 007c 00       		.byte	0
 1669 007d 0A       		.uleb128 0xa
 1670 007e 13       		.uleb128 0x13
 1671 007f 01       		.byte	0x1
 1672 0080 03       		.uleb128 0x3
 1673 0081 0E       		.uleb128 0xe
 1674 0082 0B       		.uleb128 0xb
 1675 0083 0B       		.uleb128 0xb
 1676 0084 3A       		.uleb128 0x3a
 1677 0085 0B       		.uleb128 0xb
 1678 0086 3B       		.uleb128 0x3b
 1679 0087 05       		.uleb128 0x5
 1680 0088 01       		.uleb128 0x1
 1681 0089 13       		.uleb128 0x13
 1682 008a 00       		.byte	0
 1683 008b 00       		.byte	0
 1684 008c 0B       		.uleb128 0xb
 1685 008d 15       		.uleb128 0x15
 1686 008e 01       		.byte	0x1
 1687 008f 27       		.uleb128 0x27
 1688 0090 0C       		.uleb128 0xc
 1689 0091 01       		.uleb128 0x1
 1690 0092 13       		.uleb128 0x13
 1691 0093 00       		.byte	0
 1692 0094 00       		.byte	0
 1693 0095 0C       		.uleb128 0xc
 1694 0096 05       		.uleb128 0x5
 1695 0097 00       		.byte	0
 1696 0098 49       		.uleb128 0x49
 1697 0099 13       		.uleb128 0x13
 1698 009a 00       		.byte	0
 1699 009b 00       		.byte	0
 1700 009c 0D       		.uleb128 0xd
 1701 009d 0F       		.uleb128 0xf
 1702 009e 00       		.byte	0
 1703 009f 0B       		.uleb128 0xb
 1704 00a0 0B       		.uleb128 0xb
 1705 00a1 00       		.byte	0
 1706 00a2 00       		.byte	0
 1707 00a3 0E       		.uleb128 0xe
ARM GAS  /tmp/ccrc9sNv.s 			page 31


 1708 00a4 13       		.uleb128 0x13
 1709 00a5 01       		.byte	0x1
 1710 00a6 03       		.uleb128 0x3
 1711 00a7 0E       		.uleb128 0xe
 1712 00a8 0B       		.uleb128 0xb
 1713 00a9 05       		.uleb128 0x5
 1714 00aa 3A       		.uleb128 0x3a
 1715 00ab 0B       		.uleb128 0xb
 1716 00ac 3B       		.uleb128 0x3b
 1717 00ad 05       		.uleb128 0x5
 1718 00ae 01       		.uleb128 0x1
 1719 00af 13       		.uleb128 0x13
 1720 00b0 00       		.byte	0
 1721 00b1 00       		.byte	0
 1722 00b2 0F       		.uleb128 0xf
 1723 00b3 13       		.uleb128 0x13
 1724 00b4 01       		.byte	0x1
 1725 00b5 0B       		.uleb128 0xb
 1726 00b6 05       		.uleb128 0x5
 1727 00b7 3A       		.uleb128 0x3a
 1728 00b8 0B       		.uleb128 0xb
 1729 00b9 3B       		.uleb128 0x3b
 1730 00ba 05       		.uleb128 0x5
 1731 00bb 01       		.uleb128 0x1
 1732 00bc 13       		.uleb128 0x13
 1733 00bd 00       		.byte	0
 1734 00be 00       		.byte	0
 1735 00bf 10       		.uleb128 0x10
 1736 00c0 01       		.uleb128 0x1
 1737 00c1 01       		.byte	0x1
 1738 00c2 49       		.uleb128 0x49
 1739 00c3 13       		.uleb128 0x13
 1740 00c4 01       		.uleb128 0x1
 1741 00c5 13       		.uleb128 0x13
 1742 00c6 00       		.byte	0
 1743 00c7 00       		.byte	0
 1744 00c8 11       		.uleb128 0x11
 1745 00c9 21       		.uleb128 0x21
 1746 00ca 00       		.byte	0
 1747 00cb 49       		.uleb128 0x49
 1748 00cc 13       		.uleb128 0x13
 1749 00cd 2F       		.uleb128 0x2f
 1750 00ce 0B       		.uleb128 0xb
 1751 00cf 00       		.byte	0
 1752 00d0 00       		.byte	0
 1753 00d1 12       		.uleb128 0x12
 1754 00d2 35       		.uleb128 0x35
 1755 00d3 00       		.byte	0
 1756 00d4 49       		.uleb128 0x49
 1757 00d5 13       		.uleb128 0x13
 1758 00d6 00       		.byte	0
 1759 00d7 00       		.byte	0
 1760 00d8 13       		.uleb128 0x13
 1761 00d9 21       		.uleb128 0x21
 1762 00da 00       		.byte	0
 1763 00db 49       		.uleb128 0x49
 1764 00dc 13       		.uleb128 0x13
ARM GAS  /tmp/ccrc9sNv.s 			page 32


 1765 00dd 2F       		.uleb128 0x2f
 1766 00de 05       		.uleb128 0x5
 1767 00df 00       		.byte	0
 1768 00e0 00       		.byte	0
 1769 00e1 14       		.uleb128 0x14
 1770 00e2 16       		.uleb128 0x16
 1771 00e3 00       		.byte	0
 1772 00e4 03       		.uleb128 0x3
 1773 00e5 0E       		.uleb128 0xe
 1774 00e6 3A       		.uleb128 0x3a
 1775 00e7 0B       		.uleb128 0xb
 1776 00e8 3B       		.uleb128 0x3b
 1777 00e9 05       		.uleb128 0x5
 1778 00ea 49       		.uleb128 0x49
 1779 00eb 13       		.uleb128 0x13
 1780 00ec 00       		.byte	0
 1781 00ed 00       		.byte	0
 1782 00ee 15       		.uleb128 0x15
 1783 00ef 13       		.uleb128 0x13
 1784 00f0 01       		.byte	0x1
 1785 00f1 0B       		.uleb128 0xb
 1786 00f2 0B       		.uleb128 0xb
 1787 00f3 3A       		.uleb128 0x3a
 1788 00f4 0B       		.uleb128 0xb
 1789 00f5 3B       		.uleb128 0x3b
 1790 00f6 05       		.uleb128 0x5
 1791 00f7 01       		.uleb128 0x1
 1792 00f8 13       		.uleb128 0x13
 1793 00f9 00       		.byte	0
 1794 00fa 00       		.byte	0
 1795 00fb 16       		.uleb128 0x16
 1796 00fc 26       		.uleb128 0x26
 1797 00fd 00       		.byte	0
 1798 00fe 49       		.uleb128 0x49
 1799 00ff 13       		.uleb128 0x13
 1800 0100 00       		.byte	0
 1801 0101 00       		.byte	0
 1802 0102 17       		.uleb128 0x17
 1803 0103 0D       		.uleb128 0xd
 1804 0104 00       		.byte	0
 1805 0105 03       		.uleb128 0x3
 1806 0106 08       		.uleb128 0x8
 1807 0107 3A       		.uleb128 0x3a
 1808 0108 0B       		.uleb128 0xb
 1809 0109 3B       		.uleb128 0x3b
 1810 010a 0B       		.uleb128 0xb
 1811 010b 49       		.uleb128 0x49
 1812 010c 13       		.uleb128 0x13
 1813 010d 38       		.uleb128 0x38
 1814 010e 0A       		.uleb128 0xa
 1815 010f 00       		.byte	0
 1816 0110 00       		.byte	0
 1817 0111 18       		.uleb128 0x18
 1818 0112 13       		.uleb128 0x13
 1819 0113 01       		.byte	0x1
 1820 0114 0B       		.uleb128 0xb
 1821 0115 0B       		.uleb128 0xb
ARM GAS  /tmp/ccrc9sNv.s 			page 33


 1822 0116 3A       		.uleb128 0x3a
 1823 0117 0B       		.uleb128 0xb
 1824 0118 3B       		.uleb128 0x3b
 1825 0119 0B       		.uleb128 0xb
 1826 011a 01       		.uleb128 0x1
 1827 011b 13       		.uleb128 0x13
 1828 011c 00       		.byte	0
 1829 011d 00       		.byte	0
 1830 011e 19       		.uleb128 0x19
 1831 011f 17       		.uleb128 0x17
 1832 0120 01       		.byte	0x1
 1833 0121 0B       		.uleb128 0xb
 1834 0122 0B       		.uleb128 0xb
 1835 0123 3A       		.uleb128 0x3a
 1836 0124 0B       		.uleb128 0xb
 1837 0125 3B       		.uleb128 0x3b
 1838 0126 0B       		.uleb128 0xb
 1839 0127 01       		.uleb128 0x1
 1840 0128 13       		.uleb128 0x13
 1841 0129 00       		.byte	0
 1842 012a 00       		.byte	0
 1843 012b 1A       		.uleb128 0x1a
 1844 012c 0D       		.uleb128 0xd
 1845 012d 00       		.byte	0
 1846 012e 03       		.uleb128 0x3
 1847 012f 0E       		.uleb128 0xe
 1848 0130 3A       		.uleb128 0x3a
 1849 0131 0B       		.uleb128 0xb
 1850 0132 3B       		.uleb128 0x3b
 1851 0133 05       		.uleb128 0x5
 1852 0134 49       		.uleb128 0x49
 1853 0135 13       		.uleb128 0x13
 1854 0136 00       		.byte	0
 1855 0137 00       		.byte	0
 1856 0138 1B       		.uleb128 0x1b
 1857 0139 2E       		.uleb128 0x2e
 1858 013a 01       		.byte	0x1
 1859 013b 3F       		.uleb128 0x3f
 1860 013c 0C       		.uleb128 0xc
 1861 013d 03       		.uleb128 0x3
 1862 013e 0E       		.uleb128 0xe
 1863 013f 3A       		.uleb128 0x3a
 1864 0140 0B       		.uleb128 0xb
 1865 0141 3B       		.uleb128 0x3b
 1866 0142 0B       		.uleb128 0xb
 1867 0143 27       		.uleb128 0x27
 1868 0144 0C       		.uleb128 0xc
 1869 0145 11       		.uleb128 0x11
 1870 0146 01       		.uleb128 0x1
 1871 0147 12       		.uleb128 0x12
 1872 0148 01       		.uleb128 0x1
 1873 0149 40       		.uleb128 0x40
 1874 014a 06       		.uleb128 0x6
 1875 014b 01       		.uleb128 0x1
 1876 014c 13       		.uleb128 0x13
 1877 014d 00       		.byte	0
 1878 014e 00       		.byte	0
ARM GAS  /tmp/ccrc9sNv.s 			page 34


 1879 014f 1C       		.uleb128 0x1c
 1880 0150 05       		.uleb128 0x5
 1881 0151 00       		.byte	0
 1882 0152 03       		.uleb128 0x3
 1883 0153 08       		.uleb128 0x8
 1884 0154 3A       		.uleb128 0x3a
 1885 0155 0B       		.uleb128 0xb
 1886 0156 3B       		.uleb128 0x3b
 1887 0157 0B       		.uleb128 0xb
 1888 0158 49       		.uleb128 0x49
 1889 0159 13       		.uleb128 0x13
 1890 015a 02       		.uleb128 0x2
 1891 015b 06       		.uleb128 0x6
 1892 015c 00       		.byte	0
 1893 015d 00       		.byte	0
 1894 015e 1D       		.uleb128 0x1d
 1895 015f 05       		.uleb128 0x5
 1896 0160 00       		.byte	0
 1897 0161 03       		.uleb128 0x3
 1898 0162 0E       		.uleb128 0xe
 1899 0163 3A       		.uleb128 0x3a
 1900 0164 0B       		.uleb128 0xb
 1901 0165 3B       		.uleb128 0x3b
 1902 0166 0B       		.uleb128 0xb
 1903 0167 49       		.uleb128 0x49
 1904 0168 13       		.uleb128 0x13
 1905 0169 02       		.uleb128 0x2
 1906 016a 06       		.uleb128 0x6
 1907 016b 00       		.byte	0
 1908 016c 00       		.byte	0
 1909 016d 1E       		.uleb128 0x1e
 1910 016e 2E       		.uleb128 0x2e
 1911 016f 01       		.byte	0x1
 1912 0170 3F       		.uleb128 0x3f
 1913 0171 0C       		.uleb128 0xc
 1914 0172 03       		.uleb128 0x3
 1915 0173 0E       		.uleb128 0xe
 1916 0174 3A       		.uleb128 0x3a
 1917 0175 0B       		.uleb128 0xb
 1918 0176 3B       		.uleb128 0x3b
 1919 0177 0B       		.uleb128 0xb
 1920 0178 27       		.uleb128 0x27
 1921 0179 0C       		.uleb128 0xc
 1922 017a 11       		.uleb128 0x11
 1923 017b 01       		.uleb128 0x1
 1924 017c 12       		.uleb128 0x12
 1925 017d 01       		.uleb128 0x1
 1926 017e 40       		.uleb128 0x40
 1927 017f 0A       		.uleb128 0xa
 1928 0180 01       		.uleb128 0x1
 1929 0181 13       		.uleb128 0x13
 1930 0182 00       		.byte	0
 1931 0183 00       		.byte	0
 1932 0184 1F       		.uleb128 0x1f
 1933 0185 05       		.uleb128 0x5
 1934 0186 00       		.byte	0
 1935 0187 03       		.uleb128 0x3
ARM GAS  /tmp/ccrc9sNv.s 			page 35


 1936 0188 0E       		.uleb128 0xe
 1937 0189 3A       		.uleb128 0x3a
 1938 018a 0B       		.uleb128 0xb
 1939 018b 3B       		.uleb128 0x3b
 1940 018c 0B       		.uleb128 0xb
 1941 018d 49       		.uleb128 0x49
 1942 018e 13       		.uleb128 0x13
 1943 018f 02       		.uleb128 0x2
 1944 0190 0A       		.uleb128 0xa
 1945 0191 00       		.byte	0
 1946 0192 00       		.byte	0
 1947 0193 20       		.uleb128 0x20
 1948 0194 34       		.uleb128 0x34
 1949 0195 00       		.byte	0
 1950 0196 03       		.uleb128 0x3
 1951 0197 0E       		.uleb128 0xe
 1952 0198 49       		.uleb128 0x49
 1953 0199 13       		.uleb128 0x13
 1954 019a 34       		.uleb128 0x34
 1955 019b 0C       		.uleb128 0xc
 1956 019c 00       		.byte	0
 1957 019d 00       		.byte	0
 1958 019e 21       		.uleb128 0x21
 1959 019f 34       		.uleb128 0x34
 1960 01a0 00       		.byte	0
 1961 01a1 03       		.uleb128 0x3
 1962 01a2 0E       		.uleb128 0xe
 1963 01a3 3A       		.uleb128 0x3a
 1964 01a4 0B       		.uleb128 0xb
 1965 01a5 3B       		.uleb128 0x3b
 1966 01a6 05       		.uleb128 0x5
 1967 01a7 49       		.uleb128 0x49
 1968 01a8 13       		.uleb128 0x13
 1969 01a9 3F       		.uleb128 0x3f
 1970 01aa 0C       		.uleb128 0xc
 1971 01ab 3C       		.uleb128 0x3c
 1972 01ac 0C       		.uleb128 0xc
 1973 01ad 00       		.byte	0
 1974 01ae 00       		.byte	0
 1975 01af 22       		.uleb128 0x22
 1976 01b0 34       		.uleb128 0x34
 1977 01b1 00       		.byte	0
 1978 01b2 03       		.uleb128 0x3
 1979 01b3 08       		.uleb128 0x8
 1980 01b4 3A       		.uleb128 0x3a
 1981 01b5 0B       		.uleb128 0xb
 1982 01b6 3B       		.uleb128 0x3b
 1983 01b7 05       		.uleb128 0x5
 1984 01b8 49       		.uleb128 0x49
 1985 01b9 13       		.uleb128 0x13
 1986 01ba 3F       		.uleb128 0x3f
 1987 01bb 0C       		.uleb128 0xc
 1988 01bc 3C       		.uleb128 0x3c
 1989 01bd 0C       		.uleb128 0xc
 1990 01be 00       		.byte	0
 1991 01bf 00       		.byte	0
 1992 01c0 00       		.byte	0
ARM GAS  /tmp/ccrc9sNv.s 			page 36


 1993              		.section	.debug_loc,"",%progbits
 1994              	.Ldebug_loc0:
 1995              	.LLST0:
 1996 0000 00000000 		.4byte	.LFB213
 1997 0004 02000000 		.4byte	.LCFI0
 1998 0008 0200     		.2byte	0x2
 1999 000a 7D       		.byte	0x7d
 2000 000b 00       		.sleb128 0
 2001 000c 02000000 		.4byte	.LCFI0
 2002 0010 2C000000 		.4byte	.LFE213
 2003 0014 0200     		.2byte	0x2
 2004 0016 7D       		.byte	0x7d
 2005 0017 08       		.sleb128 8
 2006 0018 00000000 		.4byte	0
 2007 001c 00000000 		.4byte	0
 2008              	.LLST1:
 2009 0020 00000000 		.4byte	.LVL0
 2010 0024 18000000 		.4byte	.LVL2
 2011 0028 0100     		.2byte	0x1
 2012 002a 50       		.byte	0x50
 2013 002b 00000000 		.4byte	0
 2014 002f 00000000 		.4byte	0
 2015              	.LLST2:
 2016 0033 00000000 		.4byte	.LVL0
 2017 0037 16000000 		.4byte	.LVL1
 2018 003b 0100     		.2byte	0x1
 2019 003d 51       		.byte	0x51
 2020 003e 00000000 		.4byte	0
 2021 0042 00000000 		.4byte	0
 2022              	.LLST3:
 2023 0046 00000000 		.4byte	.LVL3
 2024 004a 16000000 		.4byte	.LVL4
 2025 004e 0100     		.2byte	0x1
 2026 0050 50       		.byte	0x50
 2027 0051 00000000 		.4byte	0
 2028 0055 00000000 		.4byte	0
 2029              	.LLST4:
 2030 0059 00000000 		.4byte	.LVL5
 2031 005d 0A000000 		.4byte	.LVL6
 2032 0061 0100     		.2byte	0x1
 2033 0063 51       		.byte	0x51
 2034 0064 00000000 		.4byte	0
 2035 0068 00000000 		.4byte	0
 2036              	.LLST5:
 2037 006c 00000000 		.4byte	.LVL7
 2038 0070 0C000000 		.4byte	.LVL8
 2039 0074 0100     		.2byte	0x1
 2040 0076 50       		.byte	0x50
 2041 0077 00000000 		.4byte	0
 2042 007b 00000000 		.4byte	0
 2043              		.section	.debug_aranges,"",%progbits
 2044 0000 34000000 		.4byte	0x34
 2045 0004 0200     		.2byte	0x2
 2046 0006 00000000 		.4byte	.Ldebug_info0
 2047 000a 04       		.byte	0x4
 2048 000b 00       		.byte	0
 2049 000c 0000     		.2byte	0
ARM GAS  /tmp/ccrc9sNv.s 			page 37


 2050 000e 0000     		.2byte	0
 2051 0010 00000000 		.4byte	.LFB213
 2052 0014 2C000000 		.4byte	.LFE213-.LFB213
 2053 0018 00000000 		.4byte	.LFB214
 2054 001c 22000000 		.4byte	.LFE214-.LFB214
 2055 0020 00000000 		.4byte	.LFB215
 2056 0024 10000000 		.4byte	.LFE215-.LFB215
 2057 0028 00000000 		.4byte	.LFB216
 2058 002c 1C000000 		.4byte	.LFE216-.LFB216
 2059 0030 00000000 		.4byte	0
 2060 0034 00000000 		.4byte	0
 2061              		.section	.debug_ranges,"",%progbits
 2062              	.Ldebug_ranges0:
 2063 0000 00000000 		.4byte	.LFB213
 2064 0004 2C000000 		.4byte	.LFE213
 2065 0008 00000000 		.4byte	.LFB214
 2066 000c 22000000 		.4byte	.LFE214
 2067 0010 00000000 		.4byte	.LFB215
 2068 0014 10000000 		.4byte	.LFE215
 2069 0018 00000000 		.4byte	.LFB216
 2070 001c 1C000000 		.4byte	.LFE216
 2071 0020 00000000 		.4byte	0
 2072 0024 00000000 		.4byte	0
 2073              		.section	.debug_line,"",%progbits
 2074              	.Ldebug_line0:
 2075 0000 C5020000 		.section	.debug_str,"MS",%progbits,1
 2075      02006C02 
 2075      00000201 
 2075      FB0E0D00 
 2075      01010101 
 2076              	.LASF44:
 2077 0000 63685F74 		.ascii	"ch_threads_list\000"
 2077      68726561 
 2077      64735F6C 
 2077      69737400 
 2078              	.LASF45:
 2079 0010 74687265 		.ascii	"threads_queue_t\000"
 2079      6164735F 
 2079      71756575 
 2079      655F7400 
 2080              	.LASF34:
 2081 0020 705F7761 		.ascii	"p_waiting\000"
 2081      6974696E 
 2081      6700
 2082              	.LASF101:
 2083 002a 43504143 		.ascii	"CPACR\000"
 2083      5200
 2084              	.LASF114:
 2085 0030 77746D74 		.ascii	"wtmtxp\000"
 2085      787000
 2086              	.LASF108:
 2087 0037 746D5F63 		.ascii	"tm_calibration_t\000"
 2087      616C6962 
 2087      72617469 
 2087      6F6E5F74 
 2087      00
 2088              	.LASF123:
ARM GAS  /tmp/ccrc9sNv.s 			page 38


 2089 0048 63686172 		.ascii	"char\000"
 2089      00
 2090              	.LASF103:
 2091 004d 72656761 		.ascii	"regarm_t\000"
 2091      726D5F74 
 2091      00
 2092              	.LASF26:
 2093 0056 705F7072 		.ascii	"p_prio\000"
 2093      696F00
 2094              	.LASF22:
 2095 005d 73797374 		.ascii	"systime_t\000"
 2095      696D655F 
 2095      7400
 2096              	.LASF121:
 2097 0067 6D5F6F77 		.ascii	"m_owner\000"
 2097      6E657200 
 2098              	.LASF117:
 2099 006f 735F7175 		.ascii	"s_queue\000"
 2099      65756500 
 2100              	.LASF35:
 2101 0077 705F6D73 		.ascii	"p_msgqueue\000"
 2101      67717565 
 2101      756500
 2102              	.LASF0:
 2103 0082 756E7369 		.ascii	"unsigned int\000"
 2103      676E6564 
 2103      20696E74 
 2103      00
 2104              	.LASF42:
 2105 008f 74687265 		.ascii	"threads_list_t\000"
 2105      6164735F 
 2105      6C697374 
 2105      5F7400
 2106              	.LASF95:
 2107 009e 44465352 		.ascii	"DFSR\000"
 2107      00
 2108              	.LASF111:
 2109 00a3 77746F62 		.ascii	"wtobjp\000"
 2109      6A7000
 2110              	.LASF130:
 2111 00aa 68616E64 		.ascii	"handler\000"
 2111      6C657200 
 2112              	.LASF72:
 2113 00b2 76746C69 		.ascii	"vtlist\000"
 2113      737400
 2114              	.LASF48:
 2115 00b9 63685F72 		.ascii	"ch_ready_list\000"
 2115      65616479 
 2115      5F6C6973 
 2115      7400
 2116              	.LASF74:
 2117 00c7 69646C65 		.ascii	"idle_thread_wa\000"
 2117      5F746872 
 2117      6561645F 
 2117      776100
 2118              	.LASF115:
 2119 00d6 65776D61 		.ascii	"ewmask\000"
ARM GAS  /tmp/ccrc9sNv.s 			page 39


 2119      736B00
 2120              	.LASF128:
 2121 00dd 6E766963 		.ascii	"nvicDisableVector\000"
 2121      44697361 
 2121      626C6556 
 2121      6563746F 
 2121      7200
 2122              	.LASF46:
 2123 00ef 63685F74 		.ascii	"ch_threads_queue\000"
 2123      68726561 
 2123      64735F71 
 2123      75657565 
 2123      00
 2124              	.LASF55:
 2125 0100 76746675 		.ascii	"vtfunc_t\000"
 2125      6E635F74 
 2125      00
 2126              	.LASF118:
 2127 0109 735F636E 		.ascii	"s_cnt\000"
 2127      7400
 2128              	.LASF67:
 2129 010f 63685F73 		.ascii	"ch_system_debug\000"
 2129      79737465 
 2129      6D5F6465 
 2129      62756700 
 2130              	.LASF9:
 2131 011f 75696E74 		.ascii	"uint32_t\000"
 2131      33325F74 
 2131      00
 2132              	.LASF99:
 2133 0128 4D4D4652 		.ascii	"MMFR\000"
 2133      00
 2134              	.LASF20:
 2135 012d 6576656E 		.ascii	"eventmask_t\000"
 2135      746D6173 
 2135      6B5F7400 
 2136              	.LASF50:
 2137 0139 725F7072 		.ascii	"r_prio\000"
 2137      696F00
 2138              	.LASF62:
 2139 0140 76745F70 		.ascii	"vt_par\000"
 2139      617200
 2140              	.LASF75:
 2141 0147 49534552 		.ascii	"ISER\000"
 2141      00
 2142              	.LASF116:
 2143 014c 63685F73 		.ascii	"ch_semaphore\000"
 2143      656D6170 
 2143      686F7265 
 2143      00
 2144              	.LASF18:
 2145 0159 74707269 		.ascii	"tprio_t\000"
 2145      6F5F7400 
 2146              	.LASF78:
 2147 0161 52534552 		.ascii	"RSERVED1\000"
 2147      56454431 
 2147      00
ARM GAS  /tmp/ccrc9sNv.s 			page 40


 2148              	.LASF57:
 2149 016a 63685F76 		.ascii	"ch_virtual_timer\000"
 2149      69727475 
 2149      616C5F74 
 2149      696D6572 
 2149      00
 2150              	.LASF13:
 2151 017b 6C6F6E67 		.ascii	"long long unsigned int\000"
 2151      206C6F6E 
 2151      6720756E 
 2151      7369676E 
 2151      65642069 
 2152              	.LASF21:
 2153 0192 636E745F 		.ascii	"cnt_t\000"
 2153      7400
 2154              	.LASF28:
 2155 0198 705F6E65 		.ascii	"p_newer\000"
 2155      77657200 
 2156              	.LASF64:
 2157 01a0 63685F76 		.ascii	"ch_virtual_timers_list\000"
 2157      69727475 
 2157      616C5F74 
 2157      696D6572 
 2157      735F6C69 
 2158              	.LASF23:
 2159 01b7 74687265 		.ascii	"thread_t\000"
 2159      61645F74 
 2159      00
 2160              	.LASF109:
 2161 01c0 7264796D 		.ascii	"rdymsg\000"
 2161      736700
 2162              	.LASF107:
 2163 01c7 6F666673 		.ascii	"offset\000"
 2163      657400
 2164              	.LASF88:
 2165 01ce 43505549 		.ascii	"CPUID\000"
 2165      4400
 2166              	.LASF125:
 2167 01d4 5F426F6F 		.ascii	"_Bool\000"
 2167      6C00
 2168              	.LASF119:
 2169 01da 63685F6D 		.ascii	"ch_mutex\000"
 2169      75746578 
 2169      00
 2170              	.LASF98:
 2171 01e3 41465352 		.ascii	"AFSR\000"
 2171      00
 2172              	.LASF131:
 2173 01e8 6E766963 		.ascii	"nvicClearPending\000"
 2173      436C6561 
 2173      7250656E 
 2173      64696E67 
 2173      00
 2174              	.LASF30:
 2175 01f9 705F6E61 		.ascii	"p_name\000"
 2175      6D6500
 2176              	.LASF94:
ARM GAS  /tmp/ccrc9sNv.s 			page 41


 2177 0200 48465352 		.ascii	"HFSR\000"
 2177      00
 2178              	.LASF126:
 2179 0205 7072696F 		.ascii	"prio\000"
 2179      00
 2180              	.LASF60:
 2181 020a 76745F64 		.ascii	"vt_delta\000"
 2181      656C7461 
 2181      00
 2182              	.LASF41:
 2183 0213 74687265 		.ascii	"thread_reference_t\000"
 2183      61645F72 
 2183      65666572 
 2183      656E6365 
 2183      5F7400
 2184              	.LASF65:
 2185 0226 76745F6C 		.ascii	"vt_lasttime\000"
 2185      61737474 
 2185      696D6500 
 2186              	.LASF89:
 2187 0232 49435352 		.ascii	"ICSR\000"
 2187      00
 2188              	.LASF16:
 2189 0237 74737461 		.ascii	"tstate_t\000"
 2189      74655F74 
 2189      00
 2190              	.LASF91:
 2191 0240 41495243 		.ascii	"AIRCR\000"
 2191      5200
 2192              	.LASF29:
 2193 0246 705F6F6C 		.ascii	"p_older\000"
 2193      64657200 
 2194              	.LASF31:
 2195 024e 705F7374 		.ascii	"p_state\000"
 2195      61746500 
 2196              	.LASF4:
 2197 0256 75696E74 		.ascii	"uint8_t\000"
 2197      385F7400 
 2198              	.LASF40:
 2199 025e 705F6D70 		.ascii	"p_mpool\000"
 2199      6F6F6C00 
 2200              	.LASF38:
 2201 0266 705F6D74 		.ascii	"p_mtxlist\000"
 2201      786C6973 
 2201      7400
 2202              	.LASF43:
 2203 0270 63685F74 		.ascii	"ch_thread\000"
 2203      68726561 
 2203      6400
 2204              	.LASF66:
 2205 027a 73797374 		.ascii	"system_debug_t\000"
 2205      656D5F64 
 2205      65627567 
 2205      5F7400
 2206              	.LASF11:
 2207 0289 6C6F6E67 		.ascii	"long long int\000"
 2207      206C6F6E 
ARM GAS  /tmp/ccrc9sNv.s 			page 42


 2207      6720696E 
 2207      7400
 2208              	.LASF92:
 2209 0297 53484353 		.ascii	"SHCSR\000"
 2209      5200
 2210              	.LASF49:
 2211 029d 725F7175 		.ascii	"r_queue\000"
 2211      65756500 
 2212              	.LASF52:
 2213 02a5 725F6E65 		.ascii	"r_newer\000"
 2213      77657200 
 2214              	.LASF19:
 2215 02ad 6D73675F 		.ascii	"msg_t\000"
 2215      7400
 2216              	.LASF93:
 2217 02b3 43465352 		.ascii	"CFSR\000"
 2217      00
 2218              	.LASF105:
 2219 02b8 636F6E74 		.ascii	"context\000"
 2219      65787400 
 2220              	.LASF134:
 2221 02c0 2E2E2F2E 		.ascii	"../../../resources/chibios/ChibiOS_16.1.8/os/hal/po"
 2221      2E2F2E2E 
 2221      2F726573 
 2221      6F757263 
 2221      65732F63 
 2222 02f3 7274732F 		.ascii	"rts/common/ARMCMx/nvic.c\000"
 2222      636F6D6D 
 2222      6F6E2F41 
 2222      524D434D 
 2222      782F6E76 
 2223              	.LASF32:
 2224 030c 705F666C 		.ascii	"p_flags\000"
 2224      61677300 
 2225              	.LASF56:
 2226 0314 76697274 		.ascii	"virtual_timer_t\000"
 2226      75616C5F 
 2226      74696D65 
 2226      725F7400 
 2227              	.LASF135:
 2228 0324 2F686F6D 		.ascii	"/home/madog/Documents/proyectos/CYCLE/repos/harvest"
 2228      652F6D61 
 2228      646F672F 
 2228      446F6375 
 2228      6D656E74 
 2229 0357 65722F73 		.ascii	"er/src\000"
 2229      726300
 2230              	.LASF53:
 2231 035e 725F6F6C 		.ascii	"r_older\000"
 2231      64657200 
 2232              	.LASF81:
 2233 0366 49435052 		.ascii	"ICPR\000"
 2233      00
 2234              	.LASF68:
 2235 036b 70616E69 		.ascii	"panic_msg\000"
 2235      635F6D73 
 2235      6700
ARM GAS  /tmp/ccrc9sNv.s 			page 43


 2236              	.LASF36:
 2237 0375 705F6D73 		.ascii	"p_msg\000"
 2237      6700
 2238              	.LASF15:
 2239 037b 746D6F64 		.ascii	"tmode_t\000"
 2239      655F7400 
 2240              	.LASF73:
 2241 0383 6D61696E 		.ascii	"mainthread\000"
 2241      74687265 
 2241      616400
 2242              	.LASF5:
 2243 038e 75696E74 		.ascii	"uint16_t\000"
 2243      31365F74 
 2243      00
 2244              	.LASF86:
 2245 0397 53544952 		.ascii	"STIR\000"
 2245      00
 2246              	.LASF14:
 2247 039c 7274636E 		.ascii	"rtcnt_t\000"
 2247      745F7400 
 2248              	.LASF127:
 2249 03a4 6E766963 		.ascii	"nvicEnableVector\000"
 2249      456E6162 
 2249      6C655665 
 2249      63746F72 
 2249      00
 2250              	.LASF96:
 2251 03b5 4D4D4641 		.ascii	"MMFAR\000"
 2251      5200
 2252              	.LASF39:
 2253 03bb 705F7265 		.ascii	"p_realprio\000"
 2253      616C7072 
 2253      696F00
 2254              	.LASF80:
 2255 03c6 52455345 		.ascii	"RESERVED2\000"
 2255      52564544 
 2255      3200
 2256              	.LASF82:
 2257 03d0 52455345 		.ascii	"RESERVED3\000"
 2257      52564544 
 2257      3300
 2258              	.LASF84:
 2259 03da 52455345 		.ascii	"RESERVED4\000"
 2259      52564544 
 2259      3400
 2260              	.LASF85:
 2261 03e4 52455345 		.ascii	"RESERVED5\000"
 2261      52564544 
 2261      3500
 2262              	.LASF3:
 2263 03ee 73686F72 		.ascii	"short int\000"
 2263      7420696E 
 2263      7400
 2264              	.LASF54:
 2265 03f8 725F6375 		.ascii	"r_current\000"
 2265      7272656E 
 2265      7400
ARM GAS  /tmp/ccrc9sNv.s 			page 44


 2266              	.LASF37:
 2267 0402 705F6570 		.ascii	"p_epending\000"
 2267      656E6469 
 2267      6E6700
 2268              	.LASF120:
 2269 040d 6D5F7175 		.ascii	"m_queue\000"
 2269      65756500 
 2270              	.LASF8:
 2271 0415 6C6F6E67 		.ascii	"long int\000"
 2271      20696E74 
 2271      00
 2272              	.LASF106:
 2273 041e 706F7274 		.ascii	"port_intctx\000"
 2273      5F696E74 
 2273      63747800 
 2274              	.LASF132:
 2275 042a 49544D5F 		.ascii	"ITM_RxBuffer\000"
 2275      52784275 
 2275      66666572 
 2275      00
 2276              	.LASF70:
 2277 0437 63685F73 		.ascii	"ch_system\000"
 2277      79737465 
 2277      6D00
 2278              	.LASF24:
 2279 0441 705F6E65 		.ascii	"p_next\000"
 2279      787400
 2280              	.LASF12:
 2281 0448 75696E74 		.ascii	"uint64_t\000"
 2281      36345F74 
 2281      00
 2282              	.LASF27:
 2283 0451 705F6374 		.ascii	"p_ctx\000"
 2283      7800
 2284              	.LASF71:
 2285 0457 726C6973 		.ascii	"rlist\000"
 2285      7400
 2286              	.LASF87:
 2287 045d 4E564943 		.ascii	"NVIC_Type\000"
 2287      5F547970 
 2287      6500
 2288              	.LASF102:
 2289 0467 5343425F 		.ascii	"SCB_Type\000"
 2289      54797065 
 2289      00
 2290              	.LASF97:
 2291 0470 42464152 		.ascii	"BFAR\000"
 2291      00
 2292              	.LASF90:
 2293 0475 56544F52 		.ascii	"VTOR\000"
 2293      00
 2294              	.LASF25:
 2295 047a 705F7072 		.ascii	"p_prev\000"
 2295      657600
 2296              	.LASF17:
 2297 0481 74726566 		.ascii	"trefs_t\000"
 2297      735F7400 
ARM GAS  /tmp/ccrc9sNv.s 			page 45


 2298              	.LASF10:
 2299 0489 6C6F6E67 		.ascii	"long unsigned int\000"
 2299      20756E73 
 2299      69676E65 
 2299      6420696E 
 2299      7400
 2300              	.LASF47:
 2301 049b 72656164 		.ascii	"ready_list_t\000"
 2301      795F6C69 
 2301      73745F74 
 2301      00
 2302              	.LASF7:
 2303 04a8 696E7433 		.ascii	"int32_t\000"
 2303      325F7400 
 2304              	.LASF133:
 2305 04b0 474E5520 		.ascii	"GNU C 4.6.1\000"
 2305      4320342E 
 2305      362E3100 
 2306              	.LASF124:
 2307 04bc 6D757465 		.ascii	"mutex_t\000"
 2307      785F7400 
 2308              	.LASF2:
 2309 04c4 756E7369 		.ascii	"unsigned char\000"
 2309      676E6564 
 2309      20636861 
 2309      7200
 2310              	.LASF63:
 2311 04d2 76697274 		.ascii	"virtual_timers_list_t\000"
 2311      75616C5F 
 2311      74696D65 
 2311      72735F6C 
 2311      6973745F 
 2312              	.LASF33:
 2313 04e8 705F7265 		.ascii	"p_refs\000"
 2313      667300
 2314              	.LASF77:
 2315 04ef 49434552 		.ascii	"ICER\000"
 2315      00
 2316              	.LASF83:
 2317 04f4 49414252 		.ascii	"IABR\000"
 2317      00
 2318              	.LASF58:
 2319 04f9 76745F6E 		.ascii	"vt_next\000"
 2319      65787400 
 2320              	.LASF69:
 2321 0501 63685F73 		.ascii	"ch_system_t\000"
 2321      79737465 
 2321      6D5F7400 
 2322              	.LASF113:
 2323 050d 77747365 		.ascii	"wtsemp\000"
 2323      6D7000
 2324              	.LASF112:
 2325 0514 77747472 		.ascii	"wttrp\000"
 2325      7000
 2326              	.LASF122:
 2327 051a 6D5F6E65 		.ascii	"m_next\000"
 2327      787400
ARM GAS  /tmp/ccrc9sNv.s 			page 46


 2328              	.LASF1:
 2329 0521 7369676E 		.ascii	"signed char\000"
 2329      65642063 
 2329      68617200 
 2330              	.LASF6:
 2331 052d 73686F72 		.ascii	"short unsigned int\000"
 2331      7420756E 
 2331      7369676E 
 2331      65642069 
 2331      6E7400
 2332              	.LASF51:
 2333 0540 725F6374 		.ascii	"r_ctx\000"
 2333      7800
 2334              	.LASF104:
 2335 0546 73746B61 		.ascii	"stkalign_t\000"
 2335      6C69676E 
 2335      5F7400
 2336              	.LASF136:
 2337 0551 5F5F6675 		.ascii	"__func__\000"
 2337      6E635F5F 
 2337      00
 2338              	.LASF79:
 2339 055a 49535052 		.ascii	"ISPR\000"
 2339      00
 2340              	.LASF61:
 2341 055f 76745F66 		.ascii	"vt_func\000"
 2341      756E6300 
 2342              	.LASF59:
 2343 0567 76745F70 		.ascii	"vt_prev\000"
 2343      72657600 
 2344              	.LASF76:
 2345 056f 52455345 		.ascii	"RESERVED0\000"
 2345      52564544 
 2345      3000
 2346              	.LASF100:
 2347 0579 49534152 		.ascii	"ISAR\000"
 2347      00
 2348              	.LASF110:
 2349 057e 65786974 		.ascii	"exitcode\000"
 2349      636F6465 
 2349      00
 2350              	.LASF129:
 2351 0587 6E766963 		.ascii	"nvicSetSystemHandlerPriority\000"
 2351      53657453 
 2351      79737465 
 2351      6D48616E 
 2351      646C6572 
 2352              		.ident	"GCC: (Sourcery CodeBench Lite 2011.09-69) 4.6.1"
ARM GAS  /tmp/ccrc9sNv.s 			page 47


DEFINED SYMBOLS
                            *ABS*:00000000 nvic.c
     /tmp/ccrc9sNv.s:19     .text.nvicEnableVector:00000000 $t
     /tmp/ccrc9sNv.s:25     .text.nvicEnableVector:00000000 nvicEnableVector
     /tmp/ccrc9sNv.s:68     .text.nvicDisableVector:00000000 $t
     /tmp/ccrc9sNv.s:74     .text.nvicDisableVector:00000000 nvicDisableVector
     /tmp/ccrc9sNv.s:104    .text.nvicSetSystemHandlerPriority:00000000 $t
     /tmp/ccrc9sNv.s:110    .text.nvicSetSystemHandlerPriority:00000000 nvicSetSystemHandlerPriority
     /tmp/ccrc9sNv.s:131    .text.nvicClearPending:00000000 $t
     /tmp/ccrc9sNv.s:137    .text.nvicClearPending:00000000 nvicClearPending
                     .debug_frame:00000010 $d

NO UNDEFINED SYMBOLS
