ARM GAS  /tmp/ccxdIvyR.s 			page 1


   1              		.syntax unified
   2              		.cpu cortex-m3
   3              		.fpu softvfp
   4              		.eabi_attribute 20, 1
   5              		.eabi_attribute 21, 1
   6              		.eabi_attribute 23, 3
   7              		.eabi_attribute 24, 1
   8              		.eabi_attribute 25, 1
   9              		.eabi_attribute 26, 1
  10              		.eabi_attribute 30, 2
  11              		.eabi_attribute 34, 1
  12              		.eabi_attribute 18, 4
  13              		.thumb
  14              		.file	"pal_lld.c"
  15              		.text
  16              	.Ltext0:
  17              		.cfi_sections	.debug_frame
  18              		.section	.text._pal_lld_init,"ax",%progbits
  19              		.align	2
  20              		.p2align 4,,15
  21              		.global	_pal_lld_init
  22              		.thumb
  23              		.thumb_func
  24              		.type	_pal_lld_init, %function
  25              	_pal_lld_init:
  26              	.LFB213:
  27              		.file 1 "../../../resources/chibios/ChibiOS_16.1.8/os/hal/ports/STM32/LLD/GPIOv1/pal_lld.c"
  28              		.loc 1 76 0
  29              		.cfi_startproc
  30              		@ args = 0, pretend = 0, frame = 0
  31              		@ frame_needed = 0, uses_anonymous_args = 0
  32              		@ link register save eliminated.
  33              	.LVL0:
  34              		.loc 1 81 0
  35 0000 4FF48051 		mov	r1, #4096
  36 0004 C4F20201 		movt	r1, 16386
  37              		.loc 1 76 0
  38 0008 10B4     		push	{r4}
  39              	.LCFI0:
  40              		.cfi_def_cfa_offset 4
  41              		.cfi_offset 4, -4
  42              		.loc 1 81 0
  43 000a 8C69     		ldr	r4, [r1, #24]
  44              		.loc 1 86 0
  45 000c 4FF4006C 		mov	ip, #2048
  46              		.loc 1 81 0
  47 0010 44F07D02 		orr	r2, r4, #125
  48 0014 8A61     		str	r2, [r1, #24]
  49              		.loc 1 86 0
  50 0016 0368     		ldr	r3, [r0, #0]
  51 0018 C4F2010C 		movt	ip, 16385
  52 001c CCF80C30 		str	r3, [ip, #12]
  53              		.loc 1 87 0
  54 0020 8468     		ldr	r4, [r0, #8]
  55              		.loc 1 89 0
  56 0022 4FF44063 		mov	r3, #3072
  57              		.loc 1 87 0
ARM GAS  /tmp/ccxdIvyR.s 			page 2


  58 0026 CCF80440 		str	r4, [ip, #4]
  59              		.loc 1 88 0
  60 002a 4168     		ldr	r1, [r0, #4]
  61              		.loc 1 89 0
  62 002c C4F20103 		movt	r3, 16385
  63              		.loc 1 88 0
  64 0030 CCF80010 		str	r1, [ip, #0]
  65              		.loc 1 89 0
  66 0034 C268     		ldr	r2, [r0, #12]
  67              		.loc 1 92 0
  68 0036 4FF48051 		mov	r1, #4096
  69              		.loc 1 89 0
  70 003a DA60     		str	r2, [r3, #12]
  71              		.loc 1 90 0
  72 003c 4469     		ldr	r4, [r0, #20]
  73              		.loc 1 92 0
  74 003e C4F20101 		movt	r1, 16385
  75              		.loc 1 90 0
  76 0042 5C60     		str	r4, [r3, #4]
  77              		.loc 1 91 0
  78 0044 0269     		ldr	r2, [r0, #16]
  79              		.loc 1 95 0
  80 0046 4FF4A05C 		mov	ip, #5120
  81              		.loc 1 91 0
  82 004a 1A60     		str	r2, [r3, #0]
  83              		.loc 1 92 0
  84 004c 8369     		ldr	r3, [r0, #24]
  85              		.loc 1 95 0
  86 004e C4F2010C 		movt	ip, 16385
  87              		.loc 1 92 0
  88 0052 CB60     		str	r3, [r1, #12]
  89              		.loc 1 93 0
  90 0054 046A     		ldr	r4, [r0, #32]
  91              		.loc 1 99 0
  92 0056 4FF4C053 		mov	r3, #6144
  93              		.loc 1 93 0
  94 005a 4C60     		str	r4, [r1, #4]
  95              		.loc 1 94 0
  96 005c C469     		ldr	r4, [r0, #28]
  97              		.loc 1 99 0
  98 005e C4F20103 		movt	r3, 16385
  99              		.loc 1 94 0
 100 0062 0C60     		str	r4, [r1, #0]
 101              		.loc 1 95 0
 102 0064 416A     		ldr	r1, [r0, #36]
 103 0066 CCF80C10 		str	r1, [ip, #12]
 104              		.loc 1 96 0
 105 006a C26A     		ldr	r2, [r0, #44]
 106 006c CCF80420 		str	r2, [ip, #4]
 107              		.loc 1 97 0
 108 0070 816A     		ldr	r1, [r0, #40]
 109 0072 CCF80010 		str	r1, [ip, #0]
 110              		.loc 1 99 0
 111 0076 026B     		ldr	r2, [r0, #48]
 112 0078 DA60     		str	r2, [r3, #12]
 113              		.loc 1 100 0
 114 007a 816B     		ldr	r1, [r0, #56]
ARM GAS  /tmp/ccxdIvyR.s 			page 3


 115 007c 5960     		str	r1, [r3, #4]
 116              		.loc 1 101 0
 117 007e 426B     		ldr	r2, [r0, #52]
 118 0080 1A60     		str	r2, [r3, #0]
 119              		.loc 1 113 0
 120 0082 10BC     		pop	{r4}
 121 0084 7047     		bx	lr
 122              		.cfi_endproc
 123              	.LFE213:
 124              		.size	_pal_lld_init, .-_pal_lld_init
 125 0086 00BFAFF3 		.section	.text._pal_lld_setgroupmode,"ax",%progbits
 125      0080AFF3 
 125      0080
 126              		.align	2
 127              		.p2align 4,,15
 128              		.global	_pal_lld_setgroupmode
 129              		.thumb
 130              		.thumb_func
 131              		.type	_pal_lld_setgroupmode, %function
 132              	_pal_lld_setgroupmode:
 133              	.LFB214:
 134              		.loc 1 132 0
 135              		.cfi_startproc
 136              		@ args = 0, pretend = 0, frame = 0
 137              		@ frame_needed = 0, uses_anonymous_args = 0
 138              		@ link register save eliminated.
 139              	.LVL1:
 140              		.loc 1 156 0
 141 0000 032A     		cmp	r2, #3
 142              		.loc 1 132 0
 143 0002 F0B4     		push	{r4, r5, r6, r7}
 144              	.LCFI1:
 145              		.cfi_def_cfa_offset 16
 146              		.cfi_offset 7, -4
 147              		.cfi_offset 6, -8
 148              		.cfi_offset 5, -12
 149              		.cfi_offset 4, -16
 150              		.loc 1 157 0
 151 0004 08BF     		it	eq
 152 0006 0161     		streq	r1, [r0, #16]
 153              		.loc 1 156 0
 154 0008 02D0     		beq	.L4
 155              		.loc 1 158 0
 156 000a 042A     		cmp	r2, #4
 157              		.loc 1 159 0
 158 000c 08BF     		it	eq
 159 000e 4161     		streq	r1, [r0, #20]
 160              	.L4:
 161              		.loc 1 160 0
 162 0010 40F20007 		movw	r7, #:lower16:.LANCHOR0
 163 0014 C0F20007 		movt	r7, #:upper16:.LANCHOR0
 164 0018 17F802C0 		ldrb	ip, [r7, r2]	@ zero_extendqisi2
 165              	.LVL2:
 166              		.loc 1 168 0
 167 001c 0F26     		movs	r6, #15
 168              		.loc 1 167 0
 169 001e 11F08007 		ands	r7, r1, #128
ARM GAS  /tmp/ccxdIvyR.s 			page 4


 170              		.loc 1 170 0
 171 0022 1CBF     		itt	ne
 172 0024 6746     		movne	r7, ip
 173              	.LVL3:
 174              		.loc 1 163 0
 175 0026 0026     		movne	r6, #0
 176              	.LVL4:
 177              		.loc 1 172 0
 178 0028 0F25     		movs	r5, #15
 179              		.loc 1 171 0
 180 002a 11F40042 		ands	r2, r1, #32768
 181              	.LVL5:
 182              		.loc 1 174 0
 183 002e 1CBF     		itt	ne
 184 0030 6246     		movne	r2, ip
 185              	.LVL6:
 186              		.loc 1 164 0
 187 0032 0025     		movne	r5, #0
 188              	.LVL7:
 189              		.loc 1 175 0
 190 0034 4B00     		lsls	r3, r1, #1
 191              	.LVL8:
 192              		.loc 1 163 0
 193 0036 3401     		lsls	r4, r6, #4
 194              	.LVL9:
 195              		.loc 1 165 0
 196 0038 3901     		lsls	r1, r7, #4
 197              		.loc 1 164 0
 198 003a 2E01     		lsls	r6, r5, #4
 199              	.LVL10:
 200              		.loc 1 166 0
 201 003c 1501     		lsls	r5, r2, #4
 202              	.LVL11:
 203              		.loc 1 167 0
 204 003e 13F0800F 		tst	r3, #128
 205              		.loc 1 168 0
 206 0042 0CBF     		ite	eq
 207 0044 44F00F04 		orreq	r4, r4, #15
 208              	.LVL12:
 209              		.loc 1 170 0
 210 0048 41EA0C01 		orrne	r1, r1, ip
 211              	.LVL13:
 212              		.loc 1 171 0
 213 004c 13F4004F 		tst	r3, #32768
 214              		.loc 1 174 0
 215 0050 14BF     		ite	ne
 216 0052 45EA0C05 		orrne	r5, r5, ip
 217              	.LVL14:
 218              		.loc 1 172 0
 219 0056 46F00F06 		orreq	r6, r6, #15
 220              	.LVL15:
 221              		.loc 1 175 0
 222 005a 5A00     		lsls	r2, r3, #1
 223              	.LVL16:
 224              		.loc 1 164 0
 225 005c 3601     		lsls	r6, r6, #4
 226              	.LVL17:
ARM GAS  /tmp/ccxdIvyR.s 			page 5


 227              		.loc 1 163 0
 228 005e 2301     		lsls	r3, r4, #4
 229              	.LVL18:
 230              		.loc 1 165 0
 231 0060 0901     		lsls	r1, r1, #4
 232              	.LVL19:
 233              		.loc 1 166 0
 234 0062 2D01     		lsls	r5, r5, #4
 235              	.LVL20:
 236              		.loc 1 167 0
 237 0064 12F0800F 		tst	r2, #128
 238              		.loc 1 168 0
 239 0068 0CBF     		ite	eq
 240 006a 43F00F03 		orreq	r3, r3, #15
 241              	.LVL21:
 242              		.loc 1 170 0
 243 006e 41EA0C01 		orrne	r1, r1, ip
 244              	.LVL22:
 245              		.loc 1 171 0
 246 0072 12F4004F 		tst	r2, #32768
 247              		.loc 1 172 0
 248 0076 0CBF     		ite	eq
 249 0078 46F00F06 		orreq	r6, r6, #15
 250              	.LVL23:
 251              		.loc 1 174 0
 252 007c 45EA0C05 		orrne	r5, r5, ip
 253              	.LVL24:
 254              		.loc 1 175 0
 255 0080 5200     		lsls	r2, r2, #1
 256              	.LVL25:
 257              		.loc 1 163 0
 258 0082 1C01     		lsls	r4, r3, #4
 259              	.LVL26:
 260              		.loc 1 165 0
 261 0084 0901     		lsls	r1, r1, #4
 262              	.LVL27:
 263              		.loc 1 164 0
 264 0086 3301     		lsls	r3, r6, #4
 265              	.LVL28:
 266              		.loc 1 166 0
 267 0088 2D01     		lsls	r5, r5, #4
 268              	.LVL29:
 269              		.loc 1 167 0
 270 008a 12F0800F 		tst	r2, #128
 271              		.loc 1 170 0
 272 008e 14BF     		ite	ne
 273 0090 41EA0C01 		orrne	r1, r1, ip
 274              	.LVL30:
 275              		.loc 1 168 0
 276 0094 44F00F04 		orreq	r4, r4, #15
 277              	.LVL31:
 278              		.loc 1 171 0
 279 0098 12F4004F 		tst	r2, #32768
 280              		.loc 1 174 0
 281 009c 14BF     		ite	ne
 282 009e 45EA0C05 		orrne	r5, r5, ip
 283              	.LVL32:
ARM GAS  /tmp/ccxdIvyR.s 			page 6


 284              		.loc 1 172 0
 285 00a2 43F00F03 		orreq	r3, r3, #15
 286              	.LVL33:
 287              		.loc 1 175 0
 288 00a6 5200     		lsls	r2, r2, #1
 289              	.LVL34:
 290              		.loc 1 164 0
 291 00a8 1E01     		lsls	r6, r3, #4
 292              		.loc 1 166 0
 293 00aa 2D01     		lsls	r5, r5, #4
 294              	.LVL35:
 295              		.loc 1 165 0
 296 00ac 0B01     		lsls	r3, r1, #4
 297              	.LVL36:
 298              		.loc 1 163 0
 299 00ae 2401     		lsls	r4, r4, #4
 300              	.LVL37:
 301              		.loc 1 167 0
 302 00b0 12F0800F 		tst	r2, #128
 303              		.loc 1 170 0
 304 00b4 14BF     		ite	ne
 305 00b6 43EA0C03 		orrne	r3, r3, ip
 306              	.LVL38:
 307              		.loc 1 168 0
 308 00ba 44F00F04 		orreq	r4, r4, #15
 309              	.LVL39:
 310              		.loc 1 171 0
 311 00be 12F4004F 		tst	r2, #32768
 312              		.loc 1 174 0
 313 00c2 14BF     		ite	ne
 314 00c4 45EA0C05 		orrne	r5, r5, ip
 315              	.LVL40:
 316              		.loc 1 172 0
 317 00c8 46F00F06 		orreq	r6, r6, #15
 318              	.LVL41:
 319              		.loc 1 175 0
 320 00cc 5200     		lsls	r2, r2, #1
 321              	.LVL42:
 322              		.loc 1 165 0
 323 00ce 1901     		lsls	r1, r3, #4
 324              		.loc 1 163 0
 325 00d0 2401     		lsls	r4, r4, #4
 326              	.LVL43:
 327              		.loc 1 166 0
 328 00d2 2B01     		lsls	r3, r5, #4
 329              	.LVL44:
 330              		.loc 1 164 0
 331 00d4 3601     		lsls	r6, r6, #4
 332              	.LVL45:
 333              		.loc 1 167 0
 334 00d6 12F0800F 		tst	r2, #128
 335              		.loc 1 170 0
 336 00da 14BF     		ite	ne
 337 00dc 41EA0C01 		orrne	r1, r1, ip
 338              	.LVL46:
 339              		.loc 1 168 0
 340 00e0 44F00F04 		orreq	r4, r4, #15
ARM GAS  /tmp/ccxdIvyR.s 			page 7


 341              	.LVL47:
 342              		.loc 1 171 0
 343 00e4 12F4004F 		tst	r2, #32768
 344              		.loc 1 174 0
 345 00e8 14BF     		ite	ne
 346 00ea 43EA0C03 		orrne	r3, r3, ip
 347              	.LVL48:
 348              		.loc 1 172 0
 349 00ee 46F00F06 		orreq	r6, r6, #15
 350              	.LVL49:
 351              		.loc 1 175 0
 352 00f2 5200     		lsls	r2, r2, #1
 353              	.LVL50:
 354              		.loc 1 166 0
 355 00f4 1D01     		lsls	r5, r3, #4
 356              		.loc 1 163 0
 357 00f6 2401     		lsls	r4, r4, #4
 358              	.LVL51:
 359              		.loc 1 164 0
 360 00f8 3601     		lsls	r6, r6, #4
 361              	.LVL52:
 362              		.loc 1 165 0
 363 00fa 0901     		lsls	r1, r1, #4
 364              	.LVL53:
 365              		.loc 1 167 0
 366 00fc 12F0800F 		tst	r2, #128
 367              		.loc 1 170 0
 368 0100 14BF     		ite	ne
 369 0102 41EA0C01 		orrne	r1, r1, ip
 370              	.LVL54:
 371              		.loc 1 168 0
 372 0106 44F00F04 		orreq	r4, r4, #15
 373              	.LVL55:
 374              		.loc 1 171 0
 375 010a 12F4004F 		tst	r2, #32768
 376              		.loc 1 174 0
 377 010e 14BF     		ite	ne
 378 0110 45EA0C05 		orrne	r5, r5, ip
 379              	.LVL56:
 380              		.loc 1 172 0
 381 0114 46F00F06 		orreq	r6, r6, #15
 382              	.LVL57:
 383              		.loc 1 175 0
 384 0118 5300     		lsls	r3, r2, #1
 385              	.LVL58:
 386              		.loc 1 163 0
 387 011a 2401     		lsls	r4, r4, #4
 388              	.LVL59:
 389              		.loc 1 164 0
 390 011c 3601     		lsls	r6, r6, #4
 391              	.LVL60:
 392              		.loc 1 165 0
 393 011e 0901     		lsls	r1, r1, #4
 394              	.LVL61:
 395              		.loc 1 166 0
 396 0120 2D01     		lsls	r5, r5, #4
 397              	.LVL62:
ARM GAS  /tmp/ccxdIvyR.s 			page 8


 398              		.loc 1 167 0
 399 0122 13F0800F 		tst	r3, #128
 400              		.loc 1 168 0
 401 0126 0CBF     		ite	eq
 402 0128 44F00F04 		orreq	r4, r4, #15
 403              	.LVL63:
 404              		.loc 1 170 0
 405 012c 41EA0C01 		orrne	r1, r1, ip
 406              	.LVL64:
 407              		.loc 1 171 0
 408 0130 1A04     		lsls	r2, r3, #16
 409              		.loc 1 177 0
 410 0132 4268     		ldr	r2, [r0, #4]
 411              		.loc 1 172 0
 412 0134 54BF     		ite	pl
 413 0136 46F00F06 		orrpl	r6, r6, #15
 414              	.LVL65:
 415              		.loc 1 174 0
 416 013a 45EA0C05 		orrmi	r5, r5, ip
 417              	.LVL66:
 418              		.loc 1 177 0
 419 013e 1640     		ands	r6, r6, r2
 420              	.LVL67:
 421 0140 3543     		orrs	r5, r5, r6
 422              	.LVL68:
 423 0142 4560     		str	r5, [r0, #4]
 424              		.loc 1 178 0
 425 0144 0368     		ldr	r3, [r0, #0]
 426 0146 1C40     		ands	r4, r4, r3
 427              	.LVL69:
 428 0148 2143     		orrs	r1, r1, r4
 429              	.LVL70:
 430 014a 0160     		str	r1, [r0, #0]
 431              		.loc 1 179 0
 432 014c F0BC     		pop	{r4, r5, r6, r7}
 433 014e 7047     		bx	lr
 434              		.cfi_endproc
 435              	.LFE214:
 436              		.size	_pal_lld_setgroupmode, .-_pal_lld_setgroupmode
 437              		.section	.rodata.cfgtab.6255,"a",%progbits
 438              		.align	2
 439              		.set	.LANCHOR0,. + 0
 440              		.type	cfgtab.6255, %object
 441              		.size	cfgtab.6255, 18
 442              	cfgtab.6255:
 443 0000 04       		.byte	4
 444 0001 02       		.byte	2
 445 0002 04       		.byte	4
 446 0003 08       		.byte	8
 447 0004 08       		.byte	8
 448 0005 00       		.byte	0
 449 0006 03       		.byte	3
 450 0007 07       		.byte	7
 451 0008 08       		.byte	8
 452 0009 08       		.byte	8
 453 000a 08       		.byte	8
 454 000b 08       		.byte	8
ARM GAS  /tmp/ccxdIvyR.s 			page 9


 455 000c 08       		.byte	8
 456 000d 08       		.byte	8
 457 000e 08       		.byte	8
 458 000f 08       		.byte	8
 459 0010 0B       		.byte	11
 460 0011 0F       		.byte	15
 461 0012 0000     		.text
 462              	.Letext0:
 463              		.file 2 "/home/madog/programs/CodeSourcery/Sourcery_CodeBench_Lite_for_ARM_EABI/bin/../lib/gcc/arm
 464              		.file 3 "../../../resources/chibios/ChibiOS_16.1.8/os/rt/ports/ARMCMx/compilers/GCC/chtypes.h"
 465              		.file 4 "../../../resources/chibios/ChibiOS_16.1.8/os/rt/include/chsystypes.h"
 466              		.file 5 "../../../resources/chibios/ChibiOS_16.1.8/os/rt/include/chschd.h"
 467              		.file 6 "../../../resources/chibios/ChibiOS_16.1.8/os/ext/CMSIS/ST/STM32F1xx/stm32f100xb.h"
 468              		.file 7 "../../../resources/chibios/ChibiOS_16.1.8/os/rt/ports/ARMCMx/chcore.h"
 469              		.file 8 "../../../resources/chibios/ChibiOS_16.1.8/os/rt/ports/ARMCMx/chcore_v7m.h"
 470              		.file 9 "../../../resources/chibios/ChibiOS_16.1.8/os/rt/include/chtm.h"
 471              		.file 10 "../../../resources/chibios/ChibiOS_16.1.8/os/rt/include/chsem.h"
 472              		.file 11 "../../../resources/chibios/ChibiOS_16.1.8/os/rt/include/chmtx.h"
 473              		.file 12 "../../../resources/chibios/ChibiOS_16.1.8/os/hal/ports/STM32/LLD/GPIOv1/pal_lld.h"
 474              		.file 13 "../../../resources/chibios/ChibiOS_16.1.8/os/ext/CMSIS/include/core_cm3.h"