ARM GAS  /tmp/ccxdIvyR.s 			page 1


   1              		.syntax unified
   2              		.cpu cortex-m3
   3              		.fpu softvfp
   4              		.eabi_attribute 20, 1
   5              		.eabi_attribute 21, 1
   6              		.eabi_attribute 23, 3
   7              		.eabi_attribute 24, 1
   8              		.eabi_attribute 25, 1
   9              		.eabi_attribute 26, 1
  10              		.eabi_attribute 30, 2
  11              		.eabi_attribute 34, 1
  12              		.eabi_attribute 18, 4
  13              		.thumb
  14              		.file	"pal_lld.c"
  15              		.text
  16              	.Ltext0:
  17              		.cfi_sections	.debug_frame
  18              		.section	.text._pal_lld_init,"ax",%progbits
  19              		.align	2
  20              		.p2align 4,,15
  21              		.global	_pal_lld_init
  22              		.thumb
  23              		.thumb_func
  24              		.type	_pal_lld_init, %function
  25              	_pal_lld_init:
  26              	.LFB213:
  27              		.file 1 "../../../resources/chibios/ChibiOS_16.1.8/os/hal/ports/STM32/LLD/GPIOv1/pal_lld.c"
  28              		.loc 1 76 0
  29              		.cfi_startproc
  30              		@ args = 0, pretend = 0, frame = 0
  31              		@ frame_needed = 0, uses_anonymous_args = 0
  32              		@ link register save eliminated.
  33              	.LVL0:
  34              		.loc 1 81 0
  35 0000 4FF48051 		mov	r1, #4096
  36 0004 C4F20201 		movt	r1, 16386
  37              		.loc 1 76 0
  38 0008 10B4     		push	{r4}
  39              	.LCFI0:
  40              		.cfi_def_cfa_offset 4
  41              		.cfi_offset 4, -4
  42              		.loc 1 81 0
  43 000a 8C69     		ldr	r4, [r1, #24]
  44              		.loc 1 86 0
  45 000c 4FF4006C 		mov	ip, #2048
  46              		.loc 1 81 0
  47 0010 44F07D02 		orr	r2, r4, #125
  48 0014 8A61     		str	r2, [r1, #24]
  49              		.loc 1 86 0
  50 0016 0368     		ldr	r3, [r0, #0]
  51 0018 C4F2010C 		movt	ip, 16385
  52 001c CCF80C30 		str	r3, [ip, #12]
  53              		.loc 1 87 0
  54 0020 8468     		ldr	r4, [r0, #8]
  55              		.loc 1 89 0
  56 0022 4FF44063 		mov	r3, #3072
  57              		.loc 1 87 0
ARM GAS  /tmp/ccxdIvyR.s 			page 2


  58 0026 CCF80440 		str	r4, [ip, #4]
  59              		.loc 1 88 0
  60 002a 4168     		ldr	r1, [r0, #4]
  61              		.loc 1 89 0
  62 002c C4F20103 		movt	r3, 16385
  63              		.loc 1 88 0
  64 0030 CCF80010 		str	r1, [ip, #0]
  65              		.loc 1 89 0
  66 0034 C268     		ldr	r2, [r0, #12]
  67              		.loc 1 92 0
  68 0036 4FF48051 		mov	r1, #4096
  69              		.loc 1 89 0
  70 003a DA60     		str	r2, [r3, #12]
  71              		.loc 1 90 0
  72 003c 4469     		ldr	r4, [r0, #20]
  73              		.loc 1 92 0
  74 003e C4F20101 		movt	r1, 16385
  75              		.loc 1 90 0
  76 0042 5C60     		str	r4, [r3, #4]
  77              		.loc 1 91 0
  78 0044 0269     		ldr	r2, [r0, #16]
  79              		.loc 1 95 0
  80 0046 4FF4A05C 		mov	ip, #5120
  81              		.loc 1 91 0
  82 004a 1A60     		str	r2, [r3, #0]
  83              		.loc 1 92 0
  84 004c 8369     		ldr	r3, [r0, #24]
  85              		.loc 1 95 0
  86 004e C4F2010C 		movt	ip, 16385
  87              		.loc 1 92 0
  88 0052 CB60     		str	r3, [r1, #12]
  89              		.loc 1 93 0
  90 0054 046A     		ldr	r4, [r0, #32]
  91              		.loc 1 99 0
  92 0056 4FF4C053 		mov	r3, #6144
  93              		.loc 1 93 0
  94 005a 4C60     		str	r4, [r1, #4]
  95              		.loc 1 94 0
  96 005c C469     		ldr	r4, [r0, #28]
  97              		.loc 1 99 0
  98 005e C4F20103 		movt	r3, 16385
  99              		.loc 1 94 0
 100 0062 0C60     		str	r4, [r1, #0]
 101              		.loc 1 95 0
 102 0064 416A     		ldr	r1, [r0, #36]
 103 0066 CCF80C10 		str	r1, [ip, #12]
 104              		.loc 1 96 0
 105 006a C26A     		ldr	r2, [r0, #44]
 106 006c CCF80420 		str	r2, [ip, #4]
 107              		.loc 1 97 0
 108 0070 816A     		ldr	r1, [r0, #40]
 109 0072 CCF80010 		str	r1, [ip, #0]
 110              		.loc 1 99 0
 111 0076 026B     		ldr	r2, [r0, #48]
 112 0078 DA60     		str	r2, [r3, #12]
 113              		.loc 1 100 0
 114 007a 816B     		ldr	r1, [r0, #56]
ARM GAS  /tmp/ccxdIvyR.s 			page 3


 115 007c 5960     		str	r1, [r3, #4]
 116              		.loc 1 101 0
 117 007e 426B     		ldr	r2, [r0, #52]
 118 0080 1A60     		str	r2, [r3, #0]
 119              		.loc 1 113 0
 120 0082 10BC     		pop	{r4}
 121 0084 7047     		bx	lr
 122              		.cfi_endproc
 123              	.LFE213:
 124              		.size	_pal_lld_init, .-_pal_lld_init
 125 0086 00BFAFF3 		.section	.text._pal_lld_setgroupmode,"ax",%progbits
 125      0080AFF3 
 125      0080
 126              		.align	2
 127              		.p2align 4,,15
 128              		.global	_pal_lld_setgroupmode
 129              		.thumb
 130              		.thumb_func
 131              		.type	_pal_lld_setgroupmode, %function
 132              	_pal_lld_setgroupmode:
 133              	.LFB214:
 134              		.loc 1 132 0
 135              		.cfi_startproc
 136              		@ args = 0, pretend = 0, frame = 0
 137              		@ frame_needed = 0, uses_anonymous_args = 0
 138              		@ link register save eliminated.
 139              	.LVL1:
 140              		.loc 1 156 0
 141 0000 032A     		cmp	r2, #3
 142              		.loc 1 132 0
 143 0002 F0B4     		push	{r4, r5, r6, r7}
 144              	.LCFI1:
 145              		.cfi_def_cfa_offset 16
 146              		.cfi_offset 7, -4
 147              		.cfi_offset 6, -8
 148              		.cfi_offset 5, -12
 149              		.cfi_offset 4, -16
 150              		.loc 1 157 0
 151 0004 08BF     		it	eq
 152 0006 0161     		streq	r1, [r0, #16]
 153              		.loc 1 156 0
 154 0008 02D0     		beq	.L4
 155              		.loc 1 158 0
 156 000a 042A     		cmp	r2, #4
 157              		.loc 1 159 0
 158 000c 08BF     		it	eq
 159 000e 4161     		streq	r1, [r0, #20]
 160              	.L4:
 161              		.loc 1 160 0
 162 0010 40F20007 		movw	r7, #:lower16:.LANCHOR0
 163 0014 C0F20007 		movt	r7, #:upper16:.LANCHOR0
 164 0018 17F802C0 		ldrb	ip, [r7, r2]	@ zero_extendqisi2
 165              	.LVL2:
 166              		.loc 1 168 0
 167 001c 0F26     		movs	r6, #15
 168              		.loc 1 167 0
 169 001e 11F08007 		ands	r7, r1, #128
ARM GAS  /tmp/ccxdIvyR.s 			page 4


 170              		.loc 1 170 0
 171 0022 1CBF     		itt	ne
 172 0024 6746     		movne	r7, ip
 173              	.LVL3:
 174              		.loc 1 163 0
 175 0026 0026     		movne	r6, #0
 176              	.LVL4:
 177              		.loc 1 172 0
 178 0028 0F25     		movs	r5, #15
 179              		.loc 1 171 0
 180 002a 11F40042 		ands	r2, r1, #32768
 181              	.LVL5:
 182              		.loc 1 174 0
 183 002e 1CBF     		itt	ne
 184 0030 6246     		movne	r2, ip
 185              	.LVL6:
 186              		.loc 1 164 0
 187 0032 0025     		movne	r5, #0
 188              	.LVL7:
 189              		.loc 1 175 0
 190 0034 4B00     		lsls	r3, r1, #1
 191              	.LVL8:
 192              		.loc 1 163 0
 193 0036 3401     		lsls	r4, r6, #4
 194              	.LVL9:
 195              		.loc 1 165 0
 196 0038 3901     		lsls	r1, r7, #4
 197              		.loc 1 164 0
 198 003a 2E01     		lsls	r6, r5, #4
 199              	.LVL10:
 200              		.loc 1 166 0
 201 003c 1501     		lsls	r5, r2, #4
 202              	.LVL11:
 203              		.loc 1 167 0
 204 003e 13F0800F 		tst	r3, #128
 205              		.loc 1 168 0
 206 0042 0CBF     		ite	eq
 207 0044 44F00F04 		orreq	r4, r4, #15
 208              	.LVL12:
 209              		.loc 1 170 0
 210 0048 41EA0C01 		orrne	r1, r1, ip
 211              	.LVL13:
 212              		.loc 1 171 0
 213 004c 13F4004F 		tst	r3, #32768
 214              		.loc 1 174 0
 215 0050 14BF     		ite	ne
 216 0052 45EA0C05 		orrne	r5, r5, ip
 217              	.LVL14:
 218              		.loc 1 172 0
 219 0056 46F00F06 		orreq	r6, r6, #15
 220              	.LVL15:
 221              		.loc 1 175 0
 222 005a 5A00     		lsls	r2, r3, #1
 223              	.LVL16:
 224              		.loc 1 164 0
 225 005c 3601     		lsls	r6, r6, #4
 226              	.LVL17:
ARM GAS  /tmp/ccxdIvyR.s 			page 5


 227              		.loc 1 163 0
 228 005e 2301     		lsls	r3, r4, #4
 229              	.LVL18:
 230              		.loc 1 165 0
 231 0060 0901     		lsls	r1, r1, #4
 232              	.LVL19:
 233              		.loc 1 166 0
 234 0062 2D01     		lsls	r5, r5, #4
 235              	.LVL20:
 236              		.loc 1 167 0
 237 0064 12F0800F 		tst	r2, #128
 238              		.loc 1 168 0
 239 0068 0CBF     		ite	eq
 240 006a 43F00F03 		orreq	r3, r3, #15
 241              	.LVL21:
 242              		.loc 1 170 0
 243 006e 41EA0C01 		orrne	r1, r1, ip
 244              	.LVL22:
 245              		.loc 1 171 0
 246 0072 12F4004F 		tst	r2, #32768
 247              		.loc 1 172 0
 248 0076 0CBF     		ite	eq
 249 0078 46F00F06 		orreq	r6, r6, #15
 250              	.LVL23:
 251              		.loc 1 174 0
 252 007c 45EA0C05 		orrne	r5, r5, ip
 253              	.LVL24:
 254              		.loc 1 175 0
 255 0080 5200     		lsls	r2, r2, #1
 256              	.LVL25:
 257              		.loc 1 163 0
 258 0082 1C01     		lsls	r4, r3, #4
 259              	.LVL26:
 260              		.loc 1 165 0
 261 0084 0901     		lsls	r1, r1, #4
 262              	.LVL27:
 263              		.loc 1 164 0
 264 0086 3301     		lsls	r3, r6, #4
 265              	.LVL28:
 266              		.loc 1 166 0
 267 0088 2D01     		lsls	r5, r5, #4
 268              	.LVL29:
 269              		.loc 1 167 0
 270 008a 12F0800F 		tst	r2, #128
 271              		.loc 1 170 0
 272 008e 14BF     		ite	ne
 273 0090 41EA0C01 		orrne	r1, r1, ip
 274              	.LVL30:
 275              		.loc 1 168 0
 276 0094 44F00F04 		orreq	r4, r4, #15
 277              	.LVL31:
 278              		.loc 1 171 0
 279 0098 12F4004F 		tst	r2, #32768
 280              		.loc 1 174 0
 281 009c 14BF     		ite	ne
 282 009e 45EA0C05 		orrne	r5, r5, ip
 283              	.LVL32:
ARM GAS  /tmp/ccxdIvyR.s 			page 6


 284              		.loc 1 172 0
 285 00a2 43F00F03 		orreq	r3, r3, #15
 286              	.LVL33:
 287              		.loc 1 175 0
 288 00a6 5200     		lsls	r2, r2, #1
 289              	.LVL34:
 290              		.loc 1 164 0
 291 00a8 1E01     		lsls	r6, r3, #4
 292              		.loc 1 166 0
 293 00aa 2D01     		lsls	r5, r5, #4
 294              	.LVL35:
 295              		.loc 1 165 0
 296 00ac 0B01     		lsls	r3, r1, #4
 297              	.LVL36:
 298              		.loc 1 163 0
 299 00ae 2401     		lsls	r4, r4, #4
 300              	.LVL37:
 301              		.loc 1 167 0
 302 00b0 12F0800F 		tst	r2, #128
 303              		.loc 1 170 0
 304 00b4 14BF     		ite	ne
 305 00b6 43EA0C03 		orrne	r3, r3, ip
 306              	.LVL38:
 307              		.loc 1 168 0
 308 00ba 44F00F04 		orreq	r4, r4, #15
 309              	.LVL39:
 310              		.loc 1 171 0
 311 00be 12F4004F 		tst	r2, #32768
 312              		.loc 1 174 0
 313 00c2 14BF     		ite	ne
 314 00c4 45EA0C05 		orrne	r5, r5, ip
 315              	.LVL40:
 316              		.loc 1 172 0
 317 00c8 46F00F06 		orreq	r6, r6, #15
 318              	.LVL41:
 319              		.loc 1 175 0
 320 00cc 5200     		lsls	r2, r2, #1
 321              	.LVL42:
 322              		.loc 1 165 0
 323 00ce 1901     		lsls	r1, r3, #4
 324              		.loc 1 163 0
 325 00d0 2401     		lsls	r4, r4, #4
 326              	.LVL43:
 327              		.loc 1 166 0
 328 00d2 2B01     		lsls	r3, r5, #4
 329              	.LVL44:
 330              		.loc 1 164 0
 331 00d4 3601     		lsls	r6, r6, #4
 332              	.LVL45:
 333              		.loc 1 167 0
 334 00d6 12F0800F 		tst	r2, #128
 335              		.loc 1 170 0
 336 00da 14BF     		ite	ne
 337 00dc 41EA0C01 		orrne	r1, r1, ip
 338              	.LVL46:
 339              		.loc 1 168 0
 340 00e0 44F00F04 		orreq	r4, r4, #15
ARM GAS  /tmp/ccxdIvyR.s 			page 7


 341              	.LVL47:
 342              		.loc 1 171 0
 343 00e4 12F4004F 		tst	r2, #32768
 344              		.loc 1 174 0
 345 00e8 14BF     		ite	ne
 346 00ea 43EA0C03 		orrne	r3, r3, ip
 347              	.LVL48:
 348              		.loc 1 172 0
 349 00ee 46F00F06 		orreq	r6, r6, #15
 350              	.LVL49:
 351              		.loc 1 175 0
 352 00f2 5200     		lsls	r2, r2, #1
 353              	.LVL50:
 354              		.loc 1 166 0
 355 00f4 1D01     		lsls	r5, r3, #4
 356              		.loc 1 163 0
 357 00f6 2401     		lsls	r4, r4, #4
 358              	.LVL51:
 359              		.loc 1 164 0
 360 00f8 3601     		lsls	r6, r6, #4
 361              	.LVL52:
 362              		.loc 1 165 0
 363 00fa 0901     		lsls	r1, r1, #4
 364              	.LVL53:
 365              		.loc 1 167 0
 366 00fc 12F0800F 		tst	r2, #128
 367              		.loc 1 170 0
 368 0100 14BF     		ite	ne
 369 0102 41EA0C01 		orrne	r1, r1, ip
 370              	.LVL54:
 371              		.loc 1 168 0
 372 0106 44F00F04 		orreq	r4, r4, #15
 373              	.LVL55:
 374              		.loc 1 171 0
 375 010a 12F4004F 		tst	r2, #32768
 376              		.loc 1 174 0
 377 010e 14BF     		ite	ne
 378 0110 45EA0C05 		orrne	r5, r5, ip
 379              	.LVL56:
 380              		.loc 1 172 0
 381 0114 46F00F06 		orreq	r6, r6, #15
 382              	.LVL57:
 383              		.loc 1 175 0
 384 0118 5300     		lsls	r3, r2, #1
 385              	.LVL58:
 386              		.loc 1 163 0
 387 011a 2401     		lsls	r4, r4, #4
 388              	.LVL59:
 389              		.loc 1 164 0
 390 011c 3601     		lsls	r6, r6, #4
 391              	.LVL60:
 392              		.loc 1 165 0
 393 011e 0901     		lsls	r1, r1, #4
 394              	.LVL61:
 395              		.loc 1 166 0
 396 0120 2D01     		lsls	r5, r5, #4
 397              	.LVL62:
ARM GAS  /tmp/ccxdIvyR.s 			page 8


 398              		.loc 1 167 0
 399 0122 13F0800F 		tst	r3, #128
 400              		.loc 1 168 0
 401 0126 0CBF     		ite	eq
 402 0128 44F00F04 		orreq	r4, r4, #15
 403              	.LVL63:
 404              		.loc 1 170 0
 405 012c 41EA0C01 		orrne	r1, r1, ip
 406              	.LVL64:
 407              		.loc 1 171 0
 408 0130 1A04     		lsls	r2, r3, #16
 409              		.loc 1 177 0
 410 0132 4268     		ldr	r2, [r0, #4]
 411              		.loc 1 172 0
 412 0134 54BF     		ite	pl
 413 0136 46F00F06 		orrpl	r6, r6, #15
 414              	.LVL65:
 415              		.loc 1 174 0
 416 013a 45EA0C05 		orrmi	r5, r5, ip
 417              	.LVL66:
 418              		.loc 1 177 0
 419 013e 1640     		ands	r6, r6, r2
 420              	.LVL67:
 421 0140 3543     		orrs	r5, r5, r6
 422              	.LVL68:
 423 0142 4560     		str	r5, [r0, #4]
 424              		.loc 1 178 0
 425 0144 0368     		ldr	r3, [r0, #0]
 426 0146 1C40     		ands	r4, r4, r3
 427              	.LVL69:
 428 0148 2143     		orrs	r1, r1, r4
 429              	.LVL70:
 430 014a 0160     		str	r1, [r0, #0]
 431              		.loc 1 179 0
 432 014c F0BC     		pop	{r4, r5, r6, r7}
 433 014e 7047     		bx	lr
 434              		.cfi_endproc
 435              	.LFE214:
 436              		.size	_pal_lld_setgroupmode, .-_pal_lld_setgroupmode
 437              		.section	.rodata.cfgtab.6255,"a",%progbits
 438              		.align	2
 439              		.set	.LANCHOR0,. + 0
 440              		.type	cfgtab.6255, %object
 441              		.size	cfgtab.6255, 18
 442              	cfgtab.6255:
 443 0000 04       		.byte	4
 444 0001 02       		.byte	2
 445 0002 04       		.byte	4
 446 0003 08       		.byte	8
 447 0004 08       		.byte	8
 448 0005 00       		.byte	0
 449 0006 03       		.byte	3
 450 0007 07       		.byte	7
 451 0008 08       		.byte	8
 452 0009 08       		.byte	8
 453 000a 08       		.byte	8
 454 000b 08       		.byte	8
ARM GAS  /tmp/ccxdIvyR.s 			page 9


 455 000c 08       		.byte	8
 456 000d 08       		.byte	8
 457 000e 08       		.byte	8
 458 000f 08       		.byte	8
 459 0010 0B       		.byte	11
 460 0011 0F       		.byte	15
 461 0012 0000     		.text
 462              	.Letext0:
 463              		.file 2 "/home/madog/programs/CodeSourcery/Sourcery_CodeBench_Lite_for_ARM_EABI/bin/../lib/gcc/arm
 464              		.file 3 "../../../resources/chibios/ChibiOS_16.1.8/os/rt/ports/ARMCMx/compilers/GCC/chtypes.h"
 465              		.file 4 "../../../resources/chibios/ChibiOS_16.1.8/os/rt/include/chsystypes.h"
 466              		.file 5 "../../../resources/chibios/ChibiOS_16.1.8/os/rt/include/chschd.h"
 467              		.file 6 "../../../resources/chibios/ChibiOS_16.1.8/os/ext/CMSIS/ST/STM32F1xx/stm32f100xb.h"
 468              		.file 7 "../../../resources/chibios/ChibiOS_16.1.8/os/rt/ports/ARMCMx/chcore.h"
 469              		.file 8 "../../../resources/chibios/ChibiOS_16.1.8/os/rt/ports/ARMCMx/chcore_v7m.h"
 470              		.file 9 "../../../resources/chibios/ChibiOS_16.1.8/os/rt/include/chtm.h"
 471              		.file 10 "../../../resources/chibios/ChibiOS_16.1.8/os/rt/include/chsem.h"
 472              		.file 11 "../../../resources/chibios/ChibiOS_16.1.8/os/rt/include/chmtx.h"
 473              		.file 12 "../../../resources/chibios/ChibiOS_16.1.8/os/hal/ports/STM32/LLD/GPIOv1/pal_lld.h"
 474              		.file 13 "../../../resources/chibios/ChibiOS_16.1.8/os/ext/CMSIS/include/core_cm3.h"
 475              		.section	.debug_info,"",%progbits
 476              	.Ldebug_info0:
 477 0000 A5090000 		.4byte	0x9a5
 478 0004 0200     		.2byte	0x2
 479 0006 00000000 		.4byte	.Ldebug_abbrev0
 480 000a 04       		.byte	0x4
 481 000b 01       		.uleb128 0x1
 482 000c 74040000 		.4byte	.LASF129
 483 0010 01       		.byte	0x1
 484 0011 88040000 		.4byte	.LASF130
 485 0015 DF020000 		.4byte	.LASF131
 486 0019 00000000 		.4byte	0
 487 001d 00000000 		.4byte	0
 488 0021 00000000 		.4byte	.Ldebug_ranges0+0
 489 0025 00000000 		.4byte	.Ldebug_line0
 490 0029 02       		.uleb128 0x2
 491 002a 04       		.byte	0x4
 492 002b 05       		.byte	0x5
 493 002c 696E7400 		.ascii	"int\000"
 494 0030 03       		.uleb128 0x3
 495 0031 04       		.byte	0x4
 496 0032 07       		.byte	0x7
 497 0033 99000000 		.4byte	.LASF0
 498 0037 03       		.uleb128 0x3
 499 0038 01       		.byte	0x1
 500 0039 06       		.byte	0x6
 501 003a 3C050000 		.4byte	.LASF1
 502 003e 04       		.uleb128 0x4
 503 003f 52020000 		.4byte	.LASF4
 504 0043 02       		.byte	0x2
 505 0044 2A       		.byte	0x2a
 506 0045 49000000 		.4byte	0x49
 507 0049 03       		.uleb128 0x3
 508 004a 01       		.byte	0x1
 509 004b 08       		.byte	0x8
 510 004c DA040000 		.4byte	.LASF2
 511 0050 03       		.uleb128 0x3
ARM GAS  /tmp/ccxdIvyR.s 			page 10


 512 0051 02       		.byte	0x2
 513 0052 05       		.byte	0x5
 514 0053 87030000 		.4byte	.LASF3
 515 0057 04       		.uleb128 0x4
 516 0058 5D030000 		.4byte	.LASF5
 517 005c 02       		.byte	0x2
 518 005d 36       		.byte	0x36
 519 005e 62000000 		.4byte	0x62
 520 0062 03       		.uleb128 0x3
 521 0063 02       		.byte	0x2
 522 0064 07       		.byte	0x7
 523 0065 48050000 		.4byte	.LASF6
 524 0069 04       		.uleb128 0x4
 525 006a 60040000 		.4byte	.LASF7
 526 006e 02       		.byte	0x2
 527 006f 4F       		.byte	0x4f
 528 0070 74000000 		.4byte	0x74
 529 0074 03       		.uleb128 0x3
 530 0075 04       		.byte	0x4
 531 0076 05       		.byte	0x5
 532 0077 AE030000 		.4byte	.LASF8
 533 007b 04       		.uleb128 0x4
 534 007c 21010000 		.4byte	.LASF9
 535 0080 02       		.byte	0x2
 536 0081 50       		.byte	0x50
 537 0082 86000000 		.4byte	0x86
 538 0086 03       		.uleb128 0x3
 539 0087 04       		.byte	0x4
 540 0088 07       		.byte	0x7
 541 0089 41040000 		.4byte	.LASF10
 542 008d 03       		.uleb128 0x3
 543 008e 08       		.byte	0x8
 544 008f 05       		.byte	0x5
 545 0090 85020000 		.4byte	.LASF11
 546 0094 04       		.uleb128 0x4
 547 0095 E8030000 		.4byte	.LASF12
 548 0099 02       		.byte	0x2
 549 009a 78       		.byte	0x78
 550 009b 9F000000 		.4byte	0x9f
 551 009f 03       		.uleb128 0x3
 552 00a0 08       		.byte	0x8
 553 00a1 07       		.byte	0x7
 554 00a2 6A010000 		.4byte	.LASF13
 555 00a6 04       		.uleb128 0x4
 556 00a7 66030000 		.4byte	.LASF14
 557 00ab 03       		.byte	0x3
 558 00ac 39       		.byte	0x39
 559 00ad 7B000000 		.4byte	0x7b
 560 00b1 04       		.uleb128 0x4
 561 00b2 4A030000 		.4byte	.LASF15
 562 00b6 03       		.byte	0x3
 563 00b7 3C       		.byte	0x3c
 564 00b8 3E000000 		.4byte	0x3e
 565 00bc 04       		.uleb128 0x4
 566 00bd 32020000 		.4byte	.LASF16
 567 00c1 03       		.byte	0x3
 568 00c2 3D       		.byte	0x3d
ARM GAS  /tmp/ccxdIvyR.s 			page 11


 569 00c3 3E000000 		.4byte	0x3e
 570 00c7 04       		.uleb128 0x4
 571 00c8 39040000 		.4byte	.LASF17
 572 00cc 03       		.byte	0x3
 573 00cd 3E       		.byte	0x3e
 574 00ce 3E000000 		.4byte	0x3e
 575 00d2 04       		.uleb128 0x4
 576 00d3 51010000 		.4byte	.LASF18
 577 00d7 03       		.byte	0x3
 578 00d8 40       		.byte	0x40
 579 00d9 7B000000 		.4byte	0x7b
 580 00dd 04       		.uleb128 0x4
 581 00de A3020000 		.4byte	.LASF19
 582 00e2 03       		.byte	0x3
 583 00e3 41       		.byte	0x41
 584 00e4 69000000 		.4byte	0x69
 585 00e8 04       		.uleb128 0x4
 586 00e9 2A010000 		.4byte	.LASF20
 587 00ed 03       		.byte	0x3
 588 00ee 43       		.byte	0x43
 589 00ef 7B000000 		.4byte	0x7b
 590 00f3 04       		.uleb128 0x4
 591 00f4 81010000 		.4byte	.LASF21
 592 00f8 03       		.byte	0x3
 593 00f9 45       		.byte	0x45
 594 00fa 69000000 		.4byte	0x69
 595 00fe 04       		.uleb128 0x4
 596 00ff 74000000 		.4byte	.LASF22
 597 0103 04       		.byte	0x4
 598 0104 35       		.byte	0x35
 599 0105 57000000 		.4byte	0x57
 600 0109 04       		.uleb128 0x4
 601 010a C0010000 		.4byte	.LASF23
 602 010e 04       		.byte	0x4
 603 010f 3F       		.byte	0x3f
 604 0110 14010000 		.4byte	0x114
 605 0114 05       		.uleb128 0x5
 606 0115 6C020000 		.4byte	.LASF43
 607 0119 44       		.byte	0x44
 608 011a 05       		.byte	0x5
 609 011b C2       		.byte	0xc2
 610 011c 25020000 		.4byte	0x225
 611 0120 06       		.uleb128 0x6
 612 0121 E1030000 		.4byte	.LASF24
 613 0125 05       		.byte	0x5
 614 0126 C3       		.byte	0xc3
 615 0127 30020000 		.4byte	0x230
 616 012b 02       		.byte	0x2
 617 012c 23       		.byte	0x23
 618 012d 00       		.uleb128 0
 619 012e 06       		.uleb128 0x6
 620 012f 32040000 		.4byte	.LASF25
 621 0133 05       		.byte	0x5
 622 0134 C5       		.byte	0xc5
 623 0135 30020000 		.4byte	0x230
 624 0139 02       		.byte	0x2
 625 013a 23       		.byte	0x23
ARM GAS  /tmp/ccxdIvyR.s 			page 12


 626 013b 04       		.uleb128 0x4
 627 013c 06       		.uleb128 0x6
 628 013d 64000000 		.4byte	.LASF26
 629 0141 05       		.byte	0x5
 630 0142 C7       		.byte	0xc7
 631 0143 D2000000 		.4byte	0xd2
 632 0147 02       		.byte	0x2
 633 0148 23       		.byte	0x23
 634 0149 08       		.uleb128 0x8
 635 014a 06       		.uleb128 0x6
 636 014b F1030000 		.4byte	.LASF27
 637 014f 05       		.byte	0x5
 638 0150 C8       		.byte	0xc8
 639 0151 D9050000 		.4byte	0x5d9
 640 0155 02       		.byte	0x2
 641 0156 23       		.byte	0x23
 642 0157 0C       		.uleb128 0xc
 643 0158 06       		.uleb128 0x6
 644 0159 A1010000 		.4byte	.LASF28
 645 015d 05       		.byte	0x5
 646 015e CA       		.byte	0xca
 647 015f 30020000 		.4byte	0x230
 648 0163 02       		.byte	0x2
 649 0164 23       		.byte	0x23
 650 0165 10       		.uleb128 0x10
 651 0166 06       		.uleb128 0x6
 652 0167 42020000 		.4byte	.LASF29
 653 016b 05       		.byte	0x5
 654 016c CB       		.byte	0xcb
 655 016d 30020000 		.4byte	0x230
 656 0171 02       		.byte	0x2
 657 0172 23       		.byte	0x23
 658 0173 14       		.uleb128 0x14
 659 0174 06       		.uleb128 0x6
 660 0175 FA010000 		.4byte	.LASF30
 661 0179 05       		.byte	0x5
 662 017a D2       		.byte	0xd2
 663 017b 78070000 		.4byte	0x778
 664 017f 02       		.byte	0x2
 665 0180 23       		.byte	0x23
 666 0181 18       		.uleb128 0x18
 667 0182 06       		.uleb128 0x6
 668 0183 4A020000 		.4byte	.LASF31
 669 0187 05       		.byte	0x5
 670 0188 DD       		.byte	0xdd
 671 0189 BC000000 		.4byte	0xbc
 672 018d 02       		.byte	0x2
 673 018e 23       		.byte	0x23
 674 018f 1C       		.uleb128 0x1c
 675 0190 06       		.uleb128 0x6
 676 0191 B1020000 		.4byte	.LASF32
 677 0195 05       		.byte	0x5
 678 0196 E1       		.byte	0xe1
 679 0197 B1000000 		.4byte	0xb1
 680 019b 02       		.byte	0x2
 681 019c 23       		.byte	0x23
 682 019d 1D       		.uleb128 0x1d
ARM GAS  /tmp/ccxdIvyR.s 			page 13


 683 019e 06       		.uleb128 0x6
 684 019f FE040000 		.4byte	.LASF33
 685 01a3 05       		.byte	0x5
 686 01a4 E6       		.byte	0xe6
 687 01a5 C7000000 		.4byte	0xc7
 688 01a9 02       		.byte	0x2
 689 01aa 23       		.byte	0x23
 690 01ab 1E       		.uleb128 0x1e
 691 01ac 07       		.uleb128 0x7
 692 01ad 705F7500 		.ascii	"p_u\000"
 693 01b1 05       		.byte	0x5
 694 01b2 3101     		.2byte	0x131
 695 01b4 A9060000 		.4byte	0x6a9
 696 01b8 02       		.byte	0x2
 697 01b9 23       		.byte	0x23
 698 01ba 20       		.uleb128 0x20
 699 01bb 08       		.uleb128 0x8
 700 01bc 20000000 		.4byte	.LASF34
 701 01c0 05       		.byte	0x5
 702 01c1 3601     		.2byte	0x136
 703 01c3 36020000 		.4byte	0x236
 704 01c7 02       		.byte	0x2
 705 01c8 23       		.byte	0x23
 706 01c9 24       		.uleb128 0x24
 707 01ca 08       		.uleb128 0x8
 708 01cb 8E000000 		.4byte	.LASF35
 709 01cf 05       		.byte	0x5
 710 01d0 3C01     		.2byte	0x13c
 711 01d2 5C020000 		.4byte	0x25c
 712 01d6 02       		.byte	0x2
 713 01d7 23       		.byte	0x23
 714 01d8 28       		.uleb128 0x28
 715 01d9 08       		.uleb128 0x8
 716 01da 44030000 		.4byte	.LASF36
 717 01de 05       		.byte	0x5
 718 01df 4001     		.2byte	0x140
 719 01e1 DD000000 		.4byte	0xdd
 720 01e5 02       		.byte	0x2
 721 01e6 23       		.byte	0x23
 722 01e7 30       		.uleb128 0x30
 723 01e8 08       		.uleb128 0x8
 724 01e9 9B030000 		.4byte	.LASF37
 725 01ed 05       		.byte	0x5
 726 01ee 4601     		.2byte	0x146
 727 01f0 E8000000 		.4byte	0xe8
 728 01f4 02       		.byte	0x2
 729 01f5 23       		.byte	0x23
 730 01f6 34       		.uleb128 0x34
 731 01f7 08       		.uleb128 0x8
 732 01f8 62020000 		.4byte	.LASF38
 733 01fc 05       		.byte	0x5
 734 01fd 4D01     		.2byte	0x14d
 735 01ff 72070000 		.4byte	0x772
 736 0203 02       		.byte	0x2
 737 0204 23       		.byte	0x23
 738 0205 38       		.uleb128 0x38
 739 0206 08       		.uleb128 0x8
ARM GAS  /tmp/ccxdIvyR.s 			page 14


 740 0207 7C030000 		.4byte	.LASF39
 741 020b 05       		.byte	0x5
 742 020c 5101     		.2byte	0x151
 743 020e D2000000 		.4byte	0xd2
 744 0212 02       		.byte	0x2
 745 0213 23       		.byte	0x23
 746 0214 3C       		.uleb128 0x3c
 747 0215 08       		.uleb128 0x8
 748 0216 5A020000 		.4byte	.LASF40
 749 021a 05       		.byte	0x5
 750 021b 5801     		.2byte	0x158
 751 021d 20030000 		.4byte	0x320
 752 0221 02       		.byte	0x2
 753 0222 23       		.byte	0x23
 754 0223 40       		.uleb128 0x40
 755 0224 00       		.byte	0
 756 0225 04       		.uleb128 0x4
 757 0226 13020000 		.4byte	.LASF41
 758 022a 04       		.byte	0x4
 759 022b 44       		.byte	0x44
 760 022c 30020000 		.4byte	0x230
 761 0230 09       		.uleb128 0x9
 762 0231 04       		.byte	0x4
 763 0232 09010000 		.4byte	0x109
 764 0236 04       		.uleb128 0x4
 765 0237 A6000000 		.4byte	.LASF42
 766 023b 04       		.byte	0x4
 767 023c 49       		.byte	0x49
 768 023d 41020000 		.4byte	0x241
 769 0241 05       		.uleb128 0x5
 770 0242 00000000 		.4byte	.LASF44
 771 0246 04       		.byte	0x4
 772 0247 05       		.byte	0x5
 773 0248 B0       		.byte	0xb0
 774 0249 5C020000 		.4byte	0x25c
 775 024d 06       		.uleb128 0x6
 776 024e E1030000 		.4byte	.LASF24
 777 0252 05       		.byte	0x5
 778 0253 B1       		.byte	0xb1
 779 0254 30020000 		.4byte	0x230
 780 0258 02       		.byte	0x2
 781 0259 23       		.byte	0x23
 782 025a 00       		.uleb128 0
 783 025b 00       		.byte	0
 784 025c 04       		.uleb128 0x4
 785 025d 10000000 		.4byte	.LASF45
 786 0261 04       		.byte	0x4
 787 0262 50       		.byte	0x50
 788 0263 67020000 		.4byte	0x267
 789 0267 05       		.uleb128 0x5
 790 0268 F1000000 		.4byte	.LASF46
 791 026c 08       		.byte	0x8
 792 026d 05       		.byte	0x5
 793 026e B7       		.byte	0xb7
 794 026f 90020000 		.4byte	0x290
 795 0273 06       		.uleb128 0x6
 796 0274 E1030000 		.4byte	.LASF24
ARM GAS  /tmp/ccxdIvyR.s 			page 15


 797 0278 05       		.byte	0x5
 798 0279 B8       		.byte	0xb8
 799 027a 30020000 		.4byte	0x230
 800 027e 02       		.byte	0x2
 801 027f 23       		.byte	0x23
 802 0280 00       		.uleb128 0
 803 0281 06       		.uleb128 0x6
 804 0282 32040000 		.4byte	.LASF25
 805 0286 05       		.byte	0x5
 806 0287 B9       		.byte	0xb9
 807 0288 30020000 		.4byte	0x230
 808 028c 02       		.byte	0x2
 809 028d 23       		.byte	0x23
 810 028e 04       		.uleb128 0x4
 811 028f 00       		.byte	0
 812 0290 04       		.uleb128 0x4
 813 0291 53040000 		.4byte	.LASF47
 814 0295 04       		.byte	0x4
 815 0296 57       		.byte	0x57
 816 0297 9B020000 		.4byte	0x29b
 817 029b 0A       		.uleb128 0xa
 818 029c C8000000 		.4byte	.LASF48
 819 02a0 1C       		.byte	0x1c
 820 02a1 05       		.byte	0x5
 821 02a2 9001     		.2byte	0x190
 822 02a4 03030000 		.4byte	0x303
 823 02a8 08       		.uleb128 0x8
 824 02a9 93020000 		.4byte	.LASF49
 825 02ad 05       		.byte	0x5
 826 02ae 9101     		.2byte	0x191
 827 02b0 5C020000 		.4byte	0x25c
 828 02b4 02       		.byte	0x2
 829 02b5 23       		.byte	0x23
 830 02b6 00       		.uleb128 0
 831 02b7 08       		.uleb128 0x8
 832 02b8 36010000 		.4byte	.LASF50
 833 02bc 05       		.byte	0x5
 834 02bd 9201     		.2byte	0x192
 835 02bf D2000000 		.4byte	0xd2
 836 02c3 02       		.byte	0x2
 837 02c4 23       		.byte	0x23
 838 02c5 08       		.uleb128 0x8
 839 02c6 08       		.uleb128 0x8
 840 02c7 5B050000 		.4byte	.LASF51
 841 02cb 05       		.byte	0x5
 842 02cc 9401     		.2byte	0x194
 843 02ce D9050000 		.4byte	0x5d9
 844 02d2 02       		.byte	0x2
 845 02d3 23       		.byte	0x23
 846 02d4 0C       		.uleb128 0xc
 847 02d5 08       		.uleb128 0x8
 848 02d6 9B020000 		.4byte	.LASF52
 849 02da 05       		.byte	0x5
 850 02db 9701     		.2byte	0x197
 851 02dd 30020000 		.4byte	0x230
 852 02e1 02       		.byte	0x2
 853 02e2 23       		.byte	0x23
ARM GAS  /tmp/ccxdIvyR.s 			page 16


 854 02e3 10       		.uleb128 0x10
 855 02e4 08       		.uleb128 0x8
 856 02e5 19030000 		.4byte	.LASF53
 857 02e9 05       		.byte	0x5
 858 02ea 9801     		.2byte	0x198
 859 02ec 30020000 		.4byte	0x230
 860 02f0 02       		.byte	0x2
 861 02f1 23       		.byte	0x23
 862 02f2 14       		.uleb128 0x14
 863 02f3 08       		.uleb128 0x8
 864 02f4 91030000 		.4byte	.LASF54
 865 02f8 05       		.byte	0x5
 866 02f9 9B01     		.2byte	0x19b
 867 02fb 30020000 		.4byte	0x230
 868 02ff 02       		.byte	0x2
 869 0300 23       		.byte	0x23
 870 0301 18       		.uleb128 0x18
 871 0302 00       		.byte	0
 872 0303 04       		.uleb128 0x4
 873 0304 02010000 		.4byte	.LASF55
 874 0308 04       		.byte	0x4
 875 0309 5C       		.byte	0x5c
 876 030a 0E030000 		.4byte	0x30e
 877 030e 09       		.uleb128 0x9
 878 030f 04       		.byte	0x4
 879 0310 14030000 		.4byte	0x314
 880 0314 0B       		.uleb128 0xb
 881 0315 01       		.byte	0x1
 882 0316 20030000 		.4byte	0x320
 883 031a 0C       		.uleb128 0xc
 884 031b 20030000 		.4byte	0x320
 885 031f 00       		.byte	0
 886 0320 0D       		.uleb128 0xd
 887 0321 04       		.byte	0x4
 888 0322 04       		.uleb128 0x4
 889 0323 B9020000 		.4byte	.LASF56
 890 0327 04       		.byte	0x4
 891 0328 61       		.byte	0x61
 892 0329 2D030000 		.4byte	0x32d
 893 032d 0A       		.uleb128 0xa
 894 032e 59010000 		.4byte	.LASF57
 895 0332 14       		.byte	0x14
 896 0333 05       		.byte	0x5
 897 0334 6B01     		.2byte	0x16b
 898 0336 86030000 		.4byte	0x386
 899 033a 08       		.uleb128 0x8
 900 033b 05050000 		.4byte	.LASF58
 901 033f 05       		.byte	0x5
 902 0340 6C01     		.2byte	0x16c
 903 0342 8A070000 		.4byte	0x78a
 904 0346 02       		.byte	0x2
 905 0347 23       		.byte	0x23
 906 0348 00       		.uleb128 0
 907 0349 08       		.uleb128 0x8
 908 034a 74050000 		.4byte	.LASF59
 909 034e 05       		.byte	0x5
 910 034f 6D01     		.2byte	0x16d
ARM GAS  /tmp/ccxdIvyR.s 			page 17


 911 0351 8A070000 		.4byte	0x78a
 912 0355 02       		.byte	0x2
 913 0356 23       		.byte	0x23
 914 0357 04       		.uleb128 0x4
 915 0358 08       		.uleb128 0x8
 916 0359 0A020000 		.4byte	.LASF60
 917 035d 05       		.byte	0x5
 918 035e 6E01     		.2byte	0x16e
 919 0360 FE000000 		.4byte	0xfe
 920 0364 02       		.byte	0x2
 921 0365 23       		.byte	0x23
 922 0366 08       		.uleb128 0x8
 923 0367 08       		.uleb128 0x8
 924 0368 6C050000 		.4byte	.LASF61
 925 036c 05       		.byte	0x5
 926 036d 6F01     		.2byte	0x16f
 927 036f 03030000 		.4byte	0x303
 928 0373 02       		.byte	0x2
 929 0374 23       		.byte	0x23
 930 0375 0C       		.uleb128 0xc
 931 0376 08       		.uleb128 0x8
 932 0377 3D010000 		.4byte	.LASF62
 933 037b 05       		.byte	0x5
 934 037c 7101     		.2byte	0x171
 935 037e 20030000 		.4byte	0x320
 936 0382 02       		.byte	0x2
 937 0383 23       		.byte	0x23
 938 0384 10       		.uleb128 0x10
 939 0385 00       		.byte	0
 940 0386 04       		.uleb128 0x4
 941 0387 E8040000 		.4byte	.LASF63
 942 038b 04       		.byte	0x4
 943 038c 66       		.byte	0x66
 944 038d 91030000 		.4byte	0x391
 945 0391 0A       		.uleb128 0xa
 946 0392 A9010000 		.4byte	.LASF64
 947 0396 0C       		.byte	0xc
 948 0397 05       		.byte	0x5
 949 0398 7B01     		.2byte	0x17b
 950 039a DB030000 		.4byte	0x3db
 951 039e 08       		.uleb128 0x8
 952 039f 05050000 		.4byte	.LASF58
 953 03a3 05       		.byte	0x5
 954 03a4 7C01     		.2byte	0x17c
 955 03a6 8A070000 		.4byte	0x78a
 956 03aa 02       		.byte	0x2
 957 03ab 23       		.byte	0x23
 958 03ac 00       		.uleb128 0
 959 03ad 08       		.uleb128 0x8
 960 03ae 74050000 		.4byte	.LASF59
 961 03b2 05       		.byte	0x5
 962 03b3 7E01     		.2byte	0x17e
 963 03b5 8A070000 		.4byte	0x78a
 964 03b9 02       		.byte	0x2
 965 03ba 23       		.byte	0x23
 966 03bb 04       		.uleb128 0x4
 967 03bc 08       		.uleb128 0x8
ARM GAS  /tmp/ccxdIvyR.s 			page 18


 968 03bd 0A020000 		.4byte	.LASF60
 969 03c1 05       		.byte	0x5
 970 03c2 8001     		.2byte	0x180
 971 03c4 FE000000 		.4byte	0xfe
 972 03c8 02       		.byte	0x2
 973 03c9 23       		.byte	0x23
 974 03ca 08       		.uleb128 0x8
 975 03cb 08       		.uleb128 0x8
 976 03cc 26020000 		.4byte	.LASF65
 977 03d0 05       		.byte	0x5
 978 03d1 8801     		.2byte	0x188
 979 03d3 FE000000 		.4byte	0xfe
 980 03d7 02       		.byte	0x2
 981 03d8 23       		.byte	0x23
 982 03d9 0A       		.uleb128 0xa
 983 03da 00       		.byte	0
 984 03db 04       		.uleb128 0x4
 985 03dc 76020000 		.4byte	.LASF66
 986 03e0 04       		.byte	0x4
 987 03e1 6B       		.byte	0x6b
 988 03e2 E6030000 		.4byte	0x3e6
 989 03e6 0A       		.uleb128 0xa
 990 03e7 11010000 		.4byte	.LASF67
 991 03eb 04       		.byte	0x4
 992 03ec 05       		.byte	0x5
 993 03ed A201     		.2byte	0x1a2
 994 03ef 03040000 		.4byte	0x403
 995 03f3 08       		.uleb128 0x8
 996 03f4 34030000 		.4byte	.LASF68
 997 03f8 05       		.byte	0x5
 998 03f9 AA01     		.2byte	0x1aa
 999 03fb 90070000 		.4byte	0x790
 1000 03ff 02       		.byte	0x2
 1001 0400 23       		.byte	0x23
 1002 0401 00       		.uleb128 0
 1003 0402 00       		.byte	0
 1004 0403 04       		.uleb128 0x4
 1005 0404 23050000 		.4byte	.LASF69
 1006 0408 04       		.byte	0x4
 1007 0409 70       		.byte	0x70
 1008 040a 0E040000 		.4byte	0x40e
 1009 040e 0E       		.uleb128 0xe
 1010 040f D7030000 		.4byte	.LASF70
 1011 0413 5001     		.2byte	0x150
 1012 0415 05       		.byte	0x5
 1013 0416 C201     		.2byte	0x1c2
 1014 0418 76040000 		.4byte	0x476
 1015 041c 08       		.uleb128 0x8
 1016 041d FC030000 		.4byte	.LASF71
 1017 0421 05       		.byte	0x5
 1018 0422 C601     		.2byte	0x1c6
 1019 0424 90020000 		.4byte	0x290
 1020 0428 02       		.byte	0x2
 1021 0429 23       		.byte	0x23
 1022 042a 00       		.uleb128 0
 1023 042b 08       		.uleb128 0x8
 1024 042c C1000000 		.4byte	.LASF72
ARM GAS  /tmp/ccxdIvyR.s 			page 19


 1025 0430 05       		.byte	0x5
 1026 0431 CA01     		.2byte	0x1ca
 1027 0433 86030000 		.4byte	0x386
 1028 0437 02       		.byte	0x2
 1029 0438 23       		.byte	0x23
 1030 0439 1C       		.uleb128 0x1c
 1031 043a 07       		.uleb128 0x7
 1032 043b 64626700 		.ascii	"dbg\000"
 1033 043f 05       		.byte	0x5
 1034 0440 CE01     		.2byte	0x1ce
 1035 0442 DB030000 		.4byte	0x3db
 1036 0446 02       		.byte	0x2
 1037 0447 23       		.byte	0x23
 1038 0448 28       		.uleb128 0x28
 1039 0449 08       		.uleb128 0x8
 1040 044a 52030000 		.4byte	.LASF73
 1041 044e 05       		.byte	0x5
 1042 044f D201     		.2byte	0x1d2
 1043 0451 09010000 		.4byte	0x109
 1044 0455 02       		.byte	0x2
 1045 0456 23       		.byte	0x23
 1046 0457 2C       		.uleb128 0x2c
 1047 0458 07       		.uleb128 0x7
 1048 0459 746D00   		.ascii	"tm\000"
 1049 045c 05       		.byte	0x5
 1050 045d D701     		.2byte	0x1d7
 1051 045f 9E060000 		.4byte	0x69e
 1052 0463 02       		.byte	0x2
 1053 0464 23       		.byte	0x23
 1054 0465 70       		.uleb128 0x70
 1055 0466 08       		.uleb128 0x8
 1056 0467 D6000000 		.4byte	.LASF74
 1057 046b 05       		.byte	0x5
 1058 046c E301     		.2byte	0x1e3
 1059 046e 95070000 		.4byte	0x795
 1060 0472 02       		.byte	0x2
 1061 0473 23       		.byte	0x23
 1062 0474 78       		.uleb128 0x78
 1063 0475 00       		.byte	0
 1064 0476 0F       		.uleb128 0xf
 1065 0477 7B000000 		.4byte	0x7b
 1066 047b 10       		.uleb128 0x10
 1067 047c 1C       		.byte	0x1c
 1068 047d 06       		.byte	0x6
 1069 047e 5101     		.2byte	0x151
 1070 0480 EE040000 		.4byte	0x4ee
 1071 0484 07       		.uleb128 0x7
 1072 0485 43524C00 		.ascii	"CRL\000"
 1073 0489 06       		.byte	0x6
 1074 048a 5301     		.2byte	0x153
 1075 048c 76040000 		.4byte	0x476
 1076 0490 02       		.byte	0x2
 1077 0491 23       		.byte	0x23
 1078 0492 00       		.uleb128 0
 1079 0493 07       		.uleb128 0x7
 1080 0494 43524800 		.ascii	"CRH\000"
 1081 0498 06       		.byte	0x6
ARM GAS  /tmp/ccxdIvyR.s 			page 20


 1082 0499 5401     		.2byte	0x154
 1083 049b 76040000 		.4byte	0x476
 1084 049f 02       		.byte	0x2
 1085 04a0 23       		.byte	0x23
 1086 04a1 04       		.uleb128 0x4
 1087 04a2 07       		.uleb128 0x7
 1088 04a3 49445200 		.ascii	"IDR\000"
 1089 04a7 06       		.byte	0x6
 1090 04a8 5501     		.2byte	0x155
 1091 04aa 76040000 		.4byte	0x476
 1092 04ae 02       		.byte	0x2
 1093 04af 23       		.byte	0x23
 1094 04b0 08       		.uleb128 0x8
 1095 04b1 07       		.uleb128 0x7
 1096 04b2 4F445200 		.ascii	"ODR\000"
 1097 04b6 06       		.byte	0x6
 1098 04b7 5601     		.2byte	0x156
 1099 04b9 76040000 		.4byte	0x476
 1100 04bd 02       		.byte	0x2
 1101 04be 23       		.byte	0x23
 1102 04bf 0C       		.uleb128 0xc
 1103 04c0 08       		.uleb128 0x8
 1104 04c1 51000000 		.4byte	.LASF75
 1105 04c5 06       		.byte	0x6
 1106 04c6 5701     		.2byte	0x157
 1107 04c8 76040000 		.4byte	0x476
 1108 04cc 02       		.byte	0x2
 1109 04cd 23       		.byte	0x23
 1110 04ce 10       		.uleb128 0x10
 1111 04cf 07       		.uleb128 0x7
 1112 04d0 42525200 		.ascii	"BRR\000"
 1113 04d4 06       		.byte	0x6
 1114 04d5 5801     		.2byte	0x158
 1115 04d7 76040000 		.4byte	0x476
 1116 04db 02       		.byte	0x2
 1117 04dc 23       		.byte	0x23
 1118 04dd 14       		.uleb128 0x14
 1119 04de 08       		.uleb128 0x8
 1120 04df 8F050000 		.4byte	.LASF76
 1121 04e3 06       		.byte	0x6
 1122 04e4 5901     		.2byte	0x159
 1123 04e6 76040000 		.4byte	0x476
 1124 04ea 02       		.byte	0x2
 1125 04eb 23       		.byte	0x23
 1126 04ec 18       		.uleb128 0x18
 1127 04ed 00       		.byte	0
 1128 04ee 11       		.uleb128 0x11
 1129 04ef 1B040000 		.4byte	.LASF77
 1130 04f3 06       		.byte	0x6
 1131 04f4 5A01     		.2byte	0x15a
 1132 04f6 7B040000 		.4byte	0x47b
 1133 04fa 10       		.uleb128 0x10
 1134 04fb 30       		.byte	0x30
 1135 04fc 06       		.byte	0x6
 1136 04fd 9301     		.2byte	0x193
 1137 04ff B7050000 		.4byte	0x5b7
 1138 0503 07       		.uleb128 0x7
ARM GAS  /tmp/ccxdIvyR.s 			page 21


 1139 0504 435200   		.ascii	"CR\000"
 1140 0507 06       		.byte	0x6
 1141 0508 9501     		.2byte	0x195
 1142 050a 76040000 		.4byte	0x476
 1143 050e 02       		.byte	0x2
 1144 050f 23       		.byte	0x23
 1145 0510 00       		.uleb128 0
 1146 0511 08       		.uleb128 0x8
 1147 0512 F7030000 		.4byte	.LASF78
 1148 0516 06       		.byte	0x6
 1149 0517 9601     		.2byte	0x196
 1150 0519 76040000 		.4byte	0x476
 1151 051d 02       		.byte	0x2
 1152 051e 23       		.byte	0x23
 1153 051f 04       		.uleb128 0x4
 1154 0520 07       		.uleb128 0x7
 1155 0521 43495200 		.ascii	"CIR\000"
 1156 0525 06       		.byte	0x6
 1157 0526 9701     		.2byte	0x197
 1158 0528 76040000 		.4byte	0x476
 1159 052c 02       		.byte	0x2
 1160 052d 23       		.byte	0x23
 1161 052e 08       		.uleb128 0x8
 1162 052f 08       		.uleb128 0x8
 1163 0530 6B000000 		.4byte	.LASF79
 1164 0534 06       		.byte	0x6
 1165 0535 9801     		.2byte	0x198
 1166 0537 76040000 		.4byte	0x476
 1167 053b 02       		.byte	0x2
 1168 053c 23       		.byte	0x23
 1169 053d 0C       		.uleb128 0xc
 1170 053e 08       		.uleb128 0x8
 1171 053f 01020000 		.4byte	.LASF80
 1172 0543 06       		.byte	0x6
 1173 0544 9901     		.2byte	0x199
 1174 0546 76040000 		.4byte	0x476
 1175 054a 02       		.byte	0x2
 1176 054b 23       		.byte	0x23
 1177 054c 10       		.uleb128 0x10
 1178 054d 08       		.uleb128 0x8
 1179 054e 3B020000 		.4byte	.LASF81
 1180 0552 06       		.byte	0x6
 1181 0553 9A01     		.2byte	0x19a
 1182 0555 76040000 		.4byte	0x476
 1183 0559 02       		.byte	0x2
 1184 055a 23       		.byte	0x23
 1185 055b 14       		.uleb128 0x14
 1186 055c 08       		.uleb128 0x8
 1187 055d 2C030000 		.4byte	.LASF82
 1188 0561 06       		.byte	0x6
 1189 0562 9B01     		.2byte	0x19b
 1190 0564 76040000 		.4byte	0x476
 1191 0568 02       		.byte	0x2
 1192 0569 23       		.byte	0x23
 1193 056a 18       		.uleb128 0x18
 1194 056b 08       		.uleb128 0x8
 1195 056c 2A000000 		.4byte	.LASF83
ARM GAS  /tmp/ccxdIvyR.s 			page 22


 1196 0570 06       		.byte	0x6
 1197 0571 9C01     		.2byte	0x19c
 1198 0573 76040000 		.4byte	0x476
 1199 0577 02       		.byte	0x2
 1200 0578 23       		.byte	0x23
 1201 0579 1C       		.uleb128 0x1c
 1202 057a 08       		.uleb128 0x8
 1203 057b B5000000 		.4byte	.LASF84
 1204 057f 06       		.byte	0x6
 1205 0580 9D01     		.2byte	0x19d
 1206 0582 76040000 		.4byte	0x476
 1207 0586 02       		.byte	0x2
 1208 0587 23       		.byte	0x23
 1209 0588 20       		.uleb128 0x20
 1210 0589 07       		.uleb128 0x7
 1211 058a 43535200 		.ascii	"CSR\000"
 1212 058e 06       		.byte	0x6
 1213 058f 9E01     		.2byte	0x19e
 1214 0591 76040000 		.4byte	0x476
 1215 0595 02       		.byte	0x2
 1216 0596 23       		.byte	0x23
 1217 0597 24       		.uleb128 0x24
 1218 0598 08       		.uleb128 0x8
 1219 0599 7C050000 		.4byte	.LASF85
 1220 059d 06       		.byte	0x6
 1221 059e A101     		.2byte	0x1a1
 1222 05a0 7B000000 		.4byte	0x7b
 1223 05a4 02       		.byte	0x2
 1224 05a5 23       		.byte	0x23
 1225 05a6 28       		.uleb128 0x28
 1226 05a7 08       		.uleb128 0x8
 1227 05a8 26030000 		.4byte	.LASF86
 1228 05ac 06       		.byte	0x6
 1229 05ad A201     		.2byte	0x1a2
 1230 05af 76040000 		.4byte	0x476
 1231 05b3 02       		.byte	0x2
 1232 05b4 23       		.byte	0x23
 1233 05b5 2C       		.uleb128 0x2c
 1234 05b6 00       		.byte	0
 1235 05b7 11       		.uleb128 0x11
 1236 05b8 DE010000 		.4byte	.LASF87
 1237 05bc 06       		.byte	0x6
 1238 05bd A301     		.2byte	0x1a3
 1239 05bf FA040000 		.4byte	0x4fa
 1240 05c3 04       		.uleb128 0x4
 1241 05c4 5B000000 		.4byte	.LASF88
 1242 05c8 07       		.byte	0x7
 1243 05c9 65       		.byte	0x65
 1244 05ca 20030000 		.4byte	0x320
 1245 05ce 04       		.uleb128 0x4
 1246 05cf 61050000 		.4byte	.LASF89
 1247 05d3 07       		.byte	0x7
 1248 05d4 6D       		.byte	0x6d
 1249 05d5 94000000 		.4byte	0x94
 1250 05d9 05       		.uleb128 0x5
 1251 05da A9020000 		.4byte	.LASF90
 1252 05de 04       		.byte	0x4
ARM GAS  /tmp/ccxdIvyR.s 			page 23


 1253 05df 07       		.byte	0x7
 1254 05e0 89       		.byte	0x89
 1255 05e1 F4050000 		.4byte	0x5f4
 1256 05e5 12       		.uleb128 0x12
 1257 05e6 72313300 		.ascii	"r13\000"
 1258 05ea 07       		.byte	0x7
 1259 05eb 8A       		.byte	0x8a
 1260 05ec 81060000 		.4byte	0x681
 1261 05f0 02       		.byte	0x2
 1262 05f1 23       		.byte	0x23
 1263 05f2 00       		.uleb128 0
 1264 05f3 00       		.byte	0
 1265 05f4 05       		.uleb128 0x5
 1266 05f5 B7030000 		.4byte	.LASF91
 1267 05f9 24       		.byte	0x24
 1268 05fa 08       		.byte	0x8
 1269 05fb FD       		.byte	0xfd
 1270 05fc 81060000 		.4byte	0x681
 1271 0600 07       		.uleb128 0x7
 1272 0601 723400   		.ascii	"r4\000"
 1273 0604 08       		.byte	0x8
 1274 0605 1001     		.2byte	0x110
 1275 0607 C3050000 		.4byte	0x5c3
 1276 060b 02       		.byte	0x2
 1277 060c 23       		.byte	0x23
 1278 060d 00       		.uleb128 0
 1279 060e 07       		.uleb128 0x7
 1280 060f 723500   		.ascii	"r5\000"
 1281 0612 08       		.byte	0x8
 1282 0613 1101     		.2byte	0x111
 1283 0615 C3050000 		.4byte	0x5c3
 1284 0619 02       		.byte	0x2
 1285 061a 23       		.byte	0x23
 1286 061b 04       		.uleb128 0x4
 1287 061c 07       		.uleb128 0x7
 1288 061d 723600   		.ascii	"r6\000"
 1289 0620 08       		.byte	0x8
 1290 0621 1201     		.2byte	0x112
 1291 0623 C3050000 		.4byte	0x5c3
 1292 0627 02       		.byte	0x2
 1293 0628 23       		.byte	0x23
 1294 0629 08       		.uleb128 0x8
 1295 062a 07       		.uleb128 0x7
 1296 062b 723700   		.ascii	"r7\000"
 1297 062e 08       		.byte	0x8
 1298 062f 1301     		.2byte	0x113
 1299 0631 C3050000 		.4byte	0x5c3
 1300 0635 02       		.byte	0x2
 1301 0636 23       		.byte	0x23
 1302 0637 0C       		.uleb128 0xc
 1303 0638 07       		.uleb128 0x7
 1304 0639 723800   		.ascii	"r8\000"
 1305 063c 08       		.byte	0x8
 1306 063d 1401     		.2byte	0x114
 1307 063f C3050000 		.4byte	0x5c3
 1308 0643 02       		.byte	0x2
 1309 0644 23       		.byte	0x23
ARM GAS  /tmp/ccxdIvyR.s 			page 24


 1310 0645 10       		.uleb128 0x10
 1311 0646 07       		.uleb128 0x7
 1312 0647 723900   		.ascii	"r9\000"
 1313 064a 08       		.byte	0x8
 1314 064b 1501     		.2byte	0x115
 1315 064d C3050000 		.4byte	0x5c3
 1316 0651 02       		.byte	0x2
 1317 0652 23       		.byte	0x23
 1318 0653 14       		.uleb128 0x14
 1319 0654 07       		.uleb128 0x7
 1320 0655 72313000 		.ascii	"r10\000"
 1321 0659 08       		.byte	0x8
 1322 065a 1601     		.2byte	0x116
 1323 065c C3050000 		.4byte	0x5c3
 1324 0660 02       		.byte	0x2
 1325 0661 23       		.byte	0x23
 1326 0662 18       		.uleb128 0x18
 1327 0663 07       		.uleb128 0x7
 1328 0664 72313100 		.ascii	"r11\000"
 1329 0668 08       		.byte	0x8
 1330 0669 1701     		.2byte	0x117
 1331 066b C3050000 		.4byte	0x5c3
 1332 066f 02       		.byte	0x2
 1333 0670 23       		.byte	0x23
 1334 0671 1C       		.uleb128 0x1c
 1335 0672 07       		.uleb128 0x7
 1336 0673 6C7200   		.ascii	"lr\000"
 1337 0676 08       		.byte	0x8
 1338 0677 1801     		.2byte	0x118
 1339 0679 C3050000 		.4byte	0x5c3
 1340 067d 02       		.byte	0x2
 1341 067e 23       		.byte	0x23
 1342 067f 20       		.uleb128 0x20
 1343 0680 00       		.byte	0
 1344 0681 09       		.uleb128 0x9
 1345 0682 04       		.byte	0x4
 1346 0683 F4050000 		.4byte	0x5f4
 1347 0687 13       		.uleb128 0x13
 1348 0688 04       		.byte	0x4
 1349 0689 09       		.byte	0x9
 1350 068a 38       		.byte	0x38
 1351 068b 9E060000 		.4byte	0x69e
 1352 068f 06       		.uleb128 0x6
 1353 0690 D7010000 		.4byte	.LASF92
 1354 0694 09       		.byte	0x9
 1355 0695 3C       		.byte	0x3c
 1356 0696 A6000000 		.4byte	0xa6
 1357 069a 02       		.byte	0x2
 1358 069b 23       		.byte	0x23
 1359 069c 00       		.uleb128 0
 1360 069d 00       		.byte	0
 1361 069e 04       		.uleb128 0x4
 1362 069f 39000000 		.4byte	.LASF93
 1363 06a3 09       		.byte	0x9
 1364 06a4 3D       		.byte	0x3d
 1365 06a5 87060000 		.4byte	0x687
 1366 06a9 14       		.uleb128 0x14
ARM GAS  /tmp/ccxdIvyR.s 			page 25


 1367 06aa 04       		.byte	0x4
 1368 06ab 05       		.byte	0x5
 1369 06ac FA       		.byte	0xfa
 1370 06ad 06070000 		.4byte	0x706
 1371 06b1 15       		.uleb128 0x15
 1372 06b2 D0010000 		.4byte	.LASF94
 1373 06b6 05       		.byte	0x5
 1374 06b7 0101     		.2byte	0x101
 1375 06b9 DD000000 		.4byte	0xdd
 1376 06bd 15       		.uleb128 0x15
 1377 06be 86050000 		.4byte	.LASF95
 1378 06c2 05       		.byte	0x5
 1379 06c3 0801     		.2byte	0x108
 1380 06c5 DD000000 		.4byte	0xdd
 1381 06c9 15       		.uleb128 0x15
 1382 06ca BA000000 		.4byte	.LASF96
 1383 06ce 05       		.byte	0x5
 1384 06cf 0F01     		.2byte	0x10f
 1385 06d1 20030000 		.4byte	0x320
 1386 06d5 15       		.uleb128 0x15
 1387 06d6 2F050000 		.4byte	.LASF97
 1388 06da 05       		.byte	0x5
 1389 06db 1601     		.2byte	0x116
 1390 06dd 06070000 		.4byte	0x706
 1391 06e1 15       		.uleb128 0x15
 1392 06e2 6D040000 		.4byte	.LASF98
 1393 06e6 05       		.byte	0x5
 1394 06e7 1E01     		.2byte	0x11e
 1395 06e9 35070000 		.4byte	0x735
 1396 06ed 15       		.uleb128 0x15
 1397 06ee 32000000 		.4byte	.LASF99
 1398 06f2 05       		.byte	0x5
 1399 06f3 2701     		.2byte	0x127
 1400 06f5 72070000 		.4byte	0x772
 1401 06f9 15       		.uleb128 0x15
 1402 06fa E5000000 		.4byte	.LASF100
 1403 06fe 05       		.byte	0x5
 1404 06ff 2F01     		.2byte	0x12f
 1405 0701 E8000000 		.4byte	0xe8
 1406 0705 00       		.byte	0
 1407 0706 09       		.uleb128 0x9
 1408 0707 04       		.byte	0x4
 1409 0708 25020000 		.4byte	0x225
 1410 070c 05       		.uleb128 0x5
 1411 070d 44010000 		.4byte	.LASF101
 1412 0711 0C       		.byte	0xc
 1413 0712 0A       		.byte	0xa
 1414 0713 34       		.byte	0x34
 1415 0714 35070000 		.4byte	0x735
 1416 0718 06       		.uleb128 0x6
 1417 0719 86000000 		.4byte	.LASF102
 1418 071d 0A       		.byte	0xa
 1419 071e 35       		.byte	0x35
 1420 071f 5C020000 		.4byte	0x25c
 1421 0723 02       		.byte	0x2
 1422 0724 23       		.byte	0x23
 1423 0725 00       		.uleb128 0
ARM GAS  /tmp/ccxdIvyR.s 			page 26


 1424 0726 06       		.uleb128 0x6
 1425 0727 0B010000 		.4byte	.LASF103
 1426 072b 0A       		.byte	0xa
 1427 072c 37       		.byte	0x37
 1428 072d F3000000 		.4byte	0xf3
 1429 0731 02       		.byte	0x2
 1430 0732 23       		.byte	0x23
 1431 0733 08       		.uleb128 0x8
 1432 0734 00       		.byte	0
 1433 0735 09       		.uleb128 0x9
 1434 0736 04       		.byte	0x4
 1435 0737 0C070000 		.4byte	0x70c
 1436 073b 05       		.uleb128 0x5
 1437 073c F1010000 		.4byte	.LASF104
 1438 0740 10       		.byte	0x10
 1439 0741 0B       		.byte	0xb
 1440 0742 39       		.byte	0x39
 1441 0743 72070000 		.4byte	0x772
 1442 0747 06       		.uleb128 0x6
 1443 0748 A6030000 		.4byte	.LASF105
 1444 074c 0B       		.byte	0xb
 1445 074d 3A       		.byte	0x3a
 1446 074e 5C020000 		.4byte	0x25c
 1447 0752 02       		.byte	0x2
 1448 0753 23       		.byte	0x23
 1449 0754 00       		.uleb128 0
 1450 0755 06       		.uleb128 0x6
 1451 0756 7E000000 		.4byte	.LASF106
 1452 075a 0B       		.byte	0xb
 1453 075b 3C       		.byte	0x3c
 1454 075c 30020000 		.4byte	0x230
 1455 0760 02       		.byte	0x2
 1456 0761 23       		.byte	0x23
 1457 0762 08       		.uleb128 0x8
 1458 0763 06       		.uleb128 0x6
 1459 0764 35050000 		.4byte	.LASF107
 1460 0768 0B       		.byte	0xb
 1461 0769 3E       		.byte	0x3e
 1462 076a B0070000 		.4byte	0x7b0
 1463 076e 02       		.byte	0x2
 1464 076f 23       		.byte	0x23
 1465 0770 0C       		.uleb128 0xc
 1466 0771 00       		.byte	0
 1467 0772 09       		.uleb128 0x9
 1468 0773 04       		.byte	0x4
 1469 0774 3B070000 		.4byte	0x73b
 1470 0778 09       		.uleb128 0x9
 1471 0779 04       		.byte	0x4
 1472 077a 7E070000 		.4byte	0x77e
 1473 077e 16       		.uleb128 0x16
 1474 077f 83070000 		.4byte	0x783
 1475 0783 03       		.uleb128 0x3
 1476 0784 01       		.byte	0x1
 1477 0785 08       		.byte	0x8
 1478 0786 56000000 		.4byte	.LASF108
 1479 078a 09       		.uleb128 0x9
 1480 078b 04       		.byte	0x4
ARM GAS  /tmp/ccxdIvyR.s 			page 27


 1481 078c 22030000 		.4byte	0x322
 1482 0790 0F       		.uleb128 0xf
 1483 0791 78070000 		.4byte	0x778
 1484 0795 17       		.uleb128 0x17
 1485 0796 CE050000 		.4byte	0x5ce
 1486 079a A5070000 		.4byte	0x7a5
 1487 079e 18       		.uleb128 0x18
 1488 079f 30000000 		.4byte	0x30
 1489 07a3 1A       		.byte	0x1a
 1490 07a4 00       		.byte	0
 1491 07a5 04       		.uleb128 0x4
 1492 07a6 80040000 		.4byte	.LASF109
 1493 07aa 0B       		.byte	0xb
 1494 07ab 34       		.byte	0x34
 1495 07ac 3B070000 		.4byte	0x73b
 1496 07b0 09       		.uleb128 0x9
 1497 07b1 04       		.byte	0x4
 1498 07b2 A5070000 		.4byte	0x7a5
 1499 07b6 03       		.uleb128 0x3
 1500 07b7 01       		.byte	0x1
 1501 07b8 02       		.byte	0x2
 1502 07b9 3E030000 		.4byte	.LASF110
 1503 07bd 13       		.uleb128 0x13
 1504 07be 0C       		.byte	0xc
 1505 07bf 0C       		.byte	0xc
 1506 07c0 68       		.byte	0x68
 1507 07c1 F0070000 		.4byte	0x7f0
 1508 07c5 12       		.uleb128 0x12
 1509 07c6 6F647200 		.ascii	"odr\000"
 1510 07ca 0C       		.byte	0xc
 1511 07cb 6A       		.byte	0x6a
 1512 07cc 7B000000 		.4byte	0x7b
 1513 07d0 02       		.byte	0x2
 1514 07d1 23       		.byte	0x23
 1515 07d2 00       		.uleb128 0
 1516 07d3 12       		.uleb128 0x12
 1517 07d4 63726C00 		.ascii	"crl\000"
 1518 07d8 0C       		.byte	0xc
 1519 07d9 6C       		.byte	0x6c
 1520 07da 7B000000 		.4byte	0x7b
 1521 07de 02       		.byte	0x2
 1522 07df 23       		.byte	0x23
 1523 07e0 04       		.uleb128 0x4
 1524 07e1 12       		.uleb128 0x12
 1525 07e2 63726800 		.ascii	"crh\000"
 1526 07e6 0C       		.byte	0xc
 1527 07e7 6E       		.byte	0x6e
 1528 07e8 7B000000 		.4byte	0x7b
 1529 07ec 02       		.byte	0x2
 1530 07ed 23       		.byte	0x23
 1531 07ee 08       		.uleb128 0x8
 1532 07ef 00       		.byte	0
 1533 07f0 04       		.uleb128 0x4
 1534 07f1 87010000 		.4byte	.LASF111
 1535 07f5 0C       		.byte	0xc
 1536 07f6 6F       		.byte	0x6f
 1537 07f7 BD070000 		.4byte	0x7bd
ARM GAS  /tmp/ccxdIvyR.s 			page 28


 1538 07fb 13       		.uleb128 0x13
 1539 07fc 3C       		.byte	0x3c
 1540 07fd 0C       		.byte	0xc
 1541 07fe 78       		.byte	0x78
 1542 07ff 4A080000 		.4byte	0x84a
 1543 0803 06       		.uleb128 0x6
 1544 0804 D0030000 		.4byte	.LASF112
 1545 0808 0C       		.byte	0xc
 1546 0809 7A       		.byte	0x7a
 1547 080a F0070000 		.4byte	0x7f0
 1548 080e 02       		.byte	0x2
 1549 080f 23       		.byte	0x23
 1550 0810 00       		.uleb128 0
 1551 0811 06       		.uleb128 0x6
 1552 0812 EA010000 		.4byte	.LASF113
 1553 0816 0C       		.byte	0xc
 1554 0817 7C       		.byte	0x7c
 1555 0818 F0070000 		.4byte	0x7f0
 1556 081c 02       		.byte	0x2
 1557 081d 23       		.byte	0x23
 1558 081e 0C       		.uleb128 0xc
 1559 081f 06       		.uleb128 0x6
 1560 0820 4A000000 		.4byte	.LASF114
 1561 0824 0C       		.byte	0xc
 1562 0825 7E       		.byte	0x7e
 1563 0826 F0070000 		.4byte	0x7f0
 1564 082a 02       		.byte	0x2
 1565 082b 23       		.byte	0x23
 1566 082c 18       		.uleb128 0x18
 1567 082d 06       		.uleb128 0x6
 1568 082e 6E030000 		.4byte	.LASF115
 1569 0832 0C       		.byte	0xc
 1570 0833 80       		.byte	0x80
 1571 0834 F0070000 		.4byte	0x7f0
 1572 0838 02       		.byte	0x2
 1573 0839 23       		.byte	0x23
 1574 083a 24       		.uleb128 0x24
 1575 083b 06       		.uleb128 0x6
 1576 083c C9010000 		.4byte	.LASF116
 1577 0840 0C       		.byte	0xc
 1578 0841 83       		.byte	0x83
 1579 0842 F0070000 		.4byte	0x7f0
 1580 0846 02       		.byte	0x2
 1581 0847 23       		.byte	0x23
 1582 0848 30       		.uleb128 0x30
 1583 0849 00       		.byte	0
 1584 084a 04       		.uleb128 0x4
 1585 084b 28040000 		.4byte	.LASF117
 1586 084f 0C       		.byte	0xc
 1587 0850 8D       		.byte	0x8d
 1588 0851 FB070000 		.4byte	0x7fb
 1589 0855 04       		.uleb128 0x4
 1590 0856 C9020000 		.4byte	.LASF118
 1591 085a 0C       		.byte	0xc
 1592 085b 92       		.byte	0x92
 1593 085c 7B000000 		.4byte	0x7b
 1594 0860 04       		.uleb128 0x4
ARM GAS  /tmp/ccxdIvyR.s 			page 29


 1595 0861 D6020000 		.4byte	.LASF119
 1596 0865 0C       		.byte	0xc
 1597 0866 97       		.byte	0x97
 1598 0867 7B000000 		.4byte	0x7b
 1599 086b 04       		.uleb128 0x4
 1600 086c 10040000 		.4byte	.LASF120
 1601 0870 0C       		.byte	0xc
 1602 0871 A4       		.byte	0xa4
 1603 0872 76080000 		.4byte	0x876
 1604 0876 09       		.uleb128 0x9
 1605 0877 04       		.byte	0x4
 1606 0878 EE040000 		.4byte	0x4ee
 1607 087c 19       		.uleb128 0x19
 1608 087d 01       		.byte	0x1
 1609 087e 02040000 		.4byte	.LASF121
 1610 0882 01       		.byte	0x1
 1611 0883 4C       		.byte	0x4c
 1612 0884 01       		.byte	0x1
 1613 0885 00000000 		.4byte	.LFB213
 1614 0889 86000000 		.4byte	.LFE213
 1615 088d 00000000 		.4byte	.LLST0
 1616 0891 A3080000 		.4byte	0x8a3
 1617 0895 1A       		.uleb128 0x1a
 1618 0896 75030000 		.4byte	.LASF123
 1619 089a 01       		.byte	0x1
 1620 089b 4C       		.byte	0x4c
 1621 089c A3080000 		.4byte	0x8a3
 1622 08a0 01       		.byte	0x1
 1623 08a1 50       		.byte	0x50
 1624 08a2 00       		.byte	0
 1625 08a3 09       		.uleb128 0x9
 1626 08a4 04       		.byte	0x4
 1627 08a5 A9080000 		.4byte	0x8a9
 1628 08a9 16       		.uleb128 0x16
 1629 08aa 4A080000 		.4byte	0x84a
 1630 08ae 19       		.uleb128 0x19
 1631 08af 01       		.byte	0x1
 1632 08b0 0D050000 		.4byte	.LASF122
 1633 08b4 01       		.byte	0x1
 1634 08b5 82       		.byte	0x82
 1635 08b6 01       		.byte	0x1
 1636 08b7 00000000 		.4byte	.LFB214
 1637 08bb 50010000 		.4byte	.LFE214
 1638 08bf 20000000 		.4byte	.LLST1
 1639 08c3 58090000 		.4byte	0x958
 1640 08c7 1A       		.uleb128 0x1a
 1641 08c8 68040000 		.4byte	.LASF124
 1642 08cc 01       		.byte	0x1
 1643 08cd 82       		.byte	0x82
 1644 08ce 6B080000 		.4byte	0x86b
 1645 08d2 01       		.byte	0x1
 1646 08d3 50       		.byte	0x50
 1647 08d4 1B       		.uleb128 0x1b
 1648 08d5 21030000 		.4byte	.LASF125
 1649 08d9 01       		.byte	0x1
 1650 08da 83       		.byte	0x83
 1651 08db 55080000 		.4byte	0x855
ARM GAS  /tmp/ccxdIvyR.s 			page 30


 1652 08df 40000000 		.4byte	.LLST2
 1653 08e3 1B       		.uleb128 0x1b
 1654 08e4 EC000000 		.4byte	.LASF126
 1655 08e8 01       		.byte	0x1
 1656 08e9 84       		.byte	0x84
 1657 08ea 60080000 		.4byte	0x860
 1658 08ee 74000000 		.4byte	.LLST3
 1659 08f2 1C       		.uleb128 0x1c
 1660 08f3 9A010000 		.4byte	.LASF127
 1661 08f7 01       		.byte	0x1
 1662 08f8 85       		.byte	0x85
 1663 08f9 68090000 		.4byte	0x968
 1664 08fd 05       		.byte	0x5
 1665 08fe 03       		.byte	0x3
 1666 08ff 00000000 		.4byte	cfgtab.6255
 1667 0903 1D       		.uleb128 0x1d
 1668 0904 6D6800   		.ascii	"mh\000"
 1669 0907 01       		.byte	0x1
 1670 0908 99       		.byte	0x99
 1671 0909 7B000000 		.4byte	0x7b
 1672 090d 87000000 		.4byte	.LLST4
 1673 0911 1D       		.uleb128 0x1d
 1674 0912 6D6C00   		.ascii	"ml\000"
 1675 0915 01       		.byte	0x1
 1676 0916 99       		.byte	0x99
 1677 0917 7B000000 		.4byte	0x7b
 1678 091b DD000000 		.4byte	.LLST5
 1679 091f 1D       		.uleb128 0x1d
 1680 0920 63726800 		.ascii	"crh\000"
 1681 0924 01       		.byte	0x1
 1682 0925 99       		.byte	0x99
 1683 0926 7B000000 		.4byte	0x7b
 1684 092a 42010000 		.4byte	.LLST6
 1685 092e 1D       		.uleb128 0x1d
 1686 092f 63726C00 		.ascii	"crl\000"
 1687 0933 01       		.byte	0x1
 1688 0934 99       		.byte	0x99
 1689 0935 7B000000 		.4byte	0x7b
 1690 0939 8D010000 		.4byte	.LLST7
 1691 093d 1E       		.uleb128 0x1e
 1692 093e 63666700 		.ascii	"cfg\000"
 1693 0942 01       		.byte	0x1
 1694 0943 99       		.byte	0x99
 1695 0944 7B000000 		.4byte	0x7b
 1696 0948 01       		.byte	0x1
 1697 0949 5C       		.byte	0x5c
 1698 094a 1D       		.uleb128 0x1d
 1699 094b 6900     		.ascii	"i\000"
 1700 094d 01       		.byte	0x1
 1701 094e 9A       		.byte	0x9a
 1702 094f 30000000 		.4byte	0x30
 1703 0953 D8010000 		.4byte	.LLST8
 1704 0957 00       		.byte	0
 1705 0958 17       		.uleb128 0x17
 1706 0959 3E000000 		.4byte	0x3e
 1707 095d 68090000 		.4byte	0x968
 1708 0961 18       		.uleb128 0x18
ARM GAS  /tmp/ccxdIvyR.s 			page 31


 1709 0962 30000000 		.4byte	0x30
 1710 0966 11       		.byte	0x11
 1711 0967 00       		.byte	0
 1712 0968 16       		.uleb128 0x16
 1713 0969 58090000 		.4byte	0x958
 1714 096d 1F       		.uleb128 0x1f
 1715 096e C3030000 		.4byte	.LASF128
 1716 0972 0D       		.byte	0xd
 1717 0973 5506     		.2byte	0x655
 1718 0975 7B090000 		.4byte	0x97b
 1719 0979 01       		.byte	0x1
 1720 097a 01       		.byte	0x1
 1721 097b 0F       		.uleb128 0xf
 1722 097c 69000000 		.4byte	0x69
 1723 0980 20       		.uleb128 0x20
 1724 0981 636800   		.ascii	"ch\000"
 1725 0984 05       		.byte	0x5
 1726 0985 0902     		.2byte	0x209
 1727 0987 03040000 		.4byte	0x403
 1728 098b 01       		.byte	0x1
 1729 098c 01       		.byte	0x1
 1730 098d 1F       		.uleb128 0x1f
 1731 098e C3030000 		.4byte	.LASF128
 1732 0992 0D       		.byte	0xd
 1733 0993 5506     		.2byte	0x655
 1734 0995 7B090000 		.4byte	0x97b
 1735 0999 01       		.byte	0x1
 1736 099a 01       		.byte	0x1
 1737 099b 20       		.uleb128 0x20
 1738 099c 636800   		.ascii	"ch\000"
 1739 099f 05       		.byte	0x5
 1740 09a0 0902     		.2byte	0x209
 1741 09a2 03040000 		.4byte	0x403
 1742 09a6 01       		.byte	0x1
 1743 09a7 01       		.byte	0x1
 1744 09a8 00       		.byte	0
 1745              		.section	.debug_abbrev,"",%progbits
 1746              	.Ldebug_abbrev0:
 1747 0000 01       		.uleb128 0x1
 1748 0001 11       		.uleb128 0x11
 1749 0002 01       		.byte	0x1
 1750 0003 25       		.uleb128 0x25
 1751 0004 0E       		.uleb128 0xe
 1752 0005 13       		.uleb128 0x13
 1753 0006 0B       		.uleb128 0xb
 1754 0007 03       		.uleb128 0x3
 1755 0008 0E       		.uleb128 0xe
 1756 0009 1B       		.uleb128 0x1b
 1757 000a 0E       		.uleb128 0xe
 1758 000b 11       		.uleb128 0x11
 1759 000c 01       		.uleb128 0x1
 1760 000d 52       		.uleb128 0x52
 1761 000e 01       		.uleb128 0x1
 1762 000f 55       		.uleb128 0x55
 1763 0010 06       		.uleb128 0x6
 1764 0011 10       		.uleb128 0x10
 1765 0012 06       		.uleb128 0x6
ARM GAS  /tmp/ccxdIvyR.s 			page 32


 1766 0013 00       		.byte	0
 1767 0014 00       		.byte	0
 1768 0015 02       		.uleb128 0x2
 1769 0016 24       		.uleb128 0x24
 1770 0017 00       		.byte	0
 1771 0018 0B       		.uleb128 0xb
 1772 0019 0B       		.uleb128 0xb
 1773 001a 3E       		.uleb128 0x3e
 1774 001b 0B       		.uleb128 0xb
 1775 001c 03       		.uleb128 0x3
 1776 001d 08       		.uleb128 0x8
 1777 001e 00       		.byte	0
 1778 001f 00       		.byte	0
 1779 0020 03       		.uleb128 0x3
 1780 0021 24       		.uleb128 0x24
 1781 0022 00       		.byte	0
 1782 0023 0B       		.uleb128 0xb
 1783 0024 0B       		.uleb128 0xb
 1784 0025 3E       		.uleb128 0x3e
 1785 0026 0B       		.uleb128 0xb
 1786 0027 03       		.uleb128 0x3
 1787 0028 0E       		.uleb128 0xe
 1788 0029 00       		.byte	0
 1789 002a 00       		.byte	0
 1790 002b 04       		.uleb128 0x4
 1791 002c 16       		.uleb128 0x16
 1792 002d 00       		.byte	0
 1793 002e 03       		.uleb128 0x3
 1794 002f 0E       		.uleb128 0xe
 1795 0030 3A       		.uleb128 0x3a
 1796 0031 0B       		.uleb128 0xb
 1797 0032 3B       		.uleb128 0x3b
 1798 0033 0B       		.uleb128 0xb
 1799 0034 49       		.uleb128 0x49
 1800 0035 13       		.uleb128 0x13
 1801 0036 00       		.byte	0
 1802 0037 00       		.byte	0
 1803 0038 05       		.uleb128 0x5
 1804 0039 13       		.uleb128 0x13
 1805 003a 01       		.byte	0x1
 1806 003b 03       		.uleb128 0x3
 1807 003c 0E       		.uleb128 0xe
 1808 003d 0B       		.uleb128 0xb
 1809 003e 0B       		.uleb128 0xb
 1810 003f 3A       		.uleb128 0x3a
 1811 0040 0B       		.uleb128 0xb
 1812 0041 3B       		.uleb128 0x3b
 1813 0042 0B       		.uleb128 0xb
 1814 0043 01       		.uleb128 0x1
 1815 0044 13       		.uleb128 0x13
 1816 0045 00       		.byte	0
 1817 0046 00       		.byte	0
 1818 0047 06       		.uleb128 0x6
 1819 0048 0D       		.uleb128 0xd
 1820 0049 00       		.byte	0
 1821 004a 03       		.uleb128 0x3
 1822 004b 0E       		.uleb128 0xe
ARM GAS  /tmp/ccxdIvyR.s 			page 33


 1823 004c 3A       		.uleb128 0x3a
 1824 004d 0B       		.uleb128 0xb
 1825 004e 3B       		.uleb128 0x3b
 1826 004f 0B       		.uleb128 0xb
 1827 0050 49       		.uleb128 0x49
 1828 0051 13       		.uleb128 0x13
 1829 0052 38       		.uleb128 0x38
 1830 0053 0A       		.uleb128 0xa
 1831 0054 00       		.byte	0
 1832 0055 00       		.byte	0
 1833 0056 07       		.uleb128 0x7
 1834 0057 0D       		.uleb128 0xd
 1835 0058 00       		.byte	0
 1836 0059 03       		.uleb128 0x3
 1837 005a 08       		.uleb128 0x8
 1838 005b 3A       		.uleb128 0x3a
 1839 005c 0B       		.uleb128 0xb
 1840 005d 3B       		.uleb128 0x3b
 1841 005e 05       		.uleb128 0x5
 1842 005f 49       		.uleb128 0x49
 1843 0060 13       		.uleb128 0x13
 1844 0061 38       		.uleb128 0x38
 1845 0062 0A       		.uleb128 0xa
 1846 0063 00       		.byte	0
 1847 0064 00       		.byte	0
 1848 0065 08       		.uleb128 0x8
 1849 0066 0D       		.uleb128 0xd
 1850 0067 00       		.byte	0
 1851 0068 03       		.uleb128 0x3
 1852 0069 0E       		.uleb128 0xe
 1853 006a 3A       		.uleb128 0x3a
 1854 006b 0B       		.uleb128 0xb
 1855 006c 3B       		.uleb128 0x3b
 1856 006d 05       		.uleb128 0x5
 1857 006e 49       		.uleb128 0x49
 1858 006f 13       		.uleb128 0x13
 1859 0070 38       		.uleb128 0x38
 1860 0071 0A       		.uleb128 0xa
 1861 0072 00       		.byte	0
 1862 0073 00       		.byte	0
 1863 0074 09       		.uleb128 0x9
 1864 0075 0F       		.uleb128 0xf
 1865 0076 00       		.byte	0
 1866 0077 0B       		.uleb128 0xb
 1867 0078 0B       		.uleb128 0xb
 1868 0079 49       		.uleb128 0x49
 1869 007a 13       		.uleb128 0x13
 1870 007b 00       		.byte	0
 1871 007c 00       		.byte	0
 1872 007d 0A       		.uleb128 0xa
 1873 007e 13       		.uleb128 0x13
 1874 007f 01       		.byte	0x1
 1875 0080 03       		.uleb128 0x3
 1876 0081 0E       		.uleb128 0xe
 1877 0082 0B       		.uleb128 0xb
 1878 0083 0B       		.uleb128 0xb
 1879 0084 3A       		.uleb128 0x3a
ARM GAS  /tmp/ccxdIvyR.s 			page 34


 1880 0085 0B       		.uleb128 0xb
 1881 0086 3B       		.uleb128 0x3b
 1882 0087 05       		.uleb128 0x5
 1883 0088 01       		.uleb128 0x1
 1884 0089 13       		.uleb128 0x13
 1885 008a 00       		.byte	0
 1886 008b 00       		.byte	0
 1887 008c 0B       		.uleb128 0xb
 1888 008d 15       		.uleb128 0x15
 1889 008e 01       		.byte	0x1
 1890 008f 27       		.uleb128 0x27
 1891 0090 0C       		.uleb128 0xc
 1892 0091 01       		.uleb128 0x1
 1893 0092 13       		.uleb128 0x13
 1894 0093 00       		.byte	0
 1895 0094 00       		.byte	0
 1896 0095 0C       		.uleb128 0xc
 1897 0096 05       		.uleb128 0x5
 1898 0097 00       		.byte	0
 1899 0098 49       		.uleb128 0x49
 1900 0099 13       		.uleb128 0x13
 1901 009a 00       		.byte	0
 1902 009b 00       		.byte	0
 1903 009c 0D       		.uleb128 0xd
 1904 009d 0F       		.uleb128 0xf
 1905 009e 00       		.byte	0
 1906 009f 0B       		.uleb128 0xb
 1907 00a0 0B       		.uleb128 0xb
 1908 00a1 00       		.byte	0
 1909 00a2 00       		.byte	0
 1910 00a3 0E       		.uleb128 0xe
 1911 00a4 13       		.uleb128 0x13
 1912 00a5 01       		.byte	0x1
 1913 00a6 03       		.uleb128 0x3
 1914 00a7 0E       		.uleb128 0xe
 1915 00a8 0B       		.uleb128 0xb
 1916 00a9 05       		.uleb128 0x5
 1917 00aa 3A       		.uleb128 0x3a
 1918 00ab 0B       		.uleb128 0xb
 1919 00ac 3B       		.uleb128 0x3b
 1920 00ad 05       		.uleb128 0x5
 1921 00ae 01       		.uleb128 0x1
 1922 00af 13       		.uleb128 0x13
 1923 00b0 00       		.byte	0
 1924 00b1 00       		.byte	0
 1925 00b2 0F       		.uleb128 0xf
 1926 00b3 35       		.uleb128 0x35
 1927 00b4 00       		.byte	0
 1928 00b5 49       		.uleb128 0x49
 1929 00b6 13       		.uleb128 0x13
 1930 00b7 00       		.byte	0
 1931 00b8 00       		.byte	0
 1932 00b9 10       		.uleb128 0x10
 1933 00ba 13       		.uleb128 0x13
 1934 00bb 01       		.byte	0x1
 1935 00bc 0B       		.uleb128 0xb
 1936 00bd 0B       		.uleb128 0xb
ARM GAS  /tmp/ccxdIvyR.s 			page 35


 1937 00be 3A       		.uleb128 0x3a
 1938 00bf 0B       		.uleb128 0xb
 1939 00c0 3B       		.uleb128 0x3b
 1940 00c1 05       		.uleb128 0x5
 1941 00c2 01       		.uleb128 0x1
 1942 00c3 13       		.uleb128 0x13
 1943 00c4 00       		.byte	0
 1944 00c5 00       		.byte	0
 1945 00c6 11       		.uleb128 0x11
 1946 00c7 16       		.uleb128 0x16
 1947 00c8 00       		.byte	0
 1948 00c9 03       		.uleb128 0x3
 1949 00ca 0E       		.uleb128 0xe
 1950 00cb 3A       		.uleb128 0x3a
 1951 00cc 0B       		.uleb128 0xb
 1952 00cd 3B       		.uleb128 0x3b
 1953 00ce 05       		.uleb128 0x5
 1954 00cf 49       		.uleb128 0x49
 1955 00d0 13       		.uleb128 0x13
 1956 00d1 00       		.byte	0
 1957 00d2 00       		.byte	0
 1958 00d3 12       		.uleb128 0x12
 1959 00d4 0D       		.uleb128 0xd
 1960 00d5 00       		.byte	0
 1961 00d6 03       		.uleb128 0x3
 1962 00d7 08       		.uleb128 0x8
 1963 00d8 3A       		.uleb128 0x3a
 1964 00d9 0B       		.uleb128 0xb
 1965 00da 3B       		.uleb128 0x3b
 1966 00db 0B       		.uleb128 0xb
 1967 00dc 49       		.uleb128 0x49
 1968 00dd 13       		.uleb128 0x13
 1969 00de 38       		.uleb128 0x38
 1970 00df 0A       		.uleb128 0xa
 1971 00e0 00       		.byte	0
 1972 00e1 00       		.byte	0
 1973 00e2 13       		.uleb128 0x13
 1974 00e3 13       		.uleb128 0x13
 1975 00e4 01       		.byte	0x1
 1976 00e5 0B       		.uleb128 0xb
 1977 00e6 0B       		.uleb128 0xb
 1978 00e7 3A       		.uleb128 0x3a
 1979 00e8 0B       		.uleb128 0xb
 1980 00e9 3B       		.uleb128 0x3b
 1981 00ea 0B       		.uleb128 0xb
 1982 00eb 01       		.uleb128 0x1
 1983 00ec 13       		.uleb128 0x13
 1984 00ed 00       		.byte	0
 1985 00ee 00       		.byte	0
 1986 00ef 14       		.uleb128 0x14
 1987 00f0 17       		.uleb128 0x17
 1988 00f1 01       		.byte	0x1
 1989 00f2 0B       		.uleb128 0xb
 1990 00f3 0B       		.uleb128 0xb
 1991 00f4 3A       		.uleb128 0x3a
 1992 00f5 0B       		.uleb128 0xb
 1993 00f6 3B       		.uleb128 0x3b
ARM GAS  /tmp/ccxdIvyR.s 			page 36


 1994 00f7 0B       		.uleb128 0xb
 1995 00f8 01       		.uleb128 0x1
 1996 00f9 13       		.uleb128 0x13
 1997 00fa 00       		.byte	0
 1998 00fb 00       		.byte	0
 1999 00fc 15       		.uleb128 0x15
 2000 00fd 0D       		.uleb128 0xd
 2001 00fe 00       		.byte	0
 2002 00ff 03       		.uleb128 0x3
 2003 0100 0E       		.uleb128 0xe
 2004 0101 3A       		.uleb128 0x3a
 2005 0102 0B       		.uleb128 0xb
 2006 0103 3B       		.uleb128 0x3b
 2007 0104 05       		.uleb128 0x5
 2008 0105 49       		.uleb128 0x49
 2009 0106 13       		.uleb128 0x13
 2010 0107 00       		.byte	0
 2011 0108 00       		.byte	0
 2012 0109 16       		.uleb128 0x16
 2013 010a 26       		.uleb128 0x26
 2014 010b 00       		.byte	0
 2015 010c 49       		.uleb128 0x49
 2016 010d 13       		.uleb128 0x13
 2017 010e 00       		.byte	0
 2018 010f 00       		.byte	0
 2019 0110 17       		.uleb128 0x17
 2020 0111 01       		.uleb128 0x1
 2021 0112 01       		.byte	0x1
 2022 0113 49       		.uleb128 0x49
 2023 0114 13       		.uleb128 0x13
 2024 0115 01       		.uleb128 0x1
 2025 0116 13       		.uleb128 0x13
 2026 0117 00       		.byte	0
 2027 0118 00       		.byte	0
 2028 0119 18       		.uleb128 0x18
 2029 011a 21       		.uleb128 0x21
 2030 011b 00       		.byte	0
 2031 011c 49       		.uleb128 0x49
 2032 011d 13       		.uleb128 0x13
 2033 011e 2F       		.uleb128 0x2f
 2034 011f 0B       		.uleb128 0xb
 2035 0120 00       		.byte	0
 2036 0121 00       		.byte	0
 2037 0122 19       		.uleb128 0x19
 2038 0123 2E       		.uleb128 0x2e
 2039 0124 01       		.byte	0x1
 2040 0125 3F       		.uleb128 0x3f
 2041 0126 0C       		.uleb128 0xc
 2042 0127 03       		.uleb128 0x3
 2043 0128 0E       		.uleb128 0xe
 2044 0129 3A       		.uleb128 0x3a
 2045 012a 0B       		.uleb128 0xb
 2046 012b 3B       		.uleb128 0x3b
 2047 012c 0B       		.uleb128 0xb
 2048 012d 27       		.uleb128 0x27
 2049 012e 0C       		.uleb128 0xc
 2050 012f 11       		.uleb128 0x11
ARM GAS  /tmp/ccxdIvyR.s 			page 37


 2051 0130 01       		.uleb128 0x1
 2052 0131 12       		.uleb128 0x12
 2053 0132 01       		.uleb128 0x1
 2054 0133 40       		.uleb128 0x40
 2055 0134 06       		.uleb128 0x6
 2056 0135 01       		.uleb128 0x1
 2057 0136 13       		.uleb128 0x13
 2058 0137 00       		.byte	0
 2059 0138 00       		.byte	0
 2060 0139 1A       		.uleb128 0x1a
 2061 013a 05       		.uleb128 0x5
 2062 013b 00       		.byte	0
 2063 013c 03       		.uleb128 0x3
 2064 013d 0E       		.uleb128 0xe
 2065 013e 3A       		.uleb128 0x3a
 2066 013f 0B       		.uleb128 0xb
 2067 0140 3B       		.uleb128 0x3b
 2068 0141 0B       		.uleb128 0xb
 2069 0142 49       		.uleb128 0x49
 2070 0143 13       		.uleb128 0x13
 2071 0144 02       		.uleb128 0x2
 2072 0145 0A       		.uleb128 0xa
 2073 0146 00       		.byte	0
 2074 0147 00       		.byte	0
 2075 0148 1B       		.uleb128 0x1b
 2076 0149 05       		.uleb128 0x5
 2077 014a 00       		.byte	0
 2078 014b 03       		.uleb128 0x3
 2079 014c 0E       		.uleb128 0xe
 2080 014d 3A       		.uleb128 0x3a
 2081 014e 0B       		.uleb128 0xb
 2082 014f 3B       		.uleb128 0x3b
 2083 0150 0B       		.uleb128 0xb
 2084 0151 49       		.uleb128 0x49
 2085 0152 13       		.uleb128 0x13
 2086 0153 02       		.uleb128 0x2
 2087 0154 06       		.uleb128 0x6
 2088 0155 00       		.byte	0
 2089 0156 00       		.byte	0
 2090 0157 1C       		.uleb128 0x1c
 2091 0158 34       		.uleb128 0x34
 2092 0159 00       		.byte	0
 2093 015a 03       		.uleb128 0x3
 2094 015b 0E       		.uleb128 0xe
 2095 015c 3A       		.uleb128 0x3a
 2096 015d 0B       		.uleb128 0xb
 2097 015e 3B       		.uleb128 0x3b
 2098 015f 0B       		.uleb128 0xb
 2099 0160 49       		.uleb128 0x49
 2100 0161 13       		.uleb128 0x13
 2101 0162 02       		.uleb128 0x2
 2102 0163 0A       		.uleb128 0xa
 2103 0164 00       		.byte	0
 2104 0165 00       		.byte	0
 2105 0166 1D       		.uleb128 0x1d
 2106 0167 34       		.uleb128 0x34
 2107 0168 00       		.byte	0
ARM GAS  /tmp/ccxdIvyR.s 			page 38


 2108 0169 03       		.uleb128 0x3
 2109 016a 08       		.uleb128 0x8
 2110 016b 3A       		.uleb128 0x3a
 2111 016c 0B       		.uleb128 0xb
 2112 016d 3B       		.uleb128 0x3b
 2113 016e 0B       		.uleb128 0xb
 2114 016f 49       		.uleb128 0x49
 2115 0170 13       		.uleb128 0x13
 2116 0171 02       		.uleb128 0x2
 2117 0172 06       		.uleb128 0x6
 2118 0173 00       		.byte	0
 2119 0174 00       		.byte	0
 2120 0175 1E       		.uleb128 0x1e
 2121 0176 34       		.uleb128 0x34
 2122 0177 00       		.byte	0
 2123 0178 03       		.uleb128 0x3
 2124 0179 08       		.uleb128 0x8
 2125 017a 3A       		.uleb128 0x3a
 2126 017b 0B       		.uleb128 0xb
 2127 017c 3B       		.uleb128 0x3b
 2128 017d 0B       		.uleb128 0xb
 2129 017e 49       		.uleb128 0x49
 2130 017f 13       		.uleb128 0x13
 2131 0180 02       		.uleb128 0x2
 2132 0181 0A       		.uleb128 0xa
 2133 0182 00       		.byte	0
 2134 0183 00       		.byte	0
 2135 0184 1F       		.uleb128 0x1f
 2136 0185 34       		.uleb128 0x34
 2137 0186 00       		.byte	0
 2138 0187 03       		.uleb128 0x3
 2139 0188 0E       		.uleb128 0xe
 2140 0189 3A       		.uleb128 0x3a
 2141 018a 0B       		.uleb128 0xb
 2142 018b 3B       		.uleb128 0x3b
 2143 018c 05       		.uleb128 0x5
 2144 018d 49       		.uleb128 0x49
 2145 018e 13       		.uleb128 0x13
 2146 018f 3F       		.uleb128 0x3f
 2147 0190 0C       		.uleb128 0xc
 2148 0191 3C       		.uleb128 0x3c
 2149 0192 0C       		.uleb128 0xc
 2150 0193 00       		.byte	0
 2151 0194 00       		.byte	0
 2152 0195 20       		.uleb128 0x20
 2153 0196 34       		.uleb128 0x34
 2154 0197 00       		.byte	0
 2155 0198 03       		.uleb128 0x3
 2156 0199 08       		.uleb128 0x8
 2157 019a 3A       		.uleb128 0x3a
 2158 019b 0B       		.uleb128 0xb
 2159 019c 3B       		.uleb128 0x3b
 2160 019d 05       		.uleb128 0x5
 2161 019e 49       		.uleb128 0x49
 2162 019f 13       		.uleb128 0x13
 2163 01a0 3F       		.uleb128 0x3f
 2164 01a1 0C       		.uleb128 0xc
ARM GAS  /tmp/ccxdIvyR.s 			page 39


 2165 01a2 3C       		.uleb128 0x3c
 2166 01a3 0C       		.uleb128 0xc
 2167 01a4 00       		.byte	0
 2168 01a5 00       		.byte	0
 2169 01a6 00       		.byte	0
 2170              		.section	.debug_loc,"",%progbits
 2171              	.Ldebug_loc0:
 2172              	.LLST0:
 2173 0000 00000000 		.4byte	.LFB213
 2174 0004 0A000000 		.4byte	.LCFI0
 2175 0008 0200     		.2byte	0x2
 2176 000a 7D       		.byte	0x7d
 2177 000b 00       		.sleb128 0
 2178 000c 0A000000 		.4byte	.LCFI0
 2179 0010 86000000 		.4byte	.LFE213
 2180 0014 0200     		.2byte	0x2
 2181 0016 7D       		.byte	0x7d
 2182 0017 04       		.sleb128 4
 2183 0018 00000000 		.4byte	0
 2184 001c 00000000 		.4byte	0
 2185              	.LLST1:
 2186 0020 00000000 		.4byte	.LFB214
 2187 0024 04000000 		.4byte	.LCFI1
 2188 0028 0200     		.2byte	0x2
 2189 002a 7D       		.byte	0x7d
 2190 002b 00       		.sleb128 0
 2191 002c 04000000 		.4byte	.LCFI1
 2192 0030 50010000 		.4byte	.LFE214
 2193 0034 0200     		.2byte	0x2
 2194 0036 7D       		.byte	0x7d
 2195 0037 10       		.sleb128 16
 2196 0038 00000000 		.4byte	0
 2197 003c 00000000 		.4byte	0
 2198              	.LLST2:
 2199 0040 00000000 		.4byte	.LVL1
 2200 0044 36000000 		.4byte	.LVL8
 2201 0048 0100     		.2byte	0x1
 2202 004a 51       		.byte	0x51
 2203 004b 36000000 		.4byte	.LVL8
 2204 004f 5C000000 		.4byte	.LVL16
 2205 0053 0100     		.2byte	0x1
 2206 0055 53       		.byte	0x53
 2207 0056 5C000000 		.4byte	.LVL16
 2208 005a 1A010000 		.4byte	.LVL58
 2209 005e 0100     		.2byte	0x1
 2210 0060 52       		.byte	0x52
 2211 0061 1A010000 		.4byte	.LVL58
 2212 0065 3E010000 		.4byte	.LVL66
 2213 0069 0100     		.2byte	0x1
 2214 006b 53       		.byte	0x53
 2215 006c 00000000 		.4byte	0
 2216 0070 00000000 		.4byte	0
 2217              	.LLST3:
 2218 0074 00000000 		.4byte	.LVL1
 2219 0078 2E000000 		.4byte	.LVL5
 2220 007c 0100     		.2byte	0x1
 2221 007e 52       		.byte	0x52
ARM GAS  /tmp/ccxdIvyR.s 			page 40


 2222 007f 00000000 		.4byte	0
 2223 0083 00000000 		.4byte	0
 2224              	.LLST4:
 2225 0087 1C000000 		.4byte	.LVL2
 2226 008b 34000000 		.4byte	.LVL7
 2227 008f 0200     		.2byte	0x2
 2228 0091 30       		.byte	0x30
 2229 0092 9F       		.byte	0x9f
 2230 0093 34000000 		.4byte	.LVL7
 2231 0097 3C000000 		.4byte	.LVL10
 2232 009b 0100     		.2byte	0x1
 2233 009d 55       		.byte	0x55
 2234 009e 3C000000 		.4byte	.LVL10
 2235 00a2 5E000000 		.4byte	.LVL17
 2236 00a6 0100     		.2byte	0x1
 2237 00a8 56       		.byte	0x56
 2238 00a9 60000000 		.4byte	.LVL18
 2239 00ad 7C000000 		.4byte	.LVL23
 2240 00b1 0100     		.2byte	0x1
 2241 00b3 56       		.byte	0x56
 2242 00b4 80000000 		.4byte	.LVL24
 2243 00b8 88000000 		.4byte	.LVL28
 2244 00bc 0100     		.2byte	0x1
 2245 00be 56       		.byte	0x56
 2246 00bf 88000000 		.4byte	.LVL28
 2247 00c3 AE000000 		.4byte	.LVL36
 2248 00c7 0100     		.2byte	0x1
 2249 00c9 53       		.byte	0x53
 2250 00ca B0000000 		.4byte	.LVL37
 2251 00ce 40010000 		.4byte	.LVL67
 2252 00d2 0100     		.2byte	0x1
 2253 00d4 56       		.byte	0x56
 2254 00d5 00000000 		.4byte	0
 2255 00d9 00000000 		.4byte	0
 2256              	.LLST5:
 2257 00dd 1C000000 		.4byte	.LVL2
 2258 00e1 28000000 		.4byte	.LVL4
 2259 00e5 0200     		.2byte	0x2
 2260 00e7 30       		.byte	0x30
 2261 00e8 9F       		.byte	0x9f
 2262 00e9 28000000 		.4byte	.LVL4
 2263 00ed 38000000 		.4byte	.LVL9
 2264 00f1 0100     		.2byte	0x1
 2265 00f3 56       		.byte	0x56
 2266 00f4 38000000 		.4byte	.LVL9
 2267 00f8 48000000 		.4byte	.LVL12
 2268 00fc 0100     		.2byte	0x1
 2269 00fe 54       		.byte	0x54
 2270 00ff 4C000000 		.4byte	.LVL13
 2271 0103 60000000 		.4byte	.LVL18
 2272 0107 0100     		.2byte	0x1
 2273 0109 54       		.byte	0x54
 2274 010a 60000000 		.4byte	.LVL18
 2275 010e 6E000000 		.4byte	.LVL21
 2276 0112 0100     		.2byte	0x1
 2277 0114 53       		.byte	0x53
 2278 0115 6E000000 		.4byte	.LVL21
ARM GAS  /tmp/ccxdIvyR.s 			page 41


 2279 0119 72000000 		.4byte	.LVL22
 2280 011d 0500     		.2byte	0x5
 2281 011f 74       		.byte	0x74
 2282 0120 00       		.sleb128 0
 2283 0121 34       		.byte	0x34
 2284 0122 24       		.byte	0x24
 2285 0123 9F       		.byte	0x9f
 2286 0124 72000000 		.4byte	.LVL22
 2287 0128 84000000 		.4byte	.LVL26
 2288 012c 0100     		.2byte	0x1
 2289 012e 53       		.byte	0x53
 2290 012f 84000000 		.4byte	.LVL26
 2291 0133 48010000 		.4byte	.LVL69
 2292 0137 0100     		.2byte	0x1
 2293 0139 54       		.byte	0x54
 2294 013a 00000000 		.4byte	0
 2295 013e 00000000 		.4byte	0
 2296              	.LLST6:
 2297 0142 1C000000 		.4byte	.LVL2
 2298 0146 32000000 		.4byte	.LVL6
 2299 014a 0200     		.2byte	0x2
 2300 014c 30       		.byte	0x30
 2301 014d 9F       		.byte	0x9f
 2302 014e 32000000 		.4byte	.LVL6
 2303 0152 3E000000 		.4byte	.LVL11
 2304 0156 0100     		.2byte	0x1
 2305 0158 52       		.byte	0x52
 2306 0159 3E000000 		.4byte	.LVL11
 2307 015d AC000000 		.4byte	.LVL35
 2308 0161 0100     		.2byte	0x1
 2309 0163 55       		.byte	0x55
 2310 0164 B0000000 		.4byte	.LVL37
 2311 0168 D6000000 		.4byte	.LVL45
 2312 016c 0100     		.2byte	0x1
 2313 016e 55       		.byte	0x55
 2314 016f D6000000 		.4byte	.LVL45
 2315 0173 FC000000 		.4byte	.LVL53
 2316 0177 0100     		.2byte	0x1
 2317 0179 53       		.byte	0x53
 2318 017a FC000000 		.4byte	.LVL53
 2319 017e 42010000 		.4byte	.LVL68
 2320 0182 0100     		.2byte	0x1
 2321 0184 55       		.byte	0x55
 2322 0185 00000000 		.4byte	0
 2323 0189 00000000 		.4byte	0
 2324              	.LLST7:
 2325 018d 1C000000 		.4byte	.LVL2
 2326 0191 26000000 		.4byte	.LVL3
 2327 0195 0200     		.2byte	0x2
 2328 0197 30       		.byte	0x30
 2329 0198 9F       		.byte	0x9f
 2330 0199 26000000 		.4byte	.LVL3
 2331 019d 3C000000 		.4byte	.LVL10
 2332 01a1 0100     		.2byte	0x1
 2333 01a3 57       		.byte	0x57
 2334 01a4 3C000000 		.4byte	.LVL10
 2335 01a8 86000000 		.4byte	.LVL27
ARM GAS  /tmp/ccxdIvyR.s 			page 42


 2336 01ac 0100     		.2byte	0x1
 2337 01ae 51       		.byte	0x51
 2338 01af 88000000 		.4byte	.LVL28
 2339 01b3 B0000000 		.4byte	.LVL37
 2340 01b7 0100     		.2byte	0x1
 2341 01b9 51       		.byte	0x51
 2342 01ba B0000000 		.4byte	.LVL37
 2343 01be D4000000 		.4byte	.LVL44
 2344 01c2 0100     		.2byte	0x1
 2345 01c4 53       		.byte	0x53
 2346 01c5 D6000000 		.4byte	.LVL45
 2347 01c9 4A010000 		.4byte	.LVL70
 2348 01cd 0100     		.2byte	0x1
 2349 01cf 51       		.byte	0x51
 2350 01d0 00000000 		.4byte	0
 2351 01d4 00000000 		.4byte	0
 2352              	.LLST8:
 2353 01d8 1C000000 		.4byte	.LVL2
 2354 01dc 36000000 		.4byte	.LVL8
 2355 01e0 0200     		.2byte	0x2
 2356 01e2 30       		.byte	0x30
 2357 01e3 9F       		.byte	0x9f
 2358 01e4 36000000 		.4byte	.LVL8
 2359 01e8 5C000000 		.4byte	.LVL16
 2360 01ec 0200     		.2byte	0x2
 2361 01ee 31       		.byte	0x31
 2362 01ef 9F       		.byte	0x9f
 2363 01f0 5C000000 		.4byte	.LVL16
 2364 01f4 82000000 		.4byte	.LVL25
 2365 01f8 0200     		.2byte	0x2
 2366 01fa 32       		.byte	0x32
 2367 01fb 9F       		.byte	0x9f
 2368 01fc 82000000 		.4byte	.LVL25
 2369 0200 A8000000 		.4byte	.LVL34
 2370 0204 0200     		.2byte	0x2
 2371 0206 33       		.byte	0x33
 2372 0207 9F       		.byte	0x9f
 2373 0208 A8000000 		.4byte	.LVL34
 2374 020c CE000000 		.4byte	.LVL42
 2375 0210 0200     		.2byte	0x2
 2376 0212 34       		.byte	0x34
 2377 0213 9F       		.byte	0x9f
 2378 0214 CE000000 		.4byte	.LVL42
 2379 0218 F4000000 		.4byte	.LVL50
 2380 021c 0200     		.2byte	0x2
 2381 021e 35       		.byte	0x35
 2382 021f 9F       		.byte	0x9f
 2383 0220 F4000000 		.4byte	.LVL50
 2384 0224 1A010000 		.4byte	.LVL58
 2385 0228 0200     		.2byte	0x2
 2386 022a 36       		.byte	0x36
 2387 022b 9F       		.byte	0x9f
 2388 022c 1A010000 		.4byte	.LVL58
 2389 0230 3E010000 		.4byte	.LVL66
 2390 0234 0200     		.2byte	0x2
 2391 0236 37       		.byte	0x37
 2392 0237 9F       		.byte	0x9f
ARM GAS  /tmp/ccxdIvyR.s 			page 43


 2393 0238 3E010000 		.4byte	.LVL66
 2394 023c 50010000 		.4byte	.LFE214
 2395 0240 0200     		.2byte	0x2
 2396 0242 38       		.byte	0x38
 2397 0243 9F       		.byte	0x9f
 2398 0244 00000000 		.4byte	0
 2399 0248 00000000 		.4byte	0
 2400              		.section	.debug_aranges,"",%progbits
 2401 0000 24000000 		.4byte	0x24
 2402 0004 0200     		.2byte	0x2
 2403 0006 00000000 		.4byte	.Ldebug_info0
 2404 000a 04       		.byte	0x4
 2405 000b 00       		.byte	0
 2406 000c 0000     		.2byte	0
 2407 000e 0000     		.2byte	0
 2408 0010 00000000 		.4byte	.LFB213
 2409 0014 86000000 		.4byte	.LFE213-.LFB213
 2410 0018 00000000 		.4byte	.LFB214
 2411 001c 50010000 		.4byte	.LFE214-.LFB214
 2412 0020 00000000 		.4byte	0
 2413 0024 00000000 		.4byte	0
 2414              		.section	.debug_ranges,"",%progbits
 2415              	.Ldebug_ranges0:
 2416 0000 00000000 		.4byte	.LFB213
 2417 0004 86000000 		.4byte	.LFE213
 2418 0008 00000000 		.4byte	.LFB214
 2419 000c 50010000 		.4byte	.LFE214
 2420 0010 00000000 		.4byte	0
 2421 0014 00000000 		.4byte	0
 2422              		.section	.debug_line,"",%progbits
 2423              	.Ldebug_line0:
 2424 0000 9F030000 		.section	.debug_str,"MS",%progbits,1
 2424      0200D402 
 2424      00000201 
 2424      FB0E0D00 
 2424      01010101 
 2425              	.LASF44:
 2426 0000 63685F74 		.ascii	"ch_threads_list\000"
 2426      68726561 
 2426      64735F6C 
 2426      69737400 
 2427              	.LASF45:
 2428 0010 74687265 		.ascii	"threads_queue_t\000"
 2428      6164735F 
 2428      71756575 
 2428      655F7400 
 2429              	.LASF34:
 2430 0020 705F7761 		.ascii	"p_waiting\000"
 2430      6974696E 
 2430      6700
 2431              	.LASF83:
 2432 002a 41504231 		.ascii	"APB1ENR\000"
 2432      454E5200 
 2433              	.LASF99:
 2434 0032 77746D74 		.ascii	"wtmtxp\000"
 2434      787000
 2435              	.LASF93:
ARM GAS  /tmp/ccxdIvyR.s 			page 44


 2436 0039 746D5F63 		.ascii	"tm_calibration_t\000"
 2436      616C6962 
 2436      72617469 
 2436      6F6E5F74 
 2436      00
 2437              	.LASF114:
 2438 004a 50434461 		.ascii	"PCData\000"
 2438      746100
 2439              	.LASF75:
 2440 0051 42535252 		.ascii	"BSRR\000"
 2440      00
 2441              	.LASF108:
 2442 0056 63686172 		.ascii	"char\000"
 2442      00
 2443              	.LASF88:
 2444 005b 72656761 		.ascii	"regarm_t\000"
 2444      726D5F74 
 2444      00
 2445              	.LASF26:
 2446 0064 705F7072 		.ascii	"p_prio\000"
 2446      696F00
 2447              	.LASF79:
 2448 006b 41504232 		.ascii	"APB2RSTR\000"
 2448      52535452 
 2448      00
 2449              	.LASF22:
 2450 0074 73797374 		.ascii	"systime_t\000"
 2450      696D655F 
 2450      7400
 2451              	.LASF106:
 2452 007e 6D5F6F77 		.ascii	"m_owner\000"
 2452      6E657200 
 2453              	.LASF102:
 2454 0086 735F7175 		.ascii	"s_queue\000"
 2454      65756500 
 2455              	.LASF35:
 2456 008e 705F6D73 		.ascii	"p_msgqueue\000"
 2456      67717565 
 2456      756500
 2457              	.LASF0:
 2458 0099 756E7369 		.ascii	"unsigned int\000"
 2458      676E6564 
 2458      20696E74 
 2458      00
 2459              	.LASF42:
 2460 00a6 74687265 		.ascii	"threads_list_t\000"
 2460      6164735F 
 2460      6C697374 
 2460      5F7400
 2461              	.LASF84:
 2462 00b5 42444352 		.ascii	"BDCR\000"
 2462      00
 2463              	.LASF96:
 2464 00ba 77746F62 		.ascii	"wtobjp\000"
 2464      6A7000
 2465              	.LASF72:
 2466 00c1 76746C69 		.ascii	"vtlist\000"
ARM GAS  /tmp/ccxdIvyR.s 			page 45


 2466      737400
 2467              	.LASF48:
 2468 00c8 63685F72 		.ascii	"ch_ready_list\000"
 2468      65616479 
 2468      5F6C6973 
 2468      7400
 2469              	.LASF74:
 2470 00d6 69646C65 		.ascii	"idle_thread_wa\000"
 2470      5F746872 
 2470      6561645F 
 2470      776100
 2471              	.LASF100:
 2472 00e5 65776D61 		.ascii	"ewmask\000"
 2472      736B00
 2473              	.LASF126:
 2474 00ec 6D6F6465 		.ascii	"mode\000"
 2474      00
 2475              	.LASF46:
 2476 00f1 63685F74 		.ascii	"ch_threads_queue\000"
 2476      68726561 
 2476      64735F71 
 2476      75657565 
 2476      00
 2477              	.LASF55:
 2478 0102 76746675 		.ascii	"vtfunc_t\000"
 2478      6E635F74 
 2478      00
 2479              	.LASF103:
 2480 010b 735F636E 		.ascii	"s_cnt\000"
 2480      7400
 2481              	.LASF67:
 2482 0111 63685F73 		.ascii	"ch_system_debug\000"
 2482      79737465 
 2482      6D5F6465 
 2482      62756700 
 2483              	.LASF9:
 2484 0121 75696E74 		.ascii	"uint32_t\000"
 2484      33325F74 
 2484      00
 2485              	.LASF20:
 2486 012a 6576656E 		.ascii	"eventmask_t\000"
 2486      746D6173 
 2486      6B5F7400 
 2487              	.LASF50:
 2488 0136 725F7072 		.ascii	"r_prio\000"
 2488      696F00
 2489              	.LASF62:
 2490 013d 76745F70 		.ascii	"vt_par\000"
 2490      617200
 2491              	.LASF101:
 2492 0144 63685F73 		.ascii	"ch_semaphore\000"
 2492      656D6170 
 2492      686F7265 
 2492      00
 2493              	.LASF18:
 2494 0151 74707269 		.ascii	"tprio_t\000"
 2494      6F5F7400 
ARM GAS  /tmp/ccxdIvyR.s 			page 46


 2495              	.LASF57:
 2496 0159 63685F76 		.ascii	"ch_virtual_timer\000"
 2496      69727475 
 2496      616C5F74 
 2496      696D6572 
 2496      00
 2497              	.LASF13:
 2498 016a 6C6F6E67 		.ascii	"long long unsigned int\000"
 2498      206C6F6E 
 2498      6720756E 
 2498      7369676E 
 2498      65642069 
 2499              	.LASF21:
 2500 0181 636E745F 		.ascii	"cnt_t\000"
 2500      7400
 2501              	.LASF111:
 2502 0187 73746D33 		.ascii	"stm32_gpio_setup_t\000"
 2502      325F6770 
 2502      696F5F73 
 2502      65747570 
 2502      5F7400
 2503              	.LASF127:
 2504 019a 63666774 		.ascii	"cfgtab\000"
 2504      616200
 2505              	.LASF28:
 2506 01a1 705F6E65 		.ascii	"p_newer\000"
 2506      77657200 
 2507              	.LASF64:
 2508 01a9 63685F76 		.ascii	"ch_virtual_timers_list\000"
 2508      69727475 
 2508      616C5F74 
 2508      696D6572 
 2508      735F6C69 
 2509              	.LASF23:
 2510 01c0 74687265 		.ascii	"thread_t\000"
 2510      61645F74 
 2510      00
 2511              	.LASF116:
 2512 01c9 50454461 		.ascii	"PEData\000"
 2512      746100
 2513              	.LASF94:
 2514 01d0 7264796D 		.ascii	"rdymsg\000"
 2514      736700
 2515              	.LASF92:
 2516 01d7 6F666673 		.ascii	"offset\000"
 2516      657400
 2517              	.LASF87:
 2518 01de 5243435F 		.ascii	"RCC_TypeDef\000"
 2518      54797065 
 2518      44656600 
 2519              	.LASF113:
 2520 01ea 50424461 		.ascii	"PBData\000"
 2520      746100
 2521              	.LASF104:
 2522 01f1 63685F6D 		.ascii	"ch_mutex\000"
 2522      75746578 
 2522      00
ARM GAS  /tmp/ccxdIvyR.s 			page 47


 2523              	.LASF30:
 2524 01fa 705F6E61 		.ascii	"p_name\000"
 2524      6D6500
 2525              	.LASF80:
 2526 0201 41504231 		.ascii	"APB1RSTR\000"
 2526      52535452 
 2526      00
 2527              	.LASF60:
 2528 020a 76745F64 		.ascii	"vt_delta\000"
 2528      656C7461 
 2528      00
 2529              	.LASF41:
 2530 0213 74687265 		.ascii	"thread_reference_t\000"
 2530      61645F72 
 2530      65666572 
 2530      656E6365 
 2530      5F7400
 2531              	.LASF65:
 2532 0226 76745F6C 		.ascii	"vt_lasttime\000"
 2532      61737474 
 2532      696D6500 
 2533              	.LASF16:
 2534 0232 74737461 		.ascii	"tstate_t\000"
 2534      74655F74 
 2534      00
 2535              	.LASF81:
 2536 023b 41484245 		.ascii	"AHBENR\000"
 2536      4E5200
 2537              	.LASF29:
 2538 0242 705F6F6C 		.ascii	"p_older\000"
 2538      64657200 
 2539              	.LASF31:
 2540 024a 705F7374 		.ascii	"p_state\000"
 2540      61746500 
 2541              	.LASF4:
 2542 0252 75696E74 		.ascii	"uint8_t\000"
 2542      385F7400 
 2543              	.LASF40:
 2544 025a 705F6D70 		.ascii	"p_mpool\000"
 2544      6F6F6C00 
 2545              	.LASF38:
 2546 0262 705F6D74 		.ascii	"p_mtxlist\000"
 2546      786C6973 
 2546      7400
 2547              	.LASF43:
 2548 026c 63685F74 		.ascii	"ch_thread\000"
 2548      68726561 
 2548      6400
 2549              	.LASF66:
 2550 0276 73797374 		.ascii	"system_debug_t\000"
 2550      656D5F64 
 2550      65627567 
 2550      5F7400
 2551              	.LASF11:
 2552 0285 6C6F6E67 		.ascii	"long long int\000"
 2552      206C6F6E 
 2552      6720696E 
ARM GAS  /tmp/ccxdIvyR.s 			page 48


 2552      7400
 2553              	.LASF49:
 2554 0293 725F7175 		.ascii	"r_queue\000"
 2554      65756500 
 2555              	.LASF52:
 2556 029b 725F6E65 		.ascii	"r_newer\000"
 2556      77657200 
 2557              	.LASF19:
 2558 02a3 6D73675F 		.ascii	"msg_t\000"
 2558      7400
 2559              	.LASF90:
 2560 02a9 636F6E74 		.ascii	"context\000"
 2560      65787400 
 2561              	.LASF32:
 2562 02b1 705F666C 		.ascii	"p_flags\000"
 2562      61677300 
 2563              	.LASF56:
 2564 02b9 76697274 		.ascii	"virtual_timer_t\000"
 2564      75616C5F 
 2564      74696D65 
 2564      725F7400 
 2565              	.LASF118:
 2566 02c9 696F706F 		.ascii	"ioportmask_t\000"
 2566      72746D61 
 2566      736B5F74 
 2566      00
 2567              	.LASF119:
 2568 02d6 696F6D6F 		.ascii	"iomode_t\000"
 2568      64655F74 
 2568      00
 2569              	.LASF131:
 2570 02df 2F686F6D 		.ascii	"/home/madog/Documents/proyectos/CYCLE/repos/harvest"
 2570      652F6D61 
 2570      646F672F 
 2570      446F6375 
 2570      6D656E74 
 2571 0312 65722F73 		.ascii	"er/src\000"
 2571      726300
 2572              	.LASF53:
 2573 0319 725F6F6C 		.ascii	"r_older\000"
 2573      64657200 
 2574              	.LASF125:
 2575 0321 6D61736B 		.ascii	"mask\000"
 2575      00
 2576              	.LASF86:
 2577 0326 43464752 		.ascii	"CFGR2\000"
 2577      3200
 2578              	.LASF82:
 2579 032c 41504232 		.ascii	"APB2ENR\000"
 2579      454E5200 
 2580              	.LASF68:
 2581 0334 70616E69 		.ascii	"panic_msg\000"
 2581      635F6D73 
 2581      6700
 2582              	.LASF110:
 2583 033e 5F426F6F 		.ascii	"_Bool\000"
 2583      6C00
ARM GAS  /tmp/ccxdIvyR.s 			page 49


 2584              	.LASF36:
 2585 0344 705F6D73 		.ascii	"p_msg\000"
 2585      6700
 2586              	.LASF15:
 2587 034a 746D6F64 		.ascii	"tmode_t\000"
 2587      655F7400 
 2588              	.LASF73:
 2589 0352 6D61696E 		.ascii	"mainthread\000"
 2589      74687265 
 2589      616400
 2590              	.LASF5:
 2591 035d 75696E74 		.ascii	"uint16_t\000"
 2591      31365F74 
 2591      00
 2592              	.LASF14:
 2593 0366 7274636E 		.ascii	"rtcnt_t\000"
 2593      745F7400 
 2594              	.LASF115:
 2595 036e 50444461 		.ascii	"PDData\000"
 2595      746100
 2596              	.LASF123:
 2597 0375 636F6E66 		.ascii	"config\000"
 2597      696700
 2598              	.LASF39:
 2599 037c 705F7265 		.ascii	"p_realprio\000"
 2599      616C7072 
 2599      696F00
 2600              	.LASF3:
 2601 0387 73686F72 		.ascii	"short int\000"
 2601      7420696E 
 2601      7400
 2602              	.LASF54:
 2603 0391 725F6375 		.ascii	"r_current\000"
 2603      7272656E 
 2603      7400
 2604              	.LASF37:
 2605 039b 705F6570 		.ascii	"p_epending\000"
 2605      656E6469 
 2605      6E6700
 2606              	.LASF105:
 2607 03a6 6D5F7175 		.ascii	"m_queue\000"
 2607      65756500 
 2608              	.LASF8:
 2609 03ae 6C6F6E67 		.ascii	"long int\000"
 2609      20696E74 
 2609      00
 2610              	.LASF91:
 2611 03b7 706F7274 		.ascii	"port_intctx\000"
 2611      5F696E74 
 2611      63747800 
 2612              	.LASF128:
 2613 03c3 49544D5F 		.ascii	"ITM_RxBuffer\000"
 2613      52784275 
 2613      66666572 
 2613      00
 2614              	.LASF112:
 2615 03d0 50414461 		.ascii	"PAData\000"
ARM GAS  /tmp/ccxdIvyR.s 			page 50


 2615      746100
 2616              	.LASF70:
 2617 03d7 63685F73 		.ascii	"ch_system\000"
 2617      79737465 
 2617      6D00
 2618              	.LASF24:
 2619 03e1 705F6E65 		.ascii	"p_next\000"
 2619      787400
 2620              	.LASF12:
 2621 03e8 75696E74 		.ascii	"uint64_t\000"
 2621      36345F74 
 2621      00
 2622              	.LASF27:
 2623 03f1 705F6374 		.ascii	"p_ctx\000"
 2623      7800
 2624              	.LASF78:
 2625 03f7 43464752 		.ascii	"CFGR\000"
 2625      00
 2626              	.LASF71:
 2627 03fc 726C6973 		.ascii	"rlist\000"
 2627      7400
 2628              	.LASF121:
 2629 0402 5F70616C 		.ascii	"_pal_lld_init\000"
 2629      5F6C6C64 
 2629      5F696E69 
 2629      7400
 2630              	.LASF120:
 2631 0410 696F706F 		.ascii	"ioportid_t\000"
 2631      72746964 
 2631      5F7400
 2632              	.LASF77:
 2633 041b 4750494F 		.ascii	"GPIO_TypeDef\000"
 2633      5F547970 
 2633      65446566 
 2633      00
 2634              	.LASF117:
 2635 0428 50414C43 		.ascii	"PALConfig\000"
 2635      6F6E6669 
 2635      6700
 2636              	.LASF25:
 2637 0432 705F7072 		.ascii	"p_prev\000"
 2637      657600
 2638              	.LASF17:
 2639 0439 74726566 		.ascii	"trefs_t\000"
 2639      735F7400 
 2640              	.LASF10:
 2641 0441 6C6F6E67 		.ascii	"long unsigned int\000"
 2641      20756E73 
 2641      69676E65 
 2641      6420696E 
 2641      7400
 2642              	.LASF47:
 2643 0453 72656164 		.ascii	"ready_list_t\000"
 2643      795F6C69 
 2643      73745F74 
 2643      00
 2644              	.LASF7:
ARM GAS  /tmp/ccxdIvyR.s 			page 51


 2645 0460 696E7433 		.ascii	"int32_t\000"
 2645      325F7400 
 2646              	.LASF124:
 2647 0468 706F7274 		.ascii	"port\000"
 2647      00
 2648              	.LASF98:
 2649 046d 77747365 		.ascii	"wtsemp\000"
 2649      6D7000
 2650              	.LASF129:
 2651 0474 474E5520 		.ascii	"GNU C 4.6.1\000"
 2651      4320342E 
 2651      362E3100 
 2652              	.LASF109:
 2653 0480 6D757465 		.ascii	"mutex_t\000"
 2653      785F7400 
 2654              	.LASF130:
 2655 0488 2E2E2F2E 		.ascii	"../../../resources/chibios/ChibiOS_16.1.8/os/hal/po"
 2655      2E2F2E2E 
 2655      2F726573 
 2655      6F757263 
 2655      65732F63 
 2656 04bb 7274732F 		.ascii	"rts/STM32/LLD/GPIOv1/pal_lld.c\000"
 2656      53544D33 
 2656      322F4C4C 
 2656      442F4750 
 2656      494F7631 
 2657              	.LASF2:
 2658 04da 756E7369 		.ascii	"unsigned char\000"
 2658      676E6564 
 2658      20636861 
 2658      7200
 2659              	.LASF63:
 2660 04e8 76697274 		.ascii	"virtual_timers_list_t\000"
 2660      75616C5F 
 2660      74696D65 
 2660      72735F6C 
 2660      6973745F 
 2661              	.LASF33:
 2662 04fe 705F7265 		.ascii	"p_refs\000"
 2662      667300
 2663              	.LASF58:
 2664 0505 76745F6E 		.ascii	"vt_next\000"
 2664      65787400 
 2665              	.LASF122:
 2666 050d 5F70616C 		.ascii	"_pal_lld_setgroupmode\000"
 2666      5F6C6C64 
 2666      5F736574 
 2666      67726F75 
 2666      706D6F64 
 2667              	.LASF69:
 2668 0523 63685F73 		.ascii	"ch_system_t\000"
 2668      79737465 
 2668      6D5F7400 
 2669              	.LASF97:
 2670 052f 77747472 		.ascii	"wttrp\000"
 2670      7000
 2671              	.LASF107:
ARM GAS  /tmp/ccxdIvyR.s 			page 52


 2672 0535 6D5F6E65 		.ascii	"m_next\000"
 2672      787400
 2673              	.LASF1:
 2674 053c 7369676E 		.ascii	"signed char\000"
 2674      65642063 
 2674      68617200 
 2675              	.LASF6:
 2676 0548 73686F72 		.ascii	"short unsigned int\000"
 2676      7420756E 
 2676      7369676E 
 2676      65642069 
 2676      6E7400
 2677              	.LASF51:
 2678 055b 725F6374 		.ascii	"r_ctx\000"
 2678      7800
 2679              	.LASF89:
 2680 0561 73746B61 		.ascii	"stkalign_t\000"
 2680      6C69676E 
 2680      5F7400
 2681              	.LASF61:
 2682 056c 76745F66 		.ascii	"vt_func\000"
 2682      756E6300 
 2683              	.LASF59:
 2684 0574 76745F70 		.ascii	"vt_prev\000"
 2684      72657600 
 2685              	.LASF85:
 2686 057c 52455345 		.ascii	"RESERVED0\000"
 2686      52564544 
 2686      3000
 2687              	.LASF95:
 2688 0586 65786974 		.ascii	"exitcode\000"
 2688      636F6465 
 2688      00
 2689              	.LASF76:
 2690 058f 4C434B52 		.ascii	"LCKR\000"
 2690      00
 2691              		.ident	"GCC: (Sourcery CodeBench Lite 2011.09-69) 4.6.1"
ARM GAS  /tmp/ccxdIvyR.s 			page 53


DEFINED SYMBOLS
                            *ABS*:00000000 pal_lld.c
     /tmp/ccxdIvyR.s:19     .text._pal_lld_init:00000000 $t
     /tmp/ccxdIvyR.s:25     .text._pal_lld_init:00000000 _pal_lld_init
     /tmp/ccxdIvyR.s:126    .text._pal_lld_setgroupmode:00000000 $t
     /tmp/ccxdIvyR.s:132    .text._pal_lld_setgroupmode:00000000 _pal_lld_setgroupmode
     /tmp/ccxdIvyR.s:439    .rodata.cfgtab.6255:00000000 .LANCHOR0
     /tmp/ccxdIvyR.s:438    .rodata.cfgtab.6255:00000000 $d
     /tmp/ccxdIvyR.s:442    .rodata.cfgtab.6255:00000000 cfgtab.6255
                     .debug_frame:00000010 $d

NO UNDEFINED SYMBOLS
