ARM GAS  /tmp/cc6cHig1.s 			page 1


   1              		.syntax unified
   2              		.cpu cortex-m3
   3              		.fpu softvfp
   4              		.eabi_attribute 20, 1
   5              		.eabi_attribute 21, 1
   6              		.eabi_attribute 23, 3
   7              		.eabi_attribute 24, 1
   8              		.eabi_attribute 25, 1
   9              		.eabi_attribute 26, 1
  10              		.eabi_attribute 30, 2
  11              		.eabi_attribute 34, 1
  12              		.eabi_attribute 18, 4
  13              		.thumb
  14              		.file	"st.c"
  15              		.text
  16              	.Ltext0:
  17              		.cfi_sections	.debug_frame
  18              		.section	.text.stInit,"ax",%progbits
  19              		.align	2
  20              		.p2align 4,,15
  21              		.global	stInit
  22              		.thumb
  23              		.thumb_func
  24              		.type	stInit, %function
  25              	stInit:
  26              	.LFB213:
  27              		.file 1 "../../../resources/chibios/ChibiOS_16.1.8/os/hal/src/st.c"
  28              		.loc 1 60 0
  29              		.cfi_startproc
  30              		@ args = 0, pretend = 0, frame = 0
  31              		@ frame_needed = 0, uses_anonymous_args = 0
  32              		@ link register save eliminated.
  33              		.loc 1 63 0
  34              		.loc 1 62 0
  35 0000 FFF7FEBF 		b	st_lld_init
  36              		.cfi_endproc
  37              	.LFE213:
  38              		.size	stInit, .-stInit
  39 0004 AFF30080 		.section	.text.stStartAlarm,"ax",%progbits
  39      AFF30080 
  39      AFF30080 
  40              		.align	2
  41              		.p2align 4,,15
  42              		.global	stStartAlarm
  43              		.thumb
  44              		.thumb_func
  45              		.type	stStartAlarm, %function
  46              	stStartAlarm:
  47              	.LFB214:
  48              		.loc 1 77 0
  49              		.cfi_startproc
  50              		@ args = 0, pretend = 0, frame = 0
  51              		@ frame_needed = 0, uses_anonymous_args = 0
  52              		@ link register save eliminated.
  53              	.LVL0:
  54              	.LBB10:
  55              	.LBB11:
ARM GAS  /tmp/cc6cHig1.s 			page 2


  56              		.file 2 "../../../resources/chibios/ChibiOS_16.1.8/os/hal/ports/STM32/LLD/TIMv1/st_lld.h"
  57              		.loc 2 155 0
  58 0000 4FF08043 		mov	r3, #1073741824
  59              	.LVL1:
  60 0004 5863     		str	r0, [r3, #52]
  61              		.loc 2 157 0
  62 0006 0222     		movs	r2, #2
  63              		.loc 2 156 0
  64 0008 0020     		movs	r0, #0
  65              	.LVL2:
  66 000a 1861     		str	r0, [r3, #16]
  67              		.loc 2 157 0
  68 000c DA60     		str	r2, [r3, #12]
  69              	.LBE11:
  70              	.LBE10:
  71              		.loc 1 82 0
  72 000e 7047     		bx	lr
  73              		.cfi_endproc
  74              	.LFE214:
  75              		.size	stStartAlarm, .-stStartAlarm
  76              		.section	.text.stStopAlarm,"ax",%progbits
  77              		.align	2
  78              		.p2align 4,,15
  79              		.global	stStopAlarm
  80              		.thumb
  81              		.thumb_func
  82              		.type	stStopAlarm, %function
  83              	stStopAlarm:
  84              	.LFB215:
  85              		.loc 1 91 0
  86              		.cfi_startproc
  87              		@ args = 0, pretend = 0, frame = 0
  88              		@ frame_needed = 0, uses_anonymous_args = 0
  89              		@ link register save eliminated.
  90              	.LBB12:
  91              	.LBB13:
  92              		.loc 2 167 0
  93 0000 0022     		movs	r2, #0
  94 0002 4FF08043 		mov	r3, #1073741824
  95 0006 DA60     		str	r2, [r3, #12]
  96              	.LBE13:
  97              	.LBE12:
  98              		.loc 1 94 0
  99 0008 7047     		bx	lr
 100              		.cfi_endproc
 101              	.LFE215:
 102              		.size	stStopAlarm, .-stStopAlarm
 103 000a 00BFAFF3 		.section	.text.stSetAlarm,"ax",%progbits
 103      0080
 104              		.align	2
 105              		.p2align 4,,15
 106              		.global	stSetAlarm
 107              		.thumb
 108              		.thumb_func
 109              		.type	stSetAlarm, %function
 110              	stSetAlarm:
 111              	.LFB216:
ARM GAS  /tmp/cc6cHig1.s 			page 3


 112              		.loc 1 105 0
 113              		.cfi_startproc
 114              		@ args = 0, pretend = 0, frame = 0
 115              		@ frame_needed = 0, uses_anonymous_args = 0
 116              		@ link register save eliminated.
 117              	.LVL3:
 118              	.LBB14:
 119              	.LBB15:
 120              		.loc 2 179 0
 121 0000 4FF08043 		mov	r3, #1073741824
 122 0004 5863     		str	r0, [r3, #52]
 123              	.LBE15:
 124              	.LBE14:
 125              		.loc 1 110 0
 126 0006 7047     		bx	lr
 127              		.cfi_endproc
 128              	.LFE216:
 129              		.size	stSetAlarm, .-stSetAlarm
 130 0008 AFF30080 		.section	.text.stGetAlarm,"ax",%progbits
 130      AFF30080 
 131              		.align	2
 132              		.p2align 4,,15
 133              		.global	stGetAlarm
 134              		.thumb
 135              		.thumb_func
 136              		.type	stGetAlarm, %function
 137              	stGetAlarm:
 138              	.LFB217:
 139              		.loc 1 121 0
 140              		.cfi_startproc
 141              		@ args = 0, pretend = 0, frame = 0
 142              		@ frame_needed = 0, uses_anonymous_args = 0
 143              		@ link register save eliminated.
 144              	.LBB16:
 145              	.LBB17:
 146              		.loc 2 191 0
 147 0000 4FF08043 		mov	r3, #1073741824
 148 0004 586B     		ldr	r0, [r3, #52]
 149              	.LBE17:
 150              	.LBE16:
 151              		.loc 1 126 0
 152 0006 80B2     		uxth	r0, r0
 153 0008 7047     		bx	lr
 154              		.cfi_endproc
 155              	.LFE217:
 156              		.size	stGetAlarm, .-stGetAlarm
 157 000a 00BFAFF3 		.text
 157      0080
 158              	.Letext0:
 159              		.file 3 "/home/madog/programs/CodeSourcery/Sourcery_CodeBench_Lite_for_ARM_EABI/bin/../lib/gcc/arm
 160              		.file 4 "../../../resources/chibios/ChibiOS_16.1.8/os/rt/ports/ARMCMx/compilers/GCC/chtypes.h"
 161              		.file 5 "../../../resources/chibios/ChibiOS_16.1.8/os/rt/include/chsystypes.h"
 162              		.file 6 "../../../resources/chibios/ChibiOS_16.1.8/os/rt/include/chschd.h"
 163              		.file 7 "../../../resources/chibios/ChibiOS_16.1.8/os/rt/ports/ARMCMx/chcore.h"
 164              		.file 8 "../../../resources/chibios/ChibiOS_16.1.8/os/rt/ports/ARMCMx/chcore_v7m.h"
 165              		.file 9 "../../../resources/chibios/ChibiOS_16.1.8/os/hal/ports/STM32/LLD/TIMv1/stm32_tim.h"
 166              		.file 10 "../../../resources/chibios/ChibiOS_16.1.8/os/rt/include/chtm.h"
ARM GAS  /tmp/cc6cHig1.s 			page 4


 167              		.file 11 "../../../resources/chibios/ChibiOS_16.1.8/os/rt/include/chsem.h"
 168              		.file 12 "../../../resources/chibios/ChibiOS_16.1.8/os/rt/include/chmtx.h"
 169              		.file 13 "../../../resources/chibios/ChibiOS_16.1.8/os/ext/CMSIS/include/core_cm3.h"