ARM GAS  /tmp/cc16BShN.s 			page 1


   1              		.syntax unified
   2              		.cpu cortex-m3
   3              		.fpu softvfp
   4              		.eabi_attribute 20, 1
   5              		.eabi_attribute 21, 1
   6              		.eabi_attribute 23, 3
   7              		.eabi_attribute 24, 1
   8              		.eabi_attribute 25, 1
   9              		.eabi_attribute 26, 1
  10              		.eabi_attribute 30, 2
  11              		.eabi_attribute 34, 1
  12              		.eabi_attribute 18, 4
  13              		.thumb
  14              		.file	"st_lld.c"
  15              		.text
  16              	.Ltext0:
  17              		.cfi_sections	.debug_frame
  18              		.section	.text.VectorB0,"ax",%progbits
  19              		.align	2
  20              		.p2align 4,,15
  21              		.global	VectorB0
  22              		.thumb
  23              		.thumb_func
  24              		.type	VectorB0, %function
  25              	VectorB0:
  26              	.LFB213:
  27              		.file 1 "../../../resources/chibios/ChibiOS_16.1.8/os/hal/ports/STM32/LLD/TIMv1/st_lld.c"
  28              		.loc 1 239 0
  29              		.cfi_startproc
  30              		@ args = 0, pretend = 0, frame = 0
  31              		@ frame_needed = 0, uses_anonymous_args = 0
  32              		.loc 1 246 0
  33 0000 4FF08043 		mov	r3, #1073741824
  34 0004 1A69     		ldr	r2, [r3, #16]
  35              		.loc 1 239 0
  36 0006 10B5     		push	{r4, lr}
  37              	.LCFI0:
  38              		.cfi_def_cfa_offset 8
  39              		.cfi_offset 14, -4
  40              		.cfi_offset 4, -8
  41              		.loc 1 246 0
  42 0008 9207     		lsls	r2, r2, #30
  43 000a 08D5     		bpl	.L2
  44              		.loc 1 247 0
  45 000c 0024     		movs	r4, #0
  46 000e 1C61     		str	r4, [r3, #16]
  47              	.LVL0:
  48              	.LBB52:
  49              	.LBB53:
  50              	.LBB54:
  51              	.LBB55:
  52              	.LBB56:
  53              	.LBB57:
  54              		.file 2 "../../../resources/chibios/ChibiOS_16.1.8/os/ext/CMSIS/include/core_cmFunc.h"
  55              		.loc 2 548 0
  56 0010 2023     		movs	r3, #32
  57              	@ 548 "../../../resources/chibios/ChibiOS_16.1.8/os/ext/CMSIS/include/core_cmFunc.h" 1
ARM GAS  /tmp/cc16BShN.s 			page 2


  58 0012 83F31188 		MSR basepri, r3
  59              	@ 0 "" 2
  60              		.thumb
  61              	.LBE57:
  62              	.LBE56:
  63              	.LBE55:
  64              	.LBE54:
  65              	.LBE53:
  66              	.LBE52:
  67              	.LBB58:
  68              	.LBB59:
  69              		.file 3 "../../../resources/chibios/ChibiOS_16.1.8/os/hal/osal/rt/osal.h"
  70              		.loc 3 585 0
  71 0016 FFF7FEFF 		bl	chSysTimerHandlerI
  72              	.LVL1:
  73              	.LBE59:
  74              	.LBE58:
  75              	.LBB60:
  76              	.LBB61:
  77              	.LBB62:
  78              	.LBB63:
  79              	.LBB64:
  80              	.LBB65:
  81              		.loc 2 548 0
  82              	@ 548 "../../../resources/chibios/ChibiOS_16.1.8/os/ext/CMSIS/include/core_cmFunc.h" 1
  83 001a 84F31188 		MSR basepri, r4
  84              	@ 0 "" 2
  85              	.LVL2:
  86              		.thumb
  87              	.L2:
  88              	.LBE65:
  89              	.LBE64:
  90              	.LBE63:
  91              	.LBE62:
  92              	.LBE61:
  93              	.LBE60:
  94              		.loc 1 255 0
  95 001e BDE81040 		pop	{r4, lr}
  96              		.loc 1 254 0
  97 0022 FFF7FEBF 		b	_port_irq_epilogue
  98              		.cfi_endproc
  99              	.LFE213:
 100              		.size	VectorB0, .-VectorB0
 101 0026 00BFAFF3 		.section	.text.st_lld_init,"ax",%progbits
 101      0080AFF3 
 101      0080
 102              		.align	2
 103              		.p2align 4,,15
 104              		.global	st_lld_init
 105              		.thumb
 106              		.thumb_func
 107              		.type	st_lld_init, %function
 108              	st_lld_init:
 109              	.LFB214:
 110              		.loc 1 267 0
 111              		.cfi_startproc
 112              		@ args = 0, pretend = 0, frame = 0
ARM GAS  /tmp/cc16BShN.s 			page 3


 113              		@ frame_needed = 0, uses_anonymous_args = 0
 114              		@ link register save eliminated.
 115              		.loc 1 273 0
 116 0000 4FF4805C 		mov	ip, #4096
 117 0004 C4F2020C 		movt	ip, 16386
 118 0008 DCF81C30 		ldr	r3, [ip, #28]
 119              		.loc 1 276 0
 120 000c 4FF40050 		mov	r0, #8192
 121              		.loc 1 273 0
 122 0010 43F00102 		orr	r2, r3, #1
 123              		.loc 1 267 0
 124 0014 30B4     		push	{r4, r5}
 125              	.LCFI1:
 126              		.cfi_def_cfa_offset 8
 127              		.cfi_offset 5, -4
 128              		.cfi_offset 4, -8
 129              		.loc 1 276 0
 130 0016 CEF20400 		movt	r0, 57348
 131              		.loc 1 273 0
 132 001a CCF81C20 		str	r2, [ip, #28]
 133              		.loc 1 276 0
 134 001e 4468     		ldr	r4, [r0, #4]
 135              		.loc 1 279 0
 136 0020 4FF08043 		mov	r3, #1073741824
 137              		.loc 1 276 0
 138 0024 44F40061 		orr	r1, r4, #2048
 139              		.loc 1 279 0
 140 0028 45F6BF55 		movw	r5, #23999
 141              		.loc 1 276 0
 142 002c 4160     		str	r1, [r0, #4]
 143              		.loc 1 281 0
 144 002e 0022     		movs	r2, #0
 145              		.loc 1 279 0
 146 0030 9D62     		str	r5, [r3, #40]
 147              		.loc 1 285 0
 148 0032 0124     		movs	r4, #1
 149              		.loc 1 280 0
 150 0034 4FF6FF75 		movw	r5, #65535
 151              		.loc 1 289 0
 152 0038 1C20     		movs	r0, #28
 153 003a 0821     		movs	r1, #8
 154              		.loc 1 280 0
 155 003c DD62     		str	r5, [r3, #44]
 156              		.loc 1 281 0
 157 003e 9A61     		str	r2, [r3, #24]
 158              		.loc 1 282 0
 159 0040 5A63     		str	r2, [r3, #52]
 160              		.loc 1 283 0
 161 0042 DA60     		str	r2, [r3, #12]
 162              		.loc 1 284 0
 163 0044 5A60     		str	r2, [r3, #4]
 164              		.loc 1 285 0
 165 0046 5C61     		str	r4, [r3, #20]
 166              		.loc 1 286 0
 167 0048 1C60     		str	r4, [r3, #0]
 168              		.loc 1 304 0
 169 004a 30BC     		pop	{r4, r5}
ARM GAS  /tmp/cc16BShN.s 			page 4


 170              		.loc 1 289 0
 171 004c FFF7FEBF 		b	nvicEnableVector
 172              		.cfi_endproc
 173              	.LFE214:
 174              		.size	st_lld_init, .-st_lld_init
 175              		.text
 176              	.Letext0:
 177              		.file 4 "/home/madog/programs/CodeSourcery/Sourcery_CodeBench_Lite_for_ARM_EABI/bin/../lib/gcc/arm
 178              		.file 5 "../../../resources/chibios/ChibiOS_16.1.8/os/rt/ports/ARMCMx/compilers/GCC/chtypes.h"
 179              		.file 6 "../../../resources/chibios/ChibiOS_16.1.8/os/rt/include/chsystypes.h"
 180              		.file 7 "../../../resources/chibios/ChibiOS_16.1.8/os/rt/include/chschd.h"
 181              		.file 8 "../../../resources/chibios/ChibiOS_16.1.8/os/ext/CMSIS/ST/STM32F1xx/stm32f100xb.h"
 182              		.file 9 "../../../resources/chibios/ChibiOS_16.1.8/os/rt/ports/ARMCMx/chcore.h"
 183              		.file 10 "../../../resources/chibios/ChibiOS_16.1.8/os/rt/ports/ARMCMx/chcore_v7m.h"
 184              		.file 11 "../../../resources/chibios/ChibiOS_16.1.8/os/hal/ports/STM32/LLD/TIMv1/stm32_tim.h"
 185              		.file 12 "../../../resources/chibios/ChibiOS_16.1.8/os/rt/include/chtm.h"
 186              		.file 13 "../../../resources/chibios/ChibiOS_16.1.8/os/rt/include/chsem.h"
 187              		.file 14 "../../../resources/chibios/ChibiOS_16.1.8/os/rt/include/chmtx.h"
 188              		.file 15 "../../../resources/chibios/ChibiOS_16.1.8/os/rt/include/chsys.h"
 189              		.file 16 "../../../resources/chibios/ChibiOS_16.1.8/os/ext/CMSIS/include/core_cm3.h"