ARM GAS  /tmp/cc16BShN.s 			page 1


   1              		.syntax unified
   2              		.cpu cortex-m3
   3              		.fpu softvfp
   4              		.eabi_attribute 20, 1
   5              		.eabi_attribute 21, 1
   6              		.eabi_attribute 23, 3
   7              		.eabi_attribute 24, 1
   8              		.eabi_attribute 25, 1
   9              		.eabi_attribute 26, 1
  10              		.eabi_attribute 30, 2
  11              		.eabi_attribute 34, 1
  12              		.eabi_attribute 18, 4
  13              		.thumb
  14              		.file	"st_lld.c"
  15              		.text
  16              	.Ltext0:
  17              		.cfi_sections	.debug_frame
  18              		.section	.text.VectorB0,"ax",%progbits
  19              		.align	2
  20              		.p2align 4,,15
  21              		.global	VectorB0
  22              		.thumb
  23              		.thumb_func
  24              		.type	VectorB0, %function
  25              	VectorB0:
  26              	.LFB213:
  27              		.file 1 "../../../resources/chibios/ChibiOS_16.1.8/os/hal/ports/STM32/LLD/TIMv1/st_lld.c"
  28              		.loc 1 239 0
  29              		.cfi_startproc
  30              		@ args = 0, pretend = 0, frame = 0
  31              		@ frame_needed = 0, uses_anonymous_args = 0
  32              		.loc 1 246 0
  33 0000 4FF08043 		mov	r3, #1073741824
  34 0004 1A69     		ldr	r2, [r3, #16]
  35              		.loc 1 239 0
  36 0006 10B5     		push	{r4, lr}
  37              	.LCFI0:
  38              		.cfi_def_cfa_offset 8
  39              		.cfi_offset 14, -4
  40              		.cfi_offset 4, -8
  41              		.loc 1 246 0
  42 0008 9207     		lsls	r2, r2, #30
  43 000a 08D5     		bpl	.L2
  44              		.loc 1 247 0
  45 000c 0024     		movs	r4, #0
  46 000e 1C61     		str	r4, [r3, #16]
  47              	.LVL0:
  48              	.LBB52:
  49              	.LBB53:
  50              	.LBB54:
  51              	.LBB55:
  52              	.LBB56:
  53              	.LBB57:
  54              		.file 2 "../../../resources/chibios/ChibiOS_16.1.8/os/ext/CMSIS/include/core_cmFunc.h"
  55              		.loc 2 548 0
  56 0010 2023     		movs	r3, #32
  57              	@ 548 "../../../resources/chibios/ChibiOS_16.1.8/os/ext/CMSIS/include/core_cmFunc.h" 1
ARM GAS  /tmp/cc16BShN.s 			page 2


  58 0012 83F31188 		MSR basepri, r3
  59              	@ 0 "" 2
  60              		.thumb
  61              	.LBE57:
  62              	.LBE56:
  63              	.LBE55:
  64              	.LBE54:
  65              	.LBE53:
  66              	.LBE52:
  67              	.LBB58:
  68              	.LBB59:
  69              		.file 3 "../../../resources/chibios/ChibiOS_16.1.8/os/hal/osal/rt/osal.h"
  70              		.loc 3 585 0
  71 0016 FFF7FEFF 		bl	chSysTimerHandlerI
  72              	.LVL1:
  73              	.LBE59:
  74              	.LBE58:
  75              	.LBB60:
  76              	.LBB61:
  77              	.LBB62:
  78              	.LBB63:
  79              	.LBB64:
  80              	.LBB65:
  81              		.loc 2 548 0
  82              	@ 548 "../../../resources/chibios/ChibiOS_16.1.8/os/ext/CMSIS/include/core_cmFunc.h" 1
  83 001a 84F31188 		MSR basepri, r4
  84              	@ 0 "" 2
  85              	.LVL2:
  86              		.thumb
  87              	.L2:
  88              	.LBE65:
  89              	.LBE64:
  90              	.LBE63:
  91              	.LBE62:
  92              	.LBE61:
  93              	.LBE60:
  94              		.loc 1 255 0
  95 001e BDE81040 		pop	{r4, lr}
  96              		.loc 1 254 0
  97 0022 FFF7FEBF 		b	_port_irq_epilogue
  98              		.cfi_endproc
  99              	.LFE213:
 100              		.size	VectorB0, .-VectorB0
 101 0026 00BFAFF3 		.section	.text.st_lld_init,"ax",%progbits
 101      0080AFF3 
 101      0080
 102              		.align	2
 103              		.p2align 4,,15
 104              		.global	st_lld_init
 105              		.thumb
 106              		.thumb_func
 107              		.type	st_lld_init, %function
 108              	st_lld_init:
 109              	.LFB214:
 110              		.loc 1 267 0
 111              		.cfi_startproc
 112              		@ args = 0, pretend = 0, frame = 0
ARM GAS  /tmp/cc16BShN.s 			page 3


 113              		@ frame_needed = 0, uses_anonymous_args = 0
 114              		@ link register save eliminated.
 115              		.loc 1 273 0
 116 0000 4FF4805C 		mov	ip, #4096
 117 0004 C4F2020C 		movt	ip, 16386
 118 0008 DCF81C30 		ldr	r3, [ip, #28]
 119              		.loc 1 276 0
 120 000c 4FF40050 		mov	r0, #8192
 121              		.loc 1 273 0
 122 0010 43F00102 		orr	r2, r3, #1
 123              		.loc 1 267 0
 124 0014 30B4     		push	{r4, r5}
 125              	.LCFI1:
 126              		.cfi_def_cfa_offset 8
 127              		.cfi_offset 5, -4
 128              		.cfi_offset 4, -8
 129              		.loc 1 276 0
 130 0016 CEF20400 		movt	r0, 57348
 131              		.loc 1 273 0
 132 001a CCF81C20 		str	r2, [ip, #28]
 133              		.loc 1 276 0
 134 001e 4468     		ldr	r4, [r0, #4]
 135              		.loc 1 279 0
 136 0020 4FF08043 		mov	r3, #1073741824
 137              		.loc 1 276 0
 138 0024 44F40061 		orr	r1, r4, #2048
 139              		.loc 1 279 0
 140 0028 45F6BF55 		movw	r5, #23999
 141              		.loc 1 276 0
 142 002c 4160     		str	r1, [r0, #4]
 143              		.loc 1 281 0
 144 002e 0022     		movs	r2, #0
 145              		.loc 1 279 0
 146 0030 9D62     		str	r5, [r3, #40]
 147              		.loc 1 285 0
 148 0032 0124     		movs	r4, #1
 149              		.loc 1 280 0
 150 0034 4FF6FF75 		movw	r5, #65535
 151              		.loc 1 289 0
 152 0038 1C20     		movs	r0, #28
 153 003a 0821     		movs	r1, #8
 154              		.loc 1 280 0
 155 003c DD62     		str	r5, [r3, #44]
 156              		.loc 1 281 0
 157 003e 9A61     		str	r2, [r3, #24]
 158              		.loc 1 282 0
 159 0040 5A63     		str	r2, [r3, #52]
 160              		.loc 1 283 0
 161 0042 DA60     		str	r2, [r3, #12]
 162              		.loc 1 284 0
 163 0044 5A60     		str	r2, [r3, #4]
 164              		.loc 1 285 0
 165 0046 5C61     		str	r4, [r3, #20]
 166              		.loc 1 286 0
 167 0048 1C60     		str	r4, [r3, #0]
 168              		.loc 1 304 0
 169 004a 30BC     		pop	{r4, r5}
ARM GAS  /tmp/cc16BShN.s 			page 4


 170              		.loc 1 289 0
 171 004c FFF7FEBF 		b	nvicEnableVector
 172              		.cfi_endproc
 173              	.LFE214:
 174              		.size	st_lld_init, .-st_lld_init
 175              		.text
 176              	.Letext0:
 177              		.file 4 "/home/madog/programs/CodeSourcery/Sourcery_CodeBench_Lite_for_ARM_EABI/bin/../lib/gcc/arm
 178              		.file 5 "../../../resources/chibios/ChibiOS_16.1.8/os/rt/ports/ARMCMx/compilers/GCC/chtypes.h"
 179              		.file 6 "../../../resources/chibios/ChibiOS_16.1.8/os/rt/include/chsystypes.h"
 180              		.file 7 "../../../resources/chibios/ChibiOS_16.1.8/os/rt/include/chschd.h"
 181              		.file 8 "../../../resources/chibios/ChibiOS_16.1.8/os/ext/CMSIS/ST/STM32F1xx/stm32f100xb.h"
 182              		.file 9 "../../../resources/chibios/ChibiOS_16.1.8/os/rt/ports/ARMCMx/chcore.h"
 183              		.file 10 "../../../resources/chibios/ChibiOS_16.1.8/os/rt/ports/ARMCMx/chcore_v7m.h"
 184              		.file 11 "../../../resources/chibios/ChibiOS_16.1.8/os/hal/ports/STM32/LLD/TIMv1/stm32_tim.h"
 185              		.file 12 "../../../resources/chibios/ChibiOS_16.1.8/os/rt/include/chtm.h"
 186              		.file 13 "../../../resources/chibios/ChibiOS_16.1.8/os/rt/include/chsem.h"
 187              		.file 14 "../../../resources/chibios/ChibiOS_16.1.8/os/rt/include/chmtx.h"
 188              		.file 15 "../../../resources/chibios/ChibiOS_16.1.8/os/rt/include/chsys.h"
 189              		.file 16 "../../../resources/chibios/ChibiOS_16.1.8/os/ext/CMSIS/include/core_cm3.h"
 190              		.section	.debug_info,"",%progbits
 191              	.Ldebug_info0:
 192 0000 850A0000 		.4byte	0xa85
 193 0004 0200     		.2byte	0x2
 194 0006 00000000 		.4byte	.Ldebug_abbrev0
 195 000a 04       		.byte	0x4
 196 000b 01       		.uleb128 0x1
 197 000c 10050000 		.4byte	.LASF130
 198 0010 01       		.byte	0x1
 199 0011 66020000 		.4byte	.LASF131
 200 0015 9D030000 		.4byte	.LASF132
 201 0019 00000000 		.4byte	0
 202 001d 00000000 		.4byte	0
 203 0021 00000000 		.4byte	.Ldebug_ranges0+0
 204 0025 00000000 		.4byte	.Ldebug_line0
 205 0029 02       		.uleb128 0x2
 206 002a 04       		.byte	0x4
 207 002b 05       		.byte	0x5
 208 002c 696E7400 		.ascii	"int\000"
 209 0030 03       		.uleb128 0x3
 210 0031 04       		.byte	0x4
 211 0032 07       		.byte	0x7
 212 0033 8D000000 		.4byte	.LASF0
 213 0037 03       		.uleb128 0x3
 214 0038 01       		.byte	0x1
 215 0039 06       		.byte	0x6
 216 003a 8C050000 		.4byte	.LASF1
 217 003e 04       		.uleb128 0x4
 218 003f 21030000 		.4byte	.LASF4
 219 0043 04       		.byte	0x4
 220 0044 2A       		.byte	0x2a
 221 0045 49000000 		.4byte	0x49
 222 0049 03       		.uleb128 0x3
 223 004a 01       		.byte	0x1
 224 004b 08       		.byte	0x8
 225 004c 39050000 		.4byte	.LASF2
 226 0050 03       		.uleb128 0x3
ARM GAS  /tmp/cc16BShN.s 			page 5


 227 0051 02       		.byte	0x2
 228 0052 05       		.byte	0x5
 229 0053 37040000 		.4byte	.LASF3
 230 0057 04       		.uleb128 0x4
 231 0058 16040000 		.4byte	.LASF5
 232 005c 04       		.byte	0x4
 233 005d 36       		.byte	0x36
 234 005e 62000000 		.4byte	0x62
 235 0062 03       		.uleb128 0x3
 236 0063 02       		.byte	0x2
 237 0064 07       		.byte	0x7
 238 0065 98050000 		.4byte	.LASF6
 239 0069 04       		.uleb128 0x4
 240 006a 08050000 		.4byte	.LASF7
 241 006e 04       		.byte	0x4
 242 006f 4F       		.byte	0x4f
 243 0070 74000000 		.4byte	0x74
 244 0074 03       		.uleb128 0x3
 245 0075 04       		.byte	0x4
 246 0076 05       		.byte	0x5
 247 0077 5E040000 		.4byte	.LASF8
 248 007b 04       		.uleb128 0x4
 249 007c 6F010000 		.4byte	.LASF9
 250 0080 04       		.byte	0x4
 251 0081 50       		.byte	0x50
 252 0082 86000000 		.4byte	0x86
 253 0086 03       		.uleb128 0x3
 254 0087 04       		.byte	0x4
 255 0088 07       		.byte	0x7
 256 0089 E9040000 		.4byte	.LASF10
 257 008d 03       		.uleb128 0x3
 258 008e 08       		.byte	0x8
 259 008f 05       		.byte	0x5
 260 0090 59030000 		.4byte	.LASF11
 261 0094 04       		.uleb128 0x4
 262 0095 AB040000 		.4byte	.LASF12
 263 0099 04       		.byte	0x4
 264 009a 78       		.byte	0x78
 265 009b 9F000000 		.4byte	0x9f
 266 009f 03       		.uleb128 0x3
 267 00a0 08       		.byte	0x8
 268 00a1 07       		.byte	0x7
 269 00a2 CF010000 		.4byte	.LASF13
 270 00a6 04       		.uleb128 0x4
 271 00a7 1F040000 		.4byte	.LASF14
 272 00ab 05       		.byte	0x5
 273 00ac 39       		.byte	0x39
 274 00ad 7B000000 		.4byte	0x7b
 275 00b1 04       		.uleb128 0x4
 276 00b2 03040000 		.4byte	.LASF15
 277 00b6 05       		.byte	0x5
 278 00b7 3C       		.byte	0x3c
 279 00b8 3E000000 		.4byte	0x3e
 280 00bc 04       		.uleb128 0x4
 281 00bd 01030000 		.4byte	.LASF16
 282 00c1 05       		.byte	0x5
 283 00c2 3D       		.byte	0x3d
ARM GAS  /tmp/cc16BShN.s 			page 6


 284 00c3 3E000000 		.4byte	0x3e
 285 00c7 04       		.uleb128 0x4
 286 00c8 E1040000 		.4byte	.LASF17
 287 00cc 05       		.byte	0x5
 288 00cd 3E       		.byte	0x3e
 289 00ce 3E000000 		.4byte	0x3e
 290 00d2 04       		.uleb128 0x4
 291 00d3 A4010000 		.4byte	.LASF18
 292 00d7 05       		.byte	0x5
 293 00d8 40       		.byte	0x40
 294 00d9 7B000000 		.4byte	0x7b
 295 00dd 04       		.uleb128 0x4
 296 00de 77030000 		.4byte	.LASF19
 297 00e2 05       		.byte	0x5
 298 00e3 41       		.byte	0x41
 299 00e4 69000000 		.4byte	0x69
 300 00e8 04       		.uleb128 0x4
 301 00e9 78010000 		.4byte	.LASF20
 302 00ed 05       		.byte	0x5
 303 00ee 43       		.byte	0x43
 304 00ef 7B000000 		.4byte	0x7b
 305 00f3 04       		.uleb128 0x4
 306 00f4 E6010000 		.4byte	.LASF21
 307 00f8 05       		.byte	0x5
 308 00f9 45       		.byte	0x45
 309 00fa 69000000 		.4byte	0x69
 310 00fe 04       		.uleb128 0x4
 311 00ff 68000000 		.4byte	.LASF22
 312 0103 06       		.byte	0x6
 313 0104 35       		.byte	0x35
 314 0105 57000000 		.4byte	0x57
 315 0109 04       		.uleb128 0x4
 316 010a 11020000 		.4byte	.LASF23
 317 010e 06       		.byte	0x6
 318 010f 3F       		.byte	0x3f
 319 0110 14010000 		.4byte	0x114
 320 0114 05       		.uleb128 0x5
 321 0115 40030000 		.4byte	.LASF43
 322 0119 44       		.byte	0x44
 323 011a 07       		.byte	0x7
 324 011b C2       		.byte	0xc2
 325 011c 25020000 		.4byte	0x225
 326 0120 06       		.uleb128 0x6
 327 0121 A4040000 		.4byte	.LASF24
 328 0125 07       		.byte	0x7
 329 0126 C3       		.byte	0xc3
 330 0127 30020000 		.4byte	0x230
 331 012b 02       		.byte	0x2
 332 012c 23       		.byte	0x23
 333 012d 00       		.uleb128 0
 334 012e 06       		.uleb128 0x6
 335 012f DA040000 		.4byte	.LASF25
 336 0133 07       		.byte	0x7
 337 0134 C5       		.byte	0xc5
 338 0135 30020000 		.4byte	0x230
 339 0139 02       		.byte	0x2
 340 013a 23       		.byte	0x23
ARM GAS  /tmp/cc16BShN.s 			page 7


 341 013b 04       		.uleb128 0x4
 342 013c 06       		.uleb128 0x6
 343 013d 58000000 		.4byte	.LASF26
 344 0141 07       		.byte	0x7
 345 0142 C7       		.byte	0xc7
 346 0143 D2000000 		.4byte	0xd2
 347 0147 02       		.byte	0x2
 348 0148 23       		.byte	0x23
 349 0149 08       		.uleb128 0x8
 350 014a 06       		.uleb128 0x6
 351 014b B4040000 		.4byte	.LASF27
 352 014f 07       		.byte	0x7
 353 0150 C8       		.byte	0xc8
 354 0151 AD050000 		.4byte	0x5ad
 355 0155 02       		.byte	0x2
 356 0156 23       		.byte	0x23
 357 0157 0C       		.uleb128 0xc
 358 0158 06       		.uleb128 0x6
 359 0159 EC010000 		.4byte	.LASF28
 360 015d 07       		.byte	0x7
 361 015e CA       		.byte	0xca
 362 015f 30020000 		.4byte	0x230
 363 0163 02       		.byte	0x2
 364 0164 23       		.byte	0x23
 365 0165 10       		.uleb128 0x10
 366 0166 06       		.uleb128 0x6
 367 0167 11030000 		.4byte	.LASF29
 368 016b 07       		.byte	0x7
 369 016c CB       		.byte	0xcb
 370 016d 30020000 		.4byte	0x230
 371 0171 02       		.byte	0x2
 372 0172 23       		.byte	0x23
 373 0173 14       		.uleb128 0x14
 374 0174 06       		.uleb128 0x6
 375 0175 C4020000 		.4byte	.LASF30
 376 0179 07       		.byte	0x7
 377 017a D2       		.byte	0xd2
 378 017b 96080000 		.4byte	0x896
 379 017f 02       		.byte	0x2
 380 0180 23       		.byte	0x23
 381 0181 18       		.uleb128 0x18
 382 0182 06       		.uleb128 0x6
 383 0183 19030000 		.4byte	.LASF31
 384 0187 07       		.byte	0x7
 385 0188 DD       		.byte	0xdd
 386 0189 BC000000 		.4byte	0xbc
 387 018d 02       		.byte	0x2
 388 018e 23       		.byte	0x23
 389 018f 1C       		.uleb128 0x1c
 390 0190 06       		.uleb128 0x6
 391 0191 85030000 		.4byte	.LASF32
 392 0195 07       		.byte	0x7
 393 0196 E1       		.byte	0xe1
 394 0197 B1000000 		.4byte	0xb1
 395 019b 02       		.byte	0x2
 396 019c 23       		.byte	0x23
 397 019d 1D       		.uleb128 0x1d
ARM GAS  /tmp/cc16BShN.s 			page 8


 398 019e 06       		.uleb128 0x6
 399 019f 5D050000 		.4byte	.LASF33
 400 01a3 07       		.byte	0x7
 401 01a4 E6       		.byte	0xe6
 402 01a5 C7000000 		.4byte	0xc7
 403 01a9 02       		.byte	0x2
 404 01aa 23       		.byte	0x23
 405 01ab 1E       		.uleb128 0x1e
 406 01ac 07       		.uleb128 0x7
 407 01ad 705F7500 		.ascii	"p_u\000"
 408 01b1 07       		.byte	0x7
 409 01b2 3101     		.2byte	0x131
 410 01b4 C7070000 		.4byte	0x7c7
 411 01b8 02       		.byte	0x2
 412 01b9 23       		.byte	0x23
 413 01ba 20       		.uleb128 0x20
 414 01bb 08       		.uleb128 0x8
 415 01bc 20000000 		.4byte	.LASF34
 416 01c0 07       		.byte	0x7
 417 01c1 3601     		.2byte	0x136
 418 01c3 36020000 		.4byte	0x236
 419 01c7 02       		.byte	0x2
 420 01c8 23       		.byte	0x23
 421 01c9 24       		.uleb128 0x24
 422 01ca 08       		.uleb128 0x8
 423 01cb 82000000 		.4byte	.LASF35
 424 01cf 07       		.byte	0x7
 425 01d0 3C01     		.2byte	0x13c
 426 01d2 5C020000 		.4byte	0x25c
 427 01d6 02       		.byte	0x2
 428 01d7 23       		.byte	0x23
 429 01d8 28       		.uleb128 0x28
 430 01d9 08       		.uleb128 0x8
 431 01da FD030000 		.4byte	.LASF36
 432 01de 07       		.byte	0x7
 433 01df 4001     		.2byte	0x140
 434 01e1 DD000000 		.4byte	0xdd
 435 01e5 02       		.byte	0x2
 436 01e6 23       		.byte	0x23
 437 01e7 30       		.uleb128 0x30
 438 01e8 08       		.uleb128 0x8
 439 01e9 4B040000 		.4byte	.LASF37
 440 01ed 07       		.byte	0x7
 441 01ee 4601     		.2byte	0x146
 442 01f0 E8000000 		.4byte	0xe8
 443 01f4 02       		.byte	0x2
 444 01f5 23       		.byte	0x23
 445 01f6 34       		.uleb128 0x34
 446 01f7 08       		.uleb128 0x8
 447 01f8 31030000 		.4byte	.LASF38
 448 01fc 07       		.byte	0x7
 449 01fd 4D01     		.2byte	0x14d
 450 01ff 90080000 		.4byte	0x890
 451 0203 02       		.byte	0x2
 452 0204 23       		.byte	0x23
 453 0205 38       		.uleb128 0x38
 454 0206 08       		.uleb128 0x8
ARM GAS  /tmp/cc16BShN.s 			page 9


 455 0207 2C040000 		.4byte	.LASF39
 456 020b 07       		.byte	0x7
 457 020c 5101     		.2byte	0x151
 458 020e D2000000 		.4byte	0xd2
 459 0212 02       		.byte	0x2
 460 0213 23       		.byte	0x23
 461 0214 3C       		.uleb128 0x3c
 462 0215 08       		.uleb128 0x8
 463 0216 29030000 		.4byte	.LASF40
 464 021a 07       		.byte	0x7
 465 021b 5801     		.2byte	0x158
 466 021d 20030000 		.4byte	0x320
 467 0221 02       		.byte	0x2
 468 0222 23       		.byte	0x23
 469 0223 40       		.uleb128 0x40
 470 0224 00       		.byte	0
 471 0225 04       		.uleb128 0x4
 472 0226 E2020000 		.4byte	.LASF41
 473 022a 06       		.byte	0x6
 474 022b 44       		.byte	0x44
 475 022c 30020000 		.4byte	0x230
 476 0230 09       		.uleb128 0x9
 477 0231 04       		.byte	0x4
 478 0232 09010000 		.4byte	0x109
 479 0236 04       		.uleb128 0x4
 480 0237 9A000000 		.4byte	.LASF42
 481 023b 06       		.byte	0x6
 482 023c 49       		.byte	0x49
 483 023d 41020000 		.4byte	0x241
 484 0241 05       		.uleb128 0x5
 485 0242 00000000 		.4byte	.LASF44
 486 0246 04       		.byte	0x4
 487 0247 07       		.byte	0x7
 488 0248 B0       		.byte	0xb0
 489 0249 5C020000 		.4byte	0x25c
 490 024d 06       		.uleb128 0x6
 491 024e A4040000 		.4byte	.LASF24
 492 0252 07       		.byte	0x7
 493 0253 B1       		.byte	0xb1
 494 0254 30020000 		.4byte	0x230
 495 0258 02       		.byte	0x2
 496 0259 23       		.byte	0x23
 497 025a 00       		.uleb128 0
 498 025b 00       		.byte	0
 499 025c 04       		.uleb128 0x4
 500 025d 10000000 		.4byte	.LASF45
 501 0261 06       		.byte	0x6
 502 0262 50       		.byte	0x50
 503 0263 67020000 		.4byte	0x267
 504 0267 05       		.uleb128 0x5
 505 0268 11010000 		.4byte	.LASF46
 506 026c 08       		.byte	0x8
 507 026d 07       		.byte	0x7
 508 026e B7       		.byte	0xb7
 509 026f 90020000 		.4byte	0x290
 510 0273 06       		.uleb128 0x6
 511 0274 A4040000 		.4byte	.LASF24
ARM GAS  /tmp/cc16BShN.s 			page 10


 512 0278 07       		.byte	0x7
 513 0279 B8       		.byte	0xb8
 514 027a 30020000 		.4byte	0x230
 515 027e 02       		.byte	0x2
 516 027f 23       		.byte	0x23
 517 0280 00       		.uleb128 0
 518 0281 06       		.uleb128 0x6
 519 0282 DA040000 		.4byte	.LASF25
 520 0286 07       		.byte	0x7
 521 0287 B9       		.byte	0xb9
 522 0288 30020000 		.4byte	0x230
 523 028c 02       		.byte	0x2
 524 028d 23       		.byte	0x23
 525 028e 04       		.uleb128 0x4
 526 028f 00       		.byte	0
 527 0290 04       		.uleb128 0x4
 528 0291 FB040000 		.4byte	.LASF47
 529 0295 06       		.byte	0x6
 530 0296 57       		.byte	0x57
 531 0297 9B020000 		.4byte	0x29b
 532 029b 0A       		.uleb128 0xa
 533 029c ED000000 		.4byte	.LASF48
 534 02a0 1C       		.byte	0x1c
 535 02a1 07       		.byte	0x7
 536 02a2 9001     		.2byte	0x190
 537 02a4 03030000 		.4byte	0x303
 538 02a8 08       		.uleb128 0x8
 539 02a9 67030000 		.4byte	.LASF49
 540 02ad 07       		.byte	0x7
 541 02ae 9101     		.2byte	0x191
 542 02b0 5C020000 		.4byte	0x25c
 543 02b4 02       		.byte	0x2
 544 02b5 23       		.byte	0x23
 545 02b6 00       		.uleb128 0
 546 02b7 08       		.uleb128 0x8
 547 02b8 84010000 		.4byte	.LASF50
 548 02bc 07       		.byte	0x7
 549 02bd 9201     		.2byte	0x192
 550 02bf D2000000 		.4byte	0xd2
 551 02c3 02       		.byte	0x2
 552 02c4 23       		.byte	0x23
 553 02c5 08       		.uleb128 0x8
 554 02c6 08       		.uleb128 0x8
 555 02c7 AB050000 		.4byte	.LASF51
 556 02cb 07       		.byte	0x7
 557 02cc 9401     		.2byte	0x194
 558 02ce AD050000 		.4byte	0x5ad
 559 02d2 02       		.byte	0x2
 560 02d3 23       		.byte	0x23
 561 02d4 0C       		.uleb128 0xc
 562 02d5 08       		.uleb128 0x8
 563 02d6 6F030000 		.4byte	.LASF52
 564 02da 07       		.byte	0x7
 565 02db 9701     		.2byte	0x197
 566 02dd 30020000 		.4byte	0x230
 567 02e1 02       		.byte	0x2
 568 02e2 23       		.byte	0x23
ARM GAS  /tmp/cc16BShN.s 			page 11


 569 02e3 10       		.uleb128 0x10
 570 02e4 08       		.uleb128 0x8
 571 02e5 D7030000 		.4byte	.LASF53
 572 02e9 07       		.byte	0x7
 573 02ea 9801     		.2byte	0x198
 574 02ec 30020000 		.4byte	0x230
 575 02f0 02       		.byte	0x2
 576 02f1 23       		.byte	0x23
 577 02f2 14       		.uleb128 0x14
 578 02f3 08       		.uleb128 0x8
 579 02f4 41040000 		.4byte	.LASF54
 580 02f8 07       		.byte	0x7
 581 02f9 9B01     		.2byte	0x19b
 582 02fb 30020000 		.4byte	0x230
 583 02ff 02       		.byte	0x2
 584 0300 23       		.byte	0x23
 585 0301 18       		.uleb128 0x18
 586 0302 00       		.byte	0
 587 0303 04       		.uleb128 0x4
 588 0304 50010000 		.4byte	.LASF55
 589 0308 06       		.byte	0x6
 590 0309 5C       		.byte	0x5c
 591 030a 0E030000 		.4byte	0x30e
 592 030e 09       		.uleb128 0x9
 593 030f 04       		.byte	0x4
 594 0310 14030000 		.4byte	0x314
 595 0314 0B       		.uleb128 0xb
 596 0315 01       		.byte	0x1
 597 0316 20030000 		.4byte	0x320
 598 031a 0C       		.uleb128 0xc
 599 031b 20030000 		.4byte	0x320
 600 031f 00       		.byte	0
 601 0320 0D       		.uleb128 0xd
 602 0321 04       		.byte	0x4
 603 0322 04       		.uleb128 0x4
 604 0323 8D030000 		.4byte	.LASF56
 605 0327 06       		.byte	0x6
 606 0328 61       		.byte	0x61
 607 0329 2D030000 		.4byte	0x32d
 608 032d 0A       		.uleb128 0xa
 609 032e AC010000 		.4byte	.LASF57
 610 0332 14       		.byte	0x14
 611 0333 07       		.byte	0x7
 612 0334 6B01     		.2byte	0x16b
 613 0336 86030000 		.4byte	0x386
 614 033a 08       		.uleb128 0x8
 615 033b 64050000 		.4byte	.LASF58
 616 033f 07       		.byte	0x7
 617 0340 6C01     		.2byte	0x16c
 618 0342 A8080000 		.4byte	0x8a8
 619 0346 02       		.byte	0x2
 620 0347 23       		.byte	0x23
 621 0348 00       		.uleb128 0
 622 0349 08       		.uleb128 0x8
 623 034a D0050000 		.4byte	.LASF59
 624 034e 07       		.byte	0x7
 625 034f 6D01     		.2byte	0x16d
ARM GAS  /tmp/cc16BShN.s 			page 12


 626 0351 A8080000 		.4byte	0x8a8
 627 0355 02       		.byte	0x2
 628 0356 23       		.byte	0x23
 629 0357 04       		.uleb128 0x4
 630 0358 08       		.uleb128 0x8
 631 0359 D9020000 		.4byte	.LASF60
 632 035d 07       		.byte	0x7
 633 035e 6E01     		.2byte	0x16e
 634 0360 FE000000 		.4byte	0xfe
 635 0364 02       		.byte	0x2
 636 0365 23       		.byte	0x23
 637 0366 08       		.uleb128 0x8
 638 0367 08       		.uleb128 0x8
 639 0368 BC050000 		.4byte	.LASF61
 640 036c 07       		.byte	0x7
 641 036d 6F01     		.2byte	0x16f
 642 036f 03030000 		.4byte	0x303
 643 0373 02       		.byte	0x2
 644 0374 23       		.byte	0x23
 645 0375 0C       		.uleb128 0xc
 646 0376 08       		.uleb128 0x8
 647 0377 90010000 		.4byte	.LASF62
 648 037b 07       		.byte	0x7
 649 037c 7101     		.2byte	0x171
 650 037e 20030000 		.4byte	0x320
 651 0382 02       		.byte	0x2
 652 0383 23       		.byte	0x23
 653 0384 10       		.uleb128 0x10
 654 0385 00       		.byte	0
 655 0386 04       		.uleb128 0x4
 656 0387 47050000 		.4byte	.LASF63
 657 038b 06       		.byte	0x6
 658 038c 66       		.byte	0x66
 659 038d 91030000 		.4byte	0x391
 660 0391 0A       		.uleb128 0xa
 661 0392 FA010000 		.4byte	.LASF64
 662 0396 0C       		.byte	0xc
 663 0397 07       		.byte	0x7
 664 0398 7B01     		.2byte	0x17b
 665 039a DB030000 		.4byte	0x3db
 666 039e 08       		.uleb128 0x8
 667 039f 64050000 		.4byte	.LASF58
 668 03a3 07       		.byte	0x7
 669 03a4 7C01     		.2byte	0x17c
 670 03a6 A8080000 		.4byte	0x8a8
 671 03aa 02       		.byte	0x2
 672 03ab 23       		.byte	0x23
 673 03ac 00       		.uleb128 0
 674 03ad 08       		.uleb128 0x8
 675 03ae D0050000 		.4byte	.LASF59
 676 03b2 07       		.byte	0x7
 677 03b3 7E01     		.2byte	0x17e
 678 03b5 A8080000 		.4byte	0x8a8
 679 03b9 02       		.byte	0x2
 680 03ba 23       		.byte	0x23
 681 03bb 04       		.uleb128 0x4
 682 03bc 08       		.uleb128 0x8
ARM GAS  /tmp/cc16BShN.s 			page 13


 683 03bd D9020000 		.4byte	.LASF60
 684 03c1 07       		.byte	0x7
 685 03c2 8001     		.2byte	0x180
 686 03c4 FE000000 		.4byte	0xfe
 687 03c8 02       		.byte	0x2
 688 03c9 23       		.byte	0x23
 689 03ca 08       		.uleb128 0x8
 690 03cb 08       		.uleb128 0x8
 691 03cc F5020000 		.4byte	.LASF65
 692 03d0 07       		.byte	0x7
 693 03d1 8801     		.2byte	0x188
 694 03d3 FE000000 		.4byte	0xfe
 695 03d7 02       		.byte	0x2
 696 03d8 23       		.byte	0x23
 697 03d9 0A       		.uleb128 0xa
 698 03da 00       		.byte	0
 699 03db 04       		.uleb128 0x4
 700 03dc 4A030000 		.4byte	.LASF66
 701 03e0 06       		.byte	0x6
 702 03e1 6B       		.byte	0x6b
 703 03e2 E6030000 		.4byte	0x3e6
 704 03e6 0A       		.uleb128 0xa
 705 03e7 5F010000 		.4byte	.LASF67
 706 03eb 04       		.byte	0x4
 707 03ec 07       		.byte	0x7
 708 03ed A201     		.2byte	0x1a2
 709 03ef 03040000 		.4byte	0x403
 710 03f3 08       		.uleb128 0x8
 711 03f4 ED030000 		.4byte	.LASF68
 712 03f8 07       		.byte	0x7
 713 03f9 AA01     		.2byte	0x1aa
 714 03fb AE080000 		.4byte	0x8ae
 715 03ff 02       		.byte	0x2
 716 0400 23       		.byte	0x23
 717 0401 00       		.uleb128 0
 718 0402 00       		.byte	0
 719 0403 04       		.uleb128 0x4
 720 0404 6C050000 		.4byte	.LASF69
 721 0408 06       		.byte	0x6
 722 0409 70       		.byte	0x70
 723 040a 0E040000 		.4byte	0x40e
 724 040e 0E       		.uleb128 0xe
 725 040f 80040000 		.4byte	.LASF70
 726 0413 5001     		.2byte	0x150
 727 0415 07       		.byte	0x7
 728 0416 C201     		.2byte	0x1c2
 729 0418 76040000 		.4byte	0x476
 730 041c 08       		.uleb128 0x8
 731 041d BF040000 		.4byte	.LASF71
 732 0421 07       		.byte	0x7
 733 0422 C601     		.2byte	0x1c6
 734 0424 90020000 		.4byte	0x290
 735 0428 02       		.byte	0x2
 736 0429 23       		.byte	0x23
 737 042a 00       		.uleb128 0
 738 042b 08       		.uleb128 0x8
 739 042c D3000000 		.4byte	.LASF72
ARM GAS  /tmp/cc16BShN.s 			page 14


 740 0430 07       		.byte	0x7
 741 0431 CA01     		.2byte	0x1ca
 742 0433 86030000 		.4byte	0x386
 743 0437 02       		.byte	0x2
 744 0438 23       		.byte	0x23
 745 0439 1C       		.uleb128 0x1c
 746 043a 07       		.uleb128 0x7
 747 043b 64626700 		.ascii	"dbg\000"
 748 043f 07       		.byte	0x7
 749 0440 CE01     		.2byte	0x1ce
 750 0442 DB030000 		.4byte	0x3db
 751 0446 02       		.byte	0x2
 752 0447 23       		.byte	0x23
 753 0448 28       		.uleb128 0x28
 754 0449 08       		.uleb128 0x8
 755 044a 0B040000 		.4byte	.LASF73
 756 044e 07       		.byte	0x7
 757 044f D201     		.2byte	0x1d2
 758 0451 09010000 		.4byte	0x109
 759 0455 02       		.byte	0x2
 760 0456 23       		.byte	0x23
 761 0457 2C       		.uleb128 0x2c
 762 0458 07       		.uleb128 0x7
 763 0459 746D00   		.ascii	"tm\000"
 764 045c 07       		.byte	0x7
 765 045d D701     		.2byte	0x1d7
 766 045f BC070000 		.4byte	0x7bc
 767 0463 02       		.byte	0x2
 768 0464 23       		.byte	0x23
 769 0465 70       		.uleb128 0x70
 770 0466 08       		.uleb128 0x8
 771 0467 FB000000 		.4byte	.LASF74
 772 046b 07       		.byte	0x7
 773 046c E301     		.2byte	0x1e3
 774 046e B3080000 		.4byte	0x8b3
 775 0472 02       		.byte	0x2
 776 0473 23       		.byte	0x23
 777 0474 78       		.uleb128 0x78
 778 0475 00       		.byte	0
 779 0476 0F       		.uleb128 0xf
 780 0477 7B000000 		.4byte	0x7b
 781 047b 10       		.uleb128 0x10
 782 047c 7B000000 		.4byte	0x7b
 783 0480 8B040000 		.4byte	0x48b
 784 0484 11       		.uleb128 0x11
 785 0485 30000000 		.4byte	0x30
 786 0489 01       		.byte	0x1
 787 048a 00       		.byte	0
 788 048b 10       		.uleb128 0x10
 789 048c 7B000000 		.4byte	0x7b
 790 0490 9B040000 		.4byte	0x49b
 791 0494 11       		.uleb128 0x11
 792 0495 30000000 		.4byte	0x30
 793 0499 03       		.byte	0x3
 794 049a 00       		.byte	0
 795 049b 12       		.uleb128 0x12
 796 049c 08       		.byte	0x8
ARM GAS  /tmp/cc16BShN.s 			page 15


 797 049d 08       		.byte	0x8
 798 049e 0401     		.2byte	0x104
 799 04a0 C2040000 		.4byte	0x4c2
 800 04a4 08       		.uleb128 0x8
 801 04a5 EB050000 		.4byte	.LASF75
 802 04a9 08       		.byte	0x8
 803 04aa 0601     		.2byte	0x106
 804 04ac 76040000 		.4byte	0x476
 805 04b0 02       		.byte	0x2
 806 04b1 23       		.byte	0x23
 807 04b2 00       		.uleb128 0
 808 04b3 07       		.uleb128 0x7
 809 04b4 435200   		.ascii	"CR\000"
 810 04b7 08       		.byte	0x8
 811 04b8 0701     		.2byte	0x107
 812 04ba 76040000 		.4byte	0x476
 813 04be 02       		.byte	0x2
 814 04bf 23       		.byte	0x23
 815 04c0 04       		.uleb128 0x4
 816 04c1 00       		.byte	0
 817 04c2 13       		.uleb128 0x13
 818 04c3 38010000 		.4byte	.LASF76
 819 04c7 08       		.byte	0x8
 820 04c8 0801     		.2byte	0x108
 821 04ca 9B040000 		.4byte	0x49b
 822 04ce 12       		.uleb128 0x12
 823 04cf 30       		.byte	0x30
 824 04d0 08       		.byte	0x8
 825 04d1 9301     		.2byte	0x193
 826 04d3 8B050000 		.4byte	0x58b
 827 04d7 07       		.uleb128 0x7
 828 04d8 435200   		.ascii	"CR\000"
 829 04db 08       		.byte	0x8
 830 04dc 9501     		.2byte	0x195
 831 04de 76040000 		.4byte	0x476
 832 04e2 02       		.byte	0x2
 833 04e3 23       		.byte	0x23
 834 04e4 00       		.uleb128 0
 835 04e5 08       		.uleb128 0x8
 836 04e6 BA040000 		.4byte	.LASF77
 837 04ea 08       		.byte	0x8
 838 04eb 9601     		.2byte	0x196
 839 04ed 76040000 		.4byte	0x476
 840 04f1 02       		.byte	0x2
 841 04f2 23       		.byte	0x23
 842 04f3 04       		.uleb128 0x4
 843 04f4 07       		.uleb128 0x7
 844 04f5 43495200 		.ascii	"CIR\000"
 845 04f9 08       		.byte	0x8
 846 04fa 9701     		.2byte	0x197
 847 04fc 76040000 		.4byte	0x476
 848 0500 02       		.byte	0x2
 849 0501 23       		.byte	0x23
 850 0502 08       		.uleb128 0x8
 851 0503 08       		.uleb128 0x8
 852 0504 5F000000 		.4byte	.LASF78
 853 0508 08       		.byte	0x8
ARM GAS  /tmp/cc16BShN.s 			page 16


 854 0509 9801     		.2byte	0x198
 855 050b 76040000 		.4byte	0x476
 856 050f 02       		.byte	0x2
 857 0510 23       		.byte	0x23
 858 0511 0C       		.uleb128 0xc
 859 0512 08       		.uleb128 0x8
 860 0513 CB020000 		.4byte	.LASF79
 861 0517 08       		.byte	0x8
 862 0518 9901     		.2byte	0x199
 863 051a 76040000 		.4byte	0x476
 864 051e 02       		.byte	0x2
 865 051f 23       		.byte	0x23
 866 0520 10       		.uleb128 0x10
 867 0521 08       		.uleb128 0x8
 868 0522 0A030000 		.4byte	.LASF80
 869 0526 08       		.byte	0x8
 870 0527 9A01     		.2byte	0x19a
 871 0529 76040000 		.4byte	0x476
 872 052d 02       		.byte	0x2
 873 052e 23       		.byte	0x23
 874 052f 14       		.uleb128 0x14
 875 0530 08       		.uleb128 0x8
 876 0531 E5030000 		.4byte	.LASF81
 877 0535 08       		.byte	0x8
 878 0536 9B01     		.2byte	0x19b
 879 0538 76040000 		.4byte	0x476
 880 053c 02       		.byte	0x2
 881 053d 23       		.byte	0x23
 882 053e 18       		.uleb128 0x18
 883 053f 08       		.uleb128 0x8
 884 0540 2A000000 		.4byte	.LASF82
 885 0544 08       		.byte	0x8
 886 0545 9C01     		.2byte	0x19c
 887 0547 76040000 		.4byte	0x476
 888 054b 02       		.byte	0x2
 889 054c 23       		.byte	0x23
 890 054d 1C       		.uleb128 0x1c
 891 054e 08       		.uleb128 0x8
 892 054f A9000000 		.4byte	.LASF83
 893 0553 08       		.byte	0x8
 894 0554 9D01     		.2byte	0x19d
 895 0556 76040000 		.4byte	0x476
 896 055a 02       		.byte	0x2
 897 055b 23       		.byte	0x23
 898 055c 20       		.uleb128 0x20
 899 055d 07       		.uleb128 0x7
 900 055e 43535200 		.ascii	"CSR\000"
 901 0562 08       		.byte	0x8
 902 0563 9E01     		.2byte	0x19e
 903 0565 76040000 		.4byte	0x476
 904 0569 02       		.byte	0x2
 905 056a 23       		.byte	0x23
 906 056b 24       		.uleb128 0x24
 907 056c 08       		.uleb128 0x8
 908 056d D8050000 		.4byte	.LASF84
 909 0571 08       		.byte	0x8
 910 0572 A101     		.2byte	0x1a1
ARM GAS  /tmp/cc16BShN.s 			page 17


 911 0574 7B000000 		.4byte	0x7b
 912 0578 02       		.byte	0x2
 913 0579 23       		.byte	0x23
 914 057a 28       		.uleb128 0x28
 915 057b 08       		.uleb128 0x8
 916 057c DF030000 		.4byte	.LASF85
 917 0580 08       		.byte	0x8
 918 0581 A201     		.2byte	0x1a2
 919 0583 76040000 		.4byte	0x476
 920 0587 02       		.byte	0x2
 921 0588 23       		.byte	0x23
 922 0589 2C       		.uleb128 0x2c
 923 058a 00       		.byte	0
 924 058b 13       		.uleb128 0x13
 925 058c 5A020000 		.4byte	.LASF86
 926 0590 08       		.byte	0x8
 927 0591 A301     		.2byte	0x1a3
 928 0593 CE040000 		.4byte	0x4ce
 929 0597 04       		.uleb128 0x4
 930 0598 4F000000 		.4byte	.LASF87
 931 059c 09       		.byte	0x9
 932 059d 65       		.byte	0x65
 933 059e 20030000 		.4byte	0x320
 934 05a2 04       		.uleb128 0x4
 935 05a3 B1050000 		.4byte	.LASF88
 936 05a7 09       		.byte	0x9
 937 05a8 6D       		.byte	0x6d
 938 05a9 94000000 		.4byte	0x94
 939 05ad 05       		.uleb128 0x5
 940 05ae 7D030000 		.4byte	.LASF89
 941 05b2 04       		.byte	0x4
 942 05b3 09       		.byte	0x9
 943 05b4 89       		.byte	0x89
 944 05b5 C8050000 		.4byte	0x5c8
 945 05b9 14       		.uleb128 0x14
 946 05ba 72313300 		.ascii	"r13\000"
 947 05be 09       		.byte	0x9
 948 05bf 8A       		.byte	0x8a
 949 05c0 55060000 		.4byte	0x655
 950 05c4 02       		.byte	0x2
 951 05c5 23       		.byte	0x23
 952 05c6 00       		.uleb128 0
 953 05c7 00       		.byte	0
 954 05c8 05       		.uleb128 0x5
 955 05c9 67040000 		.4byte	.LASF90
 956 05cd 24       		.byte	0x24
 957 05ce 0A       		.byte	0xa
 958 05cf FD       		.byte	0xfd
 959 05d0 55060000 		.4byte	0x655
 960 05d4 07       		.uleb128 0x7
 961 05d5 723400   		.ascii	"r4\000"
 962 05d8 0A       		.byte	0xa
 963 05d9 1001     		.2byte	0x110
 964 05db 97050000 		.4byte	0x597
 965 05df 02       		.byte	0x2
 966 05e0 23       		.byte	0x23
 967 05e1 00       		.uleb128 0
ARM GAS  /tmp/cc16BShN.s 			page 18


 968 05e2 07       		.uleb128 0x7
 969 05e3 723500   		.ascii	"r5\000"
 970 05e6 0A       		.byte	0xa
 971 05e7 1101     		.2byte	0x111
 972 05e9 97050000 		.4byte	0x597
 973 05ed 02       		.byte	0x2
 974 05ee 23       		.byte	0x23
 975 05ef 04       		.uleb128 0x4
 976 05f0 07       		.uleb128 0x7
 977 05f1 723600   		.ascii	"r6\000"
 978 05f4 0A       		.byte	0xa
 979 05f5 1201     		.2byte	0x112
 980 05f7 97050000 		.4byte	0x597
 981 05fb 02       		.byte	0x2
 982 05fc 23       		.byte	0x23
 983 05fd 08       		.uleb128 0x8
 984 05fe 07       		.uleb128 0x7
 985 05ff 723700   		.ascii	"r7\000"
 986 0602 0A       		.byte	0xa
 987 0603 1301     		.2byte	0x113
 988 0605 97050000 		.4byte	0x597
 989 0609 02       		.byte	0x2
 990 060a 23       		.byte	0x23
 991 060b 0C       		.uleb128 0xc
 992 060c 07       		.uleb128 0x7
 993 060d 723800   		.ascii	"r8\000"
 994 0610 0A       		.byte	0xa
 995 0611 1401     		.2byte	0x114
 996 0613 97050000 		.4byte	0x597
 997 0617 02       		.byte	0x2
 998 0618 23       		.byte	0x23
 999 0619 10       		.uleb128 0x10
 1000 061a 07       		.uleb128 0x7
 1001 061b 723900   		.ascii	"r9\000"
 1002 061e 0A       		.byte	0xa
 1003 061f 1501     		.2byte	0x115
 1004 0621 97050000 		.4byte	0x597
 1005 0625 02       		.byte	0x2
 1006 0626 23       		.byte	0x23
 1007 0627 14       		.uleb128 0x14
 1008 0628 07       		.uleb128 0x7
 1009 0629 72313000 		.ascii	"r10\000"
 1010 062d 0A       		.byte	0xa
 1011 062e 1601     		.2byte	0x116
 1012 0630 97050000 		.4byte	0x597
 1013 0634 02       		.byte	0x2
 1014 0635 23       		.byte	0x23
 1015 0636 18       		.uleb128 0x18
 1016 0637 07       		.uleb128 0x7
 1017 0638 72313100 		.ascii	"r11\000"
 1018 063c 0A       		.byte	0xa
 1019 063d 1701     		.2byte	0x117
 1020 063f 97050000 		.4byte	0x597
 1021 0643 02       		.byte	0x2
 1022 0644 23       		.byte	0x23
 1023 0645 1C       		.uleb128 0x1c
 1024 0646 07       		.uleb128 0x7
ARM GAS  /tmp/cc16BShN.s 			page 19


 1025 0647 6C7200   		.ascii	"lr\000"
 1026 064a 0A       		.byte	0xa
 1027 064b 1801     		.2byte	0x118
 1028 064d 97050000 		.4byte	0x597
 1029 0651 02       		.byte	0x2
 1030 0652 23       		.byte	0x23
 1031 0653 20       		.uleb128 0x20
 1032 0654 00       		.byte	0
 1033 0655 09       		.uleb128 0x9
 1034 0656 04       		.byte	0x4
 1035 0657 C8050000 		.4byte	0x5c8
 1036 065b 12       		.uleb128 0x12
 1037 065c 60       		.byte	0x60
 1038 065d 0B       		.byte	0xb
 1039 065e A101     		.2byte	0x1a1
 1040 0660 8F070000 		.4byte	0x78f
 1041 0664 07       		.uleb128 0x7
 1042 0665 43523100 		.ascii	"CR1\000"
 1043 0669 0B       		.byte	0xb
 1044 066a A201     		.2byte	0x1a2
 1045 066c 76040000 		.4byte	0x476
 1046 0670 02       		.byte	0x2
 1047 0671 23       		.byte	0x23
 1048 0672 00       		.uleb128 0
 1049 0673 07       		.uleb128 0x7
 1050 0674 43523200 		.ascii	"CR2\000"
 1051 0678 0B       		.byte	0xb
 1052 0679 A301     		.2byte	0x1a3
 1053 067b 76040000 		.4byte	0x476
 1054 067f 02       		.byte	0x2
 1055 0680 23       		.byte	0x23
 1056 0681 04       		.uleb128 0x4
 1057 0682 08       		.uleb128 0x8
 1058 0683 3B030000 		.4byte	.LASF91
 1059 0687 0B       		.byte	0xb
 1060 0688 A401     		.2byte	0x1a4
 1061 068a 76040000 		.4byte	0x476
 1062 068e 02       		.byte	0x2
 1063 068f 23       		.byte	0x23
 1064 0690 08       		.uleb128 0x8
 1065 0691 08       		.uleb128 0x8
 1066 0692 BF020000 		.4byte	.LASF92
 1067 0696 0B       		.byte	0xb
 1068 0697 A501     		.2byte	0x1a5
 1069 0699 76040000 		.4byte	0x476
 1070 069d 02       		.byte	0x2
 1071 069e 23       		.byte	0x23
 1072 069f 0C       		.uleb128 0xc
 1073 06a0 07       		.uleb128 0x7
 1074 06a1 535200   		.ascii	"SR\000"
 1075 06a4 0B       		.byte	0xb
 1076 06a5 A601     		.2byte	0x1a6
 1077 06a7 76040000 		.4byte	0x476
 1078 06ab 02       		.byte	0x2
 1079 06ac 23       		.byte	0x23
 1080 06ad 10       		.uleb128 0x10
 1081 06ae 07       		.uleb128 0x7
ARM GAS  /tmp/cc16BShN.s 			page 20


 1082 06af 45475200 		.ascii	"EGR\000"
 1083 06b3 0B       		.byte	0xb
 1084 06b4 A701     		.2byte	0x1a7
 1085 06b6 76040000 		.4byte	0x476
 1086 06ba 02       		.byte	0x2
 1087 06bb 23       		.byte	0x23
 1088 06bc 14       		.uleb128 0x14
 1089 06bd 08       		.uleb128 0x8
 1090 06be BD010000 		.4byte	.LASF93
 1091 06c2 0B       		.byte	0xb
 1092 06c3 A801     		.2byte	0x1a8
 1093 06c5 76040000 		.4byte	0x476
 1094 06c9 02       		.byte	0x2
 1095 06ca 23       		.byte	0x23
 1096 06cb 18       		.uleb128 0x18
 1097 06cc 08       		.uleb128 0x8
 1098 06cd C3010000 		.4byte	.LASF94
 1099 06d1 0B       		.byte	0xb
 1100 06d2 A901     		.2byte	0x1a9
 1101 06d4 76040000 		.4byte	0x476
 1102 06d8 02       		.byte	0x2
 1103 06d9 23       		.byte	0x23
 1104 06da 1C       		.uleb128 0x1c
 1105 06db 08       		.uleb128 0x8
 1106 06dc D4020000 		.4byte	.LASF95
 1107 06e0 0B       		.byte	0xb
 1108 06e1 AA01     		.2byte	0x1aa
 1109 06e3 76040000 		.4byte	0x476
 1110 06e7 02       		.byte	0x2
 1111 06e8 23       		.byte	0x23
 1112 06e9 20       		.uleb128 0x20
 1113 06ea 07       		.uleb128 0x7
 1114 06eb 434E5400 		.ascii	"CNT\000"
 1115 06ef 0B       		.byte	0xb
 1116 06f0 AB01     		.2byte	0x1ab
 1117 06f2 76040000 		.4byte	0x476
 1118 06f6 02       		.byte	0x2
 1119 06f7 23       		.byte	0x23
 1120 06f8 24       		.uleb128 0x24
 1121 06f9 07       		.uleb128 0x7
 1122 06fa 50534300 		.ascii	"PSC\000"
 1123 06fe 0B       		.byte	0xb
 1124 06ff AC01     		.2byte	0x1ac
 1125 0701 76040000 		.4byte	0x476
 1126 0705 02       		.byte	0x2
 1127 0706 23       		.byte	0x23
 1128 0707 28       		.uleb128 0x28
 1129 0708 07       		.uleb128 0x7
 1130 0709 41525200 		.ascii	"ARR\000"
 1131 070d 0B       		.byte	0xb
 1132 070e AD01     		.2byte	0x1ad
 1133 0710 76040000 		.4byte	0x476
 1134 0714 02       		.byte	0x2
 1135 0715 23       		.byte	0x23
 1136 0716 2C       		.uleb128 0x2c
 1137 0717 07       		.uleb128 0x7
 1138 0718 52435200 		.ascii	"RCR\000"
ARM GAS  /tmp/cc16BShN.s 			page 21


 1139 071c 0B       		.byte	0xb
 1140 071d AE01     		.2byte	0x1ae
 1141 071f 76040000 		.4byte	0x476
 1142 0723 02       		.byte	0x2
 1143 0724 23       		.byte	0x23
 1144 0725 30       		.uleb128 0x30
 1145 0726 07       		.uleb128 0x7
 1146 0727 43435200 		.ascii	"CCR\000"
 1147 072b 0B       		.byte	0xb
 1148 072c AF01     		.2byte	0x1af
 1149 072e 8F070000 		.4byte	0x78f
 1150 0732 02       		.byte	0x2
 1151 0733 23       		.byte	0x23
 1152 0734 34       		.uleb128 0x34
 1153 0735 08       		.uleb128 0x8
 1154 0736 8B010000 		.4byte	.LASF96
 1155 073a 0B       		.byte	0xb
 1156 073b B001     		.2byte	0x1b0
 1157 073d 76040000 		.4byte	0x476
 1158 0741 02       		.byte	0x2
 1159 0742 23       		.byte	0x23
 1160 0743 44       		.uleb128 0x44
 1161 0744 07       		.uleb128 0x7
 1162 0745 44435200 		.ascii	"DCR\000"
 1163 0749 0B       		.byte	0xb
 1164 074a B101     		.2byte	0x1b1
 1165 074c 76040000 		.4byte	0x476
 1166 0750 02       		.byte	0x2
 1167 0751 23       		.byte	0x23
 1168 0752 48       		.uleb128 0x48
 1169 0753 08       		.uleb128 0x8
 1170 0754 33010000 		.4byte	.LASF97
 1171 0758 0B       		.byte	0xb
 1172 0759 B201     		.2byte	0x1b2
 1173 075b 76040000 		.4byte	0x476
 1174 075f 02       		.byte	0x2
 1175 0760 23       		.byte	0x23
 1176 0761 4C       		.uleb128 0x4c
 1177 0762 07       		.uleb128 0x7
 1178 0763 4F5200   		.ascii	"OR\000"
 1179 0766 0B       		.byte	0xb
 1180 0767 B301     		.2byte	0x1b3
 1181 0769 76040000 		.4byte	0x476
 1182 076d 02       		.byte	0x2
 1183 076e 23       		.byte	0x23
 1184 076f 50       		.uleb128 0x50
 1185 0770 08       		.uleb128 0x8
 1186 0771 C9010000 		.4byte	.LASF98
 1187 0775 0B       		.byte	0xb
 1188 0776 B401     		.2byte	0x1b4
 1189 0778 76040000 		.4byte	0x476
 1190 077c 02       		.byte	0x2
 1191 077d 23       		.byte	0x23
 1192 077e 54       		.uleb128 0x54
 1193 077f 08       		.uleb128 0x8
 1194 0780 27040000 		.4byte	.LASF99
 1195 0784 0B       		.byte	0xb
ARM GAS  /tmp/cc16BShN.s 			page 22


 1196 0785 B501     		.2byte	0x1b5
 1197 0787 94070000 		.4byte	0x794
 1198 078b 02       		.byte	0x2
 1199 078c 23       		.byte	0x23
 1200 078d 58       		.uleb128 0x58
 1201 078e 00       		.byte	0
 1202 078f 0F       		.uleb128 0xf
 1203 0790 8B040000 		.4byte	0x48b
 1204 0794 0F       		.uleb128 0xf
 1205 0795 7B040000 		.4byte	0x47b
 1206 0799 13       		.uleb128 0x13
 1207 079a 4E020000 		.4byte	.LASF100
 1208 079e 0B       		.byte	0xb
 1209 079f B601     		.2byte	0x1b6
 1210 07a1 5B060000 		.4byte	0x65b
 1211 07a5 15       		.uleb128 0x15
 1212 07a6 04       		.byte	0x4
 1213 07a7 0C       		.byte	0xc
 1214 07a8 38       		.byte	0x38
 1215 07a9 BC070000 		.4byte	0x7bc
 1216 07ad 06       		.uleb128 0x6
 1217 07ae 47020000 		.4byte	.LASF101
 1218 07b2 0C       		.byte	0xc
 1219 07b3 3C       		.byte	0x3c
 1220 07b4 A6000000 		.4byte	0xa6
 1221 07b8 02       		.byte	0x2
 1222 07b9 23       		.byte	0x23
 1223 07ba 00       		.uleb128 0
 1224 07bb 00       		.byte	0
 1225 07bc 04       		.uleb128 0x4
 1226 07bd 39000000 		.4byte	.LASF102
 1227 07c1 0C       		.byte	0xc
 1228 07c2 3D       		.byte	0x3d
 1229 07c3 A5070000 		.4byte	0x7a5
 1230 07c7 16       		.uleb128 0x16
 1231 07c8 04       		.byte	0x4
 1232 07c9 07       		.byte	0x7
 1233 07ca FA       		.byte	0xfa
 1234 07cb 24080000 		.4byte	0x824
 1235 07cf 17       		.uleb128 0x17
 1236 07d0 2D020000 		.4byte	.LASF103
 1237 07d4 07       		.byte	0x7
 1238 07d5 0101     		.2byte	0x101
 1239 07d7 DD000000 		.4byte	0xdd
 1240 07db 17       		.uleb128 0x17
 1241 07dc E2050000 		.4byte	.LASF104
 1242 07e0 07       		.byte	0x7
 1243 07e1 0801     		.2byte	0x108
 1244 07e3 DD000000 		.4byte	0xdd
 1245 07e7 17       		.uleb128 0x17
 1246 07e8 C2000000 		.4byte	.LASF105
 1247 07ec 07       		.byte	0x7
 1248 07ed 0F01     		.2byte	0x10f
 1249 07ef 20030000 		.4byte	0x320
 1250 07f3 17       		.uleb128 0x17
 1251 07f4 7F050000 		.4byte	.LASF106
 1252 07f8 07       		.byte	0x7
ARM GAS  /tmp/cc16BShN.s 			page 23


 1253 07f9 1601     		.2byte	0x116
 1254 07fb 24080000 		.4byte	0x824
 1255 07ff 17       		.uleb128 0x17
 1256 0800 78050000 		.4byte	.LASF107
 1257 0804 07       		.byte	0x7
 1258 0805 1E01     		.2byte	0x11e
 1259 0807 53080000 		.4byte	0x853
 1260 080b 17       		.uleb128 0x17
 1261 080c 32000000 		.4byte	.LASF108
 1262 0810 07       		.byte	0x7
 1263 0811 2701     		.2byte	0x127
 1264 0813 90080000 		.4byte	0x890
 1265 0817 17       		.uleb128 0x17
 1266 0818 0A010000 		.4byte	.LASF109
 1267 081c 07       		.byte	0x7
 1268 081d 2F01     		.2byte	0x12f
 1269 081f E8000000 		.4byte	0xe8
 1270 0823 00       		.byte	0
 1271 0824 09       		.uleb128 0x9
 1272 0825 04       		.byte	0x4
 1273 0826 25020000 		.4byte	0x225
 1274 082a 05       		.uleb128 0x5
 1275 082b 97010000 		.4byte	.LASF110
 1276 082f 0C       		.byte	0xc
 1277 0830 0D       		.byte	0xd
 1278 0831 34       		.byte	0x34
 1279 0832 53080000 		.4byte	0x853
 1280 0836 06       		.uleb128 0x6
 1281 0837 7A000000 		.4byte	.LASF111
 1282 083b 0D       		.byte	0xd
 1283 083c 35       		.byte	0x35
 1284 083d 5C020000 		.4byte	0x25c
 1285 0841 02       		.byte	0x2
 1286 0842 23       		.byte	0x23
 1287 0843 00       		.uleb128 0
 1288 0844 06       		.uleb128 0x6
 1289 0845 59010000 		.4byte	.LASF112
 1290 0849 0D       		.byte	0xd
 1291 084a 37       		.byte	0x37
 1292 084b F3000000 		.4byte	0xf3
 1293 084f 02       		.byte	0x2
 1294 0850 23       		.byte	0x23
 1295 0851 08       		.uleb128 0x8
 1296 0852 00       		.byte	0
 1297 0853 09       		.uleb128 0x9
 1298 0854 04       		.byte	0x4
 1299 0855 2A080000 		.4byte	0x82a
 1300 0859 05       		.uleb128 0x5
 1301 085a B6020000 		.4byte	.LASF113
 1302 085e 10       		.byte	0x10
 1303 085f 0E       		.byte	0xe
 1304 0860 39       		.byte	0x39
 1305 0861 90080000 		.4byte	0x890
 1306 0865 06       		.uleb128 0x6
 1307 0866 56040000 		.4byte	.LASF114
 1308 086a 0E       		.byte	0xe
 1309 086b 3A       		.byte	0x3a
ARM GAS  /tmp/cc16BShN.s 			page 24


 1310 086c 5C020000 		.4byte	0x25c
 1311 0870 02       		.byte	0x2
 1312 0871 23       		.byte	0x23
 1313 0872 00       		.uleb128 0
 1314 0873 06       		.uleb128 0x6
 1315 0874 72000000 		.4byte	.LASF115
 1316 0878 0E       		.byte	0xe
 1317 0879 3C       		.byte	0x3c
 1318 087a 30020000 		.4byte	0x230
 1319 087e 02       		.byte	0x2
 1320 087f 23       		.byte	0x23
 1321 0880 08       		.uleb128 0x8
 1322 0881 06       		.uleb128 0x6
 1323 0882 85050000 		.4byte	.LASF116
 1324 0886 0E       		.byte	0xe
 1325 0887 3E       		.byte	0x3e
 1326 0888 CE080000 		.4byte	0x8ce
 1327 088c 02       		.byte	0x2
 1328 088d 23       		.byte	0x23
 1329 088e 0C       		.uleb128 0xc
 1330 088f 00       		.byte	0
 1331 0890 09       		.uleb128 0x9
 1332 0891 04       		.byte	0x4
 1333 0892 59080000 		.4byte	0x859
 1334 0896 09       		.uleb128 0x9
 1335 0897 04       		.byte	0x4
 1336 0898 9C080000 		.4byte	0x89c
 1337 089c 18       		.uleb128 0x18
 1338 089d A1080000 		.4byte	0x8a1
 1339 08a1 03       		.uleb128 0x3
 1340 08a2 01       		.byte	0x1
 1341 08a3 08       		.byte	0x8
 1342 08a4 4A000000 		.4byte	.LASF117
 1343 08a8 09       		.uleb128 0x9
 1344 08a9 04       		.byte	0x4
 1345 08aa 22030000 		.4byte	0x322
 1346 08ae 0F       		.uleb128 0xf
 1347 08af 96080000 		.4byte	0x896
 1348 08b3 10       		.uleb128 0x10
 1349 08b4 A2050000 		.4byte	0x5a2
 1350 08b8 C3080000 		.4byte	0x8c3
 1351 08bc 11       		.uleb128 0x11
 1352 08bd 30000000 		.4byte	0x30
 1353 08c1 1A       		.byte	0x1a
 1354 08c2 00       		.byte	0
 1355 08c3 04       		.uleb128 0x4
 1356 08c4 1C050000 		.4byte	.LASF118
 1357 08c8 0E       		.byte	0xe
 1358 08c9 34       		.byte	0x34
 1359 08ca 59080000 		.4byte	0x859
 1360 08ce 09       		.uleb128 0x9
 1361 08cf 04       		.byte	0x4
 1362 08d0 C3080000 		.4byte	0x8c3
 1363 08d4 03       		.uleb128 0x3
 1364 08d5 01       		.byte	0x1
 1365 08d6 02       		.byte	0x2
 1366 08d7 F7030000 		.4byte	.LASF119
ARM GAS  /tmp/cc16BShN.s 			page 25


 1367 08db 19       		.uleb128 0x19
 1368 08dc 8A040000 		.4byte	.LASF133
 1369 08e0 02       		.byte	0x2
 1370 08e1 2202     		.2byte	0x222
 1371 08e3 01       		.byte	0x1
 1372 08e4 03       		.byte	0x3
 1373 08e5 F6080000 		.4byte	0x8f6
 1374 08e9 1A       		.uleb128 0x1a
 1375 08ea F4010000 		.4byte	.LASF134
 1376 08ee 02       		.byte	0x2
 1377 08ef 2202     		.2byte	0x222
 1378 08f1 7B000000 		.4byte	0x7b
 1379 08f5 00       		.byte	0
 1380 08f6 1B       		.uleb128 0x1b
 1381 08f7 C9000000 		.4byte	.LASF120
 1382 08fb 0A       		.byte	0xa
 1383 08fc C801     		.2byte	0x1c8
 1384 08fe 01       		.byte	0x1
 1385 08ff 03       		.byte	0x3
 1386 0900 1B       		.uleb128 0x1b
 1387 0901 C4050000 		.4byte	.LASF121
 1388 0905 0A       		.byte	0xa
 1389 0906 E001     		.2byte	0x1e0
 1390 0908 01       		.byte	0x1
 1391 0909 03       		.byte	0x3
 1392 090a 1B       		.uleb128 0x1b
 1393 090b DA000000 		.4byte	.LASF122
 1394 090f 0A       		.byte	0xa
 1395 0910 EF01     		.2byte	0x1ef
 1396 0912 01       		.byte	0x1
 1397 0913 03       		.byte	0x3
 1398 0914 1B       		.uleb128 0x1b
 1399 0915 24050000 		.4byte	.LASF123
 1400 0919 0A       		.byte	0xa
 1401 091a FA01     		.2byte	0x1fa
 1402 091c 01       		.byte	0x1
 1403 091d 03       		.byte	0x3
 1404 091e 1B       		.uleb128 0x1b
 1405 091f 22010000 		.4byte	.LASF124
 1406 0923 0F       		.byte	0xf
 1407 0924 8201     		.2byte	0x182
 1408 0926 01       		.byte	0x1
 1409 0927 03       		.byte	0x3
 1410 0928 1B       		.uleb128 0x1b
 1411 0929 1A020000 		.4byte	.LASF125
 1412 092d 0F       		.byte	0xf
 1413 092e 9601     		.2byte	0x196
 1414 0930 01       		.byte	0x1
 1415 0931 03       		.byte	0x3
 1416 0932 1B       		.uleb128 0x1b
 1417 0933 34020000 		.4byte	.LASF126
 1418 0937 03       		.byte	0x3
 1419 0938 0102     		.2byte	0x201
 1420 093a 01       		.byte	0x1
 1421 093b 03       		.byte	0x3
 1422 093c 1B       		.uleb128 0x1b
 1423 093d AE000000 		.4byte	.LASF127
ARM GAS  /tmp/cc16BShN.s 			page 26


 1424 0941 03       		.byte	0x3
 1425 0942 4702     		.2byte	0x247
 1426 0944 01       		.byte	0x1
 1427 0945 03       		.byte	0x3
 1428 0946 1B       		.uleb128 0x1b
 1429 0947 C5040000 		.4byte	.LASF128
 1430 094b 03       		.byte	0x3
 1431 094c 0C02     		.2byte	0x20c
 1432 094e 01       		.byte	0x1
 1433 094f 03       		.byte	0x3
 1434 0950 1C       		.uleb128 0x1c
 1435 0951 01       		.byte	0x1
 1436 0952 47010000 		.4byte	.LASF135
 1437 0956 01       		.byte	0x1
 1438 0957 EF       		.byte	0xef
 1439 0958 01       		.byte	0x1
 1440 0959 00000000 		.4byte	.LFB213
 1441 095d 26000000 		.4byte	.LFE213
 1442 0961 00000000 		.4byte	.LLST0
 1443 0965 370A0000 		.4byte	0xa37
 1444 0969 1D       		.uleb128 0x1d
 1445 096a 32090000 		.4byte	0x932
 1446 096e 10000000 		.4byte	.LBB52
 1447 0972 16000000 		.4byte	.LBE52
 1448 0976 01       		.byte	0x1
 1449 0977 F9       		.byte	0xf9
 1450 0978 CA090000 		.4byte	0x9ca
 1451 097c 1E       		.uleb128 0x1e
 1452 097d 1E090000 		.4byte	0x91e
 1453 0981 10000000 		.4byte	.LBB53
 1454 0985 16000000 		.4byte	.LBE53
 1455 0989 03       		.byte	0x3
 1456 098a 0302     		.2byte	0x203
 1457 098c 1E       		.uleb128 0x1e
 1458 098d 0A090000 		.4byte	0x90a
 1459 0991 10000000 		.4byte	.LBB54
 1460 0995 16000000 		.4byte	.LBE54
 1461 0999 0F       		.byte	0xf
 1462 099a 8401     		.2byte	0x184
 1463 099c 1E       		.uleb128 0x1e
 1464 099d F6080000 		.4byte	0x8f6
 1465 09a1 10000000 		.4byte	.LBB55
 1466 09a5 16000000 		.4byte	.LBE55
 1467 09a9 0A       		.byte	0xa
 1468 09aa F101     		.2byte	0x1f1
 1469 09ac 1E       		.uleb128 0x1e
 1470 09ad DB080000 		.4byte	0x8db
 1471 09b1 10000000 		.4byte	.LBB56
 1472 09b5 16000000 		.4byte	.LBE56
 1473 09b9 0A       		.byte	0xa
 1474 09ba D001     		.2byte	0x1d0
 1475 09bc 1F       		.uleb128 0x1f
 1476 09bd E9080000 		.4byte	0x8e9
 1477 09c1 20000000 		.4byte	.LLST1
 1478 09c5 00       		.byte	0
 1479 09c6 00       		.byte	0
 1480 09c7 00       		.byte	0
ARM GAS  /tmp/cc16BShN.s 			page 27


 1481 09c8 00       		.byte	0
 1482 09c9 00       		.byte	0
 1483 09ca 20       		.uleb128 0x20
 1484 09cb 3C090000 		.4byte	0x93c
 1485 09cf 16000000 		.4byte	.LBB58
 1486 09d3 1A000000 		.4byte	.LBE58
 1487 09d7 01       		.byte	0x1
 1488 09d8 FA       		.byte	0xfa
 1489 09d9 21       		.uleb128 0x21
 1490 09da 46090000 		.4byte	0x946
 1491 09de 1A000000 		.4byte	.LBB60
 1492 09e2 1E000000 		.4byte	.LBE60
 1493 09e6 01       		.byte	0x1
 1494 09e7 FB       		.byte	0xfb
 1495 09e8 1E       		.uleb128 0x1e
 1496 09e9 28090000 		.4byte	0x928
 1497 09ed 1A000000 		.4byte	.LBB61
 1498 09f1 1E000000 		.4byte	.LBE61
 1499 09f5 03       		.byte	0x3
 1500 09f6 0E02     		.2byte	0x20e
 1501 09f8 1E       		.uleb128 0x1e
 1502 09f9 14090000 		.4byte	0x914
 1503 09fd 1A000000 		.4byte	.LBB62
 1504 0a01 1E000000 		.4byte	.LBE62
 1505 0a05 0F       		.byte	0xf
 1506 0a06 9A01     		.2byte	0x19a
 1507 0a08 1E       		.uleb128 0x1e
 1508 0a09 00090000 		.4byte	0x900
 1509 0a0d 1A000000 		.4byte	.LBB63
 1510 0a11 1E000000 		.4byte	.LBE63
 1511 0a15 0A       		.byte	0xa
 1512 0a16 FC01     		.2byte	0x1fc
 1513 0a18 1E       		.uleb128 0x1e
 1514 0a19 DB080000 		.4byte	0x8db
 1515 0a1d 1A000000 		.4byte	.LBB64
 1516 0a21 1E000000 		.4byte	.LBE64
 1517 0a25 0A       		.byte	0xa
 1518 0a26 E301     		.2byte	0x1e3
 1519 0a28 1F       		.uleb128 0x1f
 1520 0a29 E9080000 		.4byte	0x8e9
 1521 0a2d 35000000 		.4byte	.LLST2
 1522 0a31 00       		.byte	0
 1523 0a32 00       		.byte	0
 1524 0a33 00       		.byte	0
 1525 0a34 00       		.byte	0
 1526 0a35 00       		.byte	0
 1527 0a36 00       		.byte	0
 1528 0a37 22       		.uleb128 0x22
 1529 0a38 01       		.byte	0x1
 1530 0a39 98040000 		.4byte	.LASF136
 1531 0a3d 01       		.byte	0x1
 1532 0a3e 0B01     		.2byte	0x10b
 1533 0a40 01       		.byte	0x1
 1534 0a41 00000000 		.4byte	.LFB214
 1535 0a45 50000000 		.4byte	.LFE214
 1536 0a49 49000000 		.4byte	.LLST3
 1537 0a4d 23       		.uleb128 0x23
ARM GAS  /tmp/cc16BShN.s 			page 28


 1538 0a4e 73040000 		.4byte	.LASF129
 1539 0a52 10       		.byte	0x10
 1540 0a53 5506     		.2byte	0x655
 1541 0a55 5B0A0000 		.4byte	0xa5b
 1542 0a59 01       		.byte	0x1
 1543 0a5a 01       		.byte	0x1
 1544 0a5b 0F       		.uleb128 0xf
 1545 0a5c 69000000 		.4byte	0x69
 1546 0a60 24       		.uleb128 0x24
 1547 0a61 636800   		.ascii	"ch\000"
 1548 0a64 07       		.byte	0x7
 1549 0a65 0902     		.2byte	0x209
 1550 0a67 03040000 		.4byte	0x403
 1551 0a6b 01       		.byte	0x1
 1552 0a6c 01       		.byte	0x1
 1553 0a6d 23       		.uleb128 0x23
 1554 0a6e 73040000 		.4byte	.LASF129
 1555 0a72 10       		.byte	0x10
 1556 0a73 5506     		.2byte	0x655
 1557 0a75 5B0A0000 		.4byte	0xa5b
 1558 0a79 01       		.byte	0x1
 1559 0a7a 01       		.byte	0x1
 1560 0a7b 24       		.uleb128 0x24
 1561 0a7c 636800   		.ascii	"ch\000"
 1562 0a7f 07       		.byte	0x7
 1563 0a80 0902     		.2byte	0x209
 1564 0a82 03040000 		.4byte	0x403
 1565 0a86 01       		.byte	0x1
 1566 0a87 01       		.byte	0x1
 1567 0a88 00       		.byte	0
 1568              		.section	.debug_abbrev,"",%progbits
 1569              	.Ldebug_abbrev0:
 1570 0000 01       		.uleb128 0x1
 1571 0001 11       		.uleb128 0x11
 1572 0002 01       		.byte	0x1
 1573 0003 25       		.uleb128 0x25
 1574 0004 0E       		.uleb128 0xe
 1575 0005 13       		.uleb128 0x13
 1576 0006 0B       		.uleb128 0xb
 1577 0007 03       		.uleb128 0x3
 1578 0008 0E       		.uleb128 0xe
 1579 0009 1B       		.uleb128 0x1b
 1580 000a 0E       		.uleb128 0xe
 1581 000b 11       		.uleb128 0x11
 1582 000c 01       		.uleb128 0x1
 1583 000d 52       		.uleb128 0x52
 1584 000e 01       		.uleb128 0x1
 1585 000f 55       		.uleb128 0x55
 1586 0010 06       		.uleb128 0x6
 1587 0011 10       		.uleb128 0x10
 1588 0012 06       		.uleb128 0x6
 1589 0013 00       		.byte	0
 1590 0014 00       		.byte	0
 1591 0015 02       		.uleb128 0x2
 1592 0016 24       		.uleb128 0x24
 1593 0017 00       		.byte	0
 1594 0018 0B       		.uleb128 0xb
ARM GAS  /tmp/cc16BShN.s 			page 29


 1595 0019 0B       		.uleb128 0xb
 1596 001a 3E       		.uleb128 0x3e
 1597 001b 0B       		.uleb128 0xb
 1598 001c 03       		.uleb128 0x3
 1599 001d 08       		.uleb128 0x8
 1600 001e 00       		.byte	0
 1601 001f 00       		.byte	0
 1602 0020 03       		.uleb128 0x3
 1603 0021 24       		.uleb128 0x24
 1604 0022 00       		.byte	0
 1605 0023 0B       		.uleb128 0xb
 1606 0024 0B       		.uleb128 0xb
 1607 0025 3E       		.uleb128 0x3e
 1608 0026 0B       		.uleb128 0xb
 1609 0027 03       		.uleb128 0x3
 1610 0028 0E       		.uleb128 0xe
 1611 0029 00       		.byte	0
 1612 002a 00       		.byte	0
 1613 002b 04       		.uleb128 0x4
 1614 002c 16       		.uleb128 0x16
 1615 002d 00       		.byte	0
 1616 002e 03       		.uleb128 0x3
 1617 002f 0E       		.uleb128 0xe
 1618 0030 3A       		.uleb128 0x3a
 1619 0031 0B       		.uleb128 0xb
 1620 0032 3B       		.uleb128 0x3b
 1621 0033 0B       		.uleb128 0xb
 1622 0034 49       		.uleb128 0x49
 1623 0035 13       		.uleb128 0x13
 1624 0036 00       		.byte	0
 1625 0037 00       		.byte	0
 1626 0038 05       		.uleb128 0x5
 1627 0039 13       		.uleb128 0x13
 1628 003a 01       		.byte	0x1
 1629 003b 03       		.uleb128 0x3
 1630 003c 0E       		.uleb128 0xe
 1631 003d 0B       		.uleb128 0xb
 1632 003e 0B       		.uleb128 0xb
 1633 003f 3A       		.uleb128 0x3a
 1634 0040 0B       		.uleb128 0xb
 1635 0041 3B       		.uleb128 0x3b
 1636 0042 0B       		.uleb128 0xb
 1637 0043 01       		.uleb128 0x1
 1638 0044 13       		.uleb128 0x13
 1639 0045 00       		.byte	0
 1640 0046 00       		.byte	0
 1641 0047 06       		.uleb128 0x6
 1642 0048 0D       		.uleb128 0xd
 1643 0049 00       		.byte	0
 1644 004a 03       		.uleb128 0x3
 1645 004b 0E       		.uleb128 0xe
 1646 004c 3A       		.uleb128 0x3a
 1647 004d 0B       		.uleb128 0xb
 1648 004e 3B       		.uleb128 0x3b
 1649 004f 0B       		.uleb128 0xb
 1650 0050 49       		.uleb128 0x49
 1651 0051 13       		.uleb128 0x13
ARM GAS  /tmp/cc16BShN.s 			page 30


 1652 0052 38       		.uleb128 0x38
 1653 0053 0A       		.uleb128 0xa
 1654 0054 00       		.byte	0
 1655 0055 00       		.byte	0
 1656 0056 07       		.uleb128 0x7
 1657 0057 0D       		.uleb128 0xd
 1658 0058 00       		.byte	0
 1659 0059 03       		.uleb128 0x3
 1660 005a 08       		.uleb128 0x8
 1661 005b 3A       		.uleb128 0x3a
 1662 005c 0B       		.uleb128 0xb
 1663 005d 3B       		.uleb128 0x3b
 1664 005e 05       		.uleb128 0x5
 1665 005f 49       		.uleb128 0x49
 1666 0060 13       		.uleb128 0x13
 1667 0061 38       		.uleb128 0x38
 1668 0062 0A       		.uleb128 0xa
 1669 0063 00       		.byte	0
 1670 0064 00       		.byte	0
 1671 0065 08       		.uleb128 0x8
 1672 0066 0D       		.uleb128 0xd
 1673 0067 00       		.byte	0
 1674 0068 03       		.uleb128 0x3
 1675 0069 0E       		.uleb128 0xe
 1676 006a 3A       		.uleb128 0x3a
 1677 006b 0B       		.uleb128 0xb
 1678 006c 3B       		.uleb128 0x3b
 1679 006d 05       		.uleb128 0x5
 1680 006e 49       		.uleb128 0x49
 1681 006f 13       		.uleb128 0x13
 1682 0070 38       		.uleb128 0x38
 1683 0071 0A       		.uleb128 0xa
 1684 0072 00       		.byte	0
 1685 0073 00       		.byte	0
 1686 0074 09       		.uleb128 0x9
 1687 0075 0F       		.uleb128 0xf
 1688 0076 00       		.byte	0
 1689 0077 0B       		.uleb128 0xb
 1690 0078 0B       		.uleb128 0xb
 1691 0079 49       		.uleb128 0x49
 1692 007a 13       		.uleb128 0x13
 1693 007b 00       		.byte	0
 1694 007c 00       		.byte	0
 1695 007d 0A       		.uleb128 0xa
 1696 007e 13       		.uleb128 0x13
 1697 007f 01       		.byte	0x1
 1698 0080 03       		.uleb128 0x3
 1699 0081 0E       		.uleb128 0xe
 1700 0082 0B       		.uleb128 0xb
 1701 0083 0B       		.uleb128 0xb
 1702 0084 3A       		.uleb128 0x3a
 1703 0085 0B       		.uleb128 0xb
 1704 0086 3B       		.uleb128 0x3b
 1705 0087 05       		.uleb128 0x5
 1706 0088 01       		.uleb128 0x1
 1707 0089 13       		.uleb128 0x13
 1708 008a 00       		.byte	0
ARM GAS  /tmp/cc16BShN.s 			page 31


 1709 008b 00       		.byte	0
 1710 008c 0B       		.uleb128 0xb
 1711 008d 15       		.uleb128 0x15
 1712 008e 01       		.byte	0x1
 1713 008f 27       		.uleb128 0x27
 1714 0090 0C       		.uleb128 0xc
 1715 0091 01       		.uleb128 0x1
 1716 0092 13       		.uleb128 0x13
 1717 0093 00       		.byte	0
 1718 0094 00       		.byte	0
 1719 0095 0C       		.uleb128 0xc
 1720 0096 05       		.uleb128 0x5
 1721 0097 00       		.byte	0
 1722 0098 49       		.uleb128 0x49
 1723 0099 13       		.uleb128 0x13
 1724 009a 00       		.byte	0
 1725 009b 00       		.byte	0
 1726 009c 0D       		.uleb128 0xd
 1727 009d 0F       		.uleb128 0xf
 1728 009e 00       		.byte	0
 1729 009f 0B       		.uleb128 0xb
 1730 00a0 0B       		.uleb128 0xb
 1731 00a1 00       		.byte	0
 1732 00a2 00       		.byte	0
 1733 00a3 0E       		.uleb128 0xe
 1734 00a4 13       		.uleb128 0x13
 1735 00a5 01       		.byte	0x1
 1736 00a6 03       		.uleb128 0x3
 1737 00a7 0E       		.uleb128 0xe
 1738 00a8 0B       		.uleb128 0xb
 1739 00a9 05       		.uleb128 0x5
 1740 00aa 3A       		.uleb128 0x3a
 1741 00ab 0B       		.uleb128 0xb
 1742 00ac 3B       		.uleb128 0x3b
 1743 00ad 05       		.uleb128 0x5
 1744 00ae 01       		.uleb128 0x1
 1745 00af 13       		.uleb128 0x13
 1746 00b0 00       		.byte	0
 1747 00b1 00       		.byte	0
 1748 00b2 0F       		.uleb128 0xf
 1749 00b3 35       		.uleb128 0x35
 1750 00b4 00       		.byte	0
 1751 00b5 49       		.uleb128 0x49
 1752 00b6 13       		.uleb128 0x13
 1753 00b7 00       		.byte	0
 1754 00b8 00       		.byte	0
 1755 00b9 10       		.uleb128 0x10
 1756 00ba 01       		.uleb128 0x1
 1757 00bb 01       		.byte	0x1
 1758 00bc 49       		.uleb128 0x49
 1759 00bd 13       		.uleb128 0x13
 1760 00be 01       		.uleb128 0x1
 1761 00bf 13       		.uleb128 0x13
 1762 00c0 00       		.byte	0
 1763 00c1 00       		.byte	0
 1764 00c2 11       		.uleb128 0x11
 1765 00c3 21       		.uleb128 0x21
ARM GAS  /tmp/cc16BShN.s 			page 32


 1766 00c4 00       		.byte	0
 1767 00c5 49       		.uleb128 0x49
 1768 00c6 13       		.uleb128 0x13
 1769 00c7 2F       		.uleb128 0x2f
 1770 00c8 0B       		.uleb128 0xb
 1771 00c9 00       		.byte	0
 1772 00ca 00       		.byte	0
 1773 00cb 12       		.uleb128 0x12
 1774 00cc 13       		.uleb128 0x13
 1775 00cd 01       		.byte	0x1
 1776 00ce 0B       		.uleb128 0xb
 1777 00cf 0B       		.uleb128 0xb
 1778 00d0 3A       		.uleb128 0x3a
 1779 00d1 0B       		.uleb128 0xb
 1780 00d2 3B       		.uleb128 0x3b
 1781 00d3 05       		.uleb128 0x5
 1782 00d4 01       		.uleb128 0x1
 1783 00d5 13       		.uleb128 0x13
 1784 00d6 00       		.byte	0
 1785 00d7 00       		.byte	0
 1786 00d8 13       		.uleb128 0x13
 1787 00d9 16       		.uleb128 0x16
 1788 00da 00       		.byte	0
 1789 00db 03       		.uleb128 0x3
 1790 00dc 0E       		.uleb128 0xe
 1791 00dd 3A       		.uleb128 0x3a
 1792 00de 0B       		.uleb128 0xb
 1793 00df 3B       		.uleb128 0x3b
 1794 00e0 05       		.uleb128 0x5
 1795 00e1 49       		.uleb128 0x49
 1796 00e2 13       		.uleb128 0x13
 1797 00e3 00       		.byte	0
 1798 00e4 00       		.byte	0
 1799 00e5 14       		.uleb128 0x14
 1800 00e6 0D       		.uleb128 0xd
 1801 00e7 00       		.byte	0
 1802 00e8 03       		.uleb128 0x3
 1803 00e9 08       		.uleb128 0x8
 1804 00ea 3A       		.uleb128 0x3a
 1805 00eb 0B       		.uleb128 0xb
 1806 00ec 3B       		.uleb128 0x3b
 1807 00ed 0B       		.uleb128 0xb
 1808 00ee 49       		.uleb128 0x49
 1809 00ef 13       		.uleb128 0x13
 1810 00f0 38       		.uleb128 0x38
 1811 00f1 0A       		.uleb128 0xa
 1812 00f2 00       		.byte	0
 1813 00f3 00       		.byte	0
 1814 00f4 15       		.uleb128 0x15
 1815 00f5 13       		.uleb128 0x13
 1816 00f6 01       		.byte	0x1
 1817 00f7 0B       		.uleb128 0xb
 1818 00f8 0B       		.uleb128 0xb
 1819 00f9 3A       		.uleb128 0x3a
 1820 00fa 0B       		.uleb128 0xb
 1821 00fb 3B       		.uleb128 0x3b
 1822 00fc 0B       		.uleb128 0xb
ARM GAS  /tmp/cc16BShN.s 			page 33


 1823 00fd 01       		.uleb128 0x1
 1824 00fe 13       		.uleb128 0x13
 1825 00ff 00       		.byte	0
 1826 0100 00       		.byte	0
 1827 0101 16       		.uleb128 0x16
 1828 0102 17       		.uleb128 0x17
 1829 0103 01       		.byte	0x1
 1830 0104 0B       		.uleb128 0xb
 1831 0105 0B       		.uleb128 0xb
 1832 0106 3A       		.uleb128 0x3a
 1833 0107 0B       		.uleb128 0xb
 1834 0108 3B       		.uleb128 0x3b
 1835 0109 0B       		.uleb128 0xb
 1836 010a 01       		.uleb128 0x1
 1837 010b 13       		.uleb128 0x13
 1838 010c 00       		.byte	0
 1839 010d 00       		.byte	0
 1840 010e 17       		.uleb128 0x17
 1841 010f 0D       		.uleb128 0xd
 1842 0110 00       		.byte	0
 1843 0111 03       		.uleb128 0x3
 1844 0112 0E       		.uleb128 0xe
 1845 0113 3A       		.uleb128 0x3a
 1846 0114 0B       		.uleb128 0xb
 1847 0115 3B       		.uleb128 0x3b
 1848 0116 05       		.uleb128 0x5
 1849 0117 49       		.uleb128 0x49
 1850 0118 13       		.uleb128 0x13
 1851 0119 00       		.byte	0
 1852 011a 00       		.byte	0
 1853 011b 18       		.uleb128 0x18
 1854 011c 26       		.uleb128 0x26
 1855 011d 00       		.byte	0
 1856 011e 49       		.uleb128 0x49
 1857 011f 13       		.uleb128 0x13
 1858 0120 00       		.byte	0
 1859 0121 00       		.byte	0
 1860 0122 19       		.uleb128 0x19
 1861 0123 2E       		.uleb128 0x2e
 1862 0124 01       		.byte	0x1
 1863 0125 03       		.uleb128 0x3
 1864 0126 0E       		.uleb128 0xe
 1865 0127 3A       		.uleb128 0x3a
 1866 0128 0B       		.uleb128 0xb
 1867 0129 3B       		.uleb128 0x3b
 1868 012a 05       		.uleb128 0x5
 1869 012b 27       		.uleb128 0x27
 1870 012c 0C       		.uleb128 0xc
 1871 012d 20       		.uleb128 0x20
 1872 012e 0B       		.uleb128 0xb
 1873 012f 01       		.uleb128 0x1
 1874 0130 13       		.uleb128 0x13
 1875 0131 00       		.byte	0
 1876 0132 00       		.byte	0
 1877 0133 1A       		.uleb128 0x1a
 1878 0134 05       		.uleb128 0x5
 1879 0135 00       		.byte	0
ARM GAS  /tmp/cc16BShN.s 			page 34


 1880 0136 03       		.uleb128 0x3
 1881 0137 0E       		.uleb128 0xe
 1882 0138 3A       		.uleb128 0x3a
 1883 0139 0B       		.uleb128 0xb
 1884 013a 3B       		.uleb128 0x3b
 1885 013b 05       		.uleb128 0x5
 1886 013c 49       		.uleb128 0x49
 1887 013d 13       		.uleb128 0x13
 1888 013e 00       		.byte	0
 1889 013f 00       		.byte	0
 1890 0140 1B       		.uleb128 0x1b
 1891 0141 2E       		.uleb128 0x2e
 1892 0142 00       		.byte	0
 1893 0143 03       		.uleb128 0x3
 1894 0144 0E       		.uleb128 0xe
 1895 0145 3A       		.uleb128 0x3a
 1896 0146 0B       		.uleb128 0xb
 1897 0147 3B       		.uleb128 0x3b
 1898 0148 05       		.uleb128 0x5
 1899 0149 27       		.uleb128 0x27
 1900 014a 0C       		.uleb128 0xc
 1901 014b 20       		.uleb128 0x20
 1902 014c 0B       		.uleb128 0xb
 1903 014d 00       		.byte	0
 1904 014e 00       		.byte	0
 1905 014f 1C       		.uleb128 0x1c
 1906 0150 2E       		.uleb128 0x2e
 1907 0151 01       		.byte	0x1
 1908 0152 3F       		.uleb128 0x3f
 1909 0153 0C       		.uleb128 0xc
 1910 0154 03       		.uleb128 0x3
 1911 0155 0E       		.uleb128 0xe
 1912 0156 3A       		.uleb128 0x3a
 1913 0157 0B       		.uleb128 0xb
 1914 0158 3B       		.uleb128 0x3b
 1915 0159 0B       		.uleb128 0xb
 1916 015a 27       		.uleb128 0x27
 1917 015b 0C       		.uleb128 0xc
 1918 015c 11       		.uleb128 0x11
 1919 015d 01       		.uleb128 0x1
 1920 015e 12       		.uleb128 0x12
 1921 015f 01       		.uleb128 0x1
 1922 0160 40       		.uleb128 0x40
 1923 0161 06       		.uleb128 0x6
 1924 0162 01       		.uleb128 0x1
 1925 0163 13       		.uleb128 0x13
 1926 0164 00       		.byte	0
 1927 0165 00       		.byte	0
 1928 0166 1D       		.uleb128 0x1d
 1929 0167 1D       		.uleb128 0x1d
 1930 0168 01       		.byte	0x1
 1931 0169 31       		.uleb128 0x31
 1932 016a 13       		.uleb128 0x13
 1933 016b 11       		.uleb128 0x11
 1934 016c 01       		.uleb128 0x1
 1935 016d 12       		.uleb128 0x12
 1936 016e 01       		.uleb128 0x1
ARM GAS  /tmp/cc16BShN.s 			page 35


 1937 016f 58       		.uleb128 0x58
 1938 0170 0B       		.uleb128 0xb
 1939 0171 59       		.uleb128 0x59
 1940 0172 0B       		.uleb128 0xb
 1941 0173 01       		.uleb128 0x1
 1942 0174 13       		.uleb128 0x13
 1943 0175 00       		.byte	0
 1944 0176 00       		.byte	0
 1945 0177 1E       		.uleb128 0x1e
 1946 0178 1D       		.uleb128 0x1d
 1947 0179 01       		.byte	0x1
 1948 017a 31       		.uleb128 0x31
 1949 017b 13       		.uleb128 0x13
 1950 017c 11       		.uleb128 0x11
 1951 017d 01       		.uleb128 0x1
 1952 017e 12       		.uleb128 0x12
 1953 017f 01       		.uleb128 0x1
 1954 0180 58       		.uleb128 0x58
 1955 0181 0B       		.uleb128 0xb
 1956 0182 59       		.uleb128 0x59
 1957 0183 05       		.uleb128 0x5
 1958 0184 00       		.byte	0
 1959 0185 00       		.byte	0
 1960 0186 1F       		.uleb128 0x1f
 1961 0187 05       		.uleb128 0x5
 1962 0188 00       		.byte	0
 1963 0189 31       		.uleb128 0x31
 1964 018a 13       		.uleb128 0x13
 1965 018b 02       		.uleb128 0x2
 1966 018c 06       		.uleb128 0x6
 1967 018d 00       		.byte	0
 1968 018e 00       		.byte	0
 1969 018f 20       		.uleb128 0x20
 1970 0190 1D       		.uleb128 0x1d
 1971 0191 00       		.byte	0
 1972 0192 31       		.uleb128 0x31
 1973 0193 13       		.uleb128 0x13
 1974 0194 11       		.uleb128 0x11
 1975 0195 01       		.uleb128 0x1
 1976 0196 12       		.uleb128 0x12
 1977 0197 01       		.uleb128 0x1
 1978 0198 58       		.uleb128 0x58
 1979 0199 0B       		.uleb128 0xb
 1980 019a 59       		.uleb128 0x59
 1981 019b 0B       		.uleb128 0xb
 1982 019c 00       		.byte	0
 1983 019d 00       		.byte	0
 1984 019e 21       		.uleb128 0x21
 1985 019f 1D       		.uleb128 0x1d
 1986 01a0 01       		.byte	0x1
 1987 01a1 31       		.uleb128 0x31
 1988 01a2 13       		.uleb128 0x13
 1989 01a3 11       		.uleb128 0x11
 1990 01a4 01       		.uleb128 0x1
 1991 01a5 12       		.uleb128 0x12
 1992 01a6 01       		.uleb128 0x1
 1993 01a7 58       		.uleb128 0x58
ARM GAS  /tmp/cc16BShN.s 			page 36


 1994 01a8 0B       		.uleb128 0xb
 1995 01a9 59       		.uleb128 0x59
 1996 01aa 0B       		.uleb128 0xb
 1997 01ab 00       		.byte	0
 1998 01ac 00       		.byte	0
 1999 01ad 22       		.uleb128 0x22
 2000 01ae 2E       		.uleb128 0x2e
 2001 01af 00       		.byte	0
 2002 01b0 3F       		.uleb128 0x3f
 2003 01b1 0C       		.uleb128 0xc
 2004 01b2 03       		.uleb128 0x3
 2005 01b3 0E       		.uleb128 0xe
 2006 01b4 3A       		.uleb128 0x3a
 2007 01b5 0B       		.uleb128 0xb
 2008 01b6 3B       		.uleb128 0x3b
 2009 01b7 05       		.uleb128 0x5
 2010 01b8 27       		.uleb128 0x27
 2011 01b9 0C       		.uleb128 0xc
 2012 01ba 11       		.uleb128 0x11
 2013 01bb 01       		.uleb128 0x1
 2014 01bc 12       		.uleb128 0x12
 2015 01bd 01       		.uleb128 0x1
 2016 01be 40       		.uleb128 0x40
 2017 01bf 06       		.uleb128 0x6
 2018 01c0 00       		.byte	0
 2019 01c1 00       		.byte	0
 2020 01c2 23       		.uleb128 0x23
 2021 01c3 34       		.uleb128 0x34
 2022 01c4 00       		.byte	0
 2023 01c5 03       		.uleb128 0x3
 2024 01c6 0E       		.uleb128 0xe
 2025 01c7 3A       		.uleb128 0x3a
 2026 01c8 0B       		.uleb128 0xb
 2027 01c9 3B       		.uleb128 0x3b
 2028 01ca 05       		.uleb128 0x5
 2029 01cb 49       		.uleb128 0x49
 2030 01cc 13       		.uleb128 0x13
 2031 01cd 3F       		.uleb128 0x3f
 2032 01ce 0C       		.uleb128 0xc
 2033 01cf 3C       		.uleb128 0x3c
 2034 01d0 0C       		.uleb128 0xc
 2035 01d1 00       		.byte	0
 2036 01d2 00       		.byte	0
 2037 01d3 24       		.uleb128 0x24
 2038 01d4 34       		.uleb128 0x34
 2039 01d5 00       		.byte	0
 2040 01d6 03       		.uleb128 0x3
 2041 01d7 08       		.uleb128 0x8
 2042 01d8 3A       		.uleb128 0x3a
 2043 01d9 0B       		.uleb128 0xb
 2044 01da 3B       		.uleb128 0x3b
 2045 01db 05       		.uleb128 0x5
 2046 01dc 49       		.uleb128 0x49
 2047 01dd 13       		.uleb128 0x13
 2048 01de 3F       		.uleb128 0x3f
 2049 01df 0C       		.uleb128 0xc
 2050 01e0 3C       		.uleb128 0x3c
ARM GAS  /tmp/cc16BShN.s 			page 37


 2051 01e1 0C       		.uleb128 0xc
 2052 01e2 00       		.byte	0
 2053 01e3 00       		.byte	0
 2054 01e4 00       		.byte	0
 2055              		.section	.debug_loc,"",%progbits
 2056              	.Ldebug_loc0:
 2057              	.LLST0:
 2058 0000 00000000 		.4byte	.LFB213
 2059 0004 08000000 		.4byte	.LCFI0
 2060 0008 0200     		.2byte	0x2
 2061 000a 7D       		.byte	0x7d
 2062 000b 00       		.sleb128 0
 2063 000c 08000000 		.4byte	.LCFI0
 2064 0010 26000000 		.4byte	.LFE213
 2065 0014 0200     		.2byte	0x2
 2066 0016 7D       		.byte	0x7d
 2067 0017 08       		.sleb128 8
 2068 0018 00000000 		.4byte	0
 2069 001c 00000000 		.4byte	0
 2070              	.LLST1:
 2071 0020 10000000 		.4byte	.LVL0
 2072 0024 1E000000 		.4byte	.LVL2
 2073 0028 0300     		.2byte	0x3
 2074 002a 08       		.byte	0x8
 2075 002b 20       		.byte	0x20
 2076 002c 9F       		.byte	0x9f
 2077 002d 00000000 		.4byte	0
 2078 0031 00000000 		.4byte	0
 2079              	.LLST2:
 2080 0035 1A000000 		.4byte	.LVL1
 2081 0039 1E000000 		.4byte	.LVL2
 2082 003d 0200     		.2byte	0x2
 2083 003f 30       		.byte	0x30
 2084 0040 9F       		.byte	0x9f
 2085 0041 00000000 		.4byte	0
 2086 0045 00000000 		.4byte	0
 2087              	.LLST3:
 2088 0049 00000000 		.4byte	.LFB214
 2089 004d 16000000 		.4byte	.LCFI1
 2090 0051 0200     		.2byte	0x2
 2091 0053 7D       		.byte	0x7d
 2092 0054 00       		.sleb128 0
 2093 0055 16000000 		.4byte	.LCFI1
 2094 0059 50000000 		.4byte	.LFE214
 2095 005d 0200     		.2byte	0x2
 2096 005f 7D       		.byte	0x7d
 2097 0060 08       		.sleb128 8
 2098 0061 00000000 		.4byte	0
 2099 0065 00000000 		.4byte	0
 2100              		.section	.debug_aranges,"",%progbits
 2101 0000 24000000 		.4byte	0x24
 2102 0004 0200     		.2byte	0x2
 2103 0006 00000000 		.4byte	.Ldebug_info0
 2104 000a 04       		.byte	0x4
 2105 000b 00       		.byte	0
 2106 000c 0000     		.2byte	0
 2107 000e 0000     		.2byte	0
ARM GAS  /tmp/cc16BShN.s 			page 38


 2108 0010 00000000 		.4byte	.LFB213
 2109 0014 26000000 		.4byte	.LFE213-.LFB213
 2110 0018 00000000 		.4byte	.LFB214
 2111 001c 50000000 		.4byte	.LFE214-.LFB214
 2112 0020 00000000 		.4byte	0
 2113 0024 00000000 		.4byte	0
 2114              		.section	.debug_ranges,"",%progbits
 2115              	.Ldebug_ranges0:
 2116 0000 00000000 		.4byte	.LFB213
 2117 0004 26000000 		.4byte	.LFE213
 2118 0008 00000000 		.4byte	.LFB214
 2119 000c 50000000 		.4byte	.LFE214
 2120 0010 00000000 		.4byte	0
 2121 0014 00000000 		.4byte	0
 2122              		.section	.debug_line,"",%progbits
 2123              	.Ldebug_line0:
 2124 0000 9B030000 		.section	.debug_str,"MS",%progbits,1
 2124      02003303 
 2124      00000201 
 2124      FB0E0D00 
 2124      01010101 
 2125              	.LASF44:
 2126 0000 63685F74 		.ascii	"ch_threads_list\000"
 2126      68726561 
 2126      64735F6C 
 2126      69737400 
 2127              	.LASF45:
 2128 0010 74687265 		.ascii	"threads_queue_t\000"
 2128      6164735F 
 2128      71756575 
 2128      655F7400 
 2129              	.LASF34:
 2130 0020 705F7761 		.ascii	"p_waiting\000"
 2130      6974696E 
 2130      6700
 2131              	.LASF82:
 2132 002a 41504231 		.ascii	"APB1ENR\000"
 2132      454E5200 
 2133              	.LASF108:
 2134 0032 77746D74 		.ascii	"wtmtxp\000"
 2134      787000
 2135              	.LASF102:
 2136 0039 746D5F63 		.ascii	"tm_calibration_t\000"
 2136      616C6962 
 2136      72617469 
 2136      6F6E5F74 
 2136      00
 2137              	.LASF117:
 2138 004a 63686172 		.ascii	"char\000"
 2138      00
 2139              	.LASF87:
 2140 004f 72656761 		.ascii	"regarm_t\000"
 2140      726D5F74 
 2140      00
 2141              	.LASF26:
 2142 0058 705F7072 		.ascii	"p_prio\000"
 2142      696F00
ARM GAS  /tmp/cc16BShN.s 			page 39


 2143              	.LASF78:
 2144 005f 41504232 		.ascii	"APB2RSTR\000"
 2144      52535452 
 2144      00
 2145              	.LASF22:
 2146 0068 73797374 		.ascii	"systime_t\000"
 2146      696D655F 
 2146      7400
 2147              	.LASF115:
 2148 0072 6D5F6F77 		.ascii	"m_owner\000"
 2148      6E657200 
 2149              	.LASF111:
 2150 007a 735F7175 		.ascii	"s_queue\000"
 2150      65756500 
 2151              	.LASF35:
 2152 0082 705F6D73 		.ascii	"p_msgqueue\000"
 2152      67717565 
 2152      756500
 2153              	.LASF0:
 2154 008d 756E7369 		.ascii	"unsigned int\000"
 2154      676E6564 
 2154      20696E74 
 2154      00
 2155              	.LASF42:
 2156 009a 74687265 		.ascii	"threads_list_t\000"
 2156      6164735F 
 2156      6C697374 
 2156      5F7400
 2157              	.LASF83:
 2158 00a9 42444352 		.ascii	"BDCR\000"
 2158      00
 2159              	.LASF127:
 2160 00ae 6F73616C 		.ascii	"osalOsTimerHandlerI\000"
 2160      4F735469 
 2160      6D657248 
 2160      616E646C 
 2160      65724900 
 2161              	.LASF105:
 2162 00c2 77746F62 		.ascii	"wtobjp\000"
 2162      6A7000
 2163              	.LASF120:
 2164 00c9 706F7274 		.ascii	"port_lock\000"
 2164      5F6C6F63 
 2164      6B00
 2165              	.LASF72:
 2166 00d3 76746C69 		.ascii	"vtlist\000"
 2166      737400
 2167              	.LASF122:
 2168 00da 706F7274 		.ascii	"port_lock_from_isr\000"
 2168      5F6C6F63 
 2168      6B5F6672 
 2168      6F6D5F69 
 2168      737200
 2169              	.LASF48:
 2170 00ed 63685F72 		.ascii	"ch_ready_list\000"
 2170      65616479 
 2170      5F6C6973 
ARM GAS  /tmp/cc16BShN.s 			page 40


 2170      7400
 2171              	.LASF74:
 2172 00fb 69646C65 		.ascii	"idle_thread_wa\000"
 2172      5F746872 
 2172      6561645F 
 2172      776100
 2173              	.LASF109:
 2174 010a 65776D61 		.ascii	"ewmask\000"
 2174      736B00
 2175              	.LASF46:
 2176 0111 63685F74 		.ascii	"ch_threads_queue\000"
 2176      68726561 
 2176      64735F71 
 2176      75657565 
 2176      00
 2177              	.LASF124:
 2178 0122 63685379 		.ascii	"chSysLockFromISR\000"
 2178      734C6F63 
 2178      6B46726F 
 2178      6D495352 
 2178      00
 2179              	.LASF97:
 2180 0133 444D4152 		.ascii	"DMAR\000"
 2180      00
 2181              	.LASF76:
 2182 0138 4442474D 		.ascii	"DBGMCU_TypeDef\000"
 2182      43555F54 
 2182      79706544 
 2182      656600
 2183              	.LASF135:
 2184 0147 56656374 		.ascii	"VectorB0\000"
 2184      6F724230 
 2184      00
 2185              	.LASF55:
 2186 0150 76746675 		.ascii	"vtfunc_t\000"
 2186      6E635F74 
 2186      00
 2187              	.LASF112:
 2188 0159 735F636E 		.ascii	"s_cnt\000"
 2188      7400
 2189              	.LASF67:
 2190 015f 63685F73 		.ascii	"ch_system_debug\000"
 2190      79737465 
 2190      6D5F6465 
 2190      62756700 
 2191              	.LASF9:
 2192 016f 75696E74 		.ascii	"uint32_t\000"
 2192      33325F74 
 2192      00
 2193              	.LASF20:
 2194 0178 6576656E 		.ascii	"eventmask_t\000"
 2194      746D6173 
 2194      6B5F7400 
 2195              	.LASF50:
 2196 0184 725F7072 		.ascii	"r_prio\000"
 2196      696F00
 2197              	.LASF96:
ARM GAS  /tmp/cc16BShN.s 			page 41


 2198 018b 42445452 		.ascii	"BDTR\000"
 2198      00
 2199              	.LASF62:
 2200 0190 76745F70 		.ascii	"vt_par\000"
 2200      617200
 2201              	.LASF110:
 2202 0197 63685F73 		.ascii	"ch_semaphore\000"
 2202      656D6170 
 2202      686F7265 
 2202      00
 2203              	.LASF18:
 2204 01a4 74707269 		.ascii	"tprio_t\000"
 2204      6F5F7400 
 2205              	.LASF57:
 2206 01ac 63685F76 		.ascii	"ch_virtual_timer\000"
 2206      69727475 
 2206      616C5F74 
 2206      696D6572 
 2206      00
 2207              	.LASF93:
 2208 01bd 43434D52 		.ascii	"CCMR1\000"
 2208      3100
 2209              	.LASF94:
 2210 01c3 43434D52 		.ascii	"CCMR2\000"
 2210      3200
 2211              	.LASF98:
 2212 01c9 43434D52 		.ascii	"CCMR3\000"
 2212      3300
 2213              	.LASF13:
 2214 01cf 6C6F6E67 		.ascii	"long long unsigned int\000"
 2214      206C6F6E 
 2214      6720756E 
 2214      7369676E 
 2214      65642069 
 2215              	.LASF21:
 2216 01e6 636E745F 		.ascii	"cnt_t\000"
 2216      7400
 2217              	.LASF28:
 2218 01ec 705F6E65 		.ascii	"p_newer\000"
 2218      77657200 
 2219              	.LASF134:
 2220 01f4 76616C75 		.ascii	"value\000"
 2220      6500
 2221              	.LASF64:
 2222 01fa 63685F76 		.ascii	"ch_virtual_timers_list\000"
 2222      69727475 
 2222      616C5F74 
 2222      696D6572 
 2222      735F6C69 
 2223              	.LASF23:
 2224 0211 74687265 		.ascii	"thread_t\000"
 2224      61645F74 
 2224      00
 2225              	.LASF125:
 2226 021a 63685379 		.ascii	"chSysUnlockFromISR\000"
 2226      73556E6C 
 2226      6F636B46 
ARM GAS  /tmp/cc16BShN.s 			page 42


 2226      726F6D49 
 2226      535200
 2227              	.LASF103:
 2228 022d 7264796D 		.ascii	"rdymsg\000"
 2228      736700
 2229              	.LASF126:
 2230 0234 6F73616C 		.ascii	"osalSysLockFromISR\000"
 2230      5379734C 
 2230      6F636B46 
 2230      726F6D49 
 2230      535200
 2231              	.LASF101:
 2232 0247 6F666673 		.ascii	"offset\000"
 2232      657400
 2233              	.LASF100:
 2234 024e 73746D33 		.ascii	"stm32_tim_t\000"
 2234      325F7469 
 2234      6D5F7400 
 2235              	.LASF86:
 2236 025a 5243435F 		.ascii	"RCC_TypeDef\000"
 2236      54797065 
 2236      44656600 
 2237              	.LASF131:
 2238 0266 2E2E2F2E 		.ascii	"../../../resources/chibios/ChibiOS_16.1.8/os/hal/po"
 2238      2E2F2E2E 
 2238      2F726573 
 2238      6F757263 
 2238      65732F63 
 2239 0299 7274732F 		.ascii	"rts/STM32/LLD/TIMv1/st_lld.c\000"
 2239      53544D33 
 2239      322F4C4C 
 2239      442F5449 
 2239      4D76312F 
 2240              	.LASF113:
 2241 02b6 63685F6D 		.ascii	"ch_mutex\000"
 2241      75746578 
 2241      00
 2242              	.LASF92:
 2243 02bf 44494552 		.ascii	"DIER\000"
 2243      00
 2244              	.LASF30:
 2245 02c4 705F6E61 		.ascii	"p_name\000"
 2245      6D6500
 2246              	.LASF79:
 2247 02cb 41504231 		.ascii	"APB1RSTR\000"
 2247      52535452 
 2247      00
 2248              	.LASF95:
 2249 02d4 43434552 		.ascii	"CCER\000"
 2249      00
 2250              	.LASF60:
 2251 02d9 76745F64 		.ascii	"vt_delta\000"
 2251      656C7461 
 2251      00
 2252              	.LASF41:
 2253 02e2 74687265 		.ascii	"thread_reference_t\000"
 2253      61645F72 
ARM GAS  /tmp/cc16BShN.s 			page 43


 2253      65666572 
 2253      656E6365 
 2253      5F7400
 2254              	.LASF65:
 2255 02f5 76745F6C 		.ascii	"vt_lasttime\000"
 2255      61737474 
 2255      696D6500 
 2256              	.LASF16:
 2257 0301 74737461 		.ascii	"tstate_t\000"
 2257      74655F74 
 2257      00
 2258              	.LASF80:
 2259 030a 41484245 		.ascii	"AHBENR\000"
 2259      4E5200
 2260              	.LASF29:
 2261 0311 705F6F6C 		.ascii	"p_older\000"
 2261      64657200 
 2262              	.LASF31:
 2263 0319 705F7374 		.ascii	"p_state\000"
 2263      61746500 
 2264              	.LASF4:
 2265 0321 75696E74 		.ascii	"uint8_t\000"
 2265      385F7400 
 2266              	.LASF40:
 2267 0329 705F6D70 		.ascii	"p_mpool\000"
 2267      6F6F6C00 
 2268              	.LASF38:
 2269 0331 705F6D74 		.ascii	"p_mtxlist\000"
 2269      786C6973 
 2269      7400
 2270              	.LASF91:
 2271 033b 534D4352 		.ascii	"SMCR\000"
 2271      00
 2272              	.LASF43:
 2273 0340 63685F74 		.ascii	"ch_thread\000"
 2273      68726561 
 2273      6400
 2274              	.LASF66:
 2275 034a 73797374 		.ascii	"system_debug_t\000"
 2275      656D5F64 
 2275      65627567 
 2275      5F7400
 2276              	.LASF11:
 2277 0359 6C6F6E67 		.ascii	"long long int\000"
 2277      206C6F6E 
 2277      6720696E 
 2277      7400
 2278              	.LASF49:
 2279 0367 725F7175 		.ascii	"r_queue\000"
 2279      65756500 
 2280              	.LASF52:
 2281 036f 725F6E65 		.ascii	"r_newer\000"
 2281      77657200 
 2282              	.LASF19:
 2283 0377 6D73675F 		.ascii	"msg_t\000"
 2283      7400
 2284              	.LASF89:
ARM GAS  /tmp/cc16BShN.s 			page 44


 2285 037d 636F6E74 		.ascii	"context\000"
 2285      65787400 
 2286              	.LASF32:
 2287 0385 705F666C 		.ascii	"p_flags\000"
 2287      61677300 
 2288              	.LASF56:
 2289 038d 76697274 		.ascii	"virtual_timer_t\000"
 2289      75616C5F 
 2289      74696D65 
 2289      725F7400 
 2290              	.LASF132:
 2291 039d 2F686F6D 		.ascii	"/home/madog/Documents/proyectos/CYCLE/repos/harvest"
 2291      652F6D61 
 2291      646F672F 
 2291      446F6375 
 2291      6D656E74 
 2292 03d0 65722F73 		.ascii	"er/src\000"
 2292      726300
 2293              	.LASF53:
 2294 03d7 725F6F6C 		.ascii	"r_older\000"
 2294      64657200 
 2295              	.LASF85:
 2296 03df 43464752 		.ascii	"CFGR2\000"
 2296      3200
 2297              	.LASF81:
 2298 03e5 41504232 		.ascii	"APB2ENR\000"
 2298      454E5200 
 2299              	.LASF68:
 2300 03ed 70616E69 		.ascii	"panic_msg\000"
 2300      635F6D73 
 2300      6700
 2301              	.LASF119:
 2302 03f7 5F426F6F 		.ascii	"_Bool\000"
 2302      6C00
 2303              	.LASF36:
 2304 03fd 705F6D73 		.ascii	"p_msg\000"
 2304      6700
 2305              	.LASF15:
 2306 0403 746D6F64 		.ascii	"tmode_t\000"
 2306      655F7400 
 2307              	.LASF73:
 2308 040b 6D61696E 		.ascii	"mainthread\000"
 2308      74687265 
 2308      616400
 2309              	.LASF5:
 2310 0416 75696E74 		.ascii	"uint16_t\000"
 2310      31365F74 
 2310      00
 2311              	.LASF14:
 2312 041f 7274636E 		.ascii	"rtcnt_t\000"
 2312      745F7400 
 2313              	.LASF99:
 2314 0427 43435852 		.ascii	"CCXR\000"
 2314      00
 2315              	.LASF39:
 2316 042c 705F7265 		.ascii	"p_realprio\000"
 2316      616C7072 
ARM GAS  /tmp/cc16BShN.s 			page 45


 2316      696F00
 2317              	.LASF3:
 2318 0437 73686F72 		.ascii	"short int\000"
 2318      7420696E 
 2318      7400
 2319              	.LASF54:
 2320 0441 725F6375 		.ascii	"r_current\000"
 2320      7272656E 
 2320      7400
 2321              	.LASF37:
 2322 044b 705F6570 		.ascii	"p_epending\000"
 2322      656E6469 
 2322      6E6700
 2323              	.LASF114:
 2324 0456 6D5F7175 		.ascii	"m_queue\000"
 2324      65756500 
 2325              	.LASF8:
 2326 045e 6C6F6E67 		.ascii	"long int\000"
 2326      20696E74 
 2326      00
 2327              	.LASF90:
 2328 0467 706F7274 		.ascii	"port_intctx\000"
 2328      5F696E74 
 2328      63747800 
 2329              	.LASF129:
 2330 0473 49544D5F 		.ascii	"ITM_RxBuffer\000"
 2330      52784275 
 2330      66666572 
 2330      00
 2331              	.LASF70:
 2332 0480 63685F73 		.ascii	"ch_system\000"
 2332      79737465 
 2332      6D00
 2333              	.LASF133:
 2334 048a 5F5F7365 		.ascii	"__set_BASEPRI\000"
 2334      745F4241 
 2334      53455052 
 2334      4900
 2335              	.LASF136:
 2336 0498 73745F6C 		.ascii	"st_lld_init\000"
 2336      6C645F69 
 2336      6E697400 
 2337              	.LASF24:
 2338 04a4 705F6E65 		.ascii	"p_next\000"
 2338      787400
 2339              	.LASF12:
 2340 04ab 75696E74 		.ascii	"uint64_t\000"
 2340      36345F74 
 2340      00
 2341              	.LASF27:
 2342 04b4 705F6374 		.ascii	"p_ctx\000"
 2342      7800
 2343              	.LASF77:
 2344 04ba 43464752 		.ascii	"CFGR\000"
 2344      00
 2345              	.LASF71:
 2346 04bf 726C6973 		.ascii	"rlist\000"
ARM GAS  /tmp/cc16BShN.s 			page 46


 2346      7400
 2347              	.LASF128:
 2348 04c5 6F73616C 		.ascii	"osalSysUnlockFromISR\000"
 2348      53797355 
 2348      6E6C6F63 
 2348      6B46726F 
 2348      6D495352 
 2349              	.LASF25:
 2350 04da 705F7072 		.ascii	"p_prev\000"
 2350      657600
 2351              	.LASF17:
 2352 04e1 74726566 		.ascii	"trefs_t\000"
 2352      735F7400 
 2353              	.LASF10:
 2354 04e9 6C6F6E67 		.ascii	"long unsigned int\000"
 2354      20756E73 
 2354      69676E65 
 2354      6420696E 
 2354      7400
 2355              	.LASF47:
 2356 04fb 72656164 		.ascii	"ready_list_t\000"
 2356      795F6C69 
 2356      73745F74 
 2356      00
 2357              	.LASF7:
 2358 0508 696E7433 		.ascii	"int32_t\000"
 2358      325F7400 
 2359              	.LASF130:
 2360 0510 474E5520 		.ascii	"GNU C 4.6.1\000"
 2360      4320342E 
 2360      362E3100 
 2361              	.LASF118:
 2362 051c 6D757465 		.ascii	"mutex_t\000"
 2362      785F7400 
 2363              	.LASF123:
 2364 0524 706F7274 		.ascii	"port_unlock_from_isr\000"
 2364      5F756E6C 
 2364      6F636B5F 
 2364      66726F6D 
 2364      5F697372 
 2365              	.LASF2:
 2366 0539 756E7369 		.ascii	"unsigned char\000"
 2366      676E6564 
 2366      20636861 
 2366      7200
 2367              	.LASF63:
 2368 0547 76697274 		.ascii	"virtual_timers_list_t\000"
 2368      75616C5F 
 2368      74696D65 
 2368      72735F6C 
 2368      6973745F 
 2369              	.LASF33:
 2370 055d 705F7265 		.ascii	"p_refs\000"
 2370      667300
 2371              	.LASF58:
 2372 0564 76745F6E 		.ascii	"vt_next\000"
 2372      65787400 
ARM GAS  /tmp/cc16BShN.s 			page 47


 2373              	.LASF69:
 2374 056c 63685F73 		.ascii	"ch_system_t\000"
 2374      79737465 
 2374      6D5F7400 
 2375              	.LASF107:
 2376 0578 77747365 		.ascii	"wtsemp\000"
 2376      6D7000
 2377              	.LASF106:
 2378 057f 77747472 		.ascii	"wttrp\000"
 2378      7000
 2379              	.LASF116:
 2380 0585 6D5F6E65 		.ascii	"m_next\000"
 2380      787400
 2381              	.LASF1:
 2382 058c 7369676E 		.ascii	"signed char\000"
 2382      65642063 
 2382      68617200 
 2383              	.LASF6:
 2384 0598 73686F72 		.ascii	"short unsigned int\000"
 2384      7420756E 
 2384      7369676E 
 2384      65642069 
 2384      6E7400
 2385              	.LASF51:
 2386 05ab 725F6374 		.ascii	"r_ctx\000"
 2386      7800
 2387              	.LASF88:
 2388 05b1 73746B61 		.ascii	"stkalign_t\000"
 2388      6C69676E 
 2388      5F7400
 2389              	.LASF61:
 2390 05bc 76745F66 		.ascii	"vt_func\000"
 2390      756E6300 
 2391              	.LASF121:
 2392 05c4 706F7274 		.ascii	"port_unlock\000"
 2392      5F756E6C 
 2392      6F636B00 
 2393              	.LASF59:
 2394 05d0 76745F70 		.ascii	"vt_prev\000"
 2394      72657600 
 2395              	.LASF84:
 2396 05d8 52455345 		.ascii	"RESERVED0\000"
 2396      52564544 
 2396      3000
 2397              	.LASF104:
 2398 05e2 65786974 		.ascii	"exitcode\000"
 2398      636F6465 
 2398      00
 2399              	.LASF75:
 2400 05eb 4944434F 		.ascii	"IDCODE\000"
 2400      444500
 2401              		.ident	"GCC: (Sourcery CodeBench Lite 2011.09-69) 4.6.1"
ARM GAS  /tmp/cc16BShN.s 			page 48


DEFINED SYMBOLS
                            *ABS*:00000000 st_lld.c
     /tmp/cc16BShN.s:19     .text.VectorB0:00000000 $t
     /tmp/cc16BShN.s:25     .text.VectorB0:00000000 VectorB0
     /tmp/cc16BShN.s:102    .text.st_lld_init:00000000 $t
     /tmp/cc16BShN.s:108    .text.st_lld_init:00000000 st_lld_init
                     .debug_frame:00000010 $d

UNDEFINED SYMBOLS
chSysTimerHandlerI
_port_irq_epilogue
nvicEnableVector
