ARM GAS  /tmp/ccs3cl1m.s 			page 1


   1              		.syntax unified
   2              		.cpu cortex-m3
   3              		.fpu softvfp
   4              		.eabi_attribute 20, 1
   5              		.eabi_attribute 21, 1
   6              		.eabi_attribute 23, 3
   7              		.eabi_attribute 24, 1
   8              		.eabi_attribute 25, 1
   9              		.eabi_attribute 26, 1
  10              		.eabi_attribute 30, 2
  11              		.eabi_attribute 34, 1
  12              		.eabi_attribute 18, 4
  13              		.thumb
  14              		.file	"testsem.c"
  15              		.text
  16              	.Ltext0:
  17              		.cfi_sections	.debug_frame
  18              		.section	.text.sem3_setup,"ax",%progbits
  19              		.align	2
  20              		.p2align 4,,15
  21              		.thumb
  22              		.thumb_func
  23              		.type	sem3_setup, %function
  24              	sem3_setup:
  25              	.LFB188:
  26              		.file 1 "../../../resources/chibios/ChibiOS_16.1.8/test/rt/testsem.c"
  27              		.loc 1 202 0
  28              		.cfi_startproc
  29              		@ args = 0, pretend = 0, frame = 0
  30              		@ frame_needed = 0, uses_anonymous_args = 0
  31              		@ link register save eliminated.
  32              		.loc 1 204 0
  33 0000 40F20000 		movw	r0, #:lower16:.LANCHOR0
  34 0004 C0F20000 		movt	r0, #:upper16:.LANCHOR0
  35 0008 0021     		movs	r1, #0
  36              		.loc 1 205 0
  37              		.loc 1 204 0
  38 000a FFF7FEBF 		b	chSemObjectInit
  39              		.cfi_endproc
  40              	.LFE188:
  41              		.size	sem3_setup, .-sem3_setup
  42 000e 00BF     		.section	.text.sem2_setup,"ax",%progbits
  43              		.align	2
  44              		.p2align 4,,15
  45              		.thumb
  46              		.thumb_func
  47              		.type	sem2_setup, %function
  48              	sem2_setup:
  49              	.LFB185:
  50              		.loc 1 128 0
  51              		.cfi_startproc
  52              		@ args = 0, pretend = 0, frame = 0
  53              		@ frame_needed = 0, uses_anonymous_args = 0
  54              		@ link register save eliminated.
  55              		.loc 1 130 0
  56 0000 40F20000 		movw	r0, #:lower16:.LANCHOR0
  57 0004 C0F20000 		movt	r0, #:upper16:.LANCHOR0
ARM GAS  /tmp/ccs3cl1m.s 			page 2


  58 0008 0021     		movs	r1, #0
  59              		.loc 1 131 0
  60              		.loc 1 130 0
  61 000a FFF7FEBF 		b	chSemObjectInit
  62              		.cfi_endproc
  63              	.LFE185:
  64              		.size	sem2_setup, .-sem2_setup
  65 000e 00BF     		.section	.text.sem1_setup,"ax",%progbits
  66              		.align	2
  67              		.p2align 4,,15
  68              		.thumb
  69              		.thumb_func
  70              		.type	sem1_setup, %function
  71              	sem1_setup:
  72              	.LFB182:
  73              		.loc 1 72 0
  74              		.cfi_startproc
  75              		@ args = 0, pretend = 0, frame = 0
  76              		@ frame_needed = 0, uses_anonymous_args = 0
  77              		@ link register save eliminated.
  78              		.loc 1 74 0
  79 0000 40F20000 		movw	r0, #:lower16:.LANCHOR0
  80 0004 C0F20000 		movt	r0, #:upper16:.LANCHOR0
  81 0008 0021     		movs	r1, #0
  82              		.loc 1 75 0
  83              		.loc 1 74 0
  84 000a FFF7FEBF 		b	chSemObjectInit
  85              		.cfi_endproc
  86              	.LFE182:
  87              		.size	sem1_setup, .-sem1_setup
  88 000e 00BF     		.section	.text.thread3,"ax",%progbits
  89              		.align	2
  90              		.p2align 4,,15
  91              		.thumb
  92              		.thumb_func
  93              		.type	thread3, %function
  94              	thread3:
  95              	.LFB189:
  96              		.loc 1 207 0
  97              		.cfi_startproc
  98              		@ args = 0, pretend = 0, frame = 0
  99              		@ frame_needed = 0, uses_anonymous_args = 0
 100              	.LVL0:
 101 0000 10B5     		push	{r4, lr}
 102              	.LCFI0:
 103              		.cfi_def_cfa_offset 8
 104              		.cfi_offset 14, -4
 105              		.cfi_offset 4, -8
 106              		.loc 1 210 0
 107 0002 40F20004 		movw	r4, #:lower16:.LANCHOR0
 108 0006 C0F20004 		movt	r4, #:upper16:.LANCHOR0
 109 000a 2046     		mov	r0, r4
 110              	.LVL1:
 111 000c FFF7FEFF 		bl	chSemWait
 112              		.loc 1 211 0
 113 0010 2046     		mov	r0, r4
 114              		.loc 1 212 0
ARM GAS  /tmp/ccs3cl1m.s 			page 3


 115 0012 BDE81040 		pop	{r4, lr}
 116              		.loc 1 211 0
 117 0016 FFF7FEBF 		b	chSemSignal
 118              		.cfi_endproc
 119              	.LFE189:
 120              		.size	thread3, .-thread3
 121 001a 00BFAFF3 		.section	.text.thread1,"ax",%progbits
 121      0080
 122              		.align	2
 123              		.p2align 4,,15
 124              		.thumb
 125              		.thumb_func
 126              		.type	thread1, %function
 127              	thread1:
 128              	.LFB183:
 129              		.loc 1 77 0
 130              		.cfi_startproc
 131              		@ args = 0, pretend = 0, frame = 0
 132              		@ frame_needed = 0, uses_anonymous_args = 0
 133              	.LVL2:
 134 0000 10B5     		push	{r4, lr}
 135              	.LCFI1:
 136              		.cfi_def_cfa_offset 8
 137              		.cfi_offset 14, -4
 138              		.cfi_offset 4, -8
 139              		.loc 1 77 0
 140 0002 0446     		mov	r4, r0
 141              		.loc 1 79 0
 142 0004 40F20000 		movw	r0, #:lower16:.LANCHOR0
 143              	.LVL3:
 144 0008 C0F20000 		movt	r0, #:upper16:.LANCHOR0
 145 000c FFF7FEFF 		bl	chSemWait
 146              		.loc 1 80 0
 147 0010 2078     		ldrb	r0, [r4, #0]	@ zero_extendqisi2
 148              		.loc 1 81 0
 149 0012 BDE81040 		pop	{r4, lr}
 150              		.loc 1 80 0
 151 0016 FFF7FEBF 		b	test_emit_token
 152              		.cfi_endproc
 153              	.LFE183:
 154              		.size	thread1, .-thread1
 155 001a 00BFAFF3 		.section	.text.thread2,"ax",%progbits
 155      0080
 156              		.align	2
 157              		.p2align 4,,15
 158              		.thumb
 159              		.thumb_func
 160              		.type	thread2, %function
 161              	thread2:
 162              	.LFB186:
 163              		.loc 1 133 0
 164              		.cfi_startproc
 165              		@ args = 0, pretend = 0, frame = 0
 166              		@ frame_needed = 0, uses_anonymous_args = 0
 167              	.LVL4:
 168              		.loc 1 136 0
 169 0000 3220     		movs	r0, #50
ARM GAS  /tmp/ccs3cl1m.s 			page 4


 170              	.LVL5:
 171              		.loc 1 133 0
 172 0002 08B5     		push	{r3, lr}
 173              	.LCFI2:
 174              		.cfi_def_cfa_offset 8
 175              		.cfi_offset 14, -4
 176              		.cfi_offset 3, -8
 177              		.loc 1 136 0
 178 0004 FFF7FEFF 		bl	chThdSleep
 179              	.LVL6:
 180              	.LBB288:
 181              	.LBB289:
 182              	.LBB290:
 183              	.LBB291:
 184              		.file 2 "../../../resources/chibios/ChibiOS_16.1.8/os/ext/CMSIS/include/core_cmFunc.h"
 185              		.loc 2 548 0
 186 0008 2020     		movs	r0, #32
 187              	@ 548 "../../../resources/chibios/ChibiOS_16.1.8/os/ext/CMSIS/include/core_cmFunc.h" 1
 188 000a 80F31188 		MSR basepri, r0
 189              	@ 0 "" 2
 190              		.thumb
 191              	.LBE291:
 192              	.LBE290:
 193              	.LBE289:
 194              	.LBE288:
 195              		.loc 1 138 0
 196 000e 40F20000 		movw	r0, #:lower16:.LANCHOR0
 197 0012 C0F20000 		movt	r0, #:upper16:.LANCHOR0
 198 0016 FFF7FEFF 		bl	chSemSignalI
 199              		.loc 1 139 0
 200 001a FFF7FEFF 		bl	chSchRescheduleS
 201              	.LVL7:
 202              	.LBB292:
 203              	.LBB293:
 204              	.LBB294:
 205              	.LBB295:
 206              	.LBB296:
 207              		.loc 2 548 0
 208 001e 0023     		movs	r3, #0
 209              	@ 548 "../../../resources/chibios/ChibiOS_16.1.8/os/ext/CMSIS/include/core_cmFunc.h" 1
 210 0020 83F31188 		MSR basepri, r3
 211              	@ 0 "" 2
 212              		.thumb
 213              	.LBE296:
 214              	.LBE295:
 215              	.LBE294:
 216              	.LBE293:
 217              	.LBE292:
 218              		.loc 1 141 0
 219 0024 08BD     		pop	{r3, pc}
 220              		.cfi_endproc
 221              	.LFE186:
 222              		.size	thread2, .-thread2
 223 0026 00BFAFF3 		.section	.text.sem1_execute,"ax",%progbits
 223      0080AFF3 
 223      0080
 224              		.align	2
ARM GAS  /tmp/ccs3cl1m.s 			page 5


 225              		.p2align 4,,15
 226              		.thumb
 227              		.thumb_func
 228              		.type	sem1_execute, %function
 229              	sem1_execute:
 230              	.LFB184:
 231              		.loc 1 83 0
 232              		.cfi_startproc
 233              		@ args = 0, pretend = 0, frame = 0
 234              		@ frame_needed = 0, uses_anonymous_args = 0
 235 0000 2DE9F043 		push	{r4, r5, r6, r7, r8, r9, lr}
 236              	.LCFI3:
 237              		.cfi_def_cfa_offset 28
 238              		.cfi_offset 14, -4
 239              		.cfi_offset 9, -8
 240              		.cfi_offset 8, -12
 241              		.cfi_offset 7, -16
 242              		.cfi_offset 6, -20
 243              		.cfi_offset 5, -24
 244              		.cfi_offset 4, -28
 245              	.LBB297:
 246              	.LBB298:
 247              	.LBB299:
 248              	.LBB300:
 249              		.file 3 "../../../resources/chibios/ChibiOS_16.1.8/os/rt/include/chthreads.h"
 250              		.loc 3 176 0
 251 0004 40F20006 		movw	r6, #:lower16:ch
 252 0008 C0F20006 		movt	r6, #:upper16:ch
 253              	.LBE300:
 254              	.LBE299:
 255              		.loc 3 189 0
 256 000c B769     		ldr	r7, [r6, #24]
 257              	.LBE298:
 258              	.LBE297:
 259              		.loc 1 85 0
 260 000e 40F20008 		movw	r8, #:lower16:wa
 261 0012 C0F20008 		movt	r8, #:upper16:wa
 262 0016 B868     		ldr	r0, [r7, #8]
 263 0018 D8F80090 		ldr	r9, [r8, #0]
 264 001c 40F20007 		movw	r7, #:lower16:.LC0
 265 0020 40F20003 		movw	r3, #:lower16:thread1
 266              		.loc 1 83 0
 267 0024 83B0     		sub	sp, sp, #12
 268              	.LCFI4:
 269              		.cfi_def_cfa_offset 40
 270              		.loc 1 85 0
 271 0026 421D     		adds	r2, r0, #5
 272 0028 4FF4A471 		mov	r1, #328
 273 002c C0F20003 		movt	r3, #:upper16:thread1
 274 0030 C0F20007 		movt	r7, #:upper16:.LC0
 275 0034 4846     		mov	r0, r9
 276 0036 0097     		str	r7, [sp, #0]
 277 0038 FFF7FEFF 		bl	chThdCreateStatic
 278              	.LBB301:
 279              	.LBB302:
 280              		.loc 3 189 0
 281 003c B569     		ldr	r5, [r6, #24]
ARM GAS  /tmp/ccs3cl1m.s 			page 6


 282              	.LBE302:
 283              	.LBE301:
 284              		.loc 1 86 0
 285 003e D8F804C0 		ldr	ip, [r8, #4]
 286 0042 AC68     		ldr	r4, [r5, #8]
 287              		.loc 1 85 0
 288 0044 40F20005 		movw	r5, #:lower16:threads
 289 0048 C0F20005 		movt	r5, #:upper16:threads
 290              		.loc 1 86 0
 291 004c 40F2000E 		movw	lr, #:lower16:.LC1
 292 0050 40F20003 		movw	r3, #:lower16:thread1
 293              		.loc 1 85 0
 294 0054 2860     		str	r0, [r5, #0]
 295              		.loc 1 86 0
 296 0056 C0F2000E 		movt	lr, #:upper16:.LC1
 297 005a 621C     		adds	r2, r4, #1
 298 005c 4FF4A471 		mov	r1, #328
 299 0060 C0F20003 		movt	r3, #:upper16:thread1
 300 0064 6046     		mov	r0, ip
 301 0066 CDF800E0 		str	lr, [sp, #0]
 302 006a FFF7FEFF 		bl	chThdCreateStatic
 303              	.LBB303:
 304              	.LBB304:
 305              		.loc 3 189 0
 306 006e B369     		ldr	r3, [r6, #24]
 307              	.LBE304:
 308              	.LBE303:
 309              		.loc 1 87 0
 310 0070 D8F808C0 		ldr	ip, [r8, #8]
 311 0074 9A68     		ldr	r2, [r3, #8]
 312 0076 40F2000E 		movw	lr, #:lower16:.LC2
 313 007a 40F20003 		movw	r3, #:lower16:thread1
 314              		.loc 1 86 0
 315 007e 6860     		str	r0, [r5, #4]
 316              		.loc 1 87 0
 317 0080 C0F2000E 		movt	lr, #:upper16:.LC2
 318 0084 4FF4A471 		mov	r1, #328
 319 0088 0332     		adds	r2, r2, #3
 320 008a C0F20003 		movt	r3, #:upper16:thread1
 321 008e 6046     		mov	r0, ip
 322 0090 CDF800E0 		str	lr, [sp, #0]
 323 0094 FFF7FEFF 		bl	chThdCreateStatic
 324              	.LBB305:
 325              	.LBB306:
 326              		.loc 3 189 0
 327 0098 B169     		ldr	r1, [r6, #24]
 328              	.LBE306:
 329              	.LBE305:
 330              		.loc 1 88 0
 331 009a D8F80CC0 		ldr	ip, [r8, #12]
 332 009e 8C68     		ldr	r4, [r1, #8]
 333 00a0 40F2000E 		movw	lr, #:lower16:.LC3
 334 00a4 40F20003 		movw	r3, #:lower16:thread1
 335              		.loc 1 87 0
 336 00a8 A860     		str	r0, [r5, #8]
 337              		.loc 1 88 0
 338 00aa C0F2000E 		movt	lr, #:upper16:.LC3
ARM GAS  /tmp/ccs3cl1m.s 			page 7


 339 00ae 6046     		mov	r0, ip
 340 00b0 221D     		adds	r2, r4, #4
 341 00b2 4FF4A471 		mov	r1, #328
 342 00b6 C0F20003 		movt	r3, #:upper16:thread1
 343 00ba CDF800E0 		str	lr, [sp, #0]
 344 00be FFF7FEFF 		bl	chThdCreateStatic
 345              	.LBB307:
 346              	.LBB308:
 347              		.loc 3 189 0
 348 00c2 B369     		ldr	r3, [r6, #24]
 349              	.LBE308:
 350              	.LBE307:
 351              		.loc 1 89 0
 352 00c4 D8F810E0 		ldr	lr, [r8, #16]
 353 00c8 9A68     		ldr	r2, [r3, #8]
 354 00ca 40F20004 		movw	r4, #:lower16:.LC4
 355 00ce 40F20003 		movw	r3, #:lower16:thread1
 356 00d2 4FF4A471 		mov	r1, #328
 357 00d6 0232     		adds	r2, r2, #2
 358 00d8 C0F20003 		movt	r3, #:upper16:thread1
 359              		.loc 1 88 0
 360 00dc E860     		str	r0, [r5, #12]
 361              		.loc 1 89 0
 362 00de C0F20004 		movt	r4, #:upper16:.LC4
 363 00e2 7046     		mov	r0, lr
 364 00e4 0094     		str	r4, [sp, #0]
 365 00e6 FFF7FEFF 		bl	chThdCreateStatic
 366              		.loc 1 90 0
 367 00ea 40F20004 		movw	r4, #:lower16:.LANCHOR0
 368 00ee C0F20004 		movt	r4, #:upper16:.LANCHOR0
 369              		.loc 1 89 0
 370 00f2 2861     		str	r0, [r5, #16]
 371              		.loc 1 90 0
 372 00f4 2046     		mov	r0, r4
 373 00f6 FFF7FEFF 		bl	chSemSignal
 374              		.loc 1 91 0
 375 00fa 2046     		mov	r0, r4
 376 00fc FFF7FEFF 		bl	chSemSignal
 377              		.loc 1 92 0
 378 0100 2046     		mov	r0, r4
 379 0102 FFF7FEFF 		bl	chSemSignal
 380              		.loc 1 93 0
 381 0106 2046     		mov	r0, r4
 382 0108 FFF7FEFF 		bl	chSemSignal
 383              		.loc 1 94 0
 384 010c 2046     		mov	r0, r4
 385 010e FFF7FEFF 		bl	chSemSignal
 386              		.loc 1 95 0
 387 0112 FFF7FEFF 		bl	test_wait_threads
 388              		.loc 1 99 0
 389 0116 40F20001 		movw	r1, #:lower16:.LC5
 390 011a 0120     		movs	r0, #1
 391 011c C0F20001 		movt	r1, #:upper16:.LC5
 392 0120 FFF7FEFF 		bl	_test_assert_sequence
 393 0124 8046     		mov	r8, r0
 394 0126 10B1     		cbz	r0, .L11
 395              	.L7:
ARM GAS  /tmp/ccs3cl1m.s 			page 8


 396              		.loc 1 108 0
 397 0128 03B0     		add	sp, sp, #12
 398 012a BDE8F083 		pop	{r4, r5, r6, r7, r8, r9, pc}
 399              	.L11:
 400              	.LBB309:
 401              	.LBB310:
 402              		.loc 3 189 0
 403 012e B069     		ldr	r0, [r6, #24]
 404              	.LBE310:
 405              	.LBE309:
 406              		.loc 1 101 0
 407 0130 40F20003 		movw	r3, #:lower16:thread1
 408 0134 8668     		ldr	r6, [r0, #8]
 409 0136 4FF4A471 		mov	r1, #328
 410 013a 721D     		adds	r2, r6, #5
 411 013c 4846     		mov	r0, r9
 412 013e C0F20003 		movt	r3, #:upper16:thread1
 413 0142 0097     		str	r7, [sp, #0]
 414 0144 FFF7FEFF 		bl	chThdCreateStatic
 415              	.LBB311:
 416              	.LBB312:
 417              	.LBB313:
 418              	.LBB314:
 419              		.loc 2 548 0
 420 0148 2026     		movs	r6, #32
 421              	.LBE314:
 422              	.LBE313:
 423              	.LBE312:
 424              	.LBE311:
 425              		.loc 1 101 0
 426 014a 2860     		str	r0, [r5, #0]
 427              	.LVL8:
 428              	.LBB318:
 429              	.LBB317:
 430              	.LBB316:
 431              	.LBB315:
 432              		.loc 2 548 0
 433              	@ 548 "../../../resources/chibios/ChibiOS_16.1.8/os/ext/CMSIS/include/core_cmFunc.h" 1
 434 014c 86F31188 		MSR basepri, r6
 435              	@ 0 "" 2
 436              		.thumb
 437              	.LBE315:
 438              	.LBE316:
 439              	.LBE317:
 440              	.LBE318:
 441              		.loc 1 103 0
 442 0150 0221     		movs	r1, #2
 443 0152 2046     		mov	r0, r4
 444 0154 FFF7FEFF 		bl	chSemAddCounterI
 445              		.loc 1 104 0
 446 0158 FFF7FEFF 		bl	chSchRescheduleS
 447              	.LVL9:
 448              	.LBB319:
 449              	.LBB320:
 450              	.LBB321:
 451              	.LBB322:
 452              	.LBB323:
ARM GAS  /tmp/ccs3cl1m.s 			page 9


 453              		.loc 2 548 0
 454              	@ 548 "../../../resources/chibios/ChibiOS_16.1.8/os/ext/CMSIS/include/core_cmFunc.h" 1
 455 015c 88F31188 		MSR basepri, r8
 456              	@ 0 "" 2
 457              		.thumb
 458              	.LBE323:
 459              	.LBE322:
 460              	.LBE321:
 461              	.LBE320:
 462              	.LBE319:
 463              		.loc 1 106 0
 464 0160 FFF7FEFF 		bl	test_wait_threads
 465              	.LVL10:
 466              	.LBB324:
 467              	.LBB325:
 468              	.LBB326:
 469              	.LBB327:
 470              		.loc 2 548 0
 471              	@ 548 "../../../resources/chibios/ChibiOS_16.1.8/os/ext/CMSIS/include/core_cmFunc.h" 1
 472 0164 86F31188 		MSR basepri, r6
 473              	@ 0 "" 2
 474              		.thumb
 475              	.LBE327:
 476              	.LBE326:
 477              	.LBE325:
 478              	.LBE324:
 479              		.loc 1 107 0
 480 0168 A368     		ldr	r3, [r4, #8]
 481 016a 0220     		movs	r0, #2
 482 016c A3F10102 		sub	r2, r3, #1
 483 0170 5142     		rsbs	r1, r2, #0
 484 0172 41EB0201 		adc	r1, r1, r2
 485 0176 FFF7FEFF 		bl	_test_assert
 486 017a 10B9     		cbnz	r0, .L12
 487              	.LVL11:
 488              	.LBB328:
 489              	.LBB329:
 490              	.LBB330:
 491              	.LBB331:
 492              	.LBB332:
 493              		.loc 2 548 0
 494              	@ 548 "../../../resources/chibios/ChibiOS_16.1.8/os/ext/CMSIS/include/core_cmFunc.h" 1
 495 017c 80F31188 		MSR basepri, r0
 496              	@ 0 "" 2
 497              		.thumb
 498 0180 D2E7     		b	.L7
 499              	.LVL12:
 500              	.L12:
 501              	.LBE332:
 502              	.LBE331:
 503              	.LBE330:
 504              	.LBE329:
 505              	.LBE328:
 506              	.LBB333:
 507              	.LBB334:
 508              	.LBB335:
 509              	.LBB336:
ARM GAS  /tmp/ccs3cl1m.s 			page 10


 510              	.LBB337:
 511              	@ 548 "../../../resources/chibios/ChibiOS_16.1.8/os/ext/CMSIS/include/core_cmFunc.h" 1
 512 0182 88F31188 		MSR basepri, r8
 513              	@ 0 "" 2
 514              		.thumb
 515 0186 CFE7     		b	.L7
 516              	.LBE337:
 517              	.LBE336:
 518              	.LBE335:
 519              	.LBE334:
 520              	.LBE333:
 521              		.cfi_endproc
 522              	.LFE184:
 523              		.size	sem1_execute, .-sem1_execute
 524 0188 AFF30080 		.section	.text.sem3_execute,"ax",%progbits
 524      AFF30080 
 525              		.align	2
 526              		.p2align 4,,15
 527              		.thumb
 528              		.thumb_func
 529              		.type	sem3_execute, %function
 530              	sem3_execute:
 531              	.LFB190:
 532              		.loc 1 214 0
 533              		.cfi_startproc
 534              		@ args = 0, pretend = 0, frame = 0
 535              		@ frame_needed = 0, uses_anonymous_args = 0
 536 0000 10B5     		push	{r4, lr}
 537              	.LCFI5:
 538              		.cfi_def_cfa_offset 8
 539              		.cfi_offset 14, -4
 540              		.cfi_offset 4, -8
 541              	.LBB354:
 542              	.LBB355:
 543              	.LBB356:
 544              	.LBB357:
 545              		.loc 3 176 0
 546 0002 40F2000E 		movw	lr, #:lower16:ch
 547 0006 C0F2000E 		movt	lr, #:upper16:ch
 548              	.LBE357:
 549              	.LBE356:
 550              		.loc 3 189 0
 551 000a DEF81810 		ldr	r1, [lr, #24]
 552              	.LBE355:
 553              	.LBE354:
 554              		.loc 1 216 0
 555 000e 40F20000 		movw	r0, #:lower16:wa
 556 0012 8A68     		ldr	r2, [r1, #8]
 557 0014 C0F20000 		movt	r0, #:upper16:wa
 558 0018 40F20003 		movw	r3, #:lower16:thread3
 559 001c 0132     		adds	r2, r2, #1
 560              		.loc 1 214 0
 561 001e 82B0     		sub	sp, sp, #8
 562              	.LCFI6:
 563              		.cfi_def_cfa_offset 16
 564              		.loc 1 216 0
 565 0020 C0F20003 		movt	r3, #:upper16:thread3
ARM GAS  /tmp/ccs3cl1m.s 			page 11


 566 0024 0024     		movs	r4, #0
 567 0026 4FF4A471 		mov	r1, #328
 568 002a 0068     		ldr	r0, [r0, #0]
 569 002c 0094     		str	r4, [sp, #0]
 570 002e FFF7FEFF 		bl	chThdCreateStatic
 571              		.loc 1 217 0
 572 0032 40F20004 		movw	r4, #:lower16:.LANCHOR0
 573              		.loc 1 216 0
 574 0036 40F2000C 		movw	ip, #:lower16:threads
 575              		.loc 1 217 0
 576 003a C0F20004 		movt	r4, #:upper16:.LANCHOR0
 577              		.loc 1 216 0
 578 003e C0F2000C 		movt	ip, #:upper16:threads
 579 0042 CCF80000 		str	r0, [ip, #0]
 580              		.loc 1 217 0
 581 0046 2146     		mov	r1, r4
 582 0048 2046     		mov	r0, r4
 583 004a FFF7FEFF 		bl	chSemSignalWait
 584              	.LVL13:
 585              	.LBB358:
 586              	.LBB359:
 587              		.file 4 "../../../resources/chibios/ChibiOS_16.1.8/os/rt/include/chschd.h"
 588              		.loc 4 618 0
 589 004e 2368     		ldr	r3, [r4, #0]
 590              	.LBE359:
 591              	.LBE358:
 592              		.loc 1 218 0
 593 0050 0120     		movs	r0, #1
 594 0052 1A1B     		subs	r2, r3, r4
 595 0054 5142     		rsbs	r1, r2, #0
 596 0056 41EB0201 		adc	r1, r1, r2
 597 005a FFF7FEFF 		bl	_test_assert
 598 005e 08B1     		cbz	r0, .L15
 599              	.L13:
 600              		.loc 1 224 0
 601 0060 02B0     		add	sp, sp, #8
 602 0062 10BD     		pop	{r4, pc}
 603              	.L15:
 604              		.loc 1 219 0
 605 0064 A368     		ldr	r3, [r4, #8]
 606 0066 0220     		movs	r0, #2
 607 0068 D3F10101 		rsbs	r1, r3, #1
 608 006c 38BF     		it	cc
 609 006e 0021     		movcc	r1, #0
 610 0070 FFF7FEFF 		bl	_test_assert
 611 0074 0028     		cmp	r0, #0
 612 0076 F3D1     		bne	.L13
 613              	.LBB360:
 614              	.LBB361:
 615              		.loc 1 221 0
 616 0078 2146     		mov	r1, r4
 617 007a 2046     		mov	r0, r4
 618 007c FFF7FEFF 		bl	chSemSignalWait
 619              	.LVL14:
 620              	.LBB362:
 621              	.LBB363:
 622              		.loc 4 618 0
ARM GAS  /tmp/ccs3cl1m.s 			page 12


 623 0080 2168     		ldr	r1, [r4, #0]
 624              	.LBE363:
 625              	.LBE362:
 626              		.loc 1 222 0
 627 0082 0320     		movs	r0, #3
 628 0084 0A1B     		subs	r2, r1, r4
 629 0086 D2F1000C 		rsbs	ip, r2, #0
 630 008a 4CEB0201 		adc	r1, ip, r2
 631 008e FFF7FEFF 		bl	_test_assert
 632 0092 0028     		cmp	r0, #0
 633 0094 E4D1     		bne	.L13
 634              		.loc 1 223 0
 635 0096 A368     		ldr	r3, [r4, #8]
 636 0098 0420     		movs	r0, #4
 637 009a D3F10101 		rsbs	r1, r3, #1
 638 009e 38BF     		it	cc
 639 00a0 0021     		movcc	r1, #0
 640              	.LBE361:
 641              	.LBE360:
 642              		.loc 1 224 0
 643 00a2 02B0     		add	sp, sp, #8
 644 00a4 BDE81040 		pop	{r4, lr}
 645              	.LBB365:
 646              	.LBB364:
 647              		.loc 1 223 0
 648 00a8 FFF7FEBF 		b	_test_assert
 649              	.LBE364:
 650              	.LBE365:
 651              		.cfi_endproc
 652              	.LFE190:
 653              		.size	sem3_execute, .-sem3_execute
 654 00ac AFF30080 		.section	.text.sem2_execute,"ax",%progbits
 655              		.align	2
 656              		.p2align 4,,15
 657              		.thumb
 658              		.thumb_func
 659              		.type	sem2_execute, %function
 660              	sem2_execute:
 661              	.LFB187:
 662              		.loc 1 143 0
 663              		.cfi_startproc
 664              		@ args = 0, pretend = 0, frame = 0
 665              		@ frame_needed = 0, uses_anonymous_args = 0
 666 0000 70B5     		push	{r4, r5, r6, lr}
 667              	.LCFI7:
 668              		.cfi_def_cfa_offset 16
 669              		.cfi_offset 14, -4
 670              		.cfi_offset 6, -8
 671              		.cfi_offset 5, -12
 672              		.cfi_offset 4, -16
 673              		.loc 1 151 0
 674 0002 40F20004 		movw	r4, #:lower16:.LANCHOR0
 675 0006 C0F20004 		movt	r4, #:upper16:.LANCHOR0
 676 000a 0021     		movs	r1, #0
 677              		.loc 1 143 0
 678 000c 82B0     		sub	sp, sp, #8
 679              	.LCFI8:
ARM GAS  /tmp/ccs3cl1m.s 			page 13


 680              		.cfi_def_cfa_offset 24
 681              		.loc 1 151 0
 682 000e 2046     		mov	r0, r4
 683 0010 FFF7FEFF 		bl	chSemWaitTimeout
 684              	.LVL15:
 685              		.loc 1 152 0
 686 0014 A0F1FF30 		sub	r0, r0, #-1
 687              	.LVL16:
 688 0018 4142     		rsbs	r1, r0, #0
 689 001a 41EB0001 		adc	r1, r1, r0
 690 001e 0120     		movs	r0, #1
 691              	.LVL17:
 692 0020 FFF7FEFF 		bl	_test_assert
 693 0024 08B1     		cbz	r0, .L18
 694              	.L16:
 695              		.loc 1 181 0
 696 0026 02B0     		add	sp, sp, #8
 697 0028 70BD     		pop	{r4, r5, r6, pc}
 698              	.L18:
 699              	.LVL18:
 700              	.LBB395:
 701              	.LBB396:
 702              		.loc 4 618 0
 703 002a 2168     		ldr	r1, [r4, #0]
 704              	.LBE396:
 705              	.LBE395:
 706              		.loc 1 153 0
 707 002c 0220     		movs	r0, #2
 708 002e 0A1B     		subs	r2, r1, r4
 709 0030 5342     		rsbs	r3, r2, #0
 710 0032 43EB0201 		adc	r1, r3, r2
 711 0036 FFF7FEFF 		bl	_test_assert
 712 003a 0028     		cmp	r0, #0
 713 003c F3D1     		bne	.L16
 714              		.loc 1 154 0
 715 003e A568     		ldr	r5, [r4, #8]
 716 0040 0320     		movs	r0, #3
 717 0042 D5F10101 		rsbs	r1, r5, #1
 718 0046 38BF     		it	cc
 719 0048 0021     		movcc	r1, #0
 720 004a FFF7FEFF 		bl	_test_assert
 721 004e 0546     		mov	r5, r0
 722 0050 0028     		cmp	r0, #0
 723 0052 E8D1     		bne	.L16
 724              	.LBB397:
 725              	.LBB398:
 726              	.LBB399:
 727              	.LBB400:
 728              	.LBB401:
 729              	.LBB402:
 730              		.loc 3 176 0
 731 0054 40F20003 		movw	r3, #:lower16:ch
 732 0058 C0F20003 		movt	r3, #:upper16:ch
 733              	.LBE402:
 734              	.LBE401:
 735              		.loc 3 189 0
 736 005c 9869     		ldr	r0, [r3, #24]
ARM GAS  /tmp/ccs3cl1m.s 			page 14


 737              	.LBE400:
 738              	.LBE399:
 739              		.loc 1 159 0
 740 005e 40F2000E 		movw	lr, #:lower16:wa
 741 0062 8268     		ldr	r2, [r0, #8]
 742 0064 C0F2000E 		movt	lr, #:upper16:wa
 743 0068 40F20003 		movw	r3, #:lower16:thread2
 744 006c 013A     		subs	r2, r2, #1
 745 006e DEF80000 		ldr	r0, [lr, #0]
 746 0072 C0F20003 		movt	r3, #:upper16:thread2
 747 0076 4FF4A471 		mov	r1, #328
 748 007a 0095     		str	r5, [sp, #0]
 749 007c FFF7FEFF 		bl	chThdCreateStatic
 750 0080 40F2000C 		movw	ip, #:lower16:threads
 751 0084 C0F2000C 		movt	ip, #:upper16:threads
 752              		.loc 1 161 0
 753 0088 4FF4FA71 		mov	r1, #500
 754              		.loc 1 159 0
 755 008c CCF80000 		str	r0, [ip, #0]
 756              		.loc 1 161 0
 757 0090 2046     		mov	r0, r4
 758 0092 FFF7FEFF 		bl	chSemWaitTimeout
 759 0096 0546     		mov	r5, r0
 760              	.LVL19:
 761              		.loc 1 162 0
 762 0098 FFF7FEFF 		bl	test_wait_threads
 763              	.LVL20:
 764              		.loc 1 163 0
 765 009c 0420     		movs	r0, #4
 766 009e D5F10101 		rsbs	r1, r5, #1
 767 00a2 38BF     		it	cc
 768 00a4 0021     		movcc	r1, #0
 769 00a6 FFF7FEFF 		bl	_test_assert
 770 00aa 0028     		cmp	r0, #0
 771 00ac BBD1     		bne	.L16
 772              	.LVL21:
 773              	.LBB403:
 774              	.LBB404:
 775              		.loc 4 618 0
 776 00ae 2368     		ldr	r3, [r4, #0]
 777              	.LBE404:
 778              	.LBE403:
 779              		.loc 1 164 0
 780 00b0 0520     		movs	r0, #5
 781 00b2 1A1B     		subs	r2, r3, r4
 782 00b4 5142     		rsbs	r1, r2, #0
 783 00b6 41EB0201 		adc	r1, r1, r2
 784 00ba FFF7FEFF 		bl	_test_assert
 785 00be 0028     		cmp	r0, #0
 786 00c0 B1D1     		bne	.L16
 787              		.loc 1 165 0
 788 00c2 A568     		ldr	r5, [r4, #8]
 789              	.LVL22:
 790 00c4 0620     		movs	r0, #6
 791 00c6 D5F10101 		rsbs	r1, r5, #1
 792 00ca 38BF     		it	cc
 793 00cc 0021     		movcc	r1, #0
ARM GAS  /tmp/ccs3cl1m.s 			page 15


 794 00ce FFF7FEFF 		bl	_test_assert
 795 00d2 0546     		mov	r5, r0
 796 00d4 0028     		cmp	r0, #0
 797 00d6 A6D1     		bne	.L16
 798              		.loc 1 170 0
 799 00d8 FFF7FEFF 		bl	test_wait_tick
 800              	.LVL23:
 801              	.LBB405:
 802              	.LBB406:
 803              	.LBB407:
 804              	.LBB408:
 805              	.LBB409:
 806              	.LBB410:
 807              		.loc 2 548 0
 808 00dc 2022     		movs	r2, #32
 809              	@ 548 "../../../resources/chibios/ChibiOS_16.1.8/os/ext/CMSIS/include/core_cmFunc.h" 1
 810 00de 82F31188 		MSR basepri, r2
 811              	@ 0 "" 2
 812              		.thumb
 813              	.LBE410:
 814              	.LBE409:
 815              	.LBE408:
 816              	.LBE407:
 817              	.LBB411:
 818              	.LBB412:
 819              	.LBB413:
 820              	.LBB414:
 821              		.file 5 "../../../resources/chibios/ChibiOS_16.1.8/os/hal/ports/STM32/LLD/TIMv1/st_lld.h"
 822              		.loc 5 141 0
 823 00e2 4FF08046 		mov	r6, #1073741824
 824 00e6 766A     		ldr	r6, [r6, #36]
 825              	.LVL24:
 826              	.LBE414:
 827              	.LBE413:
 828              	.LBE412:
 829              	.LBE411:
 830              	.LBB418:
 831              	.LBB419:
 832              	.LBB420:
 833              	.LBB421:
 834              	.LBB422:
 835              		.loc 2 548 0
 836              	@ 548 "../../../resources/chibios/ChibiOS_16.1.8/os/ext/CMSIS/include/core_cmFunc.h" 1
 837 00e8 85F31188 		MSR basepri, r5
 838              	@ 0 "" 2
 839              	.LVL25:
 840              		.thumb
 841              	.LBE422:
 842              	.LBE421:
 843              	.LBE420:
 844              	.LBE419:
 845              	.LBE418:
 846              	.LBE406:
 847              	.LBE405:
 848              		.loc 1 173 0
 849 00ec 4120     		movs	r0, #65
 850 00ee FFF7FEFF 		bl	test_emit_token
ARM GAS  /tmp/ccs3cl1m.s 			page 16


 851              		.loc 1 174 0
 852 00f2 3221     		movs	r1, #50
 853 00f4 2046     		mov	r0, r4
 854 00f6 FFF7FEFF 		bl	chSemWaitTimeout
 855              	.LVL26:
 856              		.loc 1 175 0
 857 00fa A0F1FF31 		sub	r1, r0, #-1
 858 00fe 4842     		rsbs	r0, r1, #0
 859              	.LVL27:
 860 0100 40EB0101 		adc	r1, r0, r1
 861              	.LVL28:
 862 0104 0720     		movs	r0, #7
 863 0106 FFF7FEFF 		bl	_test_assert
 864 010a 0028     		cmp	r0, #0
 865 010c 8BD1     		bne	.L16
 866              	.LVL29:
 867              	.LBB425:
 868              	.LBB426:
 869              		.loc 4 618 0
 870 010e 2268     		ldr	r2, [r4, #0]
 871              	.LBE426:
 872              	.LBE425:
 873              		.loc 1 176 0
 874 0110 0820     		movs	r0, #8
 875 0112 111B     		subs	r1, r2, r4
 876 0114 4B42     		rsbs	r3, r1, #0
 877 0116 43EB0101 		adc	r1, r3, r1
 878 011a FFF7FEFF 		bl	_test_assert
 879 011e 0028     		cmp	r0, #0
 880 0120 81D1     		bne	.L16
 881              		.loc 1 177 0
 882 0122 A368     		ldr	r3, [r4, #8]
 883 0124 0920     		movs	r0, #9
 884 0126 D3F10101 		rsbs	r1, r3, #1
 885 012a 38BF     		it	cc
 886 012c 0021     		movcc	r1, #0
 887 012e FFF7FEFF 		bl	_test_assert
 888 0132 0028     		cmp	r0, #0
 889 0134 7FF477AF 		bne	.L16
 890              	.LVL30:
 891              		.loc 1 173 0
 892 0138 4220     		movs	r0, #66
 893 013a FFF7FEFF 		bl	test_emit_token
 894              		.loc 1 174 0
 895 013e 3221     		movs	r1, #50
 896 0140 2046     		mov	r0, r4
 897 0142 FFF7FEFF 		bl	chSemWaitTimeout
 898              	.LVL31:
 899              		.loc 1 175 0
 900 0146 A0F1FF31 		sub	r1, r0, #-1
 901 014a 4842     		rsbs	r0, r1, #0
 902              	.LVL32:
 903 014c 40EB0101 		adc	r1, r0, r1
 904              	.LVL33:
 905 0150 0720     		movs	r0, #7
 906 0152 FFF7FEFF 		bl	_test_assert
 907 0156 0028     		cmp	r0, #0
ARM GAS  /tmp/ccs3cl1m.s 			page 17


 908 0158 7FF465AF 		bne	.L16
 909              	.LBB431:
 910              	.LBB427:
 911              		.loc 4 618 0
 912 015c 2368     		ldr	r3, [r4, #0]
 913              	.LBE427:
 914              	.LBE431:
 915              		.loc 1 176 0
 916 015e 0820     		movs	r0, #8
 917 0160 C4EB030C 		rsb	ip, r4, r3
 918 0164 DCF10002 		rsbs	r2, ip, #0
 919 0168 42EB0C01 		adc	r1, r2, ip
 920 016c FFF7FEFF 		bl	_test_assert
 921 0170 0028     		cmp	r0, #0
 922 0172 7FF458AF 		bne	.L16
 923              		.loc 1 177 0
 924 0176 A168     		ldr	r1, [r4, #8]
 925 0178 0920     		movs	r0, #9
 926 017a D1F10101 		rsbs	r1, r1, #1
 927 017e 38BF     		it	cc
 928 0180 0021     		movcc	r1, #0
 929 0182 FFF7FEFF 		bl	_test_assert
 930 0186 0028     		cmp	r0, #0
 931 0188 7FF44DAF 		bne	.L16
 932              	.LVL34:
 933              		.loc 1 173 0
 934 018c 4320     		movs	r0, #67
 935 018e FFF7FEFF 		bl	test_emit_token
 936              		.loc 1 174 0
 937 0192 3221     		movs	r1, #50
 938 0194 2046     		mov	r0, r4
 939 0196 FFF7FEFF 		bl	chSemWaitTimeout
 940              	.LVL35:
 941              		.loc 1 175 0
 942 019a A0F1FF32 		sub	r2, r0, #-1
 943 019e 5042     		rsbs	r0, r2, #0
 944              	.LVL36:
 945 01a0 40EB0201 		adc	r1, r0, r2
 946 01a4 0720     		movs	r0, #7
 947 01a6 FFF7FEFF 		bl	_test_assert
 948              	.LVL37:
 949 01aa 0028     		cmp	r0, #0
 950 01ac 7FF43BAF 		bne	.L16
 951              	.LBB432:
 952              	.LBB428:
 953              		.loc 4 618 0
 954 01b0 2268     		ldr	r2, [r4, #0]
 955              	.LBE428:
 956              	.LBE432:
 957              		.loc 1 176 0
 958 01b2 0820     		movs	r0, #8
 959 01b4 111B     		subs	r1, r2, r4
 960 01b6 4B42     		rsbs	r3, r1, #0
 961 01b8 43EB0101 		adc	r1, r3, r1
 962 01bc FFF7FEFF 		bl	_test_assert
 963 01c0 0028     		cmp	r0, #0
 964 01c2 7FF430AF 		bne	.L16
ARM GAS  /tmp/ccs3cl1m.s 			page 18


 965              		.loc 1 177 0
 966 01c6 A368     		ldr	r3, [r4, #8]
 967 01c8 0920     		movs	r0, #9
 968 01ca D3F10101 		rsbs	r1, r3, #1
 969 01ce 38BF     		it	cc
 970 01d0 0021     		movcc	r1, #0
 971 01d2 FFF7FEFF 		bl	_test_assert
 972 01d6 0028     		cmp	r0, #0
 973 01d8 7FF425AF 		bne	.L16
 974              	.LVL38:
 975              		.loc 1 173 0
 976 01dc 4420     		movs	r0, #68
 977 01de FFF7FEFF 		bl	test_emit_token
 978              		.loc 1 174 0
 979 01e2 3221     		movs	r1, #50
 980 01e4 2046     		mov	r0, r4
 981 01e6 FFF7FEFF 		bl	chSemWaitTimeout
 982              	.LVL39:
 983              		.loc 1 175 0
 984 01ea A0F1FF30 		sub	r0, r0, #-1
 985              	.LVL40:
 986 01ee D0F1000C 		rsbs	ip, r0, #0
 987 01f2 4CEB0001 		adc	r1, ip, r0
 988 01f6 0720     		movs	r0, #7
 989              	.LVL41:
 990 01f8 FFF7FEFF 		bl	_test_assert
 991 01fc 0028     		cmp	r0, #0
 992 01fe 7FF412AF 		bne	.L16
 993              	.LBB433:
 994              	.LBB429:
 995              		.loc 4 618 0
 996 0202 2268     		ldr	r2, [r4, #0]
 997              	.LBE429:
 998              	.LBE433:
 999              		.loc 1 176 0
 1000 0204 0820     		movs	r0, #8
 1001 0206 111B     		subs	r1, r2, r4
 1002 0208 D1F1000E 		rsbs	lr, r1, #0
 1003 020c 4EEB0101 		adc	r1, lr, r1
 1004 0210 FFF7FEFF 		bl	_test_assert
 1005 0214 0028     		cmp	r0, #0
 1006 0216 7FF406AF 		bne	.L16
 1007              		.loc 1 177 0
 1008 021a A368     		ldr	r3, [r4, #8]
 1009 021c 0920     		movs	r0, #9
 1010 021e D3F10101 		rsbs	r1, r3, #1
 1011 0222 38BF     		it	cc
 1012 0224 0021     		movcc	r1, #0
 1013 0226 FFF7FEFF 		bl	_test_assert
 1014 022a 0028     		cmp	r0, #0
 1015 022c 7FF4FBAE 		bne	.L16
 1016              	.LVL42:
 1017              		.loc 1 173 0
 1018 0230 4520     		movs	r0, #69
 1019 0232 FFF7FEFF 		bl	test_emit_token
 1020              		.loc 1 174 0
 1021 0236 3221     		movs	r1, #50
ARM GAS  /tmp/ccs3cl1m.s 			page 19


 1022 0238 2046     		mov	r0, r4
 1023 023a FFF7FEFF 		bl	chSemWaitTimeout
 1024              	.LVL43:
 1025              		.loc 1 175 0
 1026 023e A0F1FF31 		sub	r1, r0, #-1
 1027 0242 4842     		rsbs	r0, r1, #0
 1028              	.LVL44:
 1029 0244 40EB0101 		adc	r1, r0, r1
 1030              	.LVL45:
 1031 0248 0720     		movs	r0, #7
 1032 024a FFF7FEFF 		bl	_test_assert
 1033 024e 0028     		cmp	r0, #0
 1034 0250 7FF4E9AE 		bne	.L16
 1035              	.LBB434:
 1036              	.LBB430:
 1037              		.loc 4 618 0
 1038 0254 2168     		ldr	r1, [r4, #0]
 1039              	.LBE430:
 1040              	.LBE434:
 1041              		.loc 1 176 0
 1042 0256 0820     		movs	r0, #8
 1043 0258 0B1B     		subs	r3, r1, r4
 1044 025a 5A42     		rsbs	r2, r3, #0
 1045 025c 42EB0301 		adc	r1, r2, r3
 1046 0260 FFF7FEFF 		bl	_test_assert
 1047 0264 0028     		cmp	r0, #0
 1048 0266 7FF4DEAE 		bne	.L16
 1049              		.loc 1 177 0
 1050 026a A268     		ldr	r2, [r4, #8]
 1051 026c 0920     		movs	r0, #9
 1052 026e D2F10101 		rsbs	r1, r2, #1
 1053 0272 38BF     		it	cc
 1054 0274 0021     		movcc	r1, #0
 1055 0276 FFF7FEFF 		bl	_test_assert
 1056 027a 0028     		cmp	r0, #0
 1057 027c 7FF4D3AE 		bne	.L16
 1058              	.LVL46:
 1059              		.loc 1 179 0
 1060 0280 40F20001 		movw	r1, #:lower16:.LC5
 1061 0284 0A20     		movs	r0, #10
 1062 0286 C0F20001 		movt	r1, #:upper16:.LC5
 1063 028a FFF7FEFF 		bl	_test_assert_sequence
 1064 028e 0028     		cmp	r0, #0
 1065 0290 7FF4C9AE 		bne	.L16
 1066              	.LBB435:
 1067              	.LBB424:
 1068              	.LBB423:
 1069              	.LBB417:
 1070              	.LBB416:
 1071              	.LBB415:
 1072              		.loc 5 141 0
 1073 0294 B3B2     		uxth	r3, r6
 1074              	.LBE415:
 1075              	.LBE416:
 1076              	.LBE417:
 1077              	.LBE423:
 1078              	.LBE424:
ARM GAS  /tmp/ccs3cl1m.s 			page 20


 1079              	.LBE435:
 1080              		.loc 1 171 0
 1081 0296 03F1FA0C 		add	ip, r3, #250
 1082              		.loc 1 180 0
 1083 029a FC33     		adds	r3, r3, #252
 1084 029c 0B20     		movs	r0, #11
 1085 029e 1FFA8CF1 		uxth	r1, ip
 1086 02a2 9AB2     		uxth	r2, r3
 1087              	.LBE398:
 1088              	.LBE397:
 1089              		.loc 1 181 0
 1090 02a4 02B0     		add	sp, sp, #8
 1091 02a6 BDE87040 		pop	{r4, r5, r6, lr}
 1092              	.LBB437:
 1093              	.LBB436:
 1094              		.loc 1 180 0
 1095 02aa FFF7FEBF 		b	_test_assert_time_window
 1096              	.LBE436:
 1097              	.LBE437:
 1098              		.cfi_endproc
 1099              	.LFE187:
 1100              		.size	sem2_execute, .-sem2_execute
 1101 02ae 00BF     		.section	.text.thread4,"ax",%progbits
 1102              		.align	2
 1103              		.p2align 4,,15
 1104              		.thumb
 1105              		.thumb_func
 1106              		.type	thread4, %function
 1107              	thread4:
 1108              	.LFB191:
 1109              		.loc 1 241 0
 1110              		.cfi_startproc
 1111              		@ args = 0, pretend = 0, frame = 0
 1112              		@ frame_needed = 0, uses_anonymous_args = 0
 1113              	.LVL47:
 1114 0000 08B5     		push	{r3, lr}
 1115              	.LCFI9:
 1116              		.cfi_def_cfa_offset 8
 1117              		.cfi_offset 14, -4
 1118              		.cfi_offset 3, -8
 1119              	.LBB451:
 1120              	.LBB452:
 1121              	.LBB453:
 1122              	.LBB454:
 1123              	.LBB455:
 1124              	.LBB456:
 1125              		.loc 2 548 0
 1126 0002 2022     		movs	r2, #32
 1127              	@ 548 "../../../resources/chibios/ChibiOS_16.1.8/os/ext/CMSIS/include/core_cmFunc.h" 1
 1128 0004 82F31188 		MSR basepri, r2
 1129              	@ 0 "" 2
 1130              	.LVL48:
 1131              		.thumb
 1132              	.LBE456:
 1133              	.LBE455:
 1134              	.LBE454:
 1135              	.LBE453:
ARM GAS  /tmp/ccs3cl1m.s 			page 21


 1136              	.LBB457:
 1137              	.LBB458:
 1138              		.file 6 "../../../resources/chibios/ChibiOS_16.1.8/os/rt/include/chbsem.h"
 1139              		.loc 6 270 0
 1140 0008 8368     		ldr	r3, [r0, #8]
 1141 000a 002B     		cmp	r3, #0
 1142 000c 05DD     		ble	.L21
 1143              	.LVL49:
 1144              	.LBE458:
 1145              	.LBE457:
 1146              		.loc 6 286 0
 1147 000e FFF7FEFF 		bl	chSchRescheduleS
 1148              	.LVL50:
 1149              	.LBB460:
 1150              	.LBB461:
 1151              	.LBB462:
 1152              	.LBB463:
 1153              	.LBB464:
 1154              		.loc 2 548 0
 1155 0012 0020     		movs	r0, #0
 1156              	@ 548 "../../../resources/chibios/ChibiOS_16.1.8/os/ext/CMSIS/include/core_cmFunc.h" 1
 1157 0014 80F31188 		MSR basepri, r0
 1158              	@ 0 "" 2
 1159              		.thumb
 1160              	.LBE464:
 1161              	.LBE463:
 1162              	.LBE462:
 1163              	.LBE461:
 1164              	.LBE460:
 1165              	.LBE452:
 1166              	.LBE451:
 1167              		.loc 1 244 0
 1168 0018 08BD     		pop	{r3, pc}
 1169              	.LVL51:
 1170              	.L21:
 1171              	.LBB472:
 1172              	.LBB471:
 1173              	.LBB469:
 1174              	.LBB459:
 1175              		.loc 6 271 0
 1176 001a FFF7FEFF 		bl	chSemSignalI
 1177              	.LVL52:
 1178              	.LBE459:
 1179              	.LBE469:
 1180              		.loc 6 286 0
 1181 001e FFF7FEFF 		bl	chSchRescheduleS
 1182              	.LVL53:
 1183              	.LBB470:
 1184              	.LBB468:
 1185              	.LBB467:
 1186              	.LBB466:
 1187              	.LBB465:
 1188              		.loc 2 548 0
 1189 0022 0020     		movs	r0, #0
 1190              	@ 548 "../../../resources/chibios/ChibiOS_16.1.8/os/ext/CMSIS/include/core_cmFunc.h" 1
 1191 0024 80F31188 		MSR basepri, r0
 1192              	@ 0 "" 2
ARM GAS  /tmp/ccs3cl1m.s 			page 22


 1193              		.thumb
 1194              	.LBE465:
 1195              	.LBE466:
 1196              	.LBE467:
 1197              	.LBE468:
 1198              	.LBE470:
 1199              	.LBE471:
 1200              	.LBE472:
 1201              		.loc 1 244 0
 1202 0028 08BD     		pop	{r3, pc}
 1203              		.cfi_endproc
 1204              	.LFE191:
 1205              		.size	thread4, .-thread4
 1206 002a 00BFAFF3 		.section	.text.sem4_execute,"ax",%progbits
 1206      0080
 1207              		.align	2
 1208              		.p2align 4,,15
 1209              		.thumb
 1210              		.thumb_func
 1211              		.type	sem4_execute, %function
 1212              	sem4_execute:
 1213              	.LFB192:
 1214              		.loc 1 246 0
 1215              		.cfi_startproc
 1216              		@ args = 0, pretend = 0, frame = 16
 1217              		@ frame_needed = 0, uses_anonymous_args = 0
 1218 0000 70B5     		push	{r4, r5, r6, lr}
 1219              	.LCFI10:
 1220              		.cfi_def_cfa_offset 16
 1221              		.cfi_offset 14, -4
 1222              		.cfi_offset 6, -8
 1223              		.cfi_offset 5, -12
 1224              		.cfi_offset 4, -16
 1225 0002 86B0     		sub	sp, sp, #24
 1226              	.LCFI11:
 1227              		.cfi_def_cfa_offset 40
 1228              	.LVL54:
 1229              	.LBB593:
 1230              	.LBB594:
 1231              		.loc 6 126 0
 1232 0004 03A8     		add	r0, sp, #12
 1233 0006 0021     		movs	r1, #0
 1234 0008 FFF7FEFF 		bl	chSemObjectInit
 1235              	.LVL55:
 1236              	.LBE594:
 1237              	.LBE593:
 1238              	.LBB595:
 1239              	.LBB596:
 1240              		.loc 6 255 0
 1241 000c 03A8     		add	r0, sp, #12
 1242 000e 0021     		movs	r1, #0
 1243 0010 FFF7FEFF 		bl	chSemReset
 1244              	.LVL56:
 1245              	.LBE596:
 1246              	.LBE595:
 1247              	.LBB597:
 1248              	.LBB598:
ARM GAS  /tmp/ccs3cl1m.s 			page 23


 1249              	.LBB599:
 1250              	.LBB600:
 1251              		.loc 2 548 0
 1252 0014 2025     		movs	r5, #32
 1253              	@ 548 "../../../resources/chibios/ChibiOS_16.1.8/os/ext/CMSIS/include/core_cmFunc.h" 1
 1254 0016 85F31188 		MSR basepri, r5
 1255              	@ 0 "" 2
 1256              		.thumb
 1257              	.LBE600:
 1258              	.LBE599:
 1259              	.LBE598:
 1260              	.LBE597:
 1261              		.loc 1 252 0
 1262 001a 0599     		ldr	r1, [sp, #20]
 1263 001c 0120     		movs	r0, #1
 1264 001e 0029     		cmp	r1, #0
 1265 0020 CCBF     		ite	gt
 1266 0022 0021     		movgt	r1, #0
 1267 0024 0121     		movle	r1, #1
 1268 0026 FFF7FEFF 		bl	_test_assert
 1269 002a 0446     		mov	r4, r0
 1270 002c 20B1     		cbz	r0, .L23
 1271              	.LVL57:
 1272              	.LBB601:
 1273              	.LBB602:
 1274              	.LBB603:
 1275              	.LBB604:
 1276              	.LBB605:
 1277              		.loc 2 548 0
 1278 002e 0023     		movs	r3, #0
 1279              	@ 548 "../../../resources/chibios/ChibiOS_16.1.8/os/ext/CMSIS/include/core_cmFunc.h" 1
 1280 0030 83F31188 		MSR basepri, r3
 1281              	@ 0 "" 2
 1282              	.LVL58:
 1283              		.thumb
 1284              	.L22:
 1285              	.LBE605:
 1286              	.LBE604:
 1287              	.LBE603:
 1288              	.LBE602:
 1289              	.LBE601:
 1290              		.loc 1 274 0
 1291 0034 06B0     		add	sp, sp, #24
 1292 0036 70BD     		pop	{r4, r5, r6, pc}
 1293              	.L23:
 1294              	.LVL59:
 1295              	.LBB606:
 1296              	.LBB607:
 1297              	.LBB608:
 1298              	.LBB609:
 1299              	.LBB610:
 1300              		.loc 2 548 0
 1301              	@ 548 "../../../resources/chibios/ChibiOS_16.1.8/os/ext/CMSIS/include/core_cmFunc.h" 1
 1302 0038 80F31188 		MSR basepri, r0
 1303              	@ 0 "" 2
 1304              		.thumb
 1305              	.LBE610:
ARM GAS  /tmp/ccs3cl1m.s 			page 24


 1306              	.LBE609:
 1307              	.LBE608:
 1308              	.LBE607:
 1309              	.LBE606:
 1310              	.LBB611:
 1311              	.LBB612:
 1312              	.LBB613:
 1313              	.LBB614:
 1314              		.loc 3 176 0
 1315 003c 40F2000C 		movw	ip, #:lower16:ch
 1316 0040 C0F2000C 		movt	ip, #:upper16:ch
 1317              	.LBE614:
 1318              	.LBE613:
 1319              		.loc 3 189 0
 1320 0044 DCF81860 		ldr	r6, [ip, #24]
 1321              	.LBE612:
 1322              	.LBE611:
 1323              		.loc 1 255 0
 1324 0048 40F20000 		movw	r0, #:lower16:wa
 1325 004c B268     		ldr	r2, [r6, #8]
 1326 004e C0F20000 		movt	r0, #:upper16:wa
 1327 0052 40F20003 		movw	r3, #:lower16:thread4
 1328 0056 013A     		subs	r2, r2, #1
 1329 0058 C0F20003 		movt	r3, #:upper16:thread4
 1330 005c 4FF4A471 		mov	r1, #328
 1331 0060 03AE     		add	r6, sp, #12
 1332 0062 0068     		ldr	r0, [r0, #0]
 1333 0064 0096     		str	r6, [sp, #0]
 1334 0066 FFF7FEFF 		bl	chThdCreateStatic
 1335 006a 40F20001 		movw	r1, #:lower16:threads
 1336 006e C0F20001 		movt	r1, #:upper16:threads
 1337 0072 0860     		str	r0, [r1, #0]
 1338              	.LVL60:
 1339              	.LBB615:
 1340              	.LBB616:
 1341              		.loc 6 143 0
 1342 0074 03A8     		add	r0, sp, #12
 1343 0076 FFF7FEFF 		bl	chSemWait
 1344              	.LVL61:
 1345              	.LBE616:
 1346              	.LBE615:
 1347              	.LBB617:
 1348              	.LBB618:
 1349              	.LBB619:
 1350              	.LBB620:
 1351              		.loc 2 548 0
 1352              	@ 548 "../../../resources/chibios/ChibiOS_16.1.8/os/ext/CMSIS/include/core_cmFunc.h" 1
 1353 007a 85F31188 		MSR basepri, r5
 1354              	@ 0 "" 2
 1355              		.thumb
 1356              	.LBE620:
 1357              	.LBE619:
 1358              	.LBE618:
 1359              	.LBE617:
 1360              		.loc 1 262 0
 1361 007e 0599     		ldr	r1, [sp, #20]
 1362 0080 0220     		movs	r0, #2
ARM GAS  /tmp/ccs3cl1m.s 			page 25


 1363 0082 0029     		cmp	r1, #0
 1364 0084 CCBF     		ite	gt
 1365 0086 0021     		movgt	r1, #0
 1366 0088 0121     		movle	r1, #1
 1367 008a FFF7FEFF 		bl	_test_assert
 1368 008e 10B1     		cbz	r0, .L25
 1369              	.L32:
 1370              	.LVL62:
 1371              	.LBB621:
 1372              	.LBB622:
 1373              	.LBB623:
 1374              	.LBB624:
 1375              	.LBB625:
 1376              		.loc 2 548 0
 1377              	@ 548 "../../../resources/chibios/ChibiOS_16.1.8/os/ext/CMSIS/include/core_cmFunc.h" 1
 1378 0090 84F31188 		MSR basepri, r4
 1379              	@ 0 "" 2
 1380              		.thumb
 1381 0094 CEE7     		b	.L22
 1382              	.LVL63:
 1383              	.L25:
 1384              	.LBE625:
 1385              	.LBE624:
 1386              	.LBE623:
 1387              	.LBE622:
 1388              	.LBE621:
 1389              	.LBB626:
 1390              	.LBB627:
 1391              	.LBB628:
 1392              	.LBB629:
 1393              	.LBB630:
 1394              	@ 548 "../../../resources/chibios/ChibiOS_16.1.8/os/ext/CMSIS/include/core_cmFunc.h" 1
 1395 0096 80F31188 		MSR basepri, r0
 1396              	@ 0 "" 2
 1397              	.LVL64:
 1398              		.thumb
 1399              	.LBE630:
 1400              	.LBE629:
 1401              	.LBE628:
 1402              	.LBE627:
 1403              	.LBE626:
 1404              	.LBB631:
 1405              	.LBB632:
 1406              	.LBB633:
 1407              	.LBB634:
 1408              	.LBB635:
 1409              	.LBB636:
 1410              	@ 548 "../../../resources/chibios/ChibiOS_16.1.8/os/ext/CMSIS/include/core_cmFunc.h" 1
 1411 009a 85F31188 		MSR basepri, r5
 1412              	@ 0 "" 2
 1413              	.LVL65:
 1414              		.thumb
 1415              	.LBE636:
 1416              	.LBE635:
 1417              	.LBE634:
 1418              	.LBE633:
 1419              	.LBB637:
ARM GAS  /tmp/ccs3cl1m.s 			page 26


 1420              	.LBB638:
 1421              		.loc 6 270 0
 1422 009e 059C     		ldr	r4, [sp, #20]
 1423 00a0 002C     		cmp	r4, #0
 1424 00a2 4FDD     		ble	.L34
 1425              	.L26:
 1426              	.LBE638:
 1427              	.LBE637:
 1428              		.loc 6 286 0
 1429 00a4 FFF7FEFF 		bl	chSchRescheduleS
 1430              	.LVL66:
 1431              	.LBB640:
 1432              	.LBB641:
 1433              	.LBB642:
 1434              	.LBB643:
 1435              	.LBB644:
 1436              		.loc 2 548 0
 1437 00a8 0025     		movs	r5, #0
 1438              	@ 548 "../../../resources/chibios/ChibiOS_16.1.8/os/ext/CMSIS/include/core_cmFunc.h" 1
 1439 00aa 85F31188 		MSR basepri, r5
 1440              	@ 0 "" 2
 1441              	.LVL67:
 1442              		.thumb
 1443              	.LBE644:
 1444              	.LBE643:
 1445              	.LBE642:
 1446              	.LBE641:
 1447              	.LBE640:
 1448              	.LBE632:
 1449              	.LBE631:
 1450              	.LBB647:
 1451              	.LBB648:
 1452              	.LBB649:
 1453              	.LBB650:
 1454 00ae 2026     		movs	r6, #32
 1455              	@ 548 "../../../resources/chibios/ChibiOS_16.1.8/os/ext/CMSIS/include/core_cmFunc.h" 1
 1456 00b0 86F31188 		MSR basepri, r6
 1457              	@ 0 "" 2
 1458              		.thumb
 1459              	.LBE650:
 1460              	.LBE649:
 1461              	.LBE648:
 1462              	.LBE647:
 1463              		.loc 1 267 0
 1464 00b4 0599     		ldr	r1, [sp, #20]
 1465 00b6 0320     		movs	r0, #3
 1466 00b8 A942     		cmp	r1, r5
 1467 00ba D4BF     		ite	le
 1468 00bc 0021     		movle	r1, #0
 1469 00be 0121     		movgt	r1, #1
 1470 00c0 FFF7FEFF 		bl	_test_assert
 1471 00c4 0446     		mov	r4, r0
 1472 00c6 10B1     		cbz	r0, .L27
 1473              	.L33:
 1474              	.LVL68:
 1475              	.LBB651:
 1476              	.LBB652:
ARM GAS  /tmp/ccs3cl1m.s 			page 27


 1477              	.LBB653:
 1478              	.LBB654:
 1479              	.LBB655:
 1480              		.loc 2 548 0
 1481              	@ 548 "../../../resources/chibios/ChibiOS_16.1.8/os/ext/CMSIS/include/core_cmFunc.h" 1
 1482 00c8 85F31188 		MSR basepri, r5
 1483              	@ 0 "" 2
 1484              		.thumb
 1485 00cc B2E7     		b	.L22
 1486              	.LVL69:
 1487              	.L27:
 1488              	.LBE655:
 1489              	.LBE654:
 1490              	.LBE653:
 1491              	.LBE652:
 1492              	.LBE651:
 1493              	.LBB656:
 1494              	.LBB657:
 1495              	.LBB658:
 1496              	.LBB659:
 1497              	.LBB660:
 1498              	@ 548 "../../../resources/chibios/ChibiOS_16.1.8/os/ext/CMSIS/include/core_cmFunc.h" 1
 1499 00ce 80F31188 		MSR basepri, r0
 1500              	@ 0 "" 2
 1501              	.LVL70:
 1502              		.thumb
 1503              	.LBE660:
 1504              	.LBE659:
 1505              	.LBE658:
 1506              	.LBE657:
 1507              	.LBE656:
 1508              	.LBB661:
 1509              	.LBB662:
 1510              	.LBB663:
 1511              	.LBB664:
 1512              	@ 548 "../../../resources/chibios/ChibiOS_16.1.8/os/ext/CMSIS/include/core_cmFunc.h" 1
 1513 00d2 86F31188 		MSR basepri, r6
 1514              	@ 0 "" 2
 1515              		.thumb
 1516              	.LBE664:
 1517              	.LBE663:
 1518              	.LBE662:
 1519              	.LBE661:
 1520              		.loc 1 268 0
 1521 00d6 059A     		ldr	r2, [sp, #20]
 1522 00d8 0420     		movs	r0, #4
 1523 00da A2F10101 		sub	r1, r2, #1
 1524 00de 4B42     		rsbs	r3, r1, #0
 1525 00e0 43EB0101 		adc	r1, r3, r1
 1526 00e4 FFF7FEFF 		bl	_test_assert
 1527 00e8 0028     		cmp	r0, #0
 1528 00ea D1D1     		bne	.L32
 1529              	.LVL71:
 1530              	.LBB665:
 1531              	.LBB666:
 1532              	.LBB667:
 1533              	.LBB668:
ARM GAS  /tmp/ccs3cl1m.s 			page 28


 1534              	.LBB669:
 1535              		.loc 2 548 0
 1536              	@ 548 "../../../resources/chibios/ChibiOS_16.1.8/os/ext/CMSIS/include/core_cmFunc.h" 1
 1537 00ec 80F31188 		MSR basepri, r0
 1538              	@ 0 "" 2
 1539              	.LVL72:
 1540              		.thumb
 1541              	.LBE669:
 1542              	.LBE668:
 1543              	.LBE667:
 1544              	.LBE666:
 1545              	.LBE665:
 1546              	.LBB670:
 1547              	.LBB671:
 1548              	.LBB672:
 1549              	.LBB673:
 1550              	.LBB674:
 1551              	.LBB675:
 1552              	@ 548 "../../../resources/chibios/ChibiOS_16.1.8/os/ext/CMSIS/include/core_cmFunc.h" 1
 1553 00f0 86F31188 		MSR basepri, r6
 1554              	@ 0 "" 2
 1555              		.thumb
 1556              	.LBE675:
 1557              	.LBE674:
 1558              	.LBE673:
 1559              	.LBE672:
 1560              	.LBB676:
 1561              	.LBB677:
 1562              		.loc 6 270 0
 1563 00f4 059D     		ldr	r5, [sp, #20]
 1564 00f6 002D     		cmp	r5, #0
 1565 00f8 28DD     		ble	.L35
 1566              	.L29:
 1567              	.LBE677:
 1568              	.LBE676:
 1569              		.loc 6 286 0
 1570 00fa FFF7FEFF 		bl	chSchRescheduleS
 1571              	.LVL73:
 1572              	.LBB679:
 1573              	.LBB680:
 1574              	.LBB681:
 1575              	.LBB682:
 1576              	.LBB683:
 1577              		.loc 2 548 0
 1578 00fe 0024     		movs	r4, #0
 1579              	@ 548 "../../../resources/chibios/ChibiOS_16.1.8/os/ext/CMSIS/include/core_cmFunc.h" 1
 1580 0100 84F31188 		MSR basepri, r4
 1581              	@ 0 "" 2
 1582              	.LVL74:
 1583              		.thumb
 1584              	.LBE683:
 1585              	.LBE682:
 1586              	.LBE681:
 1587              	.LBE680:
 1588              	.LBE679:
 1589              	.LBE671:
 1590              	.LBE670:
ARM GAS  /tmp/ccs3cl1m.s 			page 29


 1591              	.LBB686:
 1592              	.LBB687:
 1593              	.LBB688:
 1594              	.LBB689:
 1595 0104 2026     		movs	r6, #32
 1596              	@ 548 "../../../resources/chibios/ChibiOS_16.1.8/os/ext/CMSIS/include/core_cmFunc.h" 1
 1597 0106 86F31188 		MSR basepri, r6
 1598              	@ 0 "" 2
 1599              		.thumb
 1600              	.LBE689:
 1601              	.LBE688:
 1602              	.LBE687:
 1603              	.LBE686:
 1604              		.loc 1 272 0
 1605 010a 0599     		ldr	r1, [sp, #20]
 1606 010c 0320     		movs	r0, #3
 1607 010e A142     		cmp	r1, r4
 1608 0110 D4BF     		ite	le
 1609 0112 0021     		movle	r1, #0
 1610 0114 0121     		movgt	r1, #1
 1611 0116 FFF7FEFF 		bl	_test_assert
 1612 011a 0546     		mov	r5, r0
 1613 011c 0028     		cmp	r0, #0
 1614 011e B7D1     		bne	.L32
 1615              	.LVL75:
 1616              	.LBB690:
 1617              	.LBB691:
 1618              	.LBB692:
 1619              	.LBB693:
 1620              	.LBB694:
 1621              		.loc 2 548 0
 1622              	@ 548 "../../../resources/chibios/ChibiOS_16.1.8/os/ext/CMSIS/include/core_cmFunc.h" 1
 1623 0120 80F31188 		MSR basepri, r0
 1624              	@ 0 "" 2
 1625              	.LVL76:
 1626              		.thumb
 1627              	.LBE694:
 1628              	.LBE693:
 1629              	.LBE692:
 1630              	.LBE691:
 1631              	.LBE690:
 1632              	.LBB695:
 1633              	.LBB696:
 1634              	.LBB697:
 1635              	.LBB698:
 1636              	@ 548 "../../../resources/chibios/ChibiOS_16.1.8/os/ext/CMSIS/include/core_cmFunc.h" 1
 1637 0124 86F31188 		MSR basepri, r6
 1638              	@ 0 "" 2
 1639              		.thumb
 1640              	.LBE698:
 1641              	.LBE697:
 1642              	.LBE696:
 1643              	.LBE695:
 1644              		.loc 1 273 0
 1645 0128 059A     		ldr	r2, [sp, #20]
 1646 012a 0520     		movs	r0, #5
 1647 012c A2F10101 		sub	r1, r2, #1
ARM GAS  /tmp/ccs3cl1m.s 			page 30


 1648 0130 4B42     		rsbs	r3, r1, #0
 1649 0132 43EB0101 		adc	r1, r3, r1
 1650 0136 FFF7FEFF 		bl	_test_assert
 1651 013a 0028     		cmp	r0, #0
 1652 013c C4D1     		bne	.L33
 1653              	.LVL77:
 1654              	.LBB699:
 1655              	.LBB700:
 1656              	.LBB701:
 1657              	.LBB702:
 1658              	.LBB703:
 1659              		.loc 2 548 0
 1660              	@ 548 "../../../resources/chibios/ChibiOS_16.1.8/os/ext/CMSIS/include/core_cmFunc.h" 1
 1661 013e 80F31188 		MSR basepri, r0
 1662              	@ 0 "" 2
 1663              		.thumb
 1664 0142 77E7     		b	.L22
 1665              	.LVL78:
 1666              	.L34:
 1667              	.LBE703:
 1668              	.LBE702:
 1669              	.LBE701:
 1670              	.LBE700:
 1671              	.LBE699:
 1672              	.LBB704:
 1673              	.LBB646:
 1674              	.LBB645:
 1675              	.LBB639:
 1676              		.loc 6 271 0
 1677 0144 03A8     		add	r0, sp, #12
 1678 0146 FFF7FEFF 		bl	chSemSignalI
 1679 014a ABE7     		b	.L26
 1680              	.LVL79:
 1681              	.L35:
 1682              	.LBE639:
 1683              	.LBE645:
 1684              	.LBE646:
 1685              	.LBE704:
 1686              	.LBB705:
 1687              	.LBB685:
 1688              	.LBB684:
 1689              	.LBB678:
 1690 014c 03A8     		add	r0, sp, #12
 1691 014e FFF7FEFF 		bl	chSemSignalI
 1692 0152 D2E7     		b	.L29
 1693              	.LBE678:
 1694              	.LBE684:
 1695              	.LBE685:
 1696              	.LBE705:
 1697              		.cfi_endproc
 1698              	.LFE192:
 1699              		.size	sem4_execute, .-sem4_execute
 1700              		.global	patternsem
 1701              		.global	testsem4
 1702              		.global	testsem3
 1703              		.global	testsem2
 1704              		.global	testsem1
ARM GAS  /tmp/ccs3cl1m.s 			page 31


 1705 0154 AFF30080 		.section	.rodata.testsem1,"a",%progbits
 1705      AFF30080 
 1705      AFF30080 
 1706              		.align	2
 1707              		.type	testsem1, %object
 1708              		.size	testsem1, 16
 1709              	testsem1:
 1710 0000 74000000 		.word	.LC9
 1711 0004 00000000 		.word	sem1_setup
 1712 0008 00000000 		.word	0
 1713 000c 00000000 		.word	sem1_execute
 1714              		.section	.rodata.testsem2,"a",%progbits
 1715              		.align	2
 1716              		.type	testsem2, %object
 1717              		.size	testsem2, 16
 1718              	testsem2:
 1719 0000 60000000 		.word	.LC8
 1720 0004 00000000 		.word	sem2_setup
 1721 0008 00000000 		.word	0
 1722 000c 00000000 		.word	sem2_execute
 1723              		.section	.rodata.testsem3,"a",%progbits
 1724              		.align	2
 1725              		.type	testsem3, %object
 1726              		.size	testsem3, 16
 1727              	testsem3:
 1728 0000 40000000 		.word	.LC7
 1729 0004 00000000 		.word	sem3_setup
 1730 0008 00000000 		.word	0
 1731 000c 00000000 		.word	sem3_execute
 1732              		.section	.rodata.testsem4,"a",%progbits
 1733              		.align	2
 1734              		.type	testsem4, %object
 1735              		.size	testsem4, 16
 1736              	testsem4:
 1737 0000 1C000000 		.word	.LC6
 1738 0004 00000000 		.word	0
 1739 0008 00000000 		.word	0
 1740 000c 00000000 		.word	sem4_execute
 1741              		.section	.data.sem1,"aw",%progbits
 1742              		.align	2
 1743              		.set	.LANCHOR0,. + 0
 1744              		.type	sem1, %object
 1745              		.size	sem1, 12
 1746              	sem1:
 1747 0000 00000000 		.word	sem1
 1748 0004 00000000 		.word	sem1
 1749 0008 00000000 		.word	0
 1750              		.section	.rodata.patternsem,"a",%progbits
 1751              		.align	2
 1752              		.type	patternsem, %object
 1753              		.size	patternsem, 20
 1754              	patternsem:
 1755 0000 00000000 		.word	testsem1
 1756 0004 00000000 		.word	testsem2
 1757 0008 00000000 		.word	testsem3
 1758 000c 00000000 		.word	testsem4
 1759 0010 00000000 		.word	0
ARM GAS  /tmp/ccs3cl1m.s 			page 32


 1760              		.section	.rodata.str1.4,"aMS",%progbits,1
 1761              		.align	2
 1762              	.LC0:
 1763 0000 4100     		.ascii	"A\000"
 1764 0002 0000     		.space	2
 1765              	.LC1:
 1766 0004 4200     		.ascii	"B\000"
 1767 0006 0000     		.space	2
 1768              	.LC2:
 1769 0008 4300     		.ascii	"C\000"
 1770 000a 0000     		.space	2
 1771              	.LC3:
 1772 000c 4400     		.ascii	"D\000"
 1773 000e 0000     		.space	2
 1774              	.LC4:
 1775 0010 4500     		.ascii	"E\000"
 1776 0012 0000     		.space	2
 1777              	.LC5:
 1778 0014 41424344 		.ascii	"ABCDE\000"
 1778      4500
 1779 001a 0000     		.space	2
 1780              	.LC6:
 1781 001c 42696E61 		.ascii	"Binary Semaphores, functionality\000"
 1781      72792053 
 1781      656D6170 
 1781      686F7265 
 1781      732C2066 
 1782 003d 000000   		.space	3
 1783              	.LC7:
 1784 0040 53656D61 		.ascii	"Semaphores, atomic signal-wait\000"
 1784      70686F72 
 1784      65732C20 
 1784      61746F6D 
 1784      69632073 
 1785 005f 00       		.space	1
 1786              	.LC8:
 1787 0060 53656D61 		.ascii	"Semaphores, timeout\000"
 1787      70686F72 
 1787      65732C20 
 1787      74696D65 
 1787      6F757400 
 1788              	.LC9:
 1789 0074 53656D61 		.ascii	"Semaphores, enqueuing\000"
 1789      70686F72 
 1789      65732C20 
 1789      656E7175 
 1789      6575696E 
 1790 008a 0000     		.text
 1791              	.Letext0:
 1792              		.file 7 "/home/madog/programs/CodeSourcery/Sourcery_CodeBench_Lite_for_ARM_EABI/bin/../lib/gcc/arm
 1793              		.file 8 "/home/madog/programs/CodeSourcery/Sourcery_CodeBench_Lite_for_ARM_EABI/bin/../lib/gcc/arm
 1794              		.file 9 "../../../resources/chibios/ChibiOS_16.1.8/os/rt/ports/ARMCMx/compilers/GCC/chtypes.h"
 1795              		.file 10 "../../../resources/chibios/ChibiOS_16.1.8/os/rt/include/chsystypes.h"
 1796              		.file 11 "../../../resources/chibios/ChibiOS_16.1.8/os/rt/ports/ARMCMx/chcore.h"
 1797              		.file 12 "../../../resources/chibios/ChibiOS_16.1.8/os/rt/ports/ARMCMx/chcore_v7m.h"
 1798              		.file 13 "../../../resources/chibios/ChibiOS_16.1.8/os/hal/ports/STM32/LLD/TIMv1/stm32_tim.h"
 1799              		.file 14 "../../../resources/chibios/ChibiOS_16.1.8/os/rt/include/chtm.h"
ARM GAS  /tmp/ccs3cl1m.s 			page 33


 1800              		.file 15 "../../../resources/chibios/ChibiOS_16.1.8/os/rt/include/chsem.h"
 1801              		.file 16 "../../../resources/chibios/ChibiOS_16.1.8/os/rt/include/chmtx.h"
 1802              		.file 17 "../../../resources/chibios/ChibiOS_16.1.8/test/rt/test.h"
 1803              		.file 18 "../../../resources/chibios/ChibiOS_16.1.8/os/rt/ports/ARMCMx/chcore_timer.h"
 1804              		.file 19 "../../../resources/chibios/ChibiOS_16.1.8/os/rt/include/chsys.h"
 1805              		.file 20 "../../../resources/chibios/ChibiOS_16.1.8/os/rt/include/chvt.h"
 1806              		.file 21 "../../../resources/chibios/ChibiOS_16.1.8/os/ext/CMSIS/include/core_cm3.h"