ARM GAS  /tmp/ccqcQtYM.s 			page 1


   1              		.syntax unified
   2              		.cpu cortex-m3
   3              		.fpu softvfp
   4              		.eabi_attribute 20, 1
   5              		.eabi_attribute 21, 1
   6              		.eabi_attribute 23, 3
   7              		.eabi_attribute 24, 1
   8              		.eabi_attribute 25, 1
   9              		.eabi_attribute 26, 1
  10              		.eabi_attribute 30, 2
  11              		.eabi_attribute 34, 1
  12              		.eabi_attribute 18, 4
  13              		.thumb
  14              		.file	"testmsg.c"
  15              		.text
  16              	.Ltext0:
  17              		.cfi_sections	.debug_frame
  18              		.section	.text.msg1_execute,"ax",%progbits
  19              		.align	2
  20              		.p2align 4,,15
  21              		.thumb
  22              		.thumb_func
  23              		.type	msg1_execute, %function
  24              	msg1_execute:
  25              	.LFB183:
  26              		.file 1 "../../../resources/chibios/ChibiOS_16.1.8/test/rt/testmsg.c"
  27              		.loc 1 66 0
  28              		.cfi_startproc
  29              		@ args = 0, pretend = 0, frame = 0
  30              		@ frame_needed = 0, uses_anonymous_args = 0
  31              	.LBB16:
  32              	.LBB17:
  33              	.LBB18:
  34              	.LBB19:
  35              		.file 2 "../../../resources/chibios/ChibiOS_16.1.8/os/rt/include/chthreads.h"
  36              		.loc 2 176 0
  37 0000 40F20001 		movw	r1, #:lower16:ch
  38              	.LBE19:
  39              	.LBE18:
  40              	.LBE17:
  41              	.LBE16:
  42              		.loc 1 66 0
  43 0004 10B5     		push	{r4, lr}
  44              	.LCFI0:
  45              		.cfi_def_cfa_offset 8
  46              		.cfi_offset 14, -4
  47              		.cfi_offset 4, -8
  48              	.LBB23:
  49              	.LBB22:
  50              	.LBB21:
  51              	.LBB20:
  52              		.loc 2 176 0
  53 0006 C0F20001 		movt	r1, #:upper16:ch
  54 000a 8C69     		ldr	r4, [r1, #24]
  55              	.LBE20:
  56              	.LBE21:
  57              	.LBE22:
ARM GAS  /tmp/ccqcQtYM.s 			page 2


  58              	.LBE23:
  59              		.loc 1 73 0
  60 000c 40F20000 		movw	r0, #:lower16:wa
  61 0010 A268     		ldr	r2, [r4, #8]
  62 0012 C0F20000 		movt	r0, #:upper16:wa
  63 0016 40F20003 		movw	r3, #:lower16:thread
  64              		.loc 1 66 0
  65 001a 82B0     		sub	sp, sp, #8
  66              	.LCFI1:
  67              		.cfi_def_cfa_offset 16
  68              		.loc 1 73 0
  69 001c 0132     		adds	r2, r2, #1
  70 001e 4FF4A471 		mov	r1, #328
  71 0022 C0F20003 		movt	r3, #:upper16:thread
  72 0026 0068     		ldr	r0, [r0, #0]
  73 0028 0094     		str	r4, [sp, #0]
  74 002a FFF7FEFF 		bl	chThdCreateStatic
  75 002e 40F20003 		movw	r3, #:lower16:threads
  76 0032 C0F20003 		movt	r3, #:upper16:threads
  77 0036 1860     		str	r0, [r3, #0]
  78              		.loc 1 75 0
  79 0038 FFF7FEFF 		bl	chMsgWait
  80              	.LVL0:
  81              		.loc 1 107 0
  82 003c 046B     		ldr	r4, [r0, #48]
  83              		.loc 1 77 0
  84 003e 2146     		mov	r1, r4
  85 0040 FFF7FEFF 		bl	chMsgRelease
  86              	.LVL1:
  87              		.loc 1 78 0
  88 0044 E0B2     		uxtb	r0, r4
  89 0046 FFF7FEFF 		bl	test_emit_token
  90              		.loc 1 79 0
  91 004a FFF7FEFF 		bl	chMsgWait
  92              	.LVL2:
  93              		.loc 1 107 0
  94 004e 046B     		ldr	r4, [r0, #48]
  95              		.loc 1 81 0
  96 0050 2146     		mov	r1, r4
  97 0052 FFF7FEFF 		bl	chMsgRelease
  98              	.LVL3:
  99              		.loc 1 82 0
 100 0056 E0B2     		uxtb	r0, r4
 101 0058 FFF7FEFF 		bl	test_emit_token
 102              		.loc 1 83 0
 103 005c FFF7FEFF 		bl	chMsgWait
 104              	.LVL4:
 105              		.loc 1 107 0
 106 0060 046B     		ldr	r4, [r0, #48]
 107              		.loc 1 85 0
 108 0062 2146     		mov	r1, r4
 109 0064 FFF7FEFF 		bl	chMsgRelease
 110              	.LVL5:
 111              		.loc 1 86 0
 112 0068 E0B2     		uxtb	r0, r4
 113 006a FFF7FEFF 		bl	test_emit_token
 114              		.loc 1 87 0
ARM GAS  /tmp/ccqcQtYM.s 			page 3


 115 006e 40F20001 		movw	r1, #:lower16:.LC0
 116 0072 0120     		movs	r0, #1
 117 0074 C0F20001 		movt	r1, #:upper16:.LC0
 118              		.loc 1 88 0
 119 0078 02B0     		add	sp, sp, #8
 120 007a BDE81040 		pop	{r4, lr}
 121              		.loc 1 87 0
 122 007e FFF7FEBF 		b	_test_assert_sequence
 123              		.cfi_endproc
 124              	.LFE183:
 125              		.size	msg1_execute, .-msg1_execute
 126 0082 00BFAFF3 		.section	.text.thread,"ax",%progbits
 126      0080AFF3 
 126      0080AFF3 
 126      0080
 127              		.align	2
 128              		.p2align 4,,15
 129              		.thumb
 130              		.thumb_func
 131              		.type	thread, %function
 132              	thread:
 133              	.LFB182:
 134              		.loc 1 59 0
 135              		.cfi_startproc
 136              		@ args = 0, pretend = 0, frame = 0
 137              		@ frame_needed = 0, uses_anonymous_args = 0
 138              	.LVL6:
 139 0000 10B5     		push	{r4, lr}
 140              	.LCFI2:
 141              		.cfi_def_cfa_offset 8
 142              		.cfi_offset 14, -4
 143              		.cfi_offset 4, -8
 144              		.loc 1 61 0
 145 0002 4121     		movs	r1, #65
 146              		.loc 1 59 0
 147 0004 0446     		mov	r4, r0
 148              		.loc 1 61 0
 149 0006 FFF7FEFF 		bl	chMsgSend
 150              	.LVL7:
 151              		.loc 1 62 0
 152 000a 4221     		movs	r1, #66
 153 000c 2046     		mov	r0, r4
 154 000e FFF7FEFF 		bl	chMsgSend
 155              		.loc 1 63 0
 156 0012 2046     		mov	r0, r4
 157 0014 4321     		movs	r1, #67
 158              		.loc 1 64 0
 159 0016 BDE81040 		pop	{r4, lr}
 160              		.loc 1 63 0
 161 001a FFF7FEBF 		b	chMsgSend
 162              		.cfi_endproc
 163              	.LFE182:
 164              		.size	thread, .-thread
 165              		.global	patternmsg
 166              		.global	testmsg1
 167 001e 00BF     		.section	.rodata.testmsg1,"a",%progbits
 168              		.align	2
ARM GAS  /tmp/ccqcQtYM.s 			page 4


 169              		.type	testmsg1, %object
 170              		.size	testmsg1, 16
 171              	testmsg1:
 172 0000 04000000 		.word	.LC1
 173 0004 00000000 		.word	0
 174 0008 00000000 		.word	0
 175 000c 00000000 		.word	msg1_execute
 176              		.section	.rodata.str1.4,"aMS",%progbits,1
 177              		.align	2
 178              	.LC0:
 179 0000 41424300 		.ascii	"ABC\000"
 180              	.LC1:
 181 0004 4D657373 		.ascii	"Messages, loop\000"
 181      61676573 
 181      2C206C6F 
 181      6F7000
 182 0013 00       		.section	.rodata.patternmsg,"a",%progbits
 183              		.align	2
 184              		.type	patternmsg, %object
 185              		.size	patternmsg, 8
 186              	patternmsg:
 187 0000 00000000 		.word	testmsg1
 188 0004 00000000 		.word	0
 189              		.text
 190              	.Letext0:
 191              		.file 3 "/home/madog/programs/CodeSourcery/Sourcery_CodeBench_Lite_for_ARM_EABI/bin/../lib/gcc/arm
 192              		.file 4 "/home/madog/programs/CodeSourcery/Sourcery_CodeBench_Lite_for_ARM_EABI/bin/../lib/gcc/arm
 193              		.file 5 "../../../resources/chibios/ChibiOS_16.1.8/os/rt/ports/ARMCMx/compilers/GCC/chtypes.h"
 194              		.file 6 "../../../resources/chibios/ChibiOS_16.1.8/os/rt/include/chsystypes.h"
 195              		.file 7 "../../../resources/chibios/ChibiOS_16.1.8/os/rt/include/chschd.h"
 196              		.file 8 "../../../resources/chibios/ChibiOS_16.1.8/os/rt/ports/ARMCMx/chcore.h"
 197              		.file 9 "../../../resources/chibios/ChibiOS_16.1.8/os/rt/ports/ARMCMx/chcore_v7m.h"
 198              		.file 10 "../../../resources/chibios/ChibiOS_16.1.8/os/rt/include/chtm.h"
 199              		.file 11 "../../../resources/chibios/ChibiOS_16.1.8/os/rt/include/chsem.h"
 200              		.file 12 "../../../resources/chibios/ChibiOS_16.1.8/os/rt/include/chmtx.h"
 201              		.file 13 "../../../resources/chibios/ChibiOS_16.1.8/test/rt/test.h"
 202              		.file 14 "../../../resources/chibios/ChibiOS_16.1.8/os/ext/CMSIS/include/core_cm3.h"
 203              		.file 15 "../../../resources/chibios/ChibiOS_16.1.8/os/rt/include/chmsg.h"
 204              		.section	.debug_info,"",%progbits
 205              	.Ldebug_info0:
 206 0000 55080000 		.4byte	0x855
 207 0004 0200     		.2byte	0x2
 208 0006 00000000 		.4byte	.Ldebug_abbrev0
 209 000a 04       		.byte	0x4
 210 000b 01       		.uleb128 0x1
 211 000c 02040000 		.4byte	.LASF112
 212 0010 01       		.byte	0x1
 213 0011 B6040000 		.4byte	.LASF113
 214 0015 AF020000 		.4byte	.LASF114
 215 0019 00000000 		.4byte	0
 216 001d 00000000 		.4byte	0
 217 0021 30000000 		.4byte	.Ldebug_ranges0+0x30
 218 0025 00000000 		.4byte	.Ldebug_line0
 219 0029 02       		.uleb128 0x2
 220 002a 04       		.byte	0x4
 221 002b 05       		.byte	0x5
 222 002c 696E7400 		.ascii	"int\000"
ARM GAS  /tmp/ccqcQtYM.s 			page 5


 223 0030 03       		.uleb128 0x3
 224 0031 A5010000 		.4byte	.LASF2
 225 0035 03       		.byte	0x3
 226 0036 D4       		.byte	0xd4
 227 0037 3B000000 		.4byte	0x3b
 228 003b 04       		.uleb128 0x4
 229 003c 04       		.byte	0x4
 230 003d 07       		.byte	0x7
 231 003e 7C000000 		.4byte	.LASF0
 232 0042 04       		.uleb128 0x4
 233 0043 01       		.byte	0x1
 234 0044 06       		.byte	0x6
 235 0045 68040000 		.4byte	.LASF1
 236 0049 03       		.uleb128 0x3
 237 004a 1A020000 		.4byte	.LASF3
 238 004e 04       		.byte	0x4
 239 004f 2A       		.byte	0x2a
 240 0050 54000000 		.4byte	0x54
 241 0054 04       		.uleb128 0x4
 242 0055 01       		.byte	0x1
 243 0056 08       		.byte	0x8
 244 0057 16040000 		.4byte	.LASF4
 245 005b 04       		.uleb128 0x4
 246 005c 02       		.byte	0x2
 247 005d 05       		.byte	0x5
 248 005e 30030000 		.4byte	.LASF5
 249 0062 03       		.uleb128 0x3
 250 0063 14030000 		.4byte	.LASF6
 251 0067 04       		.byte	0x4
 252 0068 36       		.byte	0x36
 253 0069 6D000000 		.4byte	0x6d
 254 006d 04       		.uleb128 0x4
 255 006e 02       		.byte	0x2
 256 006f 07       		.byte	0x7
 257 0070 74040000 		.4byte	.LASF7
 258 0074 03       		.uleb128 0x3
 259 0075 EC030000 		.4byte	.LASF8
 260 0079 04       		.byte	0x4
 261 007a 4F       		.byte	0x4f
 262 007b 7F000000 		.4byte	0x7f
 263 007f 04       		.uleb128 0x4
 264 0080 04       		.byte	0x4
 265 0081 05       		.byte	0x5
 266 0082 57030000 		.4byte	.LASF9
 267 0086 03       		.uleb128 0x3
 268 0087 FA000000 		.4byte	.LASF10
 269 008b 04       		.byte	0x4
 270 008c 50       		.byte	0x50
 271 008d 91000000 		.4byte	0x91
 272 0091 04       		.uleb128 0x4
 273 0092 04       		.byte	0x4
 274 0093 07       		.byte	0x7
 275 0094 C5030000 		.4byte	.LASF11
 276 0098 04       		.uleb128 0x4
 277 0099 08       		.byte	0x8
 278 009a 05       		.byte	0x5
 279 009b 62020000 		.4byte	.LASF12
ARM GAS  /tmp/ccqcQtYM.s 			page 6


 280 009f 03       		.uleb128 0x3
 281 00a0 9C030000 		.4byte	.LASF13
 282 00a4 04       		.byte	0x4
 283 00a5 78       		.byte	0x78
 284 00a6 AA000000 		.4byte	0xaa
 285 00aa 04       		.uleb128 0x4
 286 00ab 08       		.byte	0x8
 287 00ac 07       		.byte	0x7
 288 00ad 4E010000 		.4byte	.LASF14
 289 00b1 03       		.uleb128 0x3
 290 00b2 1D030000 		.4byte	.LASF15
 291 00b6 05       		.byte	0x5
 292 00b7 39       		.byte	0x39
 293 00b8 86000000 		.4byte	0x86
 294 00bc 03       		.uleb128 0x3
 295 00bd 01030000 		.4byte	.LASF16
 296 00c1 05       		.byte	0x5
 297 00c2 3C       		.byte	0x3c
 298 00c3 49000000 		.4byte	0x49
 299 00c7 03       		.uleb128 0x3
 300 00c8 01020000 		.4byte	.LASF17
 301 00cc 05       		.byte	0x5
 302 00cd 3D       		.byte	0x3d
 303 00ce 49000000 		.4byte	0x49
 304 00d2 03       		.uleb128 0x3
 305 00d3 BD030000 		.4byte	.LASF18
 306 00d7 05       		.byte	0x5
 307 00d8 3E       		.byte	0x3e
 308 00d9 49000000 		.4byte	0x49
 309 00dd 03       		.uleb128 0x3
 310 00de 35010000 		.4byte	.LASF19
 311 00e2 05       		.byte	0x5
 312 00e3 40       		.byte	0x40
 313 00e4 86000000 		.4byte	0x86
 314 00e8 03       		.uleb128 0x3
 315 00e9 80020000 		.4byte	.LASF20
 316 00ed 05       		.byte	0x5
 317 00ee 41       		.byte	0x41
 318 00ef 74000000 		.4byte	0x74
 319 00f3 03       		.uleb128 0x3
 320 00f4 03010000 		.4byte	.LASF21
 321 00f8 05       		.byte	0x5
 322 00f9 43       		.byte	0x43
 323 00fa 86000000 		.4byte	0x86
 324 00fe 03       		.uleb128 0x3
 325 00ff 6E010000 		.4byte	.LASF22
 326 0103 05       		.byte	0x5
 327 0104 45       		.byte	0x45
 328 0105 74000000 		.4byte	0x74
 329 0109 03       		.uleb128 0x3
 330 010a 57000000 		.4byte	.LASF23
 331 010e 06       		.byte	0x6
 332 010f 35       		.byte	0x35
 333 0110 62000000 		.4byte	0x62
 334 0114 03       		.uleb128 0x3
 335 0115 9C010000 		.4byte	.LASF24
 336 0119 06       		.byte	0x6
ARM GAS  /tmp/ccqcQtYM.s 			page 7


 337 011a 3F       		.byte	0x3f
 338 011b 1F010000 		.4byte	0x11f
 339 011f 05       		.uleb128 0x5
 340 0120 34020000 		.4byte	.LASF44
 341 0124 44       		.byte	0x44
 342 0125 07       		.byte	0x7
 343 0126 C2       		.byte	0xc2
 344 0127 30020000 		.4byte	0x230
 345 012b 06       		.uleb128 0x6
 346 012c 95030000 		.4byte	.LASF25
 347 0130 07       		.byte	0x7
 348 0131 C3       		.byte	0xc3
 349 0132 3B020000 		.4byte	0x23b
 350 0136 02       		.byte	0x2
 351 0137 23       		.byte	0x23
 352 0138 00       		.uleb128 0
 353 0139 06       		.uleb128 0x6
 354 013a B6030000 		.4byte	.LASF26
 355 013e 07       		.byte	0x7
 356 013f C5       		.byte	0xc5
 357 0140 3B020000 		.4byte	0x23b
 358 0144 02       		.byte	0x2
 359 0145 23       		.byte	0x23
 360 0146 04       		.uleb128 0x4
 361 0147 06       		.uleb128 0x6
 362 0148 50000000 		.4byte	.LASF27
 363 014c 07       		.byte	0x7
 364 014d C7       		.byte	0xc7
 365 014e DD000000 		.4byte	0xdd
 366 0152 02       		.byte	0x2
 367 0153 23       		.byte	0x23
 368 0154 08       		.uleb128 0x8
 369 0155 06       		.uleb128 0x6
 370 0156 A5030000 		.4byte	.LASF28
 371 015a 07       		.byte	0x7
 372 015b C8       		.byte	0xc8
 373 015c 97040000 		.4byte	0x497
 374 0160 02       		.byte	0x2
 375 0161 23       		.byte	0x23
 376 0162 0C       		.uleb128 0xc
 377 0163 06       		.uleb128 0x6
 378 0164 7D010000 		.4byte	.LASF29
 379 0168 07       		.byte	0x7
 380 0169 CA       		.byte	0xca
 381 016a 3B020000 		.4byte	0x23b
 382 016e 02       		.byte	0x2
 383 016f 23       		.byte	0x23
 384 0170 10       		.uleb128 0x10
 385 0171 06       		.uleb128 0x6
 386 0172 0A020000 		.4byte	.LASF30
 387 0176 07       		.byte	0x7
 388 0177 CB       		.byte	0xcb
 389 0178 3B020000 		.4byte	0x23b
 390 017c 02       		.byte	0x2
 391 017d 23       		.byte	0x23
 392 017e 14       		.uleb128 0x14
 393 017f 06       		.uleb128 0x6
ARM GAS  /tmp/ccqcQtYM.s 			page 8


 394 0180 D2010000 		.4byte	.LASF31
 395 0184 07       		.byte	0x7
 396 0185 D2       		.byte	0xd2
 397 0186 36060000 		.4byte	0x636
 398 018a 02       		.byte	0x2
 399 018b 23       		.byte	0x23
 400 018c 18       		.uleb128 0x18
 401 018d 06       		.uleb128 0x6
 402 018e 12020000 		.4byte	.LASF32
 403 0192 07       		.byte	0x7
 404 0193 DD       		.byte	0xdd
 405 0194 C7000000 		.4byte	0xc7
 406 0198 02       		.byte	0x2
 407 0199 23       		.byte	0x23
 408 019a 1C       		.uleb128 0x1c
 409 019b 06       		.uleb128 0x6
 410 019c 97020000 		.4byte	.LASF33
 411 01a0 07       		.byte	0x7
 412 01a1 E1       		.byte	0xe1
 413 01a2 BC000000 		.4byte	0xbc
 414 01a6 02       		.byte	0x2
 415 01a7 23       		.byte	0x23
 416 01a8 1D       		.uleb128 0x1d
 417 01a9 06       		.uleb128 0x6
 418 01aa 40040000 		.4byte	.LASF34
 419 01ae 07       		.byte	0x7
 420 01af E6       		.byte	0xe6
 421 01b0 D2000000 		.4byte	0xd2
 422 01b4 02       		.byte	0x2
 423 01b5 23       		.byte	0x23
 424 01b6 1E       		.uleb128 0x1e
 425 01b7 07       		.uleb128 0x7
 426 01b8 705F7500 		.ascii	"p_u\000"
 427 01bc 07       		.byte	0x7
 428 01bd 3101     		.2byte	0x131
 429 01bf 67050000 		.4byte	0x567
 430 01c3 02       		.byte	0x2
 431 01c4 23       		.byte	0x23
 432 01c5 20       		.uleb128 0x20
 433 01c6 08       		.uleb128 0x8
 434 01c7 20000000 		.4byte	.LASF35
 435 01cb 07       		.byte	0x7
 436 01cc 3601     		.2byte	0x136
 437 01ce 41020000 		.4byte	0x241
 438 01d2 02       		.byte	0x2
 439 01d3 23       		.byte	0x23
 440 01d4 24       		.uleb128 0x24
 441 01d5 08       		.uleb128 0x8
 442 01d6 71000000 		.4byte	.LASF36
 443 01da 07       		.byte	0x7
 444 01db 3C01     		.2byte	0x13c
 445 01dd 67020000 		.4byte	0x267
 446 01e1 02       		.byte	0x2
 447 01e2 23       		.byte	0x23
 448 01e3 28       		.uleb128 0x28
 449 01e4 08       		.uleb128 0x8
 450 01e5 FB020000 		.4byte	.LASF37
ARM GAS  /tmp/ccqcQtYM.s 			page 9


 451 01e9 07       		.byte	0x7
 452 01ea 4001     		.2byte	0x140
 453 01ec E8000000 		.4byte	0xe8
 454 01f0 02       		.byte	0x2
 455 01f1 23       		.byte	0x23
 456 01f2 30       		.uleb128 0x30
 457 01f3 08       		.uleb128 0x8
 458 01f4 44030000 		.4byte	.LASF38
 459 01f8 07       		.byte	0x7
 460 01f9 4601     		.2byte	0x146
 461 01fb F3000000 		.4byte	0xf3
 462 01ff 02       		.byte	0x2
 463 0200 23       		.byte	0x23
 464 0201 34       		.uleb128 0x34
 465 0202 08       		.uleb128 0x8
 466 0203 2A020000 		.4byte	.LASF39
 467 0207 07       		.byte	0x7
 468 0208 4D01     		.2byte	0x14d
 469 020a 30060000 		.4byte	0x630
 470 020e 02       		.byte	0x2
 471 020f 23       		.byte	0x23
 472 0210 38       		.uleb128 0x38
 473 0211 08       		.uleb128 0x8
 474 0212 25030000 		.4byte	.LASF40
 475 0216 07       		.byte	0x7
 476 0217 5101     		.2byte	0x151
 477 0219 DD000000 		.4byte	0xdd
 478 021d 02       		.byte	0x2
 479 021e 23       		.byte	0x23
 480 021f 3C       		.uleb128 0x3c
 481 0220 08       		.uleb128 0x8
 482 0221 22020000 		.4byte	.LASF41
 483 0225 07       		.byte	0x7
 484 0226 5801     		.2byte	0x158
 485 0228 2B030000 		.4byte	0x32b
 486 022c 02       		.byte	0x2
 487 022d 23       		.byte	0x23
 488 022e 40       		.uleb128 0x40
 489 022f 00       		.byte	0
 490 0230 03       		.uleb128 0x3
 491 0231 E2010000 		.4byte	.LASF42
 492 0235 06       		.byte	0x6
 493 0236 44       		.byte	0x44
 494 0237 3B020000 		.4byte	0x23b
 495 023b 09       		.uleb128 0x9
 496 023c 04       		.byte	0x4
 497 023d 14010000 		.4byte	0x114
 498 0241 03       		.uleb128 0x3
 499 0242 89000000 		.4byte	.LASF43
 500 0246 06       		.byte	0x6
 501 0247 49       		.byte	0x49
 502 0248 4C020000 		.4byte	0x24c
 503 024c 05       		.uleb128 0x5
 504 024d 00000000 		.4byte	.LASF45
 505 0251 04       		.byte	0x4
 506 0252 07       		.byte	0x7
 507 0253 B0       		.byte	0xb0
ARM GAS  /tmp/ccqcQtYM.s 			page 10


 508 0254 67020000 		.4byte	0x267
 509 0258 06       		.uleb128 0x6
 510 0259 95030000 		.4byte	.LASF25
 511 025d 07       		.byte	0x7
 512 025e B1       		.byte	0xb1
 513 025f 3B020000 		.4byte	0x23b
 514 0263 02       		.byte	0x2
 515 0264 23       		.byte	0x23
 516 0265 00       		.uleb128 0
 517 0266 00       		.byte	0
 518 0267 03       		.uleb128 0x3
 519 0268 10000000 		.4byte	.LASF46
 520 026c 06       		.byte	0x6
 521 026d 50       		.byte	0x50
 522 026e 72020000 		.4byte	0x272
 523 0272 05       		.uleb128 0x5
 524 0273 CA000000 		.4byte	.LASF47
 525 0277 08       		.byte	0x8
 526 0278 07       		.byte	0x7
 527 0279 B7       		.byte	0xb7
 528 027a 9B020000 		.4byte	0x29b
 529 027e 06       		.uleb128 0x6
 530 027f 95030000 		.4byte	.LASF25
 531 0283 07       		.byte	0x7
 532 0284 B8       		.byte	0xb8
 533 0285 3B020000 		.4byte	0x23b
 534 0289 02       		.byte	0x2
 535 028a 23       		.byte	0x23
 536 028b 00       		.uleb128 0
 537 028c 06       		.uleb128 0x6
 538 028d B6030000 		.4byte	.LASF26
 539 0291 07       		.byte	0x7
 540 0292 B9       		.byte	0xb9
 541 0293 3B020000 		.4byte	0x23b
 542 0297 02       		.byte	0x2
 543 0298 23       		.byte	0x23
 544 0299 04       		.uleb128 0x4
 545 029a 00       		.byte	0
 546 029b 03       		.uleb128 0x3
 547 029c D7030000 		.4byte	.LASF48
 548 02a0 06       		.byte	0x6
 549 02a1 57       		.byte	0x57
 550 02a2 A6020000 		.4byte	0x2a6
 551 02a6 0A       		.uleb128 0xa
 552 02a7 A6000000 		.4byte	.LASF49
 553 02ab 1C       		.byte	0x1c
 554 02ac 07       		.byte	0x7
 555 02ad 9001     		.2byte	0x190
 556 02af 0E030000 		.4byte	0x30e
 557 02b3 08       		.uleb128 0x8
 558 02b4 70020000 		.4byte	.LASF50
 559 02b8 07       		.byte	0x7
 560 02b9 9101     		.2byte	0x191
 561 02bb 67020000 		.4byte	0x267
 562 02bf 02       		.byte	0x2
 563 02c0 23       		.byte	0x23
 564 02c1 00       		.uleb128 0
ARM GAS  /tmp/ccqcQtYM.s 			page 11


 565 02c2 08       		.uleb128 0x8
 566 02c3 0F010000 		.4byte	.LASF51
 567 02c7 07       		.byte	0x7
 568 02c8 9201     		.2byte	0x192
 569 02ca DD000000 		.4byte	0xdd
 570 02ce 02       		.byte	0x2
 571 02cf 23       		.byte	0x23
 572 02d0 08       		.uleb128 0x8
 573 02d1 08       		.uleb128 0x8
 574 02d2 87040000 		.4byte	.LASF52
 575 02d6 07       		.byte	0x7
 576 02d7 9401     		.2byte	0x194
 577 02d9 97040000 		.4byte	0x497
 578 02dd 02       		.byte	0x2
 579 02de 23       		.byte	0x23
 580 02df 0C       		.uleb128 0xc
 581 02e0 08       		.uleb128 0x8
 582 02e1 78020000 		.4byte	.LASF53
 583 02e5 07       		.byte	0x7
 584 02e6 9701     		.2byte	0x197
 585 02e8 3B020000 		.4byte	0x23b
 586 02ec 02       		.byte	0x2
 587 02ed 23       		.byte	0x23
 588 02ee 10       		.uleb128 0x10
 589 02ef 08       		.uleb128 0x8
 590 02f0 E9020000 		.4byte	.LASF54
 591 02f4 07       		.byte	0x7
 592 02f5 9801     		.2byte	0x198
 593 02f7 3B020000 		.4byte	0x23b
 594 02fb 02       		.byte	0x2
 595 02fc 23       		.byte	0x23
 596 02fd 14       		.uleb128 0x14
 597 02fe 08       		.uleb128 0x8
 598 02ff 3A030000 		.4byte	.LASF55
 599 0303 07       		.byte	0x7
 600 0304 9B01     		.2byte	0x19b
 601 0306 3B020000 		.4byte	0x23b
 602 030a 02       		.byte	0x2
 603 030b 23       		.byte	0x23
 604 030c 18       		.uleb128 0x18
 605 030d 00       		.byte	0
 606 030e 03       		.uleb128 0x3
 607 030f DB000000 		.4byte	.LASF56
 608 0313 06       		.byte	0x6
 609 0314 5C       		.byte	0x5c
 610 0315 19030000 		.4byte	0x319
 611 0319 09       		.uleb128 0x9
 612 031a 04       		.byte	0x4
 613 031b 1F030000 		.4byte	0x31f
 614 031f 0B       		.uleb128 0xb
 615 0320 01       		.byte	0x1
 616 0321 2B030000 		.4byte	0x32b
 617 0325 0C       		.uleb128 0xc
 618 0326 2B030000 		.4byte	0x32b
 619 032a 00       		.byte	0
 620 032b 0D       		.uleb128 0xd
 621 032c 04       		.byte	0x4
ARM GAS  /tmp/ccqcQtYM.s 			page 12


 622 032d 03       		.uleb128 0x3
 623 032e 9F020000 		.4byte	.LASF57
 624 0332 06       		.byte	0x6
 625 0333 61       		.byte	0x61
 626 0334 38030000 		.4byte	0x338
 627 0338 0A       		.uleb128 0xa
 628 0339 3D010000 		.4byte	.LASF58
 629 033d 14       		.byte	0x14
 630 033e 07       		.byte	0x7
 631 033f 6B01     		.2byte	0x16b
 632 0341 91030000 		.4byte	0x391
 633 0345 08       		.uleb128 0x8
 634 0346 47040000 		.4byte	.LASF59
 635 034a 07       		.byte	0x7
 636 034b 6C01     		.2byte	0x16c
 637 034d 48060000 		.4byte	0x648
 638 0351 02       		.byte	0x2
 639 0352 23       		.byte	0x23
 640 0353 00       		.uleb128 0
 641 0354 08       		.uleb128 0x8
 642 0355 AE040000 		.4byte	.LASF60
 643 0359 07       		.byte	0x7
 644 035a 6D01     		.2byte	0x16d
 645 035c 48060000 		.4byte	0x648
 646 0360 02       		.byte	0x2
 647 0361 23       		.byte	0x23
 648 0362 04       		.uleb128 0x4
 649 0363 08       		.uleb128 0x8
 650 0364 D9010000 		.4byte	.LASF61
 651 0368 07       		.byte	0x7
 652 0369 6E01     		.2byte	0x16e
 653 036b 09010000 		.4byte	0x109
 654 036f 02       		.byte	0x2
 655 0370 23       		.byte	0x23
 656 0371 08       		.uleb128 0x8
 657 0372 08       		.uleb128 0x8
 658 0373 A6040000 		.4byte	.LASF62
 659 0377 07       		.byte	0x7
 660 0378 6F01     		.2byte	0x16f
 661 037a 0E030000 		.4byte	0x30e
 662 037e 02       		.byte	0x2
 663 037f 23       		.byte	0x23
 664 0380 0C       		.uleb128 0xc
 665 0381 08       		.uleb128 0x8
 666 0382 16010000 		.4byte	.LASF63
 667 0386 07       		.byte	0x7
 668 0387 7101     		.2byte	0x171
 669 0389 2B030000 		.4byte	0x32b
 670 038d 02       		.byte	0x2
 671 038e 23       		.byte	0x23
 672 038f 10       		.uleb128 0x10
 673 0390 00       		.byte	0
 674 0391 03       		.uleb128 0x3
 675 0392 2A040000 		.4byte	.LASF64
 676 0396 06       		.byte	0x6
 677 0397 66       		.byte	0x66
 678 0398 9C030000 		.4byte	0x39c
ARM GAS  /tmp/ccqcQtYM.s 			page 13


 679 039c 0A       		.uleb128 0xa
 680 039d 85010000 		.4byte	.LASF65
 681 03a1 0C       		.byte	0xc
 682 03a2 07       		.byte	0x7
 683 03a3 7B01     		.2byte	0x17b
 684 03a5 E6030000 		.4byte	0x3e6
 685 03a9 08       		.uleb128 0x8
 686 03aa 47040000 		.4byte	.LASF59
 687 03ae 07       		.byte	0x7
 688 03af 7C01     		.2byte	0x17c
 689 03b1 48060000 		.4byte	0x648
 690 03b5 02       		.byte	0x2
 691 03b6 23       		.byte	0x23
 692 03b7 00       		.uleb128 0
 693 03b8 08       		.uleb128 0x8
 694 03b9 AE040000 		.4byte	.LASF60
 695 03bd 07       		.byte	0x7
 696 03be 7E01     		.2byte	0x17e
 697 03c0 48060000 		.4byte	0x648
 698 03c4 02       		.byte	0x2
 699 03c5 23       		.byte	0x23
 700 03c6 04       		.uleb128 0x4
 701 03c7 08       		.uleb128 0x8
 702 03c8 D9010000 		.4byte	.LASF61
 703 03cc 07       		.byte	0x7
 704 03cd 8001     		.2byte	0x180
 705 03cf 09010000 		.4byte	0x109
 706 03d3 02       		.byte	0x2
 707 03d4 23       		.byte	0x23
 708 03d5 08       		.uleb128 0x8
 709 03d6 08       		.uleb128 0x8
 710 03d7 F5010000 		.4byte	.LASF66
 711 03db 07       		.byte	0x7
 712 03dc 8801     		.2byte	0x188
 713 03de 09010000 		.4byte	0x109
 714 03e2 02       		.byte	0x2
 715 03e3 23       		.byte	0x23
 716 03e4 0A       		.uleb128 0xa
 717 03e5 00       		.byte	0
 718 03e6 03       		.uleb128 0x3
 719 03e7 53020000 		.4byte	.LASF67
 720 03eb 06       		.byte	0x6
 721 03ec 6B       		.byte	0x6b
 722 03ed F1030000 		.4byte	0x3f1
 723 03f1 0A       		.uleb128 0xa
 724 03f2 EA000000 		.4byte	.LASF68
 725 03f6 04       		.byte	0x4
 726 03f7 07       		.byte	0x7
 727 03f8 A201     		.2byte	0x1a2
 728 03fa 0E040000 		.4byte	0x40e
 729 03fe 08       		.uleb128 0x8
 730 03ff F1020000 		.4byte	.LASF69
 731 0403 07       		.byte	0x7
 732 0404 AA01     		.2byte	0x1aa
 733 0406 4E060000 		.4byte	0x64e
 734 040a 02       		.byte	0x2
 735 040b 23       		.byte	0x23
ARM GAS  /tmp/ccqcQtYM.s 			page 14


 736 040c 00       		.uleb128 0
 737 040d 00       		.byte	0
 738 040e 03       		.uleb128 0x3
 739 040f 4F040000 		.4byte	.LASF70
 740 0413 06       		.byte	0x6
 741 0414 70       		.byte	0x70
 742 0415 19040000 		.4byte	0x419
 743 0419 0E       		.uleb128 0xe
 744 041a 8B030000 		.4byte	.LASF71
 745 041e 5001     		.2byte	0x150
 746 0420 07       		.byte	0x7
 747 0421 C201     		.2byte	0x1c2
 748 0423 81040000 		.4byte	0x481
 749 0427 08       		.uleb128 0x8
 750 0428 AB030000 		.4byte	.LASF72
 751 042c 07       		.byte	0x7
 752 042d C601     		.2byte	0x1c6
 753 042f 9B020000 		.4byte	0x29b
 754 0433 02       		.byte	0x2
 755 0434 23       		.byte	0x23
 756 0435 00       		.uleb128 0
 757 0436 08       		.uleb128 0x8
 758 0437 9F000000 		.4byte	.LASF73
 759 043b 07       		.byte	0x7
 760 043c CA01     		.2byte	0x1ca
 761 043e 91030000 		.4byte	0x391
 762 0442 02       		.byte	0x2
 763 0443 23       		.byte	0x23
 764 0444 1C       		.uleb128 0x1c
 765 0445 07       		.uleb128 0x7
 766 0446 64626700 		.ascii	"dbg\000"
 767 044a 07       		.byte	0x7
 768 044b CE01     		.2byte	0x1ce
 769 044d E6030000 		.4byte	0x3e6
 770 0451 02       		.byte	0x2
 771 0452 23       		.byte	0x23
 772 0453 28       		.uleb128 0x28
 773 0454 08       		.uleb128 0x8
 774 0455 09030000 		.4byte	.LASF74
 775 0459 07       		.byte	0x7
 776 045a D201     		.2byte	0x1d2
 777 045c 14010000 		.4byte	0x114
 778 0460 02       		.byte	0x2
 779 0461 23       		.byte	0x23
 780 0462 2C       		.uleb128 0x2c
 781 0463 07       		.uleb128 0x7
 782 0464 746D00   		.ascii	"tm\000"
 783 0467 07       		.byte	0x7
 784 0468 D701     		.2byte	0x1d7
 785 046a 5C050000 		.4byte	0x55c
 786 046e 02       		.byte	0x2
 787 046f 23       		.byte	0x23
 788 0470 70       		.uleb128 0x70
 789 0471 08       		.uleb128 0x8
 790 0472 B4000000 		.4byte	.LASF75
 791 0476 07       		.byte	0x7
 792 0477 E301     		.2byte	0x1e3
ARM GAS  /tmp/ccqcQtYM.s 			page 15


 793 0479 53060000 		.4byte	0x653
 794 047d 02       		.byte	0x2
 795 047e 23       		.byte	0x23
 796 047f 78       		.uleb128 0x78
 797 0480 00       		.byte	0
 798 0481 03       		.uleb128 0x3
 799 0482 47000000 		.4byte	.LASF76
 800 0486 08       		.byte	0x8
 801 0487 65       		.byte	0x65
 802 0488 2B030000 		.4byte	0x32b
 803 048c 03       		.uleb128 0x3
 804 048d 8D040000 		.4byte	.LASF77
 805 0491 08       		.byte	0x8
 806 0492 6D       		.byte	0x6d
 807 0493 9F000000 		.4byte	0x9f
 808 0497 05       		.uleb128 0x5
 809 0498 86020000 		.4byte	.LASF78
 810 049c 04       		.byte	0x4
 811 049d 08       		.byte	0x8
 812 049e 89       		.byte	0x89
 813 049f B2040000 		.4byte	0x4b2
 814 04a3 0F       		.uleb128 0xf
 815 04a4 72313300 		.ascii	"r13\000"
 816 04a8 08       		.byte	0x8
 817 04a9 8A       		.byte	0x8a
 818 04aa 3F050000 		.4byte	0x53f
 819 04ae 02       		.byte	0x2
 820 04af 23       		.byte	0x23
 821 04b0 00       		.uleb128 0
 822 04b1 00       		.byte	0
 823 04b2 05       		.uleb128 0x5
 824 04b3 60030000 		.4byte	.LASF79
 825 04b7 24       		.byte	0x24
 826 04b8 09       		.byte	0x9
 827 04b9 FD       		.byte	0xfd
 828 04ba 3F050000 		.4byte	0x53f
 829 04be 07       		.uleb128 0x7
 830 04bf 723400   		.ascii	"r4\000"
 831 04c2 09       		.byte	0x9
 832 04c3 1001     		.2byte	0x110
 833 04c5 81040000 		.4byte	0x481
 834 04c9 02       		.byte	0x2
 835 04ca 23       		.byte	0x23
 836 04cb 00       		.uleb128 0
 837 04cc 07       		.uleb128 0x7
 838 04cd 723500   		.ascii	"r5\000"
 839 04d0 09       		.byte	0x9
 840 04d1 1101     		.2byte	0x111
 841 04d3 81040000 		.4byte	0x481
 842 04d7 02       		.byte	0x2
 843 04d8 23       		.byte	0x23
 844 04d9 04       		.uleb128 0x4
 845 04da 07       		.uleb128 0x7
 846 04db 723600   		.ascii	"r6\000"
 847 04de 09       		.byte	0x9
 848 04df 1201     		.2byte	0x112
 849 04e1 81040000 		.4byte	0x481
ARM GAS  /tmp/ccqcQtYM.s 			page 16


 850 04e5 02       		.byte	0x2
 851 04e6 23       		.byte	0x23
 852 04e7 08       		.uleb128 0x8
 853 04e8 07       		.uleb128 0x7
 854 04e9 723700   		.ascii	"r7\000"
 855 04ec 09       		.byte	0x9
 856 04ed 1301     		.2byte	0x113
 857 04ef 81040000 		.4byte	0x481
 858 04f3 02       		.byte	0x2
 859 04f4 23       		.byte	0x23
 860 04f5 0C       		.uleb128 0xc
 861 04f6 07       		.uleb128 0x7
 862 04f7 723800   		.ascii	"r8\000"
 863 04fa 09       		.byte	0x9
 864 04fb 1401     		.2byte	0x114
 865 04fd 81040000 		.4byte	0x481
 866 0501 02       		.byte	0x2
 867 0502 23       		.byte	0x23
 868 0503 10       		.uleb128 0x10
 869 0504 07       		.uleb128 0x7
 870 0505 723900   		.ascii	"r9\000"
 871 0508 09       		.byte	0x9
 872 0509 1501     		.2byte	0x115
 873 050b 81040000 		.4byte	0x481
 874 050f 02       		.byte	0x2
 875 0510 23       		.byte	0x23
 876 0511 14       		.uleb128 0x14
 877 0512 07       		.uleb128 0x7
 878 0513 72313000 		.ascii	"r10\000"
 879 0517 09       		.byte	0x9
 880 0518 1601     		.2byte	0x116
 881 051a 81040000 		.4byte	0x481
 882 051e 02       		.byte	0x2
 883 051f 23       		.byte	0x23
 884 0520 18       		.uleb128 0x18
 885 0521 07       		.uleb128 0x7
 886 0522 72313100 		.ascii	"r11\000"
 887 0526 09       		.byte	0x9
 888 0527 1701     		.2byte	0x117
 889 0529 81040000 		.4byte	0x481
 890 052d 02       		.byte	0x2
 891 052e 23       		.byte	0x23
 892 052f 1C       		.uleb128 0x1c
 893 0530 07       		.uleb128 0x7
 894 0531 6C7200   		.ascii	"lr\000"
 895 0534 09       		.byte	0x9
 896 0535 1801     		.2byte	0x118
 897 0537 81040000 		.4byte	0x481
 898 053b 02       		.byte	0x2
 899 053c 23       		.byte	0x23
 900 053d 20       		.uleb128 0x20
 901 053e 00       		.byte	0
 902 053f 09       		.uleb128 0x9
 903 0540 04       		.byte	0x4
 904 0541 B2040000 		.4byte	0x4b2
 905 0545 10       		.uleb128 0x10
 906 0546 04       		.byte	0x4
ARM GAS  /tmp/ccqcQtYM.s 			page 17


 907 0547 0A       		.byte	0xa
 908 0548 38       		.byte	0x38
 909 0549 5C050000 		.4byte	0x55c
 910 054d 06       		.uleb128 0x6
 911 054e B3010000 		.4byte	.LASF80
 912 0552 0A       		.byte	0xa
 913 0553 3C       		.byte	0x3c
 914 0554 B1000000 		.4byte	0xb1
 915 0558 02       		.byte	0x2
 916 0559 23       		.byte	0x23
 917 055a 00       		.uleb128 0
 918 055b 00       		.byte	0
 919 055c 03       		.uleb128 0x3
 920 055d 31000000 		.4byte	.LASF81
 921 0561 0A       		.byte	0xa
 922 0562 3D       		.byte	0x3d
 923 0563 45050000 		.4byte	0x545
 924 0567 11       		.uleb128 0x11
 925 0568 04       		.byte	0x4
 926 0569 07       		.byte	0x7
 927 056a FA       		.byte	0xfa
 928 056b C4050000 		.4byte	0x5c4
 929 056f 12       		.uleb128 0x12
 930 0570 AC010000 		.4byte	.LASF82
 931 0574 07       		.byte	0x7
 932 0575 0101     		.2byte	0x101
 933 0577 E8000000 		.4byte	0xe8
 934 057b 12       		.uleb128 0x12
 935 057c F2040000 		.4byte	.LASF83
 936 0580 07       		.byte	0x7
 937 0581 0801     		.2byte	0x108
 938 0583 E8000000 		.4byte	0xe8
 939 0587 12       		.uleb128 0x12
 940 0588 98000000 		.4byte	.LASF84
 941 058c 07       		.byte	0x7
 942 058d 0F01     		.2byte	0x10f
 943 058f 2B030000 		.4byte	0x32b
 944 0593 12       		.uleb128 0x12
 945 0594 5B040000 		.4byte	.LASF85
 946 0598 07       		.byte	0x7
 947 0599 1601     		.2byte	0x116
 948 059b C4050000 		.4byte	0x5c4
 949 059f 12       		.uleb128 0x12
 950 05a0 FB030000 		.4byte	.LASF86
 951 05a4 07       		.byte	0x7
 952 05a5 1E01     		.2byte	0x11e
 953 05a7 F3050000 		.4byte	0x5f3
 954 05ab 12       		.uleb128 0x12
 955 05ac 2A000000 		.4byte	.LASF87
 956 05b0 07       		.byte	0x7
 957 05b1 2701     		.2byte	0x127
 958 05b3 30060000 		.4byte	0x630
 959 05b7 12       		.uleb128 0x12
 960 05b8 C3000000 		.4byte	.LASF88
 961 05bc 07       		.byte	0x7
 962 05bd 2F01     		.2byte	0x12f
 963 05bf F3000000 		.4byte	0xf3
ARM GAS  /tmp/ccqcQtYM.s 			page 18


 964 05c3 00       		.byte	0
 965 05c4 09       		.uleb128 0x9
 966 05c5 04       		.byte	0x4
 967 05c6 30020000 		.4byte	0x230
 968 05ca 05       		.uleb128 0x5
 969 05cb 28010000 		.4byte	.LASF89
 970 05cf 0C       		.byte	0xc
 971 05d0 0B       		.byte	0xb
 972 05d1 34       		.byte	0x34
 973 05d2 F3050000 		.4byte	0x5f3
 974 05d6 06       		.uleb128 0x6
 975 05d7 69000000 		.4byte	.LASF90
 976 05db 0B       		.byte	0xb
 977 05dc 35       		.byte	0x35
 978 05dd 67020000 		.4byte	0x267
 979 05e1 02       		.byte	0x2
 980 05e2 23       		.byte	0x23
 981 05e3 00       		.uleb128 0
 982 05e4 06       		.uleb128 0x6
 983 05e5 E4000000 		.4byte	.LASF91
 984 05e9 0B       		.byte	0xb
 985 05ea 37       		.byte	0x37
 986 05eb FE000000 		.4byte	0xfe
 987 05ef 02       		.byte	0x2
 988 05f0 23       		.byte	0x23
 989 05f1 08       		.uleb128 0x8
 990 05f2 00       		.byte	0
 991 05f3 09       		.uleb128 0x9
 992 05f4 04       		.byte	0x4
 993 05f5 CA050000 		.4byte	0x5ca
 994 05f9 05       		.uleb128 0x5
 995 05fa C9010000 		.4byte	.LASF92
 996 05fe 10       		.byte	0x10
 997 05ff 0C       		.byte	0xc
 998 0600 39       		.byte	0x39
 999 0601 30060000 		.4byte	0x630
 1000 0605 06       		.uleb128 0x6
 1001 0606 4F030000 		.4byte	.LASF93
 1002 060a 0C       		.byte	0xc
 1003 060b 3A       		.byte	0x3a
 1004 060c 67020000 		.4byte	0x267
 1005 0610 02       		.byte	0x2
 1006 0611 23       		.byte	0x23
 1007 0612 00       		.uleb128 0
 1008 0613 06       		.uleb128 0x6
 1009 0614 61000000 		.4byte	.LASF94
 1010 0618 0C       		.byte	0xc
 1011 0619 3C       		.byte	0x3c
 1012 061a 3B020000 		.4byte	0x23b
 1013 061e 02       		.byte	0x2
 1014 061f 23       		.byte	0x23
 1015 0620 08       		.uleb128 0x8
 1016 0621 06       		.uleb128 0x6
 1017 0622 61040000 		.4byte	.LASF95
 1018 0626 0C       		.byte	0xc
 1019 0627 3E       		.byte	0x3e
 1020 0628 6E060000 		.4byte	0x66e
ARM GAS  /tmp/ccqcQtYM.s 			page 19


 1021 062c 02       		.byte	0x2
 1022 062d 23       		.byte	0x23
 1023 062e 0C       		.uleb128 0xc
 1024 062f 00       		.byte	0
 1025 0630 09       		.uleb128 0x9
 1026 0631 04       		.byte	0x4
 1027 0632 F9050000 		.4byte	0x5f9
 1028 0636 09       		.uleb128 0x9
 1029 0637 04       		.byte	0x4
 1030 0638 3C060000 		.4byte	0x63c
 1031 063c 13       		.uleb128 0x13
 1032 063d 41060000 		.4byte	0x641
 1033 0641 04       		.uleb128 0x4
 1034 0642 01       		.byte	0x1
 1035 0643 08       		.byte	0x8
 1036 0644 42000000 		.4byte	.LASF96
 1037 0648 09       		.uleb128 0x9
 1038 0649 04       		.byte	0x4
 1039 064a 2D030000 		.4byte	0x32d
 1040 064e 14       		.uleb128 0x14
 1041 064f 36060000 		.4byte	0x636
 1042 0653 15       		.uleb128 0x15
 1043 0654 8C040000 		.4byte	0x48c
 1044 0658 63060000 		.4byte	0x663
 1045 065c 16       		.uleb128 0x16
 1046 065d 3B000000 		.4byte	0x3b
 1047 0661 1A       		.byte	0x1a
 1048 0662 00       		.byte	0
 1049 0663 03       		.uleb128 0x3
 1050 0664 0E040000 		.4byte	.LASF97
 1051 0668 0C       		.byte	0xc
 1052 0669 34       		.byte	0x34
 1053 066a F9050000 		.4byte	0x5f9
 1054 066e 09       		.uleb128 0x9
 1055 066f 04       		.byte	0x4
 1056 0670 63060000 		.4byte	0x663
 1057 0674 04       		.uleb128 0x4
 1058 0675 01       		.byte	0x1
 1059 0676 02       		.byte	0x2
 1060 0677 BA010000 		.4byte	.LASF98
 1061 067b 05       		.uleb128 0x5
 1062 067c 74010000 		.4byte	.LASF99
 1063 0680 10       		.byte	0x10
 1064 0681 0D       		.byte	0xd
 1065 0682 3B       		.byte	0x3b
 1066 0683 C0060000 		.4byte	0x6c0
 1067 0687 06       		.uleb128 0x6
 1068 0688 B1030000 		.4byte	.LASF100
 1069 068c 0D       		.byte	0xd
 1070 068d 3C       		.byte	0x3c
 1071 068e 36060000 		.4byte	0x636
 1072 0692 02       		.byte	0x2
 1073 0693 23       		.byte	0x23
 1074 0694 00       		.uleb128 0
 1075 0695 06       		.uleb128 0x6
 1076 0696 24040000 		.4byte	.LASF101
 1077 069a 0D       		.byte	0xd
ARM GAS  /tmp/ccqcQtYM.s 			page 20


 1078 069b 3D       		.byte	0x3d
 1079 069c C2060000 		.4byte	0x6c2
 1080 06a0 02       		.byte	0x2
 1081 06a1 23       		.byte	0x23
 1082 06a2 04       		.uleb128 0x4
 1083 06a3 06       		.uleb128 0x6
 1084 06a4 8E020000 		.4byte	.LASF102
 1085 06a8 0D       		.byte	0xd
 1086 06a9 3E       		.byte	0x3e
 1087 06aa C2060000 		.4byte	0x6c2
 1088 06ae 02       		.byte	0x2
 1089 06af 23       		.byte	0x23
 1090 06b0 08       		.uleb128 0x8
 1091 06b1 06       		.uleb128 0x6
 1092 06b2 3E020000 		.4byte	.LASF103
 1093 06b6 0D       		.byte	0xd
 1094 06b7 3F       		.byte	0x3f
 1095 06b8 C2060000 		.4byte	0x6c2
 1096 06bc 02       		.byte	0x2
 1097 06bd 23       		.byte	0x23
 1098 06be 0C       		.uleb128 0xc
 1099 06bf 00       		.byte	0
 1100 06c0 17       		.uleb128 0x17
 1101 06c1 01       		.byte	0x1
 1102 06c2 09       		.uleb128 0x9
 1103 06c3 04       		.byte	0x4
 1104 06c4 C0060000 		.4byte	0x6c0
 1105 06c8 18       		.uleb128 0x18
 1106 06c9 98040000 		.4byte	.LASF104
 1107 06cd 02       		.byte	0x2
 1108 06ce AE       		.byte	0xae
 1109 06cf 01       		.byte	0x1
 1110 06d0 3B020000 		.4byte	0x23b
 1111 06d4 03       		.byte	0x3
 1112 06d5 19       		.uleb128 0x19
 1113 06d6 65010000 		.4byte	.LASF115
 1114 06da 0F       		.byte	0xf
 1115 06db 60       		.byte	0x60
 1116 06dc 01       		.byte	0x1
 1117 06dd E8000000 		.4byte	0xe8
 1118 06e1 03       		.byte	0x3
 1119 06e2 F1060000 		.4byte	0x6f1
 1120 06e6 1A       		.uleb128 0x1a
 1121 06e7 747000   		.ascii	"tp\000"
 1122 06ea 0F       		.byte	0xf
 1123 06eb 60       		.byte	0x60
 1124 06ec 3B020000 		.4byte	0x23b
 1125 06f0 00       		.byte	0
 1126 06f1 18       		.uleb128 0x18
 1127 06f2 79030000 		.4byte	.LASF105
 1128 06f6 02       		.byte	0x2
 1129 06f7 BB       		.byte	0xbb
 1130 06f8 01       		.byte	0x1
 1131 06f9 DD000000 		.4byte	0xdd
 1132 06fd 03       		.byte	0x3
 1133 06fe 1B       		.uleb128 0x1b
 1134 06ff 46020000 		.4byte	.LASF106
ARM GAS  /tmp/ccqcQtYM.s 			page 21


 1135 0703 01       		.byte	0x1
 1136 0704 42       		.byte	0x42
 1137 0705 01       		.byte	0x1
 1138 0706 00000000 		.4byte	.LFB183
 1139 070a 82000000 		.4byte	.LFE183
 1140 070e 00000000 		.4byte	.LLST0
 1141 0712 4F070000 		.4byte	0x74f
 1142 0716 1C       		.uleb128 0x1c
 1143 0717 747000   		.ascii	"tp\000"
 1144 071a 01       		.byte	0x1
 1145 071b 43       		.byte	0x43
 1146 071c 3B020000 		.4byte	0x23b
 1147 0720 2C000000 		.4byte	.LLST1
 1148 0724 1D       		.uleb128 0x1d
 1149 0725 6D736700 		.ascii	"msg\000"
 1150 0729 01       		.byte	0x1
 1151 072a 44       		.byte	0x44
 1152 072b E8000000 		.4byte	0xe8
 1153 072f 1E       		.uleb128 0x1e
 1154 0730 F1060000 		.4byte	0x6f1
 1155 0734 00000000 		.4byte	.LBB16
 1156 0738 00000000 		.4byte	.Ldebug_ranges0+0
 1157 073c 01       		.byte	0x1
 1158 073d 49       		.byte	0x49
 1159 073e 1F       		.uleb128 0x1f
 1160 073f C8060000 		.4byte	0x6c8
 1161 0743 00000000 		.4byte	.LBB18
 1162 0747 18000000 		.4byte	.Ldebug_ranges0+0x18
 1163 074b 02       		.byte	0x2
 1164 074c BD       		.byte	0xbd
 1165 074d 00       		.byte	0
 1166 074e 00       		.byte	0
 1167 074f 1B       		.uleb128 0x1b
 1168 0750 F4030000 		.4byte	.LASF107
 1169 0754 01       		.byte	0x1
 1170 0755 3B       		.byte	0x3b
 1171 0756 01       		.byte	0x1
 1172 0757 00000000 		.4byte	.LFB182
 1173 075b 1E000000 		.4byte	.LFE182
 1174 075f 55000000 		.4byte	.LLST2
 1175 0763 75070000 		.4byte	0x775
 1176 0767 20       		.uleb128 0x20
 1177 0768 7000     		.ascii	"p\000"
 1178 076a 01       		.byte	0x1
 1179 076b 3B       		.byte	0x3b
 1180 076c 2B030000 		.4byte	0x32b
 1181 0770 75000000 		.4byte	.LLST3
 1182 0774 00       		.byte	0
 1183 0775 21       		.uleb128 0x21
 1184 0776 6C030000 		.4byte	.LASF108
 1185 077a 0E       		.byte	0xe
 1186 077b 5506     		.2byte	0x655
 1187 077d 83070000 		.4byte	0x783
 1188 0781 01       		.byte	0x1
 1189 0782 01       		.byte	0x1
 1190 0783 14       		.uleb128 0x14
 1191 0784 74000000 		.4byte	0x74
ARM GAS  /tmp/ccqcQtYM.s 			page 22


 1192 0788 22       		.uleb128 0x22
 1193 0789 636800   		.ascii	"ch\000"
 1194 078c 07       		.byte	0x7
 1195 078d 0902     		.2byte	0x209
 1196 078f 0E040000 		.4byte	0x40e
 1197 0793 01       		.byte	0x1
 1198 0794 01       		.byte	0x1
 1199 0795 15       		.uleb128 0x15
 1200 0796 3B020000 		.4byte	0x23b
 1201 079a A5070000 		.4byte	0x7a5
 1202 079e 16       		.uleb128 0x16
 1203 079f 3B000000 		.4byte	0x3b
 1204 07a3 04       		.byte	0x4
 1205 07a4 00       		.byte	0
 1206 07a5 23       		.uleb128 0x23
 1207 07a6 E4030000 		.4byte	.LASF109
 1208 07aa 0D       		.byte	0xd
 1209 07ab A7       		.byte	0xa7
 1210 07ac 95070000 		.4byte	0x795
 1211 07b0 01       		.byte	0x1
 1212 07b1 01       		.byte	0x1
 1213 07b2 15       		.uleb128 0x15
 1214 07b3 2B030000 		.4byte	0x32b
 1215 07b7 BD070000 		.4byte	0x7bd
 1216 07bb 24       		.uleb128 0x24
 1217 07bc 00       		.byte	0
 1218 07bd 25       		.uleb128 0x25
 1219 07be 776100   		.ascii	"wa\000"
 1220 07c1 0D       		.byte	0xd
 1221 07c2 A9       		.byte	0xa9
 1222 07c3 C9070000 		.4byte	0x7c9
 1223 07c7 01       		.byte	0x1
 1224 07c8 01       		.byte	0x1
 1225 07c9 13       		.uleb128 0x13
 1226 07ca B2070000 		.4byte	0x7b2
 1227 07ce 23       		.uleb128 0x23
 1228 07cf C0010000 		.4byte	.LASF110
 1229 07d3 01       		.byte	0x1
 1230 07d4 5A       		.byte	0x5a
 1231 07d5 DB070000 		.4byte	0x7db
 1232 07d9 01       		.byte	0x1
 1233 07da 01       		.byte	0x1
 1234 07db 13       		.uleb128 0x13
 1235 07dc 7B060000 		.4byte	0x67b
 1236 07e0 21       		.uleb128 0x21
 1237 07e1 6C030000 		.4byte	.LASF108
 1238 07e5 0E       		.byte	0xe
 1239 07e6 5506     		.2byte	0x655
 1240 07e8 83070000 		.4byte	0x783
 1241 07ec 01       		.byte	0x1
 1242 07ed 01       		.byte	0x1
 1243 07ee 22       		.uleb128 0x22
 1244 07ef 636800   		.ascii	"ch\000"
 1245 07f2 07       		.byte	0x7
 1246 07f3 0902     		.2byte	0x209
 1247 07f5 0E040000 		.4byte	0x40e
 1248 07f9 01       		.byte	0x1
ARM GAS  /tmp/ccqcQtYM.s 			page 23


 1249 07fa 01       		.byte	0x1
 1250 07fb 23       		.uleb128 0x23
 1251 07fc E4030000 		.4byte	.LASF109
 1252 0800 0D       		.byte	0xd
 1253 0801 A7       		.byte	0xa7
 1254 0802 95070000 		.4byte	0x795
 1255 0806 01       		.byte	0x1
 1256 0807 01       		.byte	0x1
 1257 0808 25       		.uleb128 0x25
 1258 0809 776100   		.ascii	"wa\000"
 1259 080c 0D       		.byte	0xd
 1260 080d A9       		.byte	0xa9
 1261 080e 14080000 		.4byte	0x814
 1262 0812 01       		.byte	0x1
 1263 0813 01       		.byte	0x1
 1264 0814 13       		.uleb128 0x13
 1265 0815 B2070000 		.4byte	0x7b2
 1266 0819 26       		.uleb128 0x26
 1267 081a C0010000 		.4byte	.LASF110
 1268 081e 01       		.byte	0x1
 1269 081f 5A       		.byte	0x5a
 1270 0820 DB070000 		.4byte	0x7db
 1271 0824 01       		.byte	0x1
 1272 0825 05       		.byte	0x5
 1273 0826 03       		.byte	0x3
 1274 0827 00000000 		.4byte	testmsg1
 1275 082b 15       		.uleb128 0x15
 1276 082c 3B080000 		.4byte	0x83b
 1277 0830 3B080000 		.4byte	0x83b
 1278 0834 16       		.uleb128 0x16
 1279 0835 3B000000 		.4byte	0x3b
 1280 0839 01       		.byte	0x1
 1281 083a 00       		.byte	0
 1282 083b 09       		.uleb128 0x9
 1283 083c 04       		.byte	0x4
 1284 083d DB070000 		.4byte	0x7db
 1285 0841 26       		.uleb128 0x26
 1286 0842 1D010000 		.4byte	.LASF111
 1287 0846 01       		.byte	0x1
 1288 0847 66       		.byte	0x66
 1289 0848 53080000 		.4byte	0x853
 1290 084c 01       		.byte	0x1
 1291 084d 05       		.byte	0x5
 1292 084e 03       		.byte	0x3
 1293 084f 00000000 		.4byte	patternmsg
 1294 0853 13       		.uleb128 0x13
 1295 0854 2B080000 		.4byte	0x82b
 1296 0858 00       		.byte	0
 1297              		.section	.debug_abbrev,"",%progbits
 1298              	.Ldebug_abbrev0:
 1299 0000 01       		.uleb128 0x1
 1300 0001 11       		.uleb128 0x11
 1301 0002 01       		.byte	0x1
 1302 0003 25       		.uleb128 0x25
 1303 0004 0E       		.uleb128 0xe
 1304 0005 13       		.uleb128 0x13
 1305 0006 0B       		.uleb128 0xb
ARM GAS  /tmp/ccqcQtYM.s 			page 24


 1306 0007 03       		.uleb128 0x3
 1307 0008 0E       		.uleb128 0xe
 1308 0009 1B       		.uleb128 0x1b
 1309 000a 0E       		.uleb128 0xe
 1310 000b 11       		.uleb128 0x11
 1311 000c 01       		.uleb128 0x1
 1312 000d 52       		.uleb128 0x52
 1313 000e 01       		.uleb128 0x1
 1314 000f 55       		.uleb128 0x55
 1315 0010 06       		.uleb128 0x6
 1316 0011 10       		.uleb128 0x10
 1317 0012 06       		.uleb128 0x6
 1318 0013 00       		.byte	0
 1319 0014 00       		.byte	0
 1320 0015 02       		.uleb128 0x2
 1321 0016 24       		.uleb128 0x24
 1322 0017 00       		.byte	0
 1323 0018 0B       		.uleb128 0xb
 1324 0019 0B       		.uleb128 0xb
 1325 001a 3E       		.uleb128 0x3e
 1326 001b 0B       		.uleb128 0xb
 1327 001c 03       		.uleb128 0x3
 1328 001d 08       		.uleb128 0x8
 1329 001e 00       		.byte	0
 1330 001f 00       		.byte	0
 1331 0020 03       		.uleb128 0x3
 1332 0021 16       		.uleb128 0x16
 1333 0022 00       		.byte	0
 1334 0023 03       		.uleb128 0x3
 1335 0024 0E       		.uleb128 0xe
 1336 0025 3A       		.uleb128 0x3a
 1337 0026 0B       		.uleb128 0xb
 1338 0027 3B       		.uleb128 0x3b
 1339 0028 0B       		.uleb128 0xb
 1340 0029 49       		.uleb128 0x49
 1341 002a 13       		.uleb128 0x13
 1342 002b 00       		.byte	0
 1343 002c 00       		.byte	0
 1344 002d 04       		.uleb128 0x4
 1345 002e 24       		.uleb128 0x24
 1346 002f 00       		.byte	0
 1347 0030 0B       		.uleb128 0xb
 1348 0031 0B       		.uleb128 0xb
 1349 0032 3E       		.uleb128 0x3e
 1350 0033 0B       		.uleb128 0xb
 1351 0034 03       		.uleb128 0x3
 1352 0035 0E       		.uleb128 0xe
 1353 0036 00       		.byte	0
 1354 0037 00       		.byte	0
 1355 0038 05       		.uleb128 0x5
 1356 0039 13       		.uleb128 0x13
 1357 003a 01       		.byte	0x1
 1358 003b 03       		.uleb128 0x3
 1359 003c 0E       		.uleb128 0xe
 1360 003d 0B       		.uleb128 0xb
 1361 003e 0B       		.uleb128 0xb
 1362 003f 3A       		.uleb128 0x3a
ARM GAS  /tmp/ccqcQtYM.s 			page 25


 1363 0040 0B       		.uleb128 0xb
 1364 0041 3B       		.uleb128 0x3b
 1365 0042 0B       		.uleb128 0xb
 1366 0043 01       		.uleb128 0x1
 1367 0044 13       		.uleb128 0x13
 1368 0045 00       		.byte	0
 1369 0046 00       		.byte	0
 1370 0047 06       		.uleb128 0x6
 1371 0048 0D       		.uleb128 0xd
 1372 0049 00       		.byte	0
 1373 004a 03       		.uleb128 0x3
 1374 004b 0E       		.uleb128 0xe
 1375 004c 3A       		.uleb128 0x3a
 1376 004d 0B       		.uleb128 0xb
 1377 004e 3B       		.uleb128 0x3b
 1378 004f 0B       		.uleb128 0xb
 1379 0050 49       		.uleb128 0x49
 1380 0051 13       		.uleb128 0x13
 1381 0052 38       		.uleb128 0x38
 1382 0053 0A       		.uleb128 0xa
 1383 0054 00       		.byte	0
 1384 0055 00       		.byte	0
 1385 0056 07       		.uleb128 0x7
 1386 0057 0D       		.uleb128 0xd
 1387 0058 00       		.byte	0
 1388 0059 03       		.uleb128 0x3
 1389 005a 08       		.uleb128 0x8
 1390 005b 3A       		.uleb128 0x3a
 1391 005c 0B       		.uleb128 0xb
 1392 005d 3B       		.uleb128 0x3b
 1393 005e 05       		.uleb128 0x5
 1394 005f 49       		.uleb128 0x49
 1395 0060 13       		.uleb128 0x13
 1396 0061 38       		.uleb128 0x38
 1397 0062 0A       		.uleb128 0xa
 1398 0063 00       		.byte	0
 1399 0064 00       		.byte	0
 1400 0065 08       		.uleb128 0x8
 1401 0066 0D       		.uleb128 0xd
 1402 0067 00       		.byte	0
 1403 0068 03       		.uleb128 0x3
 1404 0069 0E       		.uleb128 0xe
 1405 006a 3A       		.uleb128 0x3a
 1406 006b 0B       		.uleb128 0xb
 1407 006c 3B       		.uleb128 0x3b
 1408 006d 05       		.uleb128 0x5
 1409 006e 49       		.uleb128 0x49
 1410 006f 13       		.uleb128 0x13
 1411 0070 38       		.uleb128 0x38
 1412 0071 0A       		.uleb128 0xa
 1413 0072 00       		.byte	0
 1414 0073 00       		.byte	0
 1415 0074 09       		.uleb128 0x9
 1416 0075 0F       		.uleb128 0xf
 1417 0076 00       		.byte	0
 1418 0077 0B       		.uleb128 0xb
 1419 0078 0B       		.uleb128 0xb
ARM GAS  /tmp/ccqcQtYM.s 			page 26


 1420 0079 49       		.uleb128 0x49
 1421 007a 13       		.uleb128 0x13
 1422 007b 00       		.byte	0
 1423 007c 00       		.byte	0
 1424 007d 0A       		.uleb128 0xa
 1425 007e 13       		.uleb128 0x13
 1426 007f 01       		.byte	0x1
 1427 0080 03       		.uleb128 0x3
 1428 0081 0E       		.uleb128 0xe
 1429 0082 0B       		.uleb128 0xb
 1430 0083 0B       		.uleb128 0xb
 1431 0084 3A       		.uleb128 0x3a
 1432 0085 0B       		.uleb128 0xb
 1433 0086 3B       		.uleb128 0x3b
 1434 0087 05       		.uleb128 0x5
 1435 0088 01       		.uleb128 0x1
 1436 0089 13       		.uleb128 0x13
 1437 008a 00       		.byte	0
 1438 008b 00       		.byte	0
 1439 008c 0B       		.uleb128 0xb
 1440 008d 15       		.uleb128 0x15
 1441 008e 01       		.byte	0x1
 1442 008f 27       		.uleb128 0x27
 1443 0090 0C       		.uleb128 0xc
 1444 0091 01       		.uleb128 0x1
 1445 0092 13       		.uleb128 0x13
 1446 0093 00       		.byte	0
 1447 0094 00       		.byte	0
 1448 0095 0C       		.uleb128 0xc
 1449 0096 05       		.uleb128 0x5
 1450 0097 00       		.byte	0
 1451 0098 49       		.uleb128 0x49
 1452 0099 13       		.uleb128 0x13
 1453 009a 00       		.byte	0
 1454 009b 00       		.byte	0
 1455 009c 0D       		.uleb128 0xd
 1456 009d 0F       		.uleb128 0xf
 1457 009e 00       		.byte	0
 1458 009f 0B       		.uleb128 0xb
 1459 00a0 0B       		.uleb128 0xb
 1460 00a1 00       		.byte	0
 1461 00a2 00       		.byte	0
 1462 00a3 0E       		.uleb128 0xe
 1463 00a4 13       		.uleb128 0x13
 1464 00a5 01       		.byte	0x1
 1465 00a6 03       		.uleb128 0x3
 1466 00a7 0E       		.uleb128 0xe
 1467 00a8 0B       		.uleb128 0xb
 1468 00a9 05       		.uleb128 0x5
 1469 00aa 3A       		.uleb128 0x3a
 1470 00ab 0B       		.uleb128 0xb
 1471 00ac 3B       		.uleb128 0x3b
 1472 00ad 05       		.uleb128 0x5
 1473 00ae 01       		.uleb128 0x1
 1474 00af 13       		.uleb128 0x13
 1475 00b0 00       		.byte	0
 1476 00b1 00       		.byte	0
ARM GAS  /tmp/ccqcQtYM.s 			page 27


 1477 00b2 0F       		.uleb128 0xf
 1478 00b3 0D       		.uleb128 0xd
 1479 00b4 00       		.byte	0
 1480 00b5 03       		.uleb128 0x3
 1481 00b6 08       		.uleb128 0x8
 1482 00b7 3A       		.uleb128 0x3a
 1483 00b8 0B       		.uleb128 0xb
 1484 00b9 3B       		.uleb128 0x3b
 1485 00ba 0B       		.uleb128 0xb
 1486 00bb 49       		.uleb128 0x49
 1487 00bc 13       		.uleb128 0x13
 1488 00bd 38       		.uleb128 0x38
 1489 00be 0A       		.uleb128 0xa
 1490 00bf 00       		.byte	0
 1491 00c0 00       		.byte	0
 1492 00c1 10       		.uleb128 0x10
 1493 00c2 13       		.uleb128 0x13
 1494 00c3 01       		.byte	0x1
 1495 00c4 0B       		.uleb128 0xb
 1496 00c5 0B       		.uleb128 0xb
 1497 00c6 3A       		.uleb128 0x3a
 1498 00c7 0B       		.uleb128 0xb
 1499 00c8 3B       		.uleb128 0x3b
 1500 00c9 0B       		.uleb128 0xb
 1501 00ca 01       		.uleb128 0x1
 1502 00cb 13       		.uleb128 0x13
 1503 00cc 00       		.byte	0
 1504 00cd 00       		.byte	0
 1505 00ce 11       		.uleb128 0x11
 1506 00cf 17       		.uleb128 0x17
 1507 00d0 01       		.byte	0x1
 1508 00d1 0B       		.uleb128 0xb
 1509 00d2 0B       		.uleb128 0xb
 1510 00d3 3A       		.uleb128 0x3a
 1511 00d4 0B       		.uleb128 0xb
 1512 00d5 3B       		.uleb128 0x3b
 1513 00d6 0B       		.uleb128 0xb
 1514 00d7 01       		.uleb128 0x1
 1515 00d8 13       		.uleb128 0x13
 1516 00d9 00       		.byte	0
 1517 00da 00       		.byte	0
 1518 00db 12       		.uleb128 0x12
 1519 00dc 0D       		.uleb128 0xd
 1520 00dd 00       		.byte	0
 1521 00de 03       		.uleb128 0x3
 1522 00df 0E       		.uleb128 0xe
 1523 00e0 3A       		.uleb128 0x3a
 1524 00e1 0B       		.uleb128 0xb
 1525 00e2 3B       		.uleb128 0x3b
 1526 00e3 05       		.uleb128 0x5
 1527 00e4 49       		.uleb128 0x49
 1528 00e5 13       		.uleb128 0x13
 1529 00e6 00       		.byte	0
 1530 00e7 00       		.byte	0
 1531 00e8 13       		.uleb128 0x13
 1532 00e9 26       		.uleb128 0x26
 1533 00ea 00       		.byte	0
ARM GAS  /tmp/ccqcQtYM.s 			page 28


 1534 00eb 49       		.uleb128 0x49
 1535 00ec 13       		.uleb128 0x13
 1536 00ed 00       		.byte	0
 1537 00ee 00       		.byte	0
 1538 00ef 14       		.uleb128 0x14
 1539 00f0 35       		.uleb128 0x35
 1540 00f1 00       		.byte	0
 1541 00f2 49       		.uleb128 0x49
 1542 00f3 13       		.uleb128 0x13
 1543 00f4 00       		.byte	0
 1544 00f5 00       		.byte	0
 1545 00f6 15       		.uleb128 0x15
 1546 00f7 01       		.uleb128 0x1
 1547 00f8 01       		.byte	0x1
 1548 00f9 49       		.uleb128 0x49
 1549 00fa 13       		.uleb128 0x13
 1550 00fb 01       		.uleb128 0x1
 1551 00fc 13       		.uleb128 0x13
 1552 00fd 00       		.byte	0
 1553 00fe 00       		.byte	0
 1554 00ff 16       		.uleb128 0x16
 1555 0100 21       		.uleb128 0x21
 1556 0101 00       		.byte	0
 1557 0102 49       		.uleb128 0x49
 1558 0103 13       		.uleb128 0x13
 1559 0104 2F       		.uleb128 0x2f
 1560 0105 0B       		.uleb128 0xb
 1561 0106 00       		.byte	0
 1562 0107 00       		.byte	0
 1563 0108 17       		.uleb128 0x17
 1564 0109 15       		.uleb128 0x15
 1565 010a 00       		.byte	0
 1566 010b 27       		.uleb128 0x27
 1567 010c 0C       		.uleb128 0xc
 1568 010d 00       		.byte	0
 1569 010e 00       		.byte	0
 1570 010f 18       		.uleb128 0x18
 1571 0110 2E       		.uleb128 0x2e
 1572 0111 00       		.byte	0
 1573 0112 03       		.uleb128 0x3
 1574 0113 0E       		.uleb128 0xe
 1575 0114 3A       		.uleb128 0x3a
 1576 0115 0B       		.uleb128 0xb
 1577 0116 3B       		.uleb128 0x3b
 1578 0117 0B       		.uleb128 0xb
 1579 0118 27       		.uleb128 0x27
 1580 0119 0C       		.uleb128 0xc
 1581 011a 49       		.uleb128 0x49
 1582 011b 13       		.uleb128 0x13
 1583 011c 20       		.uleb128 0x20
 1584 011d 0B       		.uleb128 0xb
 1585 011e 00       		.byte	0
 1586 011f 00       		.byte	0
 1587 0120 19       		.uleb128 0x19
 1588 0121 2E       		.uleb128 0x2e
 1589 0122 01       		.byte	0x1
 1590 0123 03       		.uleb128 0x3
ARM GAS  /tmp/ccqcQtYM.s 			page 29


 1591 0124 0E       		.uleb128 0xe
 1592 0125 3A       		.uleb128 0x3a
 1593 0126 0B       		.uleb128 0xb
 1594 0127 3B       		.uleb128 0x3b
 1595 0128 0B       		.uleb128 0xb
 1596 0129 27       		.uleb128 0x27
 1597 012a 0C       		.uleb128 0xc
 1598 012b 49       		.uleb128 0x49
 1599 012c 13       		.uleb128 0x13
 1600 012d 20       		.uleb128 0x20
 1601 012e 0B       		.uleb128 0xb
 1602 012f 01       		.uleb128 0x1
 1603 0130 13       		.uleb128 0x13
 1604 0131 00       		.byte	0
 1605 0132 00       		.byte	0
 1606 0133 1A       		.uleb128 0x1a
 1607 0134 05       		.uleb128 0x5
 1608 0135 00       		.byte	0
 1609 0136 03       		.uleb128 0x3
 1610 0137 08       		.uleb128 0x8
 1611 0138 3A       		.uleb128 0x3a
 1612 0139 0B       		.uleb128 0xb
 1613 013a 3B       		.uleb128 0x3b
 1614 013b 0B       		.uleb128 0xb
 1615 013c 49       		.uleb128 0x49
 1616 013d 13       		.uleb128 0x13
 1617 013e 00       		.byte	0
 1618 013f 00       		.byte	0
 1619 0140 1B       		.uleb128 0x1b
 1620 0141 2E       		.uleb128 0x2e
 1621 0142 01       		.byte	0x1
 1622 0143 03       		.uleb128 0x3
 1623 0144 0E       		.uleb128 0xe
 1624 0145 3A       		.uleb128 0x3a
 1625 0146 0B       		.uleb128 0xb
 1626 0147 3B       		.uleb128 0x3b
 1627 0148 0B       		.uleb128 0xb
 1628 0149 27       		.uleb128 0x27
 1629 014a 0C       		.uleb128 0xc
 1630 014b 11       		.uleb128 0x11
 1631 014c 01       		.uleb128 0x1
 1632 014d 12       		.uleb128 0x12
 1633 014e 01       		.uleb128 0x1
 1634 014f 40       		.uleb128 0x40
 1635 0150 06       		.uleb128 0x6
 1636 0151 01       		.uleb128 0x1
 1637 0152 13       		.uleb128 0x13
 1638 0153 00       		.byte	0
 1639 0154 00       		.byte	0
 1640 0155 1C       		.uleb128 0x1c
 1641 0156 34       		.uleb128 0x34
 1642 0157 00       		.byte	0
 1643 0158 03       		.uleb128 0x3
 1644 0159 08       		.uleb128 0x8
 1645 015a 3A       		.uleb128 0x3a
 1646 015b 0B       		.uleb128 0xb
 1647 015c 3B       		.uleb128 0x3b
ARM GAS  /tmp/ccqcQtYM.s 			page 30


 1648 015d 0B       		.uleb128 0xb
 1649 015e 49       		.uleb128 0x49
 1650 015f 13       		.uleb128 0x13
 1651 0160 02       		.uleb128 0x2
 1652 0161 06       		.uleb128 0x6
 1653 0162 00       		.byte	0
 1654 0163 00       		.byte	0
 1655 0164 1D       		.uleb128 0x1d
 1656 0165 34       		.uleb128 0x34
 1657 0166 00       		.byte	0
 1658 0167 03       		.uleb128 0x3
 1659 0168 08       		.uleb128 0x8
 1660 0169 3A       		.uleb128 0x3a
 1661 016a 0B       		.uleb128 0xb
 1662 016b 3B       		.uleb128 0x3b
 1663 016c 0B       		.uleb128 0xb
 1664 016d 49       		.uleb128 0x49
 1665 016e 13       		.uleb128 0x13
 1666 016f 00       		.byte	0
 1667 0170 00       		.byte	0
 1668 0171 1E       		.uleb128 0x1e
 1669 0172 1D       		.uleb128 0x1d
 1670 0173 01       		.byte	0x1
 1671 0174 31       		.uleb128 0x31
 1672 0175 13       		.uleb128 0x13
 1673 0176 52       		.uleb128 0x52
 1674 0177 01       		.uleb128 0x1
 1675 0178 55       		.uleb128 0x55
 1676 0179 06       		.uleb128 0x6
 1677 017a 58       		.uleb128 0x58
 1678 017b 0B       		.uleb128 0xb
 1679 017c 59       		.uleb128 0x59
 1680 017d 0B       		.uleb128 0xb
 1681 017e 00       		.byte	0
 1682 017f 00       		.byte	0
 1683 0180 1F       		.uleb128 0x1f
 1684 0181 1D       		.uleb128 0x1d
 1685 0182 00       		.byte	0
 1686 0183 31       		.uleb128 0x31
 1687 0184 13       		.uleb128 0x13
 1688 0185 52       		.uleb128 0x52
 1689 0186 01       		.uleb128 0x1
 1690 0187 55       		.uleb128 0x55
 1691 0188 06       		.uleb128 0x6
 1692 0189 58       		.uleb128 0x58
 1693 018a 0B       		.uleb128 0xb
 1694 018b 59       		.uleb128 0x59
 1695 018c 0B       		.uleb128 0xb
 1696 018d 00       		.byte	0
 1697 018e 00       		.byte	0
 1698 018f 20       		.uleb128 0x20
 1699 0190 05       		.uleb128 0x5
 1700 0191 00       		.byte	0
 1701 0192 03       		.uleb128 0x3
 1702 0193 08       		.uleb128 0x8
 1703 0194 3A       		.uleb128 0x3a
 1704 0195 0B       		.uleb128 0xb
ARM GAS  /tmp/ccqcQtYM.s 			page 31


 1705 0196 3B       		.uleb128 0x3b
 1706 0197 0B       		.uleb128 0xb
 1707 0198 49       		.uleb128 0x49
 1708 0199 13       		.uleb128 0x13
 1709 019a 02       		.uleb128 0x2
 1710 019b 06       		.uleb128 0x6
 1711 019c 00       		.byte	0
 1712 019d 00       		.byte	0
 1713 019e 21       		.uleb128 0x21
 1714 019f 34       		.uleb128 0x34
 1715 01a0 00       		.byte	0
 1716 01a1 03       		.uleb128 0x3
 1717 01a2 0E       		.uleb128 0xe
 1718 01a3 3A       		.uleb128 0x3a
 1719 01a4 0B       		.uleb128 0xb
 1720 01a5 3B       		.uleb128 0x3b
 1721 01a6 05       		.uleb128 0x5
 1722 01a7 49       		.uleb128 0x49
 1723 01a8 13       		.uleb128 0x13
 1724 01a9 3F       		.uleb128 0x3f
 1725 01aa 0C       		.uleb128 0xc
 1726 01ab 3C       		.uleb128 0x3c
 1727 01ac 0C       		.uleb128 0xc
 1728 01ad 00       		.byte	0
 1729 01ae 00       		.byte	0
 1730 01af 22       		.uleb128 0x22
 1731 01b0 34       		.uleb128 0x34
 1732 01b1 00       		.byte	0
 1733 01b2 03       		.uleb128 0x3
 1734 01b3 08       		.uleb128 0x8
 1735 01b4 3A       		.uleb128 0x3a
 1736 01b5 0B       		.uleb128 0xb
 1737 01b6 3B       		.uleb128 0x3b
 1738 01b7 05       		.uleb128 0x5
 1739 01b8 49       		.uleb128 0x49
 1740 01b9 13       		.uleb128 0x13
 1741 01ba 3F       		.uleb128 0x3f
 1742 01bb 0C       		.uleb128 0xc
 1743 01bc 3C       		.uleb128 0x3c
 1744 01bd 0C       		.uleb128 0xc
 1745 01be 00       		.byte	0
 1746 01bf 00       		.byte	0
 1747 01c0 23       		.uleb128 0x23
 1748 01c1 34       		.uleb128 0x34
 1749 01c2 00       		.byte	0
 1750 01c3 03       		.uleb128 0x3
 1751 01c4 0E       		.uleb128 0xe
 1752 01c5 3A       		.uleb128 0x3a
 1753 01c6 0B       		.uleb128 0xb
 1754 01c7 3B       		.uleb128 0x3b
 1755 01c8 0B       		.uleb128 0xb
 1756 01c9 49       		.uleb128 0x49
 1757 01ca 13       		.uleb128 0x13
 1758 01cb 3F       		.uleb128 0x3f
 1759 01cc 0C       		.uleb128 0xc
 1760 01cd 3C       		.uleb128 0x3c
 1761 01ce 0C       		.uleb128 0xc
ARM GAS  /tmp/ccqcQtYM.s 			page 32


 1762 01cf 00       		.byte	0
 1763 01d0 00       		.byte	0
 1764 01d1 24       		.uleb128 0x24
 1765 01d2 21       		.uleb128 0x21
 1766 01d3 00       		.byte	0
 1767 01d4 00       		.byte	0
 1768 01d5 00       		.byte	0
 1769 01d6 25       		.uleb128 0x25
 1770 01d7 34       		.uleb128 0x34
 1771 01d8 00       		.byte	0
 1772 01d9 03       		.uleb128 0x3
 1773 01da 08       		.uleb128 0x8
 1774 01db 3A       		.uleb128 0x3a
 1775 01dc 0B       		.uleb128 0xb
 1776 01dd 3B       		.uleb128 0x3b
 1777 01de 0B       		.uleb128 0xb
 1778 01df 49       		.uleb128 0x49
 1779 01e0 13       		.uleb128 0x13
 1780 01e1 3F       		.uleb128 0x3f
 1781 01e2 0C       		.uleb128 0xc
 1782 01e3 3C       		.uleb128 0x3c
 1783 01e4 0C       		.uleb128 0xc
 1784 01e5 00       		.byte	0
 1785 01e6 00       		.byte	0
 1786 01e7 26       		.uleb128 0x26
 1787 01e8 34       		.uleb128 0x34
 1788 01e9 00       		.byte	0
 1789 01ea 03       		.uleb128 0x3
 1790 01eb 0E       		.uleb128 0xe
 1791 01ec 3A       		.uleb128 0x3a
 1792 01ed 0B       		.uleb128 0xb
 1793 01ee 3B       		.uleb128 0x3b
 1794 01ef 0B       		.uleb128 0xb
 1795 01f0 49       		.uleb128 0x49
 1796 01f1 13       		.uleb128 0x13
 1797 01f2 3F       		.uleb128 0x3f
 1798 01f3 0C       		.uleb128 0xc
 1799 01f4 02       		.uleb128 0x2
 1800 01f5 0A       		.uleb128 0xa
 1801 01f6 00       		.byte	0
 1802 01f7 00       		.byte	0
 1803 01f8 00       		.byte	0
 1804              		.section	.debug_loc,"",%progbits
 1805              	.Ldebug_loc0:
 1806              	.LLST0:
 1807 0000 00000000 		.4byte	.LFB183
 1808 0004 06000000 		.4byte	.LCFI0
 1809 0008 0200     		.2byte	0x2
 1810 000a 7D       		.byte	0x7d
 1811 000b 00       		.sleb128 0
 1812 000c 06000000 		.4byte	.LCFI0
 1813 0010 1C000000 		.4byte	.LCFI1
 1814 0014 0200     		.2byte	0x2
 1815 0016 7D       		.byte	0x7d
 1816 0017 08       		.sleb128 8
 1817 0018 1C000000 		.4byte	.LCFI1
 1818 001c 82000000 		.4byte	.LFE183
ARM GAS  /tmp/ccqcQtYM.s 			page 33


 1819 0020 0200     		.2byte	0x2
 1820 0022 7D       		.byte	0x7d
 1821 0023 10       		.sleb128 16
 1822 0024 00000000 		.4byte	0
 1823 0028 00000000 		.4byte	0
 1824              	.LLST1:
 1825 002c 3C000000 		.4byte	.LVL0
 1826 0030 43000000 		.4byte	.LVL1-1
 1827 0034 0100     		.2byte	0x1
 1828 0036 50       		.byte	0x50
 1829 0037 4E000000 		.4byte	.LVL2
 1830 003b 55000000 		.4byte	.LVL3-1
 1831 003f 0100     		.2byte	0x1
 1832 0041 50       		.byte	0x50
 1833 0042 60000000 		.4byte	.LVL4
 1834 0046 67000000 		.4byte	.LVL5-1
 1835 004a 0100     		.2byte	0x1
 1836 004c 50       		.byte	0x50
 1837 004d 00000000 		.4byte	0
 1838 0051 00000000 		.4byte	0
 1839              	.LLST2:
 1840 0055 00000000 		.4byte	.LFB182
 1841 0059 02000000 		.4byte	.LCFI2
 1842 005d 0200     		.2byte	0x2
 1843 005f 7D       		.byte	0x7d
 1844 0060 00       		.sleb128 0
 1845 0061 02000000 		.4byte	.LCFI2
 1846 0065 1E000000 		.4byte	.LFE182
 1847 0069 0200     		.2byte	0x2
 1848 006b 7D       		.byte	0x7d
 1849 006c 08       		.sleb128 8
 1850 006d 00000000 		.4byte	0
 1851 0071 00000000 		.4byte	0
 1852              	.LLST3:
 1853 0075 00000000 		.4byte	.LVL6
 1854 0079 09000000 		.4byte	.LVL7-1
 1855 007d 0100     		.2byte	0x1
 1856 007f 50       		.byte	0x50
 1857 0080 09000000 		.4byte	.LVL7-1
 1858 0084 1E000000 		.4byte	.LFE182
 1859 0088 0100     		.2byte	0x1
 1860 008a 54       		.byte	0x54
 1861 008b 00000000 		.4byte	0
 1862 008f 00000000 		.4byte	0
 1863              		.section	.debug_aranges,"",%progbits
 1864 0000 24000000 		.4byte	0x24
 1865 0004 0200     		.2byte	0x2
 1866 0006 00000000 		.4byte	.Ldebug_info0
 1867 000a 04       		.byte	0x4
 1868 000b 00       		.byte	0
 1869 000c 0000     		.2byte	0
 1870 000e 0000     		.2byte	0
 1871 0010 00000000 		.4byte	.LFB183
 1872 0014 82000000 		.4byte	.LFE183-.LFB183
 1873 0018 00000000 		.4byte	.LFB182
 1874 001c 1E000000 		.4byte	.LFE182-.LFB182
 1875 0020 00000000 		.4byte	0
ARM GAS  /tmp/ccqcQtYM.s 			page 34


 1876 0024 00000000 		.4byte	0
 1877              		.section	.debug_ranges,"",%progbits
 1878              	.Ldebug_ranges0:
 1879 0000 00000000 		.4byte	.LBB16
 1880 0004 04000000 		.4byte	.LBE16
 1881 0008 06000000 		.4byte	.LBB23
 1882 000c 0C000000 		.4byte	.LBE23
 1883 0010 00000000 		.4byte	0
 1884 0014 00000000 		.4byte	0
 1885 0018 00000000 		.4byte	.LBB18
 1886 001c 04000000 		.4byte	.LBE18
 1887 0020 06000000 		.4byte	.LBB21
 1888 0024 0C000000 		.4byte	.LBE21
 1889 0028 00000000 		.4byte	0
 1890 002c 00000000 		.4byte	0
 1891 0030 00000000 		.4byte	.LFB183
 1892 0034 82000000 		.4byte	.LFE183
 1893 0038 00000000 		.4byte	.LFB182
 1894 003c 1E000000 		.4byte	.LFE182
 1895 0040 00000000 		.4byte	0
 1896 0044 00000000 		.4byte	0
 1897              		.section	.debug_line,"",%progbits
 1898              	.Ldebug_line0:
 1899 0000 61030000 		.section	.debug_str,"MS",%progbits,1
 1899      0200FE02 
 1899      00000201 
 1899      FB0E0D00 
 1899      01010101 
 1900              	.LASF45:
 1901 0000 63685F74 		.ascii	"ch_threads_list\000"
 1901      68726561 
 1901      64735F6C 
 1901      69737400 
 1902              	.LASF46:
 1903 0010 74687265 		.ascii	"threads_queue_t\000"
 1903      6164735F 
 1903      71756575 
 1903      655F7400 
 1904              	.LASF35:
 1905 0020 705F7761 		.ascii	"p_waiting\000"
 1905      6974696E 
 1905      6700
 1906              	.LASF87:
 1907 002a 77746D74 		.ascii	"wtmtxp\000"
 1907      787000
 1908              	.LASF81:
 1909 0031 746D5F63 		.ascii	"tm_calibration_t\000"
 1909      616C6962 
 1909      72617469 
 1909      6F6E5F74 
 1909      00
 1910              	.LASF96:
 1911 0042 63686172 		.ascii	"char\000"
 1911      00
 1912              	.LASF76:
 1913 0047 72656761 		.ascii	"regarm_t\000"
 1913      726D5F74 
ARM GAS  /tmp/ccqcQtYM.s 			page 35


 1913      00
 1914              	.LASF27:
 1915 0050 705F7072 		.ascii	"p_prio\000"
 1915      696F00
 1916              	.LASF23:
 1917 0057 73797374 		.ascii	"systime_t\000"
 1917      696D655F 
 1917      7400
 1918              	.LASF94:
 1919 0061 6D5F6F77 		.ascii	"m_owner\000"
 1919      6E657200 
 1920              	.LASF90:
 1921 0069 735F7175 		.ascii	"s_queue\000"
 1921      65756500 
 1922              	.LASF36:
 1923 0071 705F6D73 		.ascii	"p_msgqueue\000"
 1923      67717565 
 1923      756500
 1924              	.LASF0:
 1925 007c 756E7369 		.ascii	"unsigned int\000"
 1925      676E6564 
 1925      20696E74 
 1925      00
 1926              	.LASF43:
 1927 0089 74687265 		.ascii	"threads_list_t\000"
 1927      6164735F 
 1927      6C697374 
 1927      5F7400
 1928              	.LASF84:
 1929 0098 77746F62 		.ascii	"wtobjp\000"
 1929      6A7000
 1930              	.LASF73:
 1931 009f 76746C69 		.ascii	"vtlist\000"
 1931      737400
 1932              	.LASF49:
 1933 00a6 63685F72 		.ascii	"ch_ready_list\000"
 1933      65616479 
 1933      5F6C6973 
 1933      7400
 1934              	.LASF75:
 1935 00b4 69646C65 		.ascii	"idle_thread_wa\000"
 1935      5F746872 
 1935      6561645F 
 1935      776100
 1936              	.LASF88:
 1937 00c3 65776D61 		.ascii	"ewmask\000"
 1937      736B00
 1938              	.LASF47:
 1939 00ca 63685F74 		.ascii	"ch_threads_queue\000"
 1939      68726561 
 1939      64735F71 
 1939      75657565 
 1939      00
 1940              	.LASF56:
 1941 00db 76746675 		.ascii	"vtfunc_t\000"
 1941      6E635F74 
 1941      00
ARM GAS  /tmp/ccqcQtYM.s 			page 36


 1942              	.LASF91:
 1943 00e4 735F636E 		.ascii	"s_cnt\000"
 1943      7400
 1944              	.LASF68:
 1945 00ea 63685F73 		.ascii	"ch_system_debug\000"
 1945      79737465 
 1945      6D5F6465 
 1945      62756700 
 1946              	.LASF10:
 1947 00fa 75696E74 		.ascii	"uint32_t\000"
 1947      33325F74 
 1947      00
 1948              	.LASF21:
 1949 0103 6576656E 		.ascii	"eventmask_t\000"
 1949      746D6173 
 1949      6B5F7400 
 1950              	.LASF51:
 1951 010f 725F7072 		.ascii	"r_prio\000"
 1951      696F00
 1952              	.LASF63:
 1953 0116 76745F70 		.ascii	"vt_par\000"
 1953      617200
 1954              	.LASF111:
 1955 011d 70617474 		.ascii	"patternmsg\000"
 1955      65726E6D 
 1955      736700
 1956              	.LASF89:
 1957 0128 63685F73 		.ascii	"ch_semaphore\000"
 1957      656D6170 
 1957      686F7265 
 1957      00
 1958              	.LASF19:
 1959 0135 74707269 		.ascii	"tprio_t\000"
 1959      6F5F7400 
 1960              	.LASF58:
 1961 013d 63685F76 		.ascii	"ch_virtual_timer\000"
 1961      69727475 
 1961      616C5F74 
 1961      696D6572 
 1961      00
 1962              	.LASF14:
 1963 014e 6C6F6E67 		.ascii	"long long unsigned int\000"
 1963      206C6F6E 
 1963      6720756E 
 1963      7369676E 
 1963      65642069 
 1964              	.LASF115:
 1965 0165 63684D73 		.ascii	"chMsgGet\000"
 1965      67476574 
 1965      00
 1966              	.LASF22:
 1967 016e 636E745F 		.ascii	"cnt_t\000"
 1967      7400
 1968              	.LASF99:
 1969 0174 74657374 		.ascii	"testcase\000"
 1969      63617365 
 1969      00
ARM GAS  /tmp/ccqcQtYM.s 			page 37


 1970              	.LASF29:
 1971 017d 705F6E65 		.ascii	"p_newer\000"
 1971      77657200 
 1972              	.LASF65:
 1973 0185 63685F76 		.ascii	"ch_virtual_timers_list\000"
 1973      69727475 
 1973      616C5F74 
 1973      696D6572 
 1973      735F6C69 
 1974              	.LASF24:
 1975 019c 74687265 		.ascii	"thread_t\000"
 1975      61645F74 
 1975      00
 1976              	.LASF2:
 1977 01a5 73697A65 		.ascii	"size_t\000"
 1977      5F7400
 1978              	.LASF82:
 1979 01ac 7264796D 		.ascii	"rdymsg\000"
 1979      736700
 1980              	.LASF80:
 1981 01b3 6F666673 		.ascii	"offset\000"
 1981      657400
 1982              	.LASF98:
 1983 01ba 5F426F6F 		.ascii	"_Bool\000"
 1983      6C00
 1984              	.LASF110:
 1985 01c0 74657374 		.ascii	"testmsg1\000"
 1985      6D736731 
 1985      00
 1986              	.LASF92:
 1987 01c9 63685F6D 		.ascii	"ch_mutex\000"
 1987      75746578 
 1987      00
 1988              	.LASF31:
 1989 01d2 705F6E61 		.ascii	"p_name\000"
 1989      6D6500
 1990              	.LASF61:
 1991 01d9 76745F64 		.ascii	"vt_delta\000"
 1991      656C7461 
 1991      00
 1992              	.LASF42:
 1993 01e2 74687265 		.ascii	"thread_reference_t\000"
 1993      61645F72 
 1993      65666572 
 1993      656E6365 
 1993      5F7400
 1994              	.LASF66:
 1995 01f5 76745F6C 		.ascii	"vt_lasttime\000"
 1995      61737474 
 1995      696D6500 
 1996              	.LASF17:
 1997 0201 74737461 		.ascii	"tstate_t\000"
 1997      74655F74 
 1997      00
 1998              	.LASF30:
 1999 020a 705F6F6C 		.ascii	"p_older\000"
 1999      64657200 
ARM GAS  /tmp/ccqcQtYM.s 			page 38


 2000              	.LASF32:
 2001 0212 705F7374 		.ascii	"p_state\000"
 2001      61746500 
 2002              	.LASF3:
 2003 021a 75696E74 		.ascii	"uint8_t\000"
 2003      385F7400 
 2004              	.LASF41:
 2005 0222 705F6D70 		.ascii	"p_mpool\000"
 2005      6F6F6C00 
 2006              	.LASF39:
 2007 022a 705F6D74 		.ascii	"p_mtxlist\000"
 2007      786C6973 
 2007      7400
 2008              	.LASF44:
 2009 0234 63685F74 		.ascii	"ch_thread\000"
 2009      68726561 
 2009      6400
 2010              	.LASF103:
 2011 023e 65786563 		.ascii	"execute\000"
 2011      75746500 
 2012              	.LASF106:
 2013 0246 6D736731 		.ascii	"msg1_execute\000"
 2013      5F657865 
 2013      63757465 
 2013      00
 2014              	.LASF67:
 2015 0253 73797374 		.ascii	"system_debug_t\000"
 2015      656D5F64 
 2015      65627567 
 2015      5F7400
 2016              	.LASF12:
 2017 0262 6C6F6E67 		.ascii	"long long int\000"
 2017      206C6F6E 
 2017      6720696E 
 2017      7400
 2018              	.LASF50:
 2019 0270 725F7175 		.ascii	"r_queue\000"
 2019      65756500 
 2020              	.LASF53:
 2021 0278 725F6E65 		.ascii	"r_newer\000"
 2021      77657200 
 2022              	.LASF20:
 2023 0280 6D73675F 		.ascii	"msg_t\000"
 2023      7400
 2024              	.LASF78:
 2025 0286 636F6E74 		.ascii	"context\000"
 2025      65787400 
 2026              	.LASF102:
 2027 028e 74656172 		.ascii	"teardown\000"
 2027      646F776E 
 2027      00
 2028              	.LASF33:
 2029 0297 705F666C 		.ascii	"p_flags\000"
 2029      61677300 
 2030              	.LASF57:
 2031 029f 76697274 		.ascii	"virtual_timer_t\000"
 2031      75616C5F 
ARM GAS  /tmp/ccqcQtYM.s 			page 39


 2031      74696D65 
 2031      725F7400 
 2032              	.LASF114:
 2033 02af 2F686F6D 		.ascii	"/home/madog/Documents/proyectos/CYCLE/repos/harvest"
 2033      652F6D61 
 2033      646F672F 
 2033      446F6375 
 2033      6D656E74 
 2034 02e2 65722F73 		.ascii	"er/src\000"
 2034      726300
 2035              	.LASF54:
 2036 02e9 725F6F6C 		.ascii	"r_older\000"
 2036      64657200 
 2037              	.LASF69:
 2038 02f1 70616E69 		.ascii	"panic_msg\000"
 2038      635F6D73 
 2038      6700
 2039              	.LASF37:
 2040 02fb 705F6D73 		.ascii	"p_msg\000"
 2040      6700
 2041              	.LASF16:
 2042 0301 746D6F64 		.ascii	"tmode_t\000"
 2042      655F7400 
 2043              	.LASF74:
 2044 0309 6D61696E 		.ascii	"mainthread\000"
 2044      74687265 
 2044      616400
 2045              	.LASF6:
 2046 0314 75696E74 		.ascii	"uint16_t\000"
 2046      31365F74 
 2046      00
 2047              	.LASF15:
 2048 031d 7274636E 		.ascii	"rtcnt_t\000"
 2048      745F7400 
 2049              	.LASF40:
 2050 0325 705F7265 		.ascii	"p_realprio\000"
 2050      616C7072 
 2050      696F00
 2051              	.LASF5:
 2052 0330 73686F72 		.ascii	"short int\000"
 2052      7420696E 
 2052      7400
 2053              	.LASF55:
 2054 033a 725F6375 		.ascii	"r_current\000"
 2054      7272656E 
 2054      7400
 2055              	.LASF38:
 2056 0344 705F6570 		.ascii	"p_epending\000"
 2056      656E6469 
 2056      6E6700
 2057              	.LASF93:
 2058 034f 6D5F7175 		.ascii	"m_queue\000"
 2058      65756500 
 2059              	.LASF9:
 2060 0357 6C6F6E67 		.ascii	"long int\000"
 2060      20696E74 
 2060      00
ARM GAS  /tmp/ccqcQtYM.s 			page 40


 2061              	.LASF79:
 2062 0360 706F7274 		.ascii	"port_intctx\000"
 2062      5F696E74 
 2062      63747800 
 2063              	.LASF108:
 2064 036c 49544D5F 		.ascii	"ITM_RxBuffer\000"
 2064      52784275 
 2064      66666572 
 2064      00
 2065              	.LASF105:
 2066 0379 63685468 		.ascii	"chThdGetPriorityX\000"
 2066      64476574 
 2066      5072696F 
 2066      72697479 
 2066      5800
 2067              	.LASF71:
 2068 038b 63685F73 		.ascii	"ch_system\000"
 2068      79737465 
 2068      6D00
 2069              	.LASF25:
 2070 0395 705F6E65 		.ascii	"p_next\000"
 2070      787400
 2071              	.LASF13:
 2072 039c 75696E74 		.ascii	"uint64_t\000"
 2072      36345F74 
 2072      00
 2073              	.LASF28:
 2074 03a5 705F6374 		.ascii	"p_ctx\000"
 2074      7800
 2075              	.LASF72:
 2076 03ab 726C6973 		.ascii	"rlist\000"
 2076      7400
 2077              	.LASF100:
 2078 03b1 6E616D65 		.ascii	"name\000"
 2078      00
 2079              	.LASF26:
 2080 03b6 705F7072 		.ascii	"p_prev\000"
 2080      657600
 2081              	.LASF18:
 2082 03bd 74726566 		.ascii	"trefs_t\000"
 2082      735F7400 
 2083              	.LASF11:
 2084 03c5 6C6F6E67 		.ascii	"long unsigned int\000"
 2084      20756E73 
 2084      69676E65 
 2084      6420696E 
 2084      7400
 2085              	.LASF48:
 2086 03d7 72656164 		.ascii	"ready_list_t\000"
 2086      795F6C69 
 2086      73745F74 
 2086      00
 2087              	.LASF109:
 2088 03e4 74687265 		.ascii	"threads\000"
 2088      61647300 
 2089              	.LASF8:
 2090 03ec 696E7433 		.ascii	"int32_t\000"
ARM GAS  /tmp/ccqcQtYM.s 			page 41


 2090      325F7400 
 2091              	.LASF107:
 2092 03f4 74687265 		.ascii	"thread\000"
 2092      616400
 2093              	.LASF86:
 2094 03fb 77747365 		.ascii	"wtsemp\000"
 2094      6D7000
 2095              	.LASF112:
 2096 0402 474E5520 		.ascii	"GNU C 4.6.1\000"
 2096      4320342E 
 2096      362E3100 
 2097              	.LASF97:
 2098 040e 6D757465 		.ascii	"mutex_t\000"
 2098      785F7400 
 2099              	.LASF4:
 2100 0416 756E7369 		.ascii	"unsigned char\000"
 2100      676E6564 
 2100      20636861 
 2100      7200
 2101              	.LASF101:
 2102 0424 73657475 		.ascii	"setup\000"
 2102      7000
 2103              	.LASF64:
 2104 042a 76697274 		.ascii	"virtual_timers_list_t\000"
 2104      75616C5F 
 2104      74696D65 
 2104      72735F6C 
 2104      6973745F 
 2105              	.LASF34:
 2106 0440 705F7265 		.ascii	"p_refs\000"
 2106      667300
 2107              	.LASF59:
 2108 0447 76745F6E 		.ascii	"vt_next\000"
 2108      65787400 
 2109              	.LASF70:
 2110 044f 63685F73 		.ascii	"ch_system_t\000"
 2110      79737465 
 2110      6D5F7400 
 2111              	.LASF85:
 2112 045b 77747472 		.ascii	"wttrp\000"
 2112      7000
 2113              	.LASF95:
 2114 0461 6D5F6E65 		.ascii	"m_next\000"
 2114      787400
 2115              	.LASF1:
 2116 0468 7369676E 		.ascii	"signed char\000"
 2116      65642063 
 2116      68617200 
 2117              	.LASF7:
 2118 0474 73686F72 		.ascii	"short unsigned int\000"
 2118      7420756E 
 2118      7369676E 
 2118      65642069 
 2118      6E7400
 2119              	.LASF52:
 2120 0487 725F6374 		.ascii	"r_ctx\000"
 2120      7800
ARM GAS  /tmp/ccqcQtYM.s 			page 42


 2121              	.LASF77:
 2122 048d 73746B61 		.ascii	"stkalign_t\000"
 2122      6C69676E 
 2122      5F7400
 2123              	.LASF104:
 2124 0498 63685468 		.ascii	"chThdGetSelfX\000"
 2124      64476574 
 2124      53656C66 
 2124      5800
 2125              	.LASF62:
 2126 04a6 76745F66 		.ascii	"vt_func\000"
 2126      756E6300 
 2127              	.LASF60:
 2128 04ae 76745F70 		.ascii	"vt_prev\000"
 2128      72657600 
 2129              	.LASF113:
 2130 04b6 2E2E2F2E 		.ascii	"../../../resources/chibios/ChibiOS_16.1.8/test/rt/t"
 2130      2E2F2E2E 
 2130      2F726573 
 2130      6F757263 
 2130      65732F63 
 2131 04e9 6573746D 		.ascii	"estmsg.c\000"
 2131      73672E63 
 2131      00
 2132              	.LASF83:
 2133 04f2 65786974 		.ascii	"exitcode\000"
 2133      636F6465 
 2133      00
 2134              		.ident	"GCC: (Sourcery CodeBench Lite 2011.09-69) 4.6.1"
ARM GAS  /tmp/ccqcQtYM.s 			page 43


DEFINED SYMBOLS
                            *ABS*:00000000 testmsg.c
     /tmp/ccqcQtYM.s:19     .text.msg1_execute:00000000 $t
     /tmp/ccqcQtYM.s:24     .text.msg1_execute:00000000 msg1_execute
     /tmp/ccqcQtYM.s:132    .text.thread:00000000 thread
     /tmp/ccqcQtYM.s:178    .rodata.str1.4:00000000 .LC0
     /tmp/ccqcQtYM.s:127    .text.thread:00000000 $t
     /tmp/ccqcQtYM.s:186    .rodata.patternmsg:00000000 patternmsg
     /tmp/ccqcQtYM.s:171    .rodata.testmsg1:00000000 testmsg1
     /tmp/ccqcQtYM.s:168    .rodata.testmsg1:00000000 $d
     /tmp/ccqcQtYM.s:177    .rodata.str1.4:00000000 $d
     /tmp/ccqcQtYM.s:183    .rodata.patternmsg:00000000 $d
                     .debug_frame:00000010 $d

UNDEFINED SYMBOLS
ch
wa
chThdCreateStatic
threads
chMsgWait
chMsgRelease
test_emit_token
_test_assert_sequence
chMsgSend
