ARM GAS  /tmp/cc3wakGH.s 			page 1


   1              		.syntax unified
   2              		.cpu cortex-m3
   3              		.fpu softvfp
   4              		.eabi_attribute 20, 1
   5              		.eabi_attribute 21, 1
   6              		.eabi_attribute 23, 3
   7              		.eabi_attribute 24, 1
   8              		.eabi_attribute 25, 1
   9              		.eabi_attribute 26, 1
  10              		.eabi_attribute 30, 2
  11              		.eabi_attribute 34, 1
  12              		.eabi_attribute 18, 4
  13              		.thumb
  14              		.file	"testbmk.c"
  15              		.text
  16              	.Ltext0:
  17              		.cfi_sections	.debug_frame
  18              		.section	.text.tmo,"ax",%progbits
  19              		.align	2
  20              		.p2align 4,,15
  21              		.thumb
  22              		.thumb_func
  23              		.type	tmo, %function
  24              	tmo:
  25              	.LFB198:
  26              		.file 1 "../../../resources/chibios/ChibiOS_16.1.8/test/rt/testbmk.c"
  27              		.loc 1 505 0
  28              		.cfi_startproc
  29              		@ args = 0, pretend = 0, frame = 0
  30              		@ frame_needed = 0, uses_anonymous_args = 0
  31              		@ link register save eliminated.
  32              	.LVL0:
  33              		.loc 1 505 0
  34 0000 7047     		bx	lr
  35              		.cfi_endproc
  36              	.LFE198:
  37              		.size	tmo, .-tmo
  38 0002 00BFAFF3 		.section	.text.bmk13_execute,"ax",%progbits
  38      0080AFF3 
  38      0080AFF3 
  38      0080
  39              		.align	2
  40              		.p2align 4,,15
  41              		.thumb
  42              		.thumb_func
  43              		.type	bmk13_execute, %function
  44              	bmk13_execute:
  45              	.LFB204:
  46              		.loc 1 640 0
  47              		.cfi_startproc
  48              		@ args = 0, pretend = 0, frame = 0
  49              		@ frame_needed = 0, uses_anonymous_args = 0
  50              		.loc 1 642 0
  51 0000 40F20000 		movw	r0, #:lower16:.LC0
  52              		.loc 1 640 0
  53 0004 10B5     		push	{r4, lr}
  54              	.LCFI0:
ARM GAS  /tmp/cc3wakGH.s 			page 2


  55              		.cfi_def_cfa_offset 8
  56              		.cfi_offset 14, -4
  57              		.cfi_offset 4, -8
  58              		.loc 1 642 0
  59 0006 C0F20000 		movt	r0, #:upper16:.LC0
  60              		.loc 1 644 0
  61 000a 40F20004 		movw	r4, #:lower16:.LC1
  62 000e C0F20004 		movt	r4, #:upper16:.LC1
  63              		.loc 1 642 0
  64 0012 FFF7FEFF 		bl	test_print
  65              		.loc 1 643 0
  66 0016 4FF4A870 		mov	r0, #336
  67 001a FFF7FEFF 		bl	test_printn
  68              		.loc 1 644 0
  69 001e 2046     		mov	r0, r4
  70 0020 FFF7FEFF 		bl	test_println
  71              		.loc 1 645 0
  72 0024 40F20000 		movw	r0, #:lower16:.LC2
  73 0028 C0F20000 		movt	r0, #:upper16:.LC2
  74 002c FFF7FEFF 		bl	test_print
  75              		.loc 1 646 0
  76 0030 4420     		movs	r0, #68
  77 0032 FFF7FEFF 		bl	test_printn
  78              		.loc 1 647 0
  79 0036 2046     		mov	r0, r4
  80 0038 FFF7FEFF 		bl	test_println
  81              		.loc 1 648 0
  82 003c 40F20000 		movw	r0, #:lower16:.LC3
  83 0040 C0F20000 		movt	r0, #:upper16:.LC3
  84 0044 FFF7FEFF 		bl	test_print
  85              		.loc 1 649 0
  86 0048 1420     		movs	r0, #20
  87 004a FFF7FEFF 		bl	test_printn
  88              		.loc 1 650 0
  89 004e 2046     		mov	r0, r4
  90 0050 FFF7FEFF 		bl	test_println
  91              		.loc 1 652 0
  92 0054 40F20000 		movw	r0, #:lower16:.LC4
  93 0058 C0F20000 		movt	r0, #:upper16:.LC4
  94 005c FFF7FEFF 		bl	test_print
  95              		.loc 1 653 0
  96 0060 0C20     		movs	r0, #12
  97 0062 FFF7FEFF 		bl	test_printn
  98              		.loc 1 654 0
  99 0066 2046     		mov	r0, r4
 100 0068 FFF7FEFF 		bl	test_println
 101              		.loc 1 657 0
 102 006c 40F20000 		movw	r0, #:lower16:.LC5
 103 0070 C0F20000 		movt	r0, #:upper16:.LC5
 104 0074 FFF7FEFF 		bl	test_print
 105              		.loc 1 658 0
 106 0078 0420     		movs	r0, #4
 107 007a FFF7FEFF 		bl	test_printn
 108              		.loc 1 659 0
 109 007e 2046     		mov	r0, r4
 110 0080 FFF7FEFF 		bl	test_println
 111              		.loc 1 660 0
ARM GAS  /tmp/cc3wakGH.s 			page 3


 112 0084 40F20000 		movw	r0, #:lower16:.LC6
 113 0088 C0F20000 		movt	r0, #:upper16:.LC6
 114 008c FFF7FEFF 		bl	test_print
 115              		.loc 1 661 0
 116 0090 1420     		movs	r0, #20
 117 0092 FFF7FEFF 		bl	test_printn
 118              		.loc 1 662 0
 119 0096 2046     		mov	r0, r4
 120 0098 FFF7FEFF 		bl	test_println
 121              		.loc 1 665 0
 122 009c 40F20000 		movw	r0, #:lower16:.LC7
 123 00a0 C0F20000 		movt	r0, #:upper16:.LC7
 124 00a4 FFF7FEFF 		bl	test_print
 125              		.loc 1 666 0
 126 00a8 1020     		movs	r0, #16
 127 00aa FFF7FEFF 		bl	test_printn
 128              		.loc 1 667 0
 129 00ae 2046     		mov	r0, r4
 130 00b0 FFF7FEFF 		bl	test_println
 131              		.loc 1 670 0
 132 00b4 40F20000 		movw	r0, #:lower16:.LC8
 133 00b8 C0F20000 		movt	r0, #:upper16:.LC8
 134 00bc FFF7FEFF 		bl	test_print
 135              		.loc 1 671 0
 136 00c0 0820     		movs	r0, #8
 137 00c2 FFF7FEFF 		bl	test_printn
 138              		.loc 1 672 0
 139 00c6 2046     		mov	r0, r4
 140 00c8 FFF7FEFF 		bl	test_println
 141              		.loc 1 675 0
 142 00cc 40F20000 		movw	r0, #:lower16:.LC9
 143 00d0 C0F20000 		movt	r0, #:upper16:.LC9
 144 00d4 FFF7FEFF 		bl	test_print
 145              		.loc 1 676 0
 146 00d8 2420     		movs	r0, #36
 147 00da FFF7FEFF 		bl	test_printn
 148              		.loc 1 677 0
 149 00de 2046     		mov	r0, r4
 150 00e0 FFF7FEFF 		bl	test_println
 151              		.loc 1 680 0
 152 00e4 40F20000 		movw	r0, #:lower16:.LC10
 153 00e8 C0F20000 		movt	r0, #:upper16:.LC10
 154 00ec FFF7FEFF 		bl	test_print
 155              		.loc 1 681 0
 156 00f0 2820     		movs	r0, #40
 157 00f2 FFF7FEFF 		bl	test_printn
 158              		.loc 1 682 0
 159 00f6 2046     		mov	r0, r4
 160              		.loc 1 684 0
 161 00f8 BDE81040 		pop	{r4, lr}
 162              		.loc 1 682 0
 163 00fc FFF7FEBF 		b	test_println
 164              		.cfi_endproc
 165              	.LFE204:
 166              		.size	bmk13_execute, .-bmk13_execute
 167              		.section	.text.bmk12_execute,"ax",%progbits
 168              		.align	2
ARM GAS  /tmp/cc3wakGH.s 			page 4


 169              		.p2align 4,,15
 170              		.thumb
 171              		.thumb_func
 172              		.type	bmk12_execute, %function
 173              	bmk12_execute:
 174              	.LFB203:
 175              		.loc 1 601 0
 176              		.cfi_startproc
 177              		@ args = 0, pretend = 0, frame = 0
 178              		@ frame_needed = 0, uses_anonymous_args = 0
 179              	.LVL1:
 180 0000 38B5     		push	{r3, r4, r5, lr}
 181              	.LCFI1:
 182              		.cfi_def_cfa_offset 16
 183              		.cfi_offset 14, -4
 184              		.cfi_offset 5, -8
 185              		.cfi_offset 4, -12
 186              		.cfi_offset 3, -16
 187              		.loc 1 604 0
 188 0002 FFF7FEFF 		bl	test_wait_tick
 189              		.loc 1 605 0
 190 0006 4FF47A70 		mov	r0, #1000
 191 000a FFF7FEFF 		bl	test_start_timer
 192 000e 40F20005 		movw	r5, #:lower16:test_timer_done
 193              		.loc 1 602 0
 194 0012 0024     		movs	r4, #0
 195 0014 C0F20005 		movt	r5, #:upper16:test_timer_done
 196              	.LVL2:
 197              	.L4:
 198              		.loc 1 607 0 discriminator 1
 199 0018 40F20000 		movw	r0, #:lower16:.LANCHOR0
 200 001c C0F20000 		movt	r0, #:upper16:.LANCHOR0
 201 0020 FFF7FEFF 		bl	chMtxLock
 202              		.loc 1 608 0 discriminator 1
 203 0024 40F20000 		movw	r0, #:lower16:.LANCHOR0
 204 0028 C0F20000 		movt	r0, #:upper16:.LANCHOR0
 205 002c FFF7FEFF 		bl	chMtxUnlock
 206              		.loc 1 609 0 discriminator 1
 207 0030 40F20000 		movw	r0, #:lower16:.LANCHOR0
 208 0034 C0F20000 		movt	r0, #:upper16:.LANCHOR0
 209 0038 FFF7FEFF 		bl	chMtxLock
 210              		.loc 1 610 0 discriminator 1
 211 003c 40F20000 		movw	r0, #:lower16:.LANCHOR0
 212 0040 C0F20000 		movt	r0, #:upper16:.LANCHOR0
 213 0044 FFF7FEFF 		bl	chMtxUnlock
 214              		.loc 1 611 0 discriminator 1
 215 0048 40F20000 		movw	r0, #:lower16:.LANCHOR0
 216 004c C0F20000 		movt	r0, #:upper16:.LANCHOR0
 217 0050 FFF7FEFF 		bl	chMtxLock
 218              		.loc 1 612 0 discriminator 1
 219 0054 40F20000 		movw	r0, #:lower16:.LANCHOR0
 220 0058 C0F20000 		movt	r0, #:upper16:.LANCHOR0
 221 005c FFF7FEFF 		bl	chMtxUnlock
 222              		.loc 1 613 0 discriminator 1
 223 0060 40F20000 		movw	r0, #:lower16:.LANCHOR0
 224 0064 C0F20000 		movt	r0, #:upper16:.LANCHOR0
 225 0068 FFF7FEFF 		bl	chMtxLock
ARM GAS  /tmp/cc3wakGH.s 			page 5


 226              		.loc 1 614 0 discriminator 1
 227 006c 40F20000 		movw	r0, #:lower16:.LANCHOR0
 228 0070 C0F20000 		movt	r0, #:upper16:.LANCHOR0
 229 0074 FFF7FEFF 		bl	chMtxUnlock
 230              		.loc 1 619 0 discriminator 1
 231 0078 2B78     		ldrb	r3, [r5, #0]	@ zero_extendqisi2
 232              		.loc 1 615 0 discriminator 1
 233 007a 0134     		adds	r4, r4, #1
 234              	.LVL3:
 235              		.loc 1 619 0 discriminator 1
 236 007c 002B     		cmp	r3, #0
 237 007e CBD0     		beq	.L4
 238              		.loc 1 620 0
 239 0080 40F20000 		movw	r0, #:lower16:.LC11
 240 0084 C0F20000 		movt	r0, #:upper16:.LC11
 241 0088 FFF7FEFF 		bl	test_print
 242              		.loc 1 621 0
 243 008c A000     		lsls	r0, r4, #2
 244 008e FFF7FEFF 		bl	test_printn
 245              		.loc 1 622 0
 246 0092 40F20000 		movw	r0, #:lower16:.LC12
 247 0096 C0F20000 		movt	r0, #:upper16:.LC12
 248              		.loc 1 623 0
 249 009a BDE83840 		pop	{r3, r4, r5, lr}
 250              		.loc 1 622 0
 251 009e FFF7FEBF 		b	test_println
 252              		.cfi_endproc
 253              	.LFE203:
 254              		.size	bmk12_execute, .-bmk12_execute
 255 00a2 00BFAFF3 		.section	.text.bmk12_setup,"ax",%progbits
 255      0080AFF3 
 255      0080AFF3 
 255      0080
 256              		.align	2
 257              		.p2align 4,,15
 258              		.thumb
 259              		.thumb_func
 260              		.type	bmk12_setup, %function
 261              	bmk12_setup:
 262              	.LFB202:
 263              		.loc 1 596 0
 264              		.cfi_startproc
 265              		@ args = 0, pretend = 0, frame = 0
 266              		@ frame_needed = 0, uses_anonymous_args = 0
 267              		@ link register save eliminated.
 268              		.loc 1 598 0
 269 0000 40F20000 		movw	r0, #:lower16:.LANCHOR0
 270 0004 C0F20000 		movt	r0, #:upper16:.LANCHOR0
 271              		.loc 1 599 0
 272              		.loc 1 598 0
 273 0008 FFF7FEBF 		b	chMtxObjectInit
 274              		.cfi_endproc
 275              	.LFE202:
 276              		.size	bmk12_setup, .-bmk12_setup
 277 000c AFF30080 		.section	.text.thread3,"ax",%progbits
 278              		.align	2
 279              		.p2align 4,,15
ARM GAS  /tmp/cc3wakGH.s 			page 6


 280              		.thumb
 281              		.thumb_func
 282              		.type	thread3, %function
 283              	thread3:
 284              	.LFB192:
 285              		.loc 1 345 0
 286              		.cfi_startproc
 287              		@ args = 0, pretend = 0, frame = 0
 288              		@ frame_needed = 0, uses_anonymous_args = 0
 289              	.LVL4:
 290 0000 10B5     		push	{r4, lr}
 291              	.LCFI2:
 292              		.cfi_def_cfa_offset 8
 293              		.cfi_offset 14, -4
 294              		.cfi_offset 4, -8
 295              	.LBB168:
 296              	.LBB169:
 297              	.LBB170:
 298              	.LBB171:
 299              		.file 2 "../../../resources/chibios/ChibiOS_16.1.8/os/rt/include/chthreads.h"
 300              		.loc 2 176 0
 301 0002 40F20004 		movw	r4, #:lower16:ch
 302 0006 C0F20004 		movt	r4, #:upper16:ch
 303              	.LBE171:
 304              	.LBE170:
 305              		.loc 2 233 0
 306 000a A069     		ldr	r0, [r4, #24]
 307              	.LVL5:
 308 000c 437F     		ldrb	r3, [r0, #29]	@ zero_extendqisi2
 309              	.LBE169:
 310              	.LBE168:
 311              		.loc 1 348 0
 312 000e 5A07     		lsls	r2, r3, #29
 313 0010 09D4     		bmi	.L8
 314              	.L11:
 315              		.loc 1 349 0
 316 0012 40F20000 		movw	r0, #:lower16:.LANCHOR1
 317 0016 C0F20000 		movt	r0, #:upper16:.LANCHOR1
 318 001a FFF7FEFF 		bl	chSemWait
 319              	.LBB173:
 320              	.LBB172:
 321              		.loc 2 233 0
 322 001e A269     		ldr	r2, [r4, #24]
 323 0020 517F     		ldrb	r1, [r2, #29]	@ zero_extendqisi2
 324              	.LBE172:
 325              	.LBE173:
 326              		.loc 1 348 0
 327 0022 4B07     		lsls	r3, r1, #29
 328 0024 F5D5     		bpl	.L11
 329              	.L8:
 330 0026 10BD     		pop	{r4, pc}
 331              		.cfi_endproc
 332              	.LFE192:
 333              		.size	thread3, .-thread3
 334 0028 AFF30080 		.section	.text.bmk11_execute,"ax",%progbits
 334      AFF30080 
 335              		.align	2
ARM GAS  /tmp/cc3wakGH.s 			page 7


 336              		.p2align 4,,15
 337              		.thumb
 338              		.thumb_func
 339              		.type	bmk11_execute, %function
 340              	bmk11_execute:
 341              	.LFB201:
 342              		.loc 1 553 0
 343              		.cfi_startproc
 344              		@ args = 0, pretend = 0, frame = 0
 345              		@ frame_needed = 0, uses_anonymous_args = 0
 346              	.LVL6:
 347 0000 38B5     		push	{r3, r4, r5, lr}
 348              	.LCFI3:
 349              		.cfi_def_cfa_offset 16
 350              		.cfi_offset 14, -4
 351              		.cfi_offset 5, -8
 352              		.cfi_offset 4, -12
 353              		.cfi_offset 3, -16
 354              		.loc 1 556 0
 355 0002 FFF7FEFF 		bl	test_wait_tick
 356              		.loc 1 557 0
 357 0006 4FF47A70 		mov	r0, #1000
 358 000a FFF7FEFF 		bl	test_start_timer
 359 000e 40F20005 		movw	r5, #:lower16:test_timer_done
 360              		.loc 1 554 0
 361 0012 0024     		movs	r4, #0
 362 0014 C0F20005 		movt	r5, #:upper16:test_timer_done
 363              	.LVL7:
 364              	.L14:
 365              		.loc 1 559 0 discriminator 1
 366 0018 40F20000 		movw	r0, #:lower16:.LANCHOR1
 367 001c C0F20000 		movt	r0, #:upper16:.LANCHOR1
 368 0020 FFF7FEFF 		bl	chSemWait
 369              		.loc 1 560 0 discriminator 1
 370 0024 40F20000 		movw	r0, #:lower16:.LANCHOR1
 371 0028 C0F20000 		movt	r0, #:upper16:.LANCHOR1
 372 002c FFF7FEFF 		bl	chSemSignal
 373              		.loc 1 561 0 discriminator 1
 374 0030 40F20000 		movw	r0, #:lower16:.LANCHOR1
 375 0034 C0F20000 		movt	r0, #:upper16:.LANCHOR1
 376 0038 FFF7FEFF 		bl	chSemWait
 377              		.loc 1 562 0 discriminator 1
 378 003c 40F20000 		movw	r0, #:lower16:.LANCHOR1
 379 0040 C0F20000 		movt	r0, #:upper16:.LANCHOR1
 380 0044 FFF7FEFF 		bl	chSemSignal
 381              		.loc 1 563 0 discriminator 1
 382 0048 40F20000 		movw	r0, #:lower16:.LANCHOR1
 383 004c C0F20000 		movt	r0, #:upper16:.LANCHOR1
 384 0050 FFF7FEFF 		bl	chSemWait
 385              		.loc 1 564 0 discriminator 1
 386 0054 40F20000 		movw	r0, #:lower16:.LANCHOR1
 387 0058 C0F20000 		movt	r0, #:upper16:.LANCHOR1
 388 005c FFF7FEFF 		bl	chSemSignal
 389              		.loc 1 565 0 discriminator 1
 390 0060 40F20000 		movw	r0, #:lower16:.LANCHOR1
 391 0064 C0F20000 		movt	r0, #:upper16:.LANCHOR1
 392 0068 FFF7FEFF 		bl	chSemWait
ARM GAS  /tmp/cc3wakGH.s 			page 8


 393              		.loc 1 566 0 discriminator 1
 394 006c 40F20000 		movw	r0, #:lower16:.LANCHOR1
 395 0070 C0F20000 		movt	r0, #:upper16:.LANCHOR1
 396 0074 FFF7FEFF 		bl	chSemSignal
 397              		.loc 1 571 0 discriminator 1
 398 0078 2B78     		ldrb	r3, [r5, #0]	@ zero_extendqisi2
 399              		.loc 1 567 0 discriminator 1
 400 007a 0134     		adds	r4, r4, #1
 401              	.LVL8:
 402              		.loc 1 571 0 discriminator 1
 403 007c 002B     		cmp	r3, #0
 404 007e CBD0     		beq	.L14
 405              		.loc 1 572 0
 406 0080 40F20000 		movw	r0, #:lower16:.LC11
 407 0084 C0F20000 		movt	r0, #:upper16:.LC11
 408 0088 FFF7FEFF 		bl	test_print
 409              		.loc 1 573 0
 410 008c A000     		lsls	r0, r4, #2
 411 008e FFF7FEFF 		bl	test_printn
 412              		.loc 1 574 0
 413 0092 40F20000 		movw	r0, #:lower16:.LC13
 414 0096 C0F20000 		movt	r0, #:upper16:.LC13
 415              		.loc 1 575 0
 416 009a BDE83840 		pop	{r3, r4, r5, lr}
 417              		.loc 1 574 0
 418 009e FFF7FEBF 		b	test_println
 419              		.cfi_endproc
 420              	.LFE201:
 421              		.size	bmk11_execute, .-bmk11_execute
 422 00a2 00BFAFF3 		.section	.text.bmk11_setup,"ax",%progbits
 422      0080AFF3 
 422      0080AFF3 
 422      0080
 423              		.align	2
 424              		.p2align 4,,15
 425              		.thumb
 426              		.thumb_func
 427              		.type	bmk11_setup, %function
 428              	bmk11_setup:
 429              	.LFB200:
 430              		.loc 1 548 0
 431              		.cfi_startproc
 432              		@ args = 0, pretend = 0, frame = 0
 433              		@ frame_needed = 0, uses_anonymous_args = 0
 434              		@ link register save eliminated.
 435              		.loc 1 550 0
 436 0000 40F20000 		movw	r0, #:lower16:.LANCHOR1
 437 0004 C0F20000 		movt	r0, #:upper16:.LANCHOR1
 438 0008 0121     		movs	r1, #1
 439              		.loc 1 551 0
 440              		.loc 1 550 0
 441 000a FFF7FEBF 		b	chSemObjectInit
 442              		.cfi_endproc
 443              	.LFE200:
 444              		.size	bmk11_setup, .-bmk11_setup
 445 000e 00BF     		.section	.text.bmk7_setup,"ax",%progbits
 446              		.align	2
ARM GAS  /tmp/cc3wakGH.s 			page 9


 447              		.p2align 4,,15
 448              		.thumb
 449              		.thumb_func
 450              		.type	bmk7_setup, %function
 451              	bmk7_setup:
 452              	.LFB193:
 453              		.loc 1 352 0
 454              		.cfi_startproc
 455              		@ args = 0, pretend = 0, frame = 0
 456              		@ frame_needed = 0, uses_anonymous_args = 0
 457              		@ link register save eliminated.
 458              		.loc 1 354 0
 459 0000 40F20000 		movw	r0, #:lower16:.LANCHOR1
 460 0004 C0F20000 		movt	r0, #:upper16:.LANCHOR1
 461 0008 0021     		movs	r1, #0
 462              		.loc 1 355 0
 463              		.loc 1 354 0
 464 000a FFF7FEBF 		b	chSemObjectInit
 465              		.cfi_endproc
 466              	.LFE193:
 467              		.size	bmk7_setup, .-bmk7_setup
 468 000e 00BF     		.section	.text.bmk10_execute,"ax",%progbits
 469              		.align	2
 470              		.p2align 4,,15
 471              		.thumb
 472              		.thumb_func
 473              		.type	bmk10_execute, %function
 474              	bmk10_execute:
 475              	.LFB199:
 476              		.loc 1 507 0
 477              		.cfi_startproc
 478              		@ args = 0, pretend = 0, frame = 0
 479              		@ frame_needed = 0, uses_anonymous_args = 0
 480              	.LVL9:
 481 0000 70B5     		push	{r4, r5, r6, lr}
 482              	.LCFI4:
 483              		.cfi_def_cfa_offset 16
 484              		.cfi_offset 14, -4
 485              		.cfi_offset 6, -8
 486              		.cfi_offset 5, -12
 487              		.cfi_offset 4, -16
 488              		.loc 1 511 0
 489 0002 FFF7FEFF 		bl	test_wait_tick
 490              		.loc 1 512 0
 491 0006 4FF47A70 		mov	r0, #1000
 492 000a FFF7FEFF 		bl	test_start_timer
 493 000e 40F20005 		movw	r5, #:lower16:test_timer_done
 494              		.loc 1 509 0
 495 0012 0024     		movs	r4, #0
 496 0014 C0F20005 		movt	r5, #:upper16:test_timer_done
 497              	.LBB174:
 498              	.LBB175:
 499              	.LBB176:
 500              	.LBB177:
 501              		.file 3 "../../../resources/chibios/ChibiOS_16.1.8/os/ext/CMSIS/include/core_cmFunc.h"
 502              		.loc 3 548 0
 503 0018 2026     		movs	r6, #32
ARM GAS  /tmp/cc3wakGH.s 			page 10


 504              	.LVL10:
 505              	.L19:
 506              		.loc 3 548 0 is_stmt 0 discriminator 1
 507              	@ 548 "../../../resources/chibios/ChibiOS_16.1.8/os/ext/CMSIS/include/core_cmFunc.h" 1
 508 001a 86F31188 		MSR basepri, r6
 509              	@ 0 "" 2
 510              		.thumb
 511              	.LBE177:
 512              	.LBE176:
 513              	.LBE175:
 514              	.LBE174:
 515              		.loc 1 515 0 is_stmt 1 discriminator 1
 516 001e 40F20000 		movw	r0, #:lower16:.LANCHOR2
 517 0022 40F20002 		movw	r2, #:lower16:tmo
 518 0026 0121     		movs	r1, #1
 519 0028 0023     		movs	r3, #0
 520 002a C0F20000 		movt	r0, #:upper16:.LANCHOR2
 521 002e C0F20002 		movt	r2, #:upper16:tmo
 522 0032 FFF7FEFF 		bl	chVTDoSetI
 523              		.loc 1 516 0 discriminator 1
 524 0036 40F20000 		movw	r0, #:lower16:.LANCHOR3
 525 003a 40F20002 		movw	r2, #:lower16:tmo
 526 003e 42F21071 		movw	r1, #10000
 527 0042 C0F20002 		movt	r2, #:upper16:tmo
 528 0046 0023     		movs	r3, #0
 529 0048 C0F20000 		movt	r0, #:upper16:.LANCHOR3
 530 004c FFF7FEFF 		bl	chVTDoSetI
 531              		.loc 1 517 0 discriminator 1
 532 0050 40F20000 		movw	r0, #:lower16:.LANCHOR2
 533 0054 C0F20000 		movt	r0, #:upper16:.LANCHOR2
 534 0058 FFF7FEFF 		bl	chVTDoResetI
 535              		.loc 1 518 0 discriminator 1
 536 005c 40F20000 		movw	r0, #:lower16:.LANCHOR3
 537 0060 C0F20000 		movt	r0, #:upper16:.LANCHOR3
 538 0064 FFF7FEFF 		bl	chVTDoResetI
 539              	.LVL11:
 540              	.LBB178:
 541              	.LBB179:
 542              	.LBB180:
 543              	.LBB181:
 544              	.LBB182:
 545              		.loc 3 548 0 discriminator 1
 546 0068 0020     		movs	r0, #0
 547              	@ 548 "../../../resources/chibios/ChibiOS_16.1.8/os/ext/CMSIS/include/core_cmFunc.h" 1
 548 006a 80F31188 		MSR basepri, r0
 549              	@ 0 "" 2
 550              		.thumb
 551              	.LBE182:
 552              	.LBE181:
 553              	.LBE180:
 554              	.LBE179:
 555              	.LBE178:
 556              		.loc 1 524 0 discriminator 1
 557 006e 2B78     		ldrb	r3, [r5, #0]	@ zero_extendqisi2
 558              		.loc 1 520 0 discriminator 1
 559 0070 0134     		adds	r4, r4, #1
 560              	.LVL12:
ARM GAS  /tmp/cc3wakGH.s 			page 11


 561              		.loc 1 524 0 discriminator 1
 562 0072 002B     		cmp	r3, #0
 563 0074 D1D0     		beq	.L19
 564              		.loc 1 525 0
 565 0076 40F20000 		movw	r0, #:lower16:.LC11
 566 007a C0F20000 		movt	r0, #:upper16:.LC11
 567 007e FFF7FEFF 		bl	test_print
 568              		.loc 1 526 0
 569 0082 6000     		lsls	r0, r4, #1
 570 0084 FFF7FEFF 		bl	test_printn
 571              		.loc 1 527 0
 572 0088 40F20000 		movw	r0, #:lower16:.LC14
 573 008c C0F20000 		movt	r0, #:upper16:.LC14
 574              		.loc 1 528 0
 575 0090 BDE87040 		pop	{r4, r5, r6, lr}
 576              		.loc 1 527 0
 577 0094 FFF7FEBF 		b	test_println
 578              		.cfi_endproc
 579              	.LFE199:
 580              		.size	bmk10_execute, .-bmk10_execute
 581 0098 AFF30080 		.section	.text.bmk9_execute,"ax",%progbits
 581      AFF30080 
 582              		.align	2
 583              		.p2align 4,,15
 584              		.thumb
 585              		.thumb_func
 586              		.type	bmk9_execute, %function
 587              	bmk9_execute:
 588              	.LFB197:
 589              		.loc 1 458 0
 590              		.cfi_startproc
 591              		@ args = 0, pretend = 0, frame = 0
 592              		@ frame_needed = 0, uses_anonymous_args = 0
 593 0000 F0B5     		push	{r4, r5, r6, r7, lr}
 594              	.LCFI5:
 595              		.cfi_def_cfa_offset 20
 596              		.cfi_offset 14, -4
 597              		.cfi_offset 7, -8
 598              		.cfi_offset 6, -12
 599              		.cfi_offset 5, -16
 600              		.cfi_offset 4, -20
 601              		.loc 1 463 0
 602 0002 40F20000 		movw	r0, #:lower16:.LANCHOR4
 603 0006 0024     		movs	r4, #0
 604 0008 40F20001 		movw	r1, #:lower16:.LANCHOR5
 605              		.loc 1 458 0
 606 000c 83B0     		sub	sp, sp, #12
 607              	.LCFI6:
 608              		.cfi_def_cfa_offset 32
 609              		.loc 1 463 0
 610 000e C0F20001 		movt	r1, #:upper16:.LANCHOR5
 611 0012 1022     		movs	r2, #16
 612 0014 2346     		mov	r3, r4
 613 0016 C0F20000 		movt	r0, #:upper16:.LANCHOR4
 614 001a 0094     		str	r4, [sp, #0]
 615 001c FFF7FEFF 		bl	chIQObjectInit
 616              	.LVL13:
ARM GAS  /tmp/cc3wakGH.s 			page 12


 617              		.loc 1 465 0
 618 0020 FFF7FEFF 		bl	test_wait_tick
 619              		.loc 1 466 0
 620 0024 4FF47A70 		mov	r0, #1000
 621 0028 FFF7FEFF 		bl	test_start_timer
 622 002c 40F20005 		movw	r5, #:lower16:test_timer_done
 623 0030 C0F20005 		movt	r5, #:upper16:test_timer_done
 624              	.LBB183:
 625              	.LBB184:
 626              	.LBB185:
 627              	.LBB186:
 628              		.loc 3 548 0
 629 0034 2027     		movs	r7, #32
 630              	.LBE186:
 631              	.LBE185:
 632              	.LBE184:
 633              	.LBE183:
 634              		.loc 1 469 0
 635 0036 2646     		mov	r6, r4
 636              	.LVL14:
 637              	.L22:
 638              	.LBB190:
 639              	.LBB189:
 640              	.LBB188:
 641              	.LBB187:
 642              		.loc 3 548 0 discriminator 1
 643              	@ 548 "../../../resources/chibios/ChibiOS_16.1.8/os/ext/CMSIS/include/core_cmFunc.h" 1
 644 0038 87F31188 		MSR basepri, r7
 645              	@ 0 "" 2
 646              		.thumb
 647              	.LBE187:
 648              	.LBE188:
 649              	.LBE189:
 650              	.LBE190:
 651              		.loc 1 469 0 discriminator 1
 652 003c 40F20000 		movw	r0, #:lower16:.LANCHOR4
 653 0040 0021     		movs	r1, #0
 654 0042 C0F20000 		movt	r0, #:upper16:.LANCHOR4
 655 0046 FFF7FEFF 		bl	chIQPutI
 656              		.loc 1 470 0 discriminator 1
 657 004a 40F20000 		movw	r0, #:lower16:.LANCHOR4
 658 004e 0121     		movs	r1, #1
 659 0050 C0F20000 		movt	r0, #:upper16:.LANCHOR4
 660 0054 FFF7FEFF 		bl	chIQPutI
 661              		.loc 1 471 0 discriminator 1
 662 0058 40F20000 		movw	r0, #:lower16:.LANCHOR4
 663 005c 0221     		movs	r1, #2
 664 005e C0F20000 		movt	r0, #:upper16:.LANCHOR4
 665 0062 FFF7FEFF 		bl	chIQPutI
 666              		.loc 1 472 0 discriminator 1
 667 0066 40F20000 		movw	r0, #:lower16:.LANCHOR4
 668 006a 0321     		movs	r1, #3
 669 006c C0F20000 		movt	r0, #:upper16:.LANCHOR4
 670 0070 FFF7FEFF 		bl	chIQPutI
 671              	.LVL15:
 672              	.LBB191:
 673              	.LBB192:
ARM GAS  /tmp/cc3wakGH.s 			page 13


 674              	.LBB193:
 675              	.LBB194:
 676              	.LBB195:
 677              		.loc 3 548 0 discriminator 1
 678              	@ 548 "../../../resources/chibios/ChibiOS_16.1.8/os/ext/CMSIS/include/core_cmFunc.h" 1
 679 0074 86F31188 		MSR basepri, r6
 680              	@ 0 "" 2
 681              	.LVL16:
 682              		.thumb
 683              	.LBE195:
 684              	.LBE194:
 685              	.LBE193:
 686              	.LBE192:
 687              	.LBE191:
 688              	.LBB196:
 689              	.LBB197:
 690              		.file 4 "../../../resources/chibios/ChibiOS_16.1.8/os/rt/include/chqueues.h"
 691              		.loc 4 343 0 discriminator 1
 692 0078 40F20000 		movw	r0, #:lower16:.LANCHOR4
 693 007c 4FF6FF71 		movw	r1, #65535
 694 0080 C0F20000 		movt	r0, #:upper16:.LANCHOR4
 695 0084 FFF7FEFF 		bl	chIQGetTimeout
 696              	.LVL17:
 697              	.LBE197:
 698              	.LBE196:
 699              	.LBB198:
 700              	.LBB199:
 701 0088 40F20000 		movw	r0, #:lower16:.LANCHOR4
 702 008c 4FF6FF71 		movw	r1, #65535
 703 0090 C0F20000 		movt	r0, #:upper16:.LANCHOR4
 704 0094 FFF7FEFF 		bl	chIQGetTimeout
 705              	.LVL18:
 706              	.LBE199:
 707              	.LBE198:
 708              	.LBB200:
 709              	.LBB201:
 710 0098 40F20000 		movw	r0, #:lower16:.LANCHOR4
 711 009c 4FF6FF71 		movw	r1, #65535
 712 00a0 C0F20000 		movt	r0, #:upper16:.LANCHOR4
 713 00a4 FFF7FEFF 		bl	chIQGetTimeout
 714              	.LVL19:
 715              	.LBE201:
 716              	.LBE200:
 717              	.LBB202:
 718              	.LBB203:
 719 00a8 40F20000 		movw	r0, #:lower16:.LANCHOR4
 720 00ac C0F20000 		movt	r0, #:upper16:.LANCHOR4
 721 00b0 4FF6FF71 		movw	r1, #65535
 722 00b4 FFF7FEFF 		bl	chIQGetTimeout
 723              	.LBE203:
 724              	.LBE202:
 725              		.loc 1 482 0 discriminator 1
 726 00b8 2B78     		ldrb	r3, [r5, #0]	@ zero_extendqisi2
 727              		.loc 1 478 0 discriminator 1
 728 00ba 0134     		adds	r4, r4, #1
 729              	.LVL20:
 730              		.loc 1 482 0 discriminator 1
ARM GAS  /tmp/cc3wakGH.s 			page 14


 731 00bc 002B     		cmp	r3, #0
 732 00be BBD0     		beq	.L22
 733              		.loc 1 483 0
 734 00c0 40F20000 		movw	r0, #:lower16:.LC11
 735 00c4 C0F20000 		movt	r0, #:upper16:.LC11
 736 00c8 FFF7FEFF 		bl	test_print
 737              		.loc 1 484 0
 738 00cc A000     		lsls	r0, r4, #2
 739 00ce FFF7FEFF 		bl	test_printn
 740              		.loc 1 485 0
 741 00d2 40F20000 		movw	r0, #:lower16:.LC15
 742 00d6 C0F20000 		movt	r0, #:upper16:.LC15
 743              		.loc 1 486 0
 744 00da 03B0     		add	sp, sp, #12
 745 00dc BDE8F040 		pop	{r4, r5, r6, r7, lr}
 746              		.loc 1 485 0
 747 00e0 FFF7FEBF 		b	test_println
 748              		.cfi_endproc
 749              	.LFE197:
 750              		.size	bmk9_execute, .-bmk9_execute
 751 00e4 AFF30080 		.section	.text.bmk6_execute,"ax",%progbits
 751      AFF30080 
 751      AFF30080 
 752              		.align	2
 753              		.p2align 4,,15
 754              		.thumb
 755              		.thumb_func
 756              		.type	bmk6_execute, %function
 757              	bmk6_execute:
 758              	.LFB191:
 759              		.loc 1 307 0
 760              		.cfi_startproc
 761              		@ args = 0, pretend = 0, frame = 0
 762              		@ frame_needed = 0, uses_anonymous_args = 0
 763              	.LVL21:
 764 0000 2DE9F041 		push	{r4, r5, r6, r7, r8, lr}
 765              	.LCFI7:
 766              		.cfi_def_cfa_offset 24
 767              		.cfi_offset 14, -4
 768              		.cfi_offset 8, -8
 769              		.cfi_offset 7, -12
 770              		.cfi_offset 6, -16
 771              		.cfi_offset 5, -20
 772              		.cfi_offset 4, -24
 773              	.LBB204:
 774              	.LBB205:
 775              	.LBB206:
 776              	.LBB207:
 777              		.loc 2 176 0
 778 0004 40F20000 		movw	r0, #:lower16:ch
 779 0008 C0F20000 		movt	r0, #:upper16:ch
 780              	.LBE207:
 781              	.LBE206:
 782              		.loc 2 189 0
 783 000c 8269     		ldr	r2, [r0, #24]
 784              	.LBE205:
 785              	.LBE204:
ARM GAS  /tmp/cc3wakGH.s 			page 15


 786              		.loc 1 310 0
 787 000e 40F20003 		movw	r3, #:lower16:wa
 788 0012 C0F20003 		movt	r3, #:upper16:wa
 789              		.loc 1 307 0
 790 0016 82B0     		sub	sp, sp, #8
 791              	.LCFI8:
 792              		.cfi_def_cfa_offset 32
 793              		.loc 1 311 0
 794 0018 9768     		ldr	r7, [r2, #8]
 795              		.loc 1 310 0
 796 001a D3F80080 		ldr	r8, [r3, #0]
 797              	.LVL22:
 798              		.loc 1 312 0
 799 001e FFF7FEFF 		bl	test_wait_tick
 800              	.LVL23:
 801              		.loc 1 313 0
 802 0022 4FF47A70 		mov	r0, #1000
 803 0026 FFF7FEFF 		bl	test_start_timer
 804              		.loc 1 309 0
 805 002a 0024     		movs	r4, #0
 806 002c 40F20005 		movw	r5, #:lower16:test_timer_done
 807              		.loc 1 311 0
 808 0030 0137     		adds	r7, r7, #1
 809              	.LVL24:
 810 0032 C0F20005 		movt	r5, #:upper16:test_timer_done
 811              		.loc 1 315 0
 812 0036 2646     		mov	r6, r4
 813              	.LVL25:
 814              	.L25:
 815              		.loc 1 315 0 is_stmt 0 discriminator 1
 816 0038 40F20003 		movw	r3, #:lower16:thread1
 817 003c 4FF4A471 		mov	r1, #328
 818 0040 4046     		mov	r0, r8
 819 0042 3A46     		mov	r2, r7
 820 0044 C0F20003 		movt	r3, #:upper16:thread1
 821 0048 0096     		str	r6, [sp, #0]
 822 004a FFF7FEFF 		bl	chThdCreateStatic
 823              		.loc 1 320 0 is_stmt 1 discriminator 1
 824 004e 2978     		ldrb	r1, [r5, #0]	@ zero_extendqisi2
 825              		.loc 1 316 0 discriminator 1
 826 0050 0134     		adds	r4, r4, #1
 827              	.LVL26:
 828              		.loc 1 320 0 discriminator 1
 829 0052 0029     		cmp	r1, #0
 830 0054 F0D0     		beq	.L25
 831              		.loc 1 321 0
 832 0056 40F20000 		movw	r0, #:lower16:.LC11
 833 005a C0F20000 		movt	r0, #:upper16:.LC11
 834 005e FFF7FEFF 		bl	test_print
 835              		.loc 1 322 0
 836 0062 2046     		mov	r0, r4
 837 0064 FFF7FEFF 		bl	test_printn
 838              		.loc 1 323 0
 839 0068 40F20000 		movw	r0, #:lower16:.LC16
 840 006c C0F20000 		movt	r0, #:upper16:.LC16
 841              		.loc 1 324 0
 842 0070 02B0     		add	sp, sp, #8
ARM GAS  /tmp/cc3wakGH.s 			page 16


 843 0072 BDE8F041 		pop	{r4, r5, r6, r7, r8, lr}
 844              		.loc 1 323 0
 845 0076 FFF7FEBF 		b	test_println
 846              		.cfi_endproc
 847              	.LFE191:
 848              		.size	bmk6_execute, .-bmk6_execute
 849 007a 00BFAFF3 		.section	.text.bmk8_execute,"ax",%progbits
 849      0080
 850              		.align	2
 851              		.p2align 4,,15
 852              		.thumb
 853              		.thumb_func
 854              		.type	bmk8_execute, %function
 855              	bmk8_execute:
 856              	.LFB196:
 857              		.loc 1 419 0
 858              		.cfi_startproc
 859              		@ args = 0, pretend = 0, frame = 8
 860              		@ frame_needed = 0, uses_anonymous_args = 0
 861 0000 2DE9F041 		push	{r4, r5, r6, r7, r8, lr}
 862              	.LCFI9:
 863              		.cfi_def_cfa_offset 24
 864              		.cfi_offset 14, -4
 865              		.cfi_offset 8, -8
 866              		.cfi_offset 7, -12
 867              		.cfi_offset 6, -16
 868              		.cfi_offset 5, -20
 869              		.cfi_offset 4, -24
 870              	.LBB208:
 871              	.LBB209:
 872              	.LBB210:
 873              	.LBB211:
 874              		.loc 2 176 0
 875 0004 40F20007 		movw	r7, #:lower16:ch
 876              	.LBE211:
 877              	.LBE210:
 878              	.LBE209:
 879              	.LBE208:
 880              		.loc 1 419 0
 881 0008 84B0     		sub	sp, sp, #16
 882              	.LCFI10:
 883              		.cfi_def_cfa_offset 40
 884              		.loc 1 422 0
 885 000a 04AC     		add	r4, sp, #16
 886              	.LBB216:
 887              	.LBB214:
 888              	.LBB213:
 889              	.LBB212:
 890              		.loc 2 176 0
 891 000c C0F20007 		movt	r7, #:upper16:ch
 892              	.LBE212:
 893              	.LBE213:
 894              	.LBE214:
 895              	.LBE216:
 896              		.loc 1 422 0
 897 0010 0025     		movs	r5, #0
 898 0012 44F8045D 		str	r5, [r4, #-4]!
ARM GAS  /tmp/cc3wakGH.s 			page 17


 899              	.LVL27:
 900              		.loc 1 423 0
 901 0016 FFF7FEFF 		bl	test_wait_tick
 902              	.LBB217:
 903              	.LBB215:
 904              		.loc 2 189 0
 905 001a B869     		ldr	r0, [r7, #24]
 906              	.LBE215:
 907              	.LBE217:
 908              		.loc 1 425 0
 909 001c 40F20006 		movw	r6, #:lower16:wa
 910 0020 8268     		ldr	r2, [r0, #8]
 911 0022 40F20005 		movw	r5, #:lower16:thread8
 912 0026 C0F20005 		movt	r5, #:upper16:thread8
 913 002a C0F20006 		movt	r6, #:upper16:wa
 914 002e 013A     		subs	r2, r2, #1
 915 0030 2B46     		mov	r3, r5
 916 0032 3068     		ldr	r0, [r6, #0]
 917 0034 4FF4A471 		mov	r1, #328
 918 0038 0094     		str	r4, [sp, #0]
 919 003a FFF7FEFF 		bl	chThdCreateStatic
 920              	.LBB218:
 921              	.LBB219:
 922              		.loc 2 189 0
 923 003e B969     		ldr	r1, [r7, #24]
 924              	.LBE219:
 925              	.LBE218:
 926              		.loc 1 426 0
 927 0040 D6F804E0 		ldr	lr, [r6, #4]
 928 0044 8B68     		ldr	r3, [r1, #8]
 929              		.loc 1 425 0
 930 0046 40F20008 		movw	r8, #:lower16:threads
 931 004a C0F20008 		movt	r8, #:upper16:threads
 932              		.loc 1 426 0
 933 004e 5A1E     		subs	r2, r3, #1
 934              		.loc 1 425 0
 935 0050 C8F80000 		str	r0, [r8, #0]
 936              		.loc 1 426 0
 937 0054 2B46     		mov	r3, r5
 938 0056 7046     		mov	r0, lr
 939 0058 4FF4A471 		mov	r1, #328
 940 005c 0094     		str	r4, [sp, #0]
 941 005e FFF7FEFF 		bl	chThdCreateStatic
 942              	.LBB220:
 943              	.LBB221:
 944              		.loc 2 189 0
 945 0062 BA69     		ldr	r2, [r7, #24]
 946              	.LBE221:
 947              	.LBE220:
 948              		.loc 1 427 0
 949 0064 D6F808C0 		ldr	ip, [r6, #8]
 950 0068 9368     		ldr	r3, [r2, #8]
 951 006a 4FF4A471 		mov	r1, #328
 952 006e 5A1E     		subs	r2, r3, #1
 953              		.loc 1 426 0
 954 0070 C8F80400 		str	r0, [r8, #4]
 955              		.loc 1 427 0
ARM GAS  /tmp/cc3wakGH.s 			page 18


 956 0074 2B46     		mov	r3, r5
 957 0076 6046     		mov	r0, ip
 958 0078 0094     		str	r4, [sp, #0]
 959 007a FFF7FEFF 		bl	chThdCreateStatic
 960              	.LBB222:
 961              	.LBB223:
 962              		.loc 2 189 0
 963 007e B969     		ldr	r1, [r7, #24]
 964              	.LBE223:
 965              	.LBE222:
 966              		.loc 1 428 0
 967 0080 D6F80CE0 		ldr	lr, [r6, #12]
 968 0084 8A68     		ldr	r2, [r1, #8]
 969 0086 2B46     		mov	r3, r5
 970              		.loc 1 427 0
 971 0088 C8F80800 		str	r0, [r8, #8]
 972              		.loc 1 428 0
 973 008c 013A     		subs	r2, r2, #1
 974 008e 7046     		mov	r0, lr
 975 0090 4FF4A471 		mov	r1, #328
 976 0094 0094     		str	r4, [sp, #0]
 977 0096 FFF7FEFF 		bl	chThdCreateStatic
 978              	.LBB224:
 979              	.LBB225:
 980              		.loc 2 189 0
 981 009a BB69     		ldr	r3, [r7, #24]
 982              	.LBE225:
 983              	.LBE224:
 984              		.loc 1 429 0
 985 009c 3669     		ldr	r6, [r6, #16]
 986 009e 9A68     		ldr	r2, [r3, #8]
 987 00a0 4FF4A471 		mov	r1, #328
 988 00a4 013A     		subs	r2, r2, #1
 989 00a6 2B46     		mov	r3, r5
 990              		.loc 1 428 0
 991 00a8 C8F80C00 		str	r0, [r8, #12]
 992              		.loc 1 429 0
 993 00ac 3046     		mov	r0, r6
 994 00ae 0094     		str	r4, [sp, #0]
 995 00b0 FFF7FEFF 		bl	chThdCreateStatic
 996 00b4 C8F81000 		str	r0, [r8, #16]
 997              		.loc 1 431 0
 998 00b8 4FF47A70 		mov	r0, #1000
 999 00bc FFF7FEFF 		bl	chThdSleep
 1000              		.loc 1 432 0
 1001 00c0 FFF7FEFF 		bl	test_terminate_threads
 1002              		.loc 1 433 0
 1003 00c4 FFF7FEFF 		bl	test_wait_threads
 1004              		.loc 1 435 0
 1005 00c8 40F20000 		movw	r0, #:lower16:.LC11
 1006 00cc C0F20000 		movt	r0, #:upper16:.LC11
 1007 00d0 FFF7FEFF 		bl	test_print
 1008              		.loc 1 436 0
 1009 00d4 0398     		ldr	r0, [sp, #12]
 1010 00d6 FFF7FEFF 		bl	test_printn
 1011              		.loc 1 437 0
 1012 00da 40F20000 		movw	r0, #:lower16:.LC17
ARM GAS  /tmp/cc3wakGH.s 			page 19


 1013 00de C0F20000 		movt	r0, #:upper16:.LC17
 1014 00e2 FFF7FEFF 		bl	test_println
 1015              		.loc 1 438 0
 1016 00e6 04B0     		add	sp, sp, #16
 1017 00e8 BDE8F081 		pop	{r4, r5, r6, r7, r8, pc}
 1018              		.cfi_endproc
 1019              	.LFE196:
 1020              		.size	bmk8_execute, .-bmk8_execute
 1021 00ec AFF30080 		.section	.text.thread8,"ax",%progbits
 1022              		.align	2
 1023              		.p2align 4,,15
 1024              		.thumb
 1025              		.thumb_func
 1026              		.type	thread8, %function
 1027              	thread8:
 1028              	.LFB195:
 1029              		.loc 1 405 0
 1030              		.cfi_startproc
 1031              		@ args = 0, pretend = 0, frame = 0
 1032              		@ frame_needed = 0, uses_anonymous_args = 0
 1033              	.LVL28:
 1034 0000 38B5     		push	{r3, r4, r5, lr}
 1035              	.LCFI11:
 1036              		.cfi_def_cfa_offset 16
 1037              		.cfi_offset 14, -4
 1038              		.cfi_offset 5, -8
 1039              		.cfi_offset 4, -12
 1040              		.cfi_offset 3, -16
 1041 0002 40F20004 		movw	r4, #:lower16:ch
 1042              		.loc 1 405 0
 1043 0006 0546     		mov	r5, r0
 1044 0008 C0F20004 		movt	r4, #:upper16:ch
 1045              	.LVL29:
 1046              	.L29:
 1047              		.loc 1 408 0 discriminator 1
 1048 000c FFF7FEFF 		bl	chThdYield
 1049              		.loc 1 409 0 discriminator 1
 1050 0010 FFF7FEFF 		bl	chThdYield
 1051              		.loc 1 410 0 discriminator 1
 1052 0014 FFF7FEFF 		bl	chThdYield
 1053              		.loc 1 411 0 discriminator 1
 1054 0018 FFF7FEFF 		bl	chThdYield
 1055              		.loc 1 412 0 discriminator 1
 1056 001c 2968     		ldr	r1, [r5, #0]
 1057              	.LBB226:
 1058              	.LBB227:
 1059              		.loc 2 233 0 discriminator 1
 1060 001e A069     		ldr	r0, [r4, #24]
 1061              	.LBE227:
 1062              	.LBE226:
 1063              		.loc 1 412 0 discriminator 1
 1064 0020 0A1D     		adds	r2, r1, #4
 1065 0022 2A60     		str	r2, [r5, #0]
 1066              	.LBB229:
 1067              	.LBB228:
 1068              		.loc 2 233 0 discriminator 1
 1069 0024 437F     		ldrb	r3, [r0, #29]	@ zero_extendqisi2
ARM GAS  /tmp/cc3wakGH.s 			page 20


 1070              	.LBE228:
 1071              	.LBE229:
 1072              		.loc 1 416 0 discriminator 1
 1073 0026 5907     		lsls	r1, r3, #29
 1074 0028 F0D5     		bpl	.L29
 1075              		.loc 1 417 0
 1076 002a 38BD     		pop	{r3, r4, r5, pc}
 1077              		.cfi_endproc
 1078              	.LFE195:
 1079              		.size	thread8, .-thread8
 1080 002c AFF30080 		.section	.text.bmk7_execute,"ax",%progbits
 1081              		.align	2
 1082              		.p2align 4,,15
 1083              		.thumb
 1084              		.thumb_func
 1085              		.type	bmk7_execute, %function
 1086              	bmk7_execute:
 1087              	.LFB194:
 1088              		.loc 1 357 0
 1089              		.cfi_startproc
 1090              		@ args = 0, pretend = 0, frame = 0
 1091              		@ frame_needed = 0, uses_anonymous_args = 0
 1092 0000 F0B5     		push	{r4, r5, r6, r7, lr}
 1093              	.LCFI12:
 1094              		.cfi_def_cfa_offset 20
 1095              		.cfi_offset 14, -4
 1096              		.cfi_offset 7, -8
 1097              		.cfi_offset 6, -12
 1098              		.cfi_offset 5, -16
 1099              		.cfi_offset 4, -20
 1100              	.LBB230:
 1101              	.LBB231:
 1102              	.LBB232:
 1103              	.LBB233:
 1104              		.loc 2 176 0
 1105 0002 40F20006 		movw	r6, #:lower16:ch
 1106 0006 C0F20006 		movt	r6, #:upper16:ch
 1107              	.LBE233:
 1108              	.LBE232:
 1109              		.loc 2 189 0
 1110 000a B069     		ldr	r0, [r6, #24]
 1111              	.LBE231:
 1112              	.LBE230:
 1113              		.loc 1 360 0
 1114 000c 40F20005 		movw	r5, #:lower16:wa
 1115 0010 8268     		ldr	r2, [r0, #8]
 1116 0012 C0F20005 		movt	r5, #:upper16:wa
 1117 0016 40F20003 		movw	r3, #:lower16:thread3
 1118              		.loc 1 357 0
 1119 001a 83B0     		sub	sp, sp, #12
 1120              	.LCFI13:
 1121              		.cfi_def_cfa_offset 32
 1122              		.loc 1 360 0
 1123 001c 0027     		movs	r7, #0
 1124 001e 2868     		ldr	r0, [r5, #0]
 1125 0020 4FF4A471 		mov	r1, #328
 1126 0024 0532     		adds	r2, r2, #5
ARM GAS  /tmp/cc3wakGH.s 			page 21


 1127 0026 C0F20003 		movt	r3, #:upper16:thread3
 1128 002a 0097     		str	r7, [sp, #0]
 1129 002c FFF7FEFF 		bl	chThdCreateStatic
 1130              	.LBB234:
 1131              	.LBB235:
 1132              		.loc 2 189 0
 1133 0030 B469     		ldr	r4, [r6, #24]
 1134              	.LBE235:
 1135              	.LBE234:
 1136              		.loc 1 361 0
 1137 0032 D5F804E0 		ldr	lr, [r5, #4]
 1138 0036 A268     		ldr	r2, [r4, #8]
 1139              		.loc 1 360 0
 1140 0038 40F20004 		movw	r4, #:lower16:threads
 1141 003c C0F20004 		movt	r4, #:upper16:threads
 1142              		.loc 1 361 0
 1143 0040 40F20003 		movw	r3, #:lower16:thread3
 1144              		.loc 1 360 0
 1145 0044 2060     		str	r0, [r4, #0]
 1146              		.loc 1 361 0
 1147 0046 4FF4A471 		mov	r1, #328
 1148 004a 7046     		mov	r0, lr
 1149 004c 0432     		adds	r2, r2, #4
 1150 004e C0F20003 		movt	r3, #:upper16:thread3
 1151 0052 0097     		str	r7, [sp, #0]
 1152 0054 FFF7FEFF 		bl	chThdCreateStatic
 1153              	.LBB236:
 1154              	.LBB237:
 1155              		.loc 2 189 0
 1156 0058 B369     		ldr	r3, [r6, #24]
 1157              	.LBE237:
 1158              	.LBE236:
 1159              		.loc 1 362 0
 1160 005a D5F808C0 		ldr	ip, [r5, #8]
 1161 005e 9A68     		ldr	r2, [r3, #8]
 1162 0060 40F20003 		movw	r3, #:lower16:thread3
 1163              		.loc 1 361 0
 1164 0064 6060     		str	r0, [r4, #4]
 1165              		.loc 1 362 0
 1166 0066 4FF4A471 		mov	r1, #328
 1167 006a 6046     		mov	r0, ip
 1168 006c 0332     		adds	r2, r2, #3
 1169 006e C0F20003 		movt	r3, #:upper16:thread3
 1170 0072 0097     		str	r7, [sp, #0]
 1171 0074 FFF7FEFF 		bl	chThdCreateStatic
 1172              	.LBB238:
 1173              	.LBB239:
 1174              		.loc 2 189 0
 1175 0078 B169     		ldr	r1, [r6, #24]
 1176              	.LBE239:
 1177              	.LBE238:
 1178              		.loc 1 363 0
 1179 007a D5F80CE0 		ldr	lr, [r5, #12]
 1180 007e 8A68     		ldr	r2, [r1, #8]
 1181 0080 40F20003 		movw	r3, #:lower16:thread3
 1182              		.loc 1 362 0
 1183 0084 A060     		str	r0, [r4, #8]
ARM GAS  /tmp/cc3wakGH.s 			page 22


 1184              		.loc 1 363 0
 1185 0086 4FF4A471 		mov	r1, #328
 1186 008a 7046     		mov	r0, lr
 1187 008c 0232     		adds	r2, r2, #2
 1188 008e C0F20003 		movt	r3, #:upper16:thread3
 1189 0092 0097     		str	r7, [sp, #0]
 1190 0094 FFF7FEFF 		bl	chThdCreateStatic
 1191              	.LBB240:
 1192              	.LBB241:
 1193              		.loc 2 189 0
 1194 0098 B369     		ldr	r3, [r6, #24]
 1195              	.LBE241:
 1196              	.LBE240:
 1197              		.loc 1 364 0
 1198 009a 2D69     		ldr	r5, [r5, #16]
 1199 009c 9A68     		ldr	r2, [r3, #8]
 1200 009e 40F20003 		movw	r3, #:lower16:thread3
 1201              		.loc 1 363 0
 1202 00a2 E060     		str	r0, [r4, #12]
 1203              		.loc 1 364 0
 1204 00a4 4FF4A471 		mov	r1, #328
 1205 00a8 0132     		adds	r2, r2, #1
 1206 00aa C0F20003 		movt	r3, #:upper16:thread3
 1207 00ae 2846     		mov	r0, r5
 1208 00b0 0097     		str	r7, [sp, #0]
 1209 00b2 FFF7FEFF 		bl	chThdCreateStatic
 1210 00b6 2061     		str	r0, [r4, #16]
 1211              	.LVL30:
 1212              		.loc 1 367 0
 1213 00b8 FFF7FEFF 		bl	test_wait_tick
 1214              		.loc 1 368 0
 1215 00bc 4FF47A70 		mov	r0, #1000
 1216 00c0 FFF7FEFF 		bl	test_start_timer
 1217 00c4 40F20004 		movw	r4, #:lower16:test_timer_done
 1218 00c8 C0F20004 		movt	r4, #:upper16:test_timer_done
 1219              	.LVL31:
 1220              	.L32:
 1221              		.loc 1 370 0 discriminator 1
 1222 00cc 40F20000 		movw	r0, #:lower16:.LANCHOR1
 1223 00d0 0021     		movs	r1, #0
 1224 00d2 C0F20000 		movt	r0, #:upper16:.LANCHOR1
 1225 00d6 FFF7FEFF 		bl	chSemReset
 1226              		.loc 1 375 0 discriminator 1
 1227 00da 2178     		ldrb	r1, [r4, #0]	@ zero_extendqisi2
 1228              		.loc 1 371 0 discriminator 1
 1229 00dc 0137     		adds	r7, r7, #1
 1230              	.LVL32:
 1231              		.loc 1 375 0 discriminator 1
 1232 00de 0029     		cmp	r1, #0
 1233 00e0 F4D0     		beq	.L32
 1234              		.loc 1 376 0
 1235 00e2 FFF7FEFF 		bl	test_terminate_threads
 1236              		.loc 1 377 0
 1237 00e6 40F20000 		movw	r0, #:lower16:.LANCHOR1
 1238 00ea 0021     		movs	r1, #0
 1239 00ec C0F20000 		movt	r0, #:upper16:.LANCHOR1
 1240 00f0 FFF7FEFF 		bl	chSemReset
ARM GAS  /tmp/cc3wakGH.s 			page 23


 1241              		.loc 1 378 0
 1242 00f4 FFF7FEFF 		bl	test_wait_threads
 1243              		.loc 1 380 0
 1244 00f8 40F20000 		movw	r0, #:lower16:.LC11
 1245 00fc C0F20000 		movt	r0, #:upper16:.LC11
 1246 0100 FFF7FEFF 		bl	test_print
 1247              		.loc 1 381 0
 1248 0104 3846     		mov	r0, r7
 1249 0106 FFF7FEFF 		bl	test_printn
 1250              		.loc 1 382 0
 1251 010a 40F20000 		movw	r0, #:lower16:.LC18
 1252 010e C0F20000 		movt	r0, #:upper16:.LC18
 1253              		.loc 1 383 0
 1254 0112 07EB4707 		add	r7, r7, r7, lsl #1
 1255              	.LVL33:
 1256              		.loc 1 382 0
 1257 0116 FFF7FEFF 		bl	test_print
 1258              		.loc 1 383 0
 1259 011a 7800     		lsls	r0, r7, #1
 1260 011c FFF7FEFF 		bl	test_printn
 1261              		.loc 1 384 0
 1262 0120 40F20000 		movw	r0, #:lower16:.LC17
 1263 0124 C0F20000 		movt	r0, #:upper16:.LC17
 1264              		.loc 1 385 0
 1265 0128 03B0     		add	sp, sp, #12
 1266 012a BDE8F040 		pop	{r4, r5, r6, r7, lr}
 1267              		.loc 1 384 0
 1268 012e FFF7FEBF 		b	test_println
 1269              		.cfi_endproc
 1270              	.LFE194:
 1271              		.size	bmk7_execute, .-bmk7_execute
 1272 0132 00BFAFF3 		.section	.text.thread1,"ax",%progbits
 1272      0080AFF3 
 1272      0080AFF3 
 1272      0080
 1273              		.align	2
 1274              		.p2align 4,,15
 1275              		.thumb
 1276              		.thumb_func
 1277              		.type	thread1, %function
 1278              	thread1:
 1279              	.LFB182:
 1280              		.loc 1 66 0
 1281              		.cfi_startproc
 1282              		@ args = 0, pretend = 0, frame = 0
 1283              		@ frame_needed = 0, uses_anonymous_args = 0
 1284              		@ link register save eliminated.
 1285              	.LVL34:
 1286              		.loc 1 69 0
 1287              		.loc 1 68 0
 1288 0000 FFF7FEBF 		b	chThdExit
 1289              	.LVL35:
 1290              		.cfi_endproc
 1291              	.LFE182:
 1292              		.size	thread1, .-thread1
 1293 0004 AFF30080 		.section	.text.bmk5_execute,"ax",%progbits
 1293      AFF30080 
ARM GAS  /tmp/cc3wakGH.s 			page 24


 1293      AFF30080 
 1294              		.align	2
 1295              		.p2align 4,,15
 1296              		.thumb
 1297              		.thumb_func
 1298              		.type	bmk5_execute, %function
 1299              	bmk5_execute:
 1300              	.LFB190:
 1301              		.loc 1 268 0
 1302              		.cfi_startproc
 1303              		@ args = 0, pretend = 0, frame = 0
 1304              		@ frame_needed = 0, uses_anonymous_args = 0
 1305              	.LVL36:
 1306 0000 2DE9F041 		push	{r4, r5, r6, r7, r8, lr}
 1307              	.LCFI14:
 1308              		.cfi_def_cfa_offset 24
 1309              		.cfi_offset 14, -4
 1310              		.cfi_offset 8, -8
 1311              		.cfi_offset 7, -12
 1312              		.cfi_offset 6, -16
 1313              		.cfi_offset 5, -20
 1314              		.cfi_offset 4, -24
 1315              	.LBB242:
 1316              	.LBB243:
 1317              	.LBB244:
 1318              	.LBB245:
 1319              		.loc 2 176 0
 1320 0004 40F20000 		movw	r0, #:lower16:ch
 1321 0008 C0F20000 		movt	r0, #:upper16:ch
 1322              	.LBE245:
 1323              	.LBE244:
 1324              		.loc 2 189 0
 1325 000c 8269     		ldr	r2, [r0, #24]
 1326              	.LBE243:
 1327              	.LBE242:
 1328              		.loc 1 271 0
 1329 000e 40F20003 		movw	r3, #:lower16:wa
 1330 0012 C0F20003 		movt	r3, #:upper16:wa
 1331              		.loc 1 268 0
 1332 0016 82B0     		sub	sp, sp, #8
 1333              	.LCFI15:
 1334              		.cfi_def_cfa_offset 32
 1335              		.loc 1 272 0
 1336 0018 9768     		ldr	r7, [r2, #8]
 1337              		.loc 1 271 0
 1338 001a D3F80080 		ldr	r8, [r3, #0]
 1339              	.LVL37:
 1340              		.loc 1 273 0
 1341 001e FFF7FEFF 		bl	test_wait_tick
 1342              	.LVL38:
 1343              		.loc 1 274 0
 1344 0022 4FF47A70 		mov	r0, #1000
 1345 0026 FFF7FEFF 		bl	test_start_timer
 1346              		.loc 1 270 0
 1347 002a 0024     		movs	r4, #0
 1348 002c 40F20005 		movw	r5, #:lower16:test_timer_done
 1349              		.loc 1 272 0
ARM GAS  /tmp/cc3wakGH.s 			page 25


 1350 0030 013F     		subs	r7, r7, #1
 1351              	.LVL39:
 1352 0032 C0F20005 		movt	r5, #:upper16:test_timer_done
 1353              		.loc 1 276 0
 1354 0036 2646     		mov	r6, r4
 1355              	.LVL40:
 1356              	.L36:
 1357              		.loc 1 276 0 is_stmt 0 discriminator 1
 1358 0038 40F20003 		movw	r3, #:lower16:thread1
 1359 003c 4FF4A471 		mov	r1, #328
 1360 0040 3A46     		mov	r2, r7
 1361 0042 C0F20003 		movt	r3, #:upper16:thread1
 1362 0046 4046     		mov	r0, r8
 1363 0048 0096     		str	r6, [sp, #0]
 1364 004a FFF7FEFF 		bl	chThdCreateStatic
 1365 004e FFF7FEFF 		bl	chThdWait
 1366              		.loc 1 281 0 is_stmt 1 discriminator 1
 1367 0052 2978     		ldrb	r1, [r5, #0]	@ zero_extendqisi2
 1368              		.loc 1 277 0 discriminator 1
 1369 0054 0134     		adds	r4, r4, #1
 1370              	.LVL41:
 1371              		.loc 1 281 0 discriminator 1
 1372 0056 0029     		cmp	r1, #0
 1373 0058 EED0     		beq	.L36
 1374              		.loc 1 282 0
 1375 005a 40F20000 		movw	r0, #:lower16:.LC11
 1376 005e C0F20000 		movt	r0, #:upper16:.LC11
 1377 0062 FFF7FEFF 		bl	test_print
 1378              		.loc 1 283 0
 1379 0066 2046     		mov	r0, r4
 1380 0068 FFF7FEFF 		bl	test_printn
 1381              		.loc 1 284 0
 1382 006c 40F20000 		movw	r0, #:lower16:.LC16
 1383 0070 C0F20000 		movt	r0, #:upper16:.LC16
 1384              		.loc 1 285 0
 1385 0074 02B0     		add	sp, sp, #8
 1386 0076 BDE8F041 		pop	{r4, r5, r6, r7, r8, lr}
 1387              		.loc 1 284 0
 1388 007a FFF7FEBF 		b	test_println
 1389              		.cfi_endproc
 1390              	.LFE190:
 1391              		.size	bmk5_execute, .-bmk5_execute
 1392 007e 00BF     		.section	.text.bmk4_execute,"ax",%progbits
 1393              		.align	2
 1394              		.p2align 4,,15
 1395              		.thumb
 1396              		.thumb_func
 1397              		.type	bmk4_execute, %function
 1398              	bmk4_execute:
 1399              	.LFB189:
 1400              		.loc 1 219 0
 1401              		.cfi_startproc
 1402              		@ args = 0, pretend = 0, frame = 0
 1403              		@ frame_needed = 0, uses_anonymous_args = 0
 1404 0000 2DE9F041 		push	{r4, r5, r6, r7, r8, lr}
 1405              	.LCFI16:
 1406              		.cfi_def_cfa_offset 24
ARM GAS  /tmp/cc3wakGH.s 			page 26


 1407              		.cfi_offset 14, -4
 1408              		.cfi_offset 8, -8
 1409              		.cfi_offset 7, -12
 1410              		.cfi_offset 6, -16
 1411              		.cfi_offset 5, -20
 1412              		.cfi_offset 4, -24
 1413              	.LBB246:
 1414              	.LBB247:
 1415              	.LBB248:
 1416              	.LBB249:
 1417              		.loc 2 176 0
 1418 0004 40F20004 		movw	r4, #:lower16:ch
 1419 0008 C0F20004 		movt	r4, #:upper16:ch
 1420              	.LBE249:
 1421              	.LBE248:
 1422              		.loc 2 189 0
 1423 000c A169     		ldr	r1, [r4, #24]
 1424              	.LBE247:
 1425              	.LBE246:
 1426              		.loc 1 223 0
 1427 000e 40F20000 		movw	r0, #:lower16:wa
 1428 0012 8A68     		ldr	r2, [r1, #8]
 1429 0014 C0F20000 		movt	r0, #:upper16:wa
 1430 0018 40F20003 		movw	r3, #:lower16:thread4
 1431              		.loc 1 219 0
 1432 001c 82B0     		sub	sp, sp, #8
 1433              	.LCFI17:
 1434              		.cfi_def_cfa_offset 32
 1435              		.loc 1 223 0
 1436 001e 4FF4A471 		mov	r1, #328
 1437 0022 0132     		adds	r2, r2, #1
 1438 0024 C0F20003 		movt	r3, #:upper16:thread4
 1439 0028 0024     		movs	r4, #0
 1440 002a 0068     		ldr	r0, [r0, #0]
 1441 002c 0094     		str	r4, [sp, #0]
 1442 002e FFF7FEFF 		bl	chThdCreateStatic
 1443 0032 40F20003 		movw	r3, #:lower16:threads
 1444 0036 C0F20003 		movt	r3, #:upper16:threads
 1445 003a 1860     		str	r0, [r3, #0]
 1446 003c 0546     		mov	r5, r0
 1447              	.LVL42:
 1448              		.loc 1 226 0
 1449 003e FFF7FEFF 		bl	test_wait_tick
 1450              	.LVL43:
 1451              		.loc 1 227 0
 1452 0042 4FF47A70 		mov	r0, #1000
 1453 0046 FFF7FEFF 		bl	test_start_timer
 1454 004a 40F20006 		movw	r6, #:lower16:test_timer_done
 1455 004e C0F20006 		movt	r6, #:upper16:test_timer_done
 1456              	.LBB250:
 1457              	.LBB251:
 1458              	.LBB252:
 1459              	.LBB253:
 1460              		.loc 3 548 0
 1461 0052 4FF02008 		mov	r8, #32
 1462              	.LBE253:
 1463              	.LBE252:
ARM GAS  /tmp/cc3wakGH.s 			page 27


 1464              	.LBE251:
 1465              	.LBE250:
 1466              		.loc 1 230 0
 1467 0056 2746     		mov	r7, r4
 1468              	.LVL44:
 1469              	.L39:
 1470              	.LBB257:
 1471              	.LBB256:
 1472              	.LBB255:
 1473              	.LBB254:
 1474              		.loc 3 548 0 discriminator 1
 1475              	@ 548 "../../../resources/chibios/ChibiOS_16.1.8/os/ext/CMSIS/include/core_cmFunc.h" 1
 1476 0058 88F31188 		MSR basepri, r8
 1477              	@ 0 "" 2
 1478              		.thumb
 1479              	.LBE254:
 1480              	.LBE255:
 1481              	.LBE256:
 1482              	.LBE257:
 1483              		.loc 1 230 0 discriminator 1
 1484 005c 0021     		movs	r1, #0
 1485 005e 2846     		mov	r0, r5
 1486 0060 FFF7FEFF 		bl	chSchWakeupS
 1487              		.loc 1 231 0 discriminator 1
 1488 0064 2846     		mov	r0, r5
 1489 0066 0021     		movs	r1, #0
 1490 0068 FFF7FEFF 		bl	chSchWakeupS
 1491              		.loc 1 232 0 discriminator 1
 1492 006c 2846     		mov	r0, r5
 1493 006e 0021     		movs	r1, #0
 1494 0070 FFF7FEFF 		bl	chSchWakeupS
 1495              		.loc 1 233 0 discriminator 1
 1496 0074 2846     		mov	r0, r5
 1497 0076 0021     		movs	r1, #0
 1498 0078 FFF7FEFF 		bl	chSchWakeupS
 1499              	.LVL45:
 1500              	.LBB258:
 1501              	.LBB259:
 1502              	.LBB260:
 1503              	.LBB261:
 1504              	.LBB262:
 1505              		.loc 3 548 0 discriminator 1
 1506              	@ 548 "../../../resources/chibios/ChibiOS_16.1.8/os/ext/CMSIS/include/core_cmFunc.h" 1
 1507 007c 87F31188 		MSR basepri, r7
 1508              	@ 0 "" 2
 1509              		.thumb
 1510              	.LBE262:
 1511              	.LBE261:
 1512              	.LBE260:
 1513              	.LBE259:
 1514              	.LBE258:
 1515              		.loc 1 239 0 discriminator 1
 1516 0080 3378     		ldrb	r3, [r6, #0]	@ zero_extendqisi2
 1517              		.loc 1 235 0 discriminator 1
 1518 0082 0434     		adds	r4, r4, #4
 1519              	.LVL46:
 1520              		.loc 1 239 0 discriminator 1
ARM GAS  /tmp/cc3wakGH.s 			page 28


 1521 0084 002B     		cmp	r3, #0
 1522 0086 E7D0     		beq	.L39
 1523              	.LVL47:
 1524              	.LBB263:
 1525              	.LBB264:
 1526              	.LBB265:
 1527              	.LBB266:
 1528              		.loc 3 548 0
 1529 0088 2020     		movs	r0, #32
 1530              	@ 548 "../../../resources/chibios/ChibiOS_16.1.8/os/ext/CMSIS/include/core_cmFunc.h" 1
 1531 008a 80F31188 		MSR basepri, r0
 1532              	@ 0 "" 2
 1533              		.thumb
 1534              	.LBE266:
 1535              	.LBE265:
 1536              	.LBE264:
 1537              	.LBE263:
 1538              		.loc 1 241 0
 1539 008e 4FF0FF31 		mov	r1, #-1
 1540 0092 2846     		mov	r0, r5
 1541 0094 FFF7FEFF 		bl	chSchWakeupS
 1542              	.LVL48:
 1543              	.LBB267:
 1544              	.LBB268:
 1545              	.LBB269:
 1546              	.LBB270:
 1547              	.LBB271:
 1548              		.loc 3 548 0
 1549 0098 0022     		movs	r2, #0
 1550              	@ 548 "../../../resources/chibios/ChibiOS_16.1.8/os/ext/CMSIS/include/core_cmFunc.h" 1
 1551 009a 82F31188 		MSR basepri, r2
 1552              	@ 0 "" 2
 1553              		.thumb
 1554              	.LBE271:
 1555              	.LBE270:
 1556              	.LBE269:
 1557              	.LBE268:
 1558              	.LBE267:
 1559              		.loc 1 244 0
 1560 009e FFF7FEFF 		bl	test_wait_threads
 1561              		.loc 1 245 0
 1562 00a2 40F20000 		movw	r0, #:lower16:.LC11
 1563 00a6 C0F20000 		movt	r0, #:upper16:.LC11
 1564 00aa FFF7FEFF 		bl	test_print
 1565              		.loc 1 246 0
 1566 00ae 6000     		lsls	r0, r4, #1
 1567 00b0 FFF7FEFF 		bl	test_printn
 1568              		.loc 1 247 0
 1569 00b4 40F20000 		movw	r0, #:lower16:.LC17
 1570 00b8 C0F20000 		movt	r0, #:upper16:.LC17
 1571              		.loc 1 248 0
 1572 00bc 02B0     		add	sp, sp, #8
 1573 00be BDE8F041 		pop	{r4, r5, r6, r7, r8, lr}
 1574              		.loc 1 247 0
 1575 00c2 FFF7FEBF 		b	test_println
 1576              		.cfi_endproc
 1577              	.LFE189:
ARM GAS  /tmp/cc3wakGH.s 			page 29


 1578              		.size	bmk4_execute, .-bmk4_execute
 1579 00c6 00BFAFF3 		.section	.text.thread4,"ax",%progbits
 1579      0080AFF3 
 1579      0080
 1580              		.align	2
 1581              		.p2align 4,,15
 1582              		.thumb
 1583              		.thumb_func
 1584              		.type	thread4, %function
 1585              	thread4:
 1586              	.LFB188:
 1587              		.loc 1 206 0
 1588              		.cfi_startproc
 1589              		@ args = 0, pretend = 0, frame = 0
 1590              		@ frame_needed = 0, uses_anonymous_args = 0
 1591              	.LVL49:
 1592              	.LBB272:
 1593              	.LBB273:
 1594              		.loc 2 176 0
 1595 0000 40F20000 		movw	r0, #:lower16:ch
 1596              	.LVL50:
 1597 0004 C0F20000 		movt	r0, #:upper16:ch
 1598              	.LBE273:
 1599              	.LBE272:
 1600              		.loc 1 206 0
 1601 0008 10B5     		push	{r4, lr}
 1602              	.LCFI18:
 1603              		.cfi_def_cfa_offset 8
 1604              		.cfi_offset 14, -4
 1605              		.cfi_offset 4, -8
 1606              	.LBB275:
 1607              	.LBB276:
 1608              	.LBB277:
 1609              	.LBB278:
 1610              		.loc 3 548 0
 1611 000a 2023     		movs	r3, #32
 1612              	.LBE278:
 1613              	.LBE277:
 1614              	.LBE276:
 1615              	.LBE275:
 1616              	.LBB282:
 1617              	.LBB274:
 1618              		.loc 2 176 0
 1619 000c 8469     		ldr	r4, [r0, #24]
 1620              	.LVL51:
 1621              	.LBE274:
 1622              	.LBE282:
 1623              	.LBB283:
 1624              	.LBB281:
 1625              	.LBB280:
 1626              	.LBB279:
 1627              		.loc 3 548 0
 1628              	@ 548 "../../../resources/chibios/ChibiOS_16.1.8/os/ext/CMSIS/include/core_cmFunc.h" 1
 1629 000e 83F31188 		MSR basepri, r3
 1630              	@ 0 "" 2
 1631              		.thumb
 1632              	.L42:
ARM GAS  /tmp/cc3wakGH.s 			page 30


 1633              	.LBE279:
 1634              	.LBE280:
 1635              	.LBE281:
 1636              	.LBE283:
 1637              		.loc 1 213 0 discriminator 1
 1638 0012 0320     		movs	r0, #3
 1639 0014 FFF7FEFF 		bl	chSchGoSleepS
 1640              	.LVL52:
 1641              		.loc 1 215 0 discriminator 1
 1642 0018 216A     		ldr	r1, [r4, #32]
 1643 001a 0029     		cmp	r1, #0
 1644 001c F9D0     		beq	.L42
 1645              	.LVL53:
 1646              	.LBB284:
 1647              	.LBB285:
 1648              	.LBB286:
 1649              	.LBB287:
 1650              	.LBB288:
 1651              		.loc 3 548 0
 1652 001e 0022     		movs	r2, #0
 1653              	@ 548 "../../../resources/chibios/ChibiOS_16.1.8/os/ext/CMSIS/include/core_cmFunc.h" 1
 1654 0020 82F31188 		MSR basepri, r2
 1655              	@ 0 "" 2
 1656              		.thumb
 1657              	.LBE288:
 1658              	.LBE287:
 1659              	.LBE286:
 1660              	.LBE285:
 1661              	.LBE284:
 1662              		.loc 1 217 0
 1663 0024 10BD     		pop	{r4, pc}
 1664              		.cfi_endproc
 1665              	.LFE188:
 1666              		.size	thread4, .-thread4
 1667 0026 00BFAFF3 		.section	.text.msg_loop_test,"ax",%progbits
 1667      0080AFF3 
 1667      0080
 1668              		.align	2
 1669              		.p2align 4,,15
 1670              		.thumb
 1671              		.thumb_func
 1672              		.type	msg_loop_test, %function
 1673              	msg_loop_test:
 1674              	.LFB184:
 1675              		.loc 1 87 0
 1676              		.cfi_startproc
 1677              		@ args = 0, pretend = 0, frame = 0
 1678              		@ frame_needed = 0, uses_anonymous_args = 0
 1679              	.LVL54:
 1680 0000 70B5     		push	{r4, r5, r6, lr}
 1681              	.LCFI19:
 1682              		.cfi_def_cfa_offset 16
 1683              		.cfi_offset 14, -4
 1684              		.cfi_offset 6, -8
 1685              		.cfi_offset 5, -12
 1686              		.cfi_offset 4, -16
 1687              		.loc 1 87 0
ARM GAS  /tmp/cc3wakGH.s 			page 31


 1688 0002 0646     		mov	r6, r0
 1689              		.loc 1 90 0
 1690 0004 FFF7FEFF 		bl	test_wait_tick
 1691              	.LVL55:
 1692              		.loc 1 91 0
 1693 0008 4FF47A70 		mov	r0, #1000
 1694 000c FFF7FEFF 		bl	test_start_timer
 1695 0010 40F20005 		movw	r5, #:lower16:test_timer_done
 1696              		.loc 1 89 0
 1697 0014 0024     		movs	r4, #0
 1698 0016 C0F20005 		movt	r5, #:upper16:test_timer_done
 1699              	.LVL56:
 1700              	.L45:
 1701              		.loc 1 93 0 discriminator 1
 1702 001a 3046     		mov	r0, r6
 1703 001c 0121     		movs	r1, #1
 1704 001e FFF7FEFF 		bl	chMsgSend
 1705              		.loc 1 98 0 discriminator 1
 1706 0022 2B78     		ldrb	r3, [r5, #0]	@ zero_extendqisi2
 1707              		.loc 1 94 0 discriminator 1
 1708 0024 0134     		adds	r4, r4, #1
 1709              	.LVL57:
 1710              		.loc 1 98 0 discriminator 1
 1711 0026 002B     		cmp	r3, #0
 1712 0028 F7D0     		beq	.L45
 1713              		.loc 1 99 0
 1714 002a 3046     		mov	r0, r6
 1715 002c 0021     		movs	r1, #0
 1716 002e FFF7FEFF 		bl	chMsgSend
 1717              		.loc 1 101 0
 1718 0032 2046     		mov	r0, r4
 1719 0034 70BD     		pop	{r4, r5, r6, pc}
 1720              		.cfi_endproc
 1721              	.LFE184:
 1722              		.size	msg_loop_test, .-msg_loop_test
 1723 0036 00BFAFF3 		.section	.text.bmk3_execute,"ax",%progbits
 1723      0080AFF3 
 1723      0080
 1724              		.align	2
 1725              		.p2align 4,,15
 1726              		.thumb
 1727              		.thumb_func
 1728              		.type	bmk3_execute, %function
 1729              	bmk3_execute:
 1730              	.LFB187:
 1731              		.loc 1 171 0
 1732              		.cfi_startproc
 1733              		@ args = 0, pretend = 0, frame = 0
 1734              		@ frame_needed = 0, uses_anonymous_args = 0
 1735 0000 2DE9F041 		push	{r4, r5, r6, r7, r8, lr}
 1736              	.LCFI20:
 1737              		.cfi_def_cfa_offset 24
 1738              		.cfi_offset 14, -4
 1739              		.cfi_offset 8, -8
 1740              		.cfi_offset 7, -12
 1741              		.cfi_offset 6, -16
 1742              		.cfi_offset 5, -20
ARM GAS  /tmp/cc3wakGH.s 			page 32


 1743              		.cfi_offset 4, -24
 1744              	.LBB289:
 1745              	.LBB290:
 1746              	.LBB291:
 1747              	.LBB292:
 1748              		.loc 2 176 0
 1749 0004 40F20006 		movw	r6, #:lower16:ch
 1750 0008 C0F20006 		movt	r6, #:upper16:ch
 1751              	.LBE292:
 1752              	.LBE291:
 1753              		.loc 2 189 0
 1754 000c B069     		ldr	r0, [r6, #24]
 1755              	.LBE290:
 1756              	.LBE289:
 1757              		.loc 1 174 0
 1758 000e 40F20005 		movw	r5, #:lower16:wa
 1759 0012 8468     		ldr	r4, [r0, #8]
 1760 0014 C0F20005 		movt	r5, #:upper16:wa
 1761 0018 40F20003 		movw	r3, #:lower16:thread2
 1762              		.loc 1 171 0
 1763 001c 82B0     		sub	sp, sp, #8
 1764              	.LCFI21:
 1765              		.cfi_def_cfa_offset 32
 1766              		.loc 1 174 0
 1767 001e 4FF00008 		mov	r8, #0
 1768 0022 621C     		adds	r2, r4, #1
 1769 0024 2868     		ldr	r0, [r5, #0]
 1770 0026 4FF4A471 		mov	r1, #328
 1771 002a C0F20003 		movt	r3, #:upper16:thread2
 1772 002e CDF80080 		str	r8, [sp, #0]
 1773 0032 FFF7FEFF 		bl	chThdCreateStatic
 1774              	.LBB293:
 1775              	.LBB294:
 1776              		.loc 2 189 0
 1777 0036 B769     		ldr	r7, [r6, #24]
 1778              	.LBE294:
 1779              	.LBE293:
 1780              		.loc 1 175 0
 1781 0038 D5F804E0 		ldr	lr, [r5, #4]
 1782 003c BB68     		ldr	r3, [r7, #8]
 1783              		.loc 1 174 0
 1784 003e 40F20004 		movw	r4, #:lower16:threads
 1785              		.loc 1 175 0
 1786 0042 40F20007 		movw	r7, #:lower16:thread1
 1787              		.loc 1 174 0
 1788 0046 C0F20004 		movt	r4, #:upper16:threads
 1789              		.loc 1 175 0
 1790 004a C0F20007 		movt	r7, #:upper16:thread1
 1791              		.loc 1 174 0
 1792 004e 2060     		str	r0, [r4, #0]
 1793              		.loc 1 175 0
 1794 0050 9A1E     		subs	r2, r3, #2
 1795 0052 7046     		mov	r0, lr
 1796 0054 3B46     		mov	r3, r7
 1797 0056 4FF4A471 		mov	r1, #328
 1798 005a CDF80080 		str	r8, [sp, #0]
 1799 005e FFF7FEFF 		bl	chThdCreateStatic
ARM GAS  /tmp/cc3wakGH.s 			page 33


 1800              	.LBB295:
 1801              	.LBB296:
 1802              		.loc 2 189 0
 1803 0062 B269     		ldr	r2, [r6, #24]
 1804              	.LBE296:
 1805              	.LBE295:
 1806              		.loc 1 176 0
 1807 0064 D5F808C0 		ldr	ip, [r5, #8]
 1808 0068 9368     		ldr	r3, [r2, #8]
 1809 006a 4FF4A471 		mov	r1, #328
 1810              		.loc 1 175 0
 1811 006e 6060     		str	r0, [r4, #4]
 1812              		.loc 1 176 0
 1813 0070 DA1E     		subs	r2, r3, #3
 1814 0072 6046     		mov	r0, ip
 1815 0074 3B46     		mov	r3, r7
 1816 0076 CDF80080 		str	r8, [sp, #0]
 1817 007a FFF7FEFF 		bl	chThdCreateStatic
 1818              	.LBB297:
 1819              	.LBB298:
 1820              		.loc 2 189 0
 1821 007e B169     		ldr	r1, [r6, #24]
 1822              	.LBE298:
 1823              	.LBE297:
 1824              		.loc 1 177 0
 1825 0080 D5F80CE0 		ldr	lr, [r5, #12]
 1826 0084 8A68     		ldr	r2, [r1, #8]
 1827 0086 3B46     		mov	r3, r7
 1828              		.loc 1 176 0
 1829 0088 A060     		str	r0, [r4, #8]
 1830              		.loc 1 177 0
 1831 008a 043A     		subs	r2, r2, #4
 1832 008c 7046     		mov	r0, lr
 1833 008e 4FF4A471 		mov	r1, #328
 1834 0092 CDF80080 		str	r8, [sp, #0]
 1835 0096 FFF7FEFF 		bl	chThdCreateStatic
 1836              	.LBB299:
 1837              	.LBB300:
 1838              		.loc 2 189 0
 1839 009a B369     		ldr	r3, [r6, #24]
 1840              	.LBE300:
 1841              	.LBE299:
 1842              		.loc 1 178 0
 1843 009c 2D69     		ldr	r5, [r5, #16]
 1844 009e 9A68     		ldr	r2, [r3, #8]
 1845 00a0 4FF4A471 		mov	r1, #328
 1846 00a4 053A     		subs	r2, r2, #5
 1847 00a6 3B46     		mov	r3, r7
 1848              		.loc 1 177 0
 1849 00a8 E060     		str	r0, [r4, #12]
 1850              		.loc 1 178 0
 1851 00aa 2846     		mov	r0, r5
 1852 00ac CDF80080 		str	r8, [sp, #0]
 1853 00b0 FFF7FEFF 		bl	chThdCreateStatic
 1854 00b4 2061     		str	r0, [r4, #16]
 1855              		.loc 1 179 0
 1856 00b6 2068     		ldr	r0, [r4, #0]
ARM GAS  /tmp/cc3wakGH.s 			page 34


 1857 00b8 FFF7FEFF 		bl	msg_loop_test
 1858 00bc 0446     		mov	r4, r0
 1859              	.LVL58:
 1860              		.loc 1 180 0
 1861 00be FFF7FEFF 		bl	test_wait_threads
 1862              	.LVL59:
 1863              		.loc 1 181 0
 1864 00c2 40F20000 		movw	r0, #:lower16:.LC11
 1865 00c6 C0F20000 		movt	r0, #:upper16:.LC11
 1866 00ca FFF7FEFF 		bl	test_print
 1867              		.loc 1 182 0
 1868 00ce 2046     		mov	r0, r4
 1869 00d0 FFF7FEFF 		bl	test_printn
 1870              		.loc 1 183 0
 1871 00d4 40F20000 		movw	r0, #:lower16:.LC19
 1872 00d8 C0F20000 		movt	r0, #:upper16:.LC19
 1873 00dc FFF7FEFF 		bl	test_print
 1874              		.loc 1 184 0
 1875 00e0 6000     		lsls	r0, r4, #1
 1876 00e2 FFF7FEFF 		bl	test_printn
 1877              		.loc 1 185 0
 1878 00e6 40F20000 		movw	r0, #:lower16:.LC17
 1879 00ea C0F20000 		movt	r0, #:upper16:.LC17
 1880              		.loc 1 186 0
 1881 00ee 02B0     		add	sp, sp, #8
 1882 00f0 BDE8F041 		pop	{r4, r5, r6, r7, r8, lr}
 1883              		.loc 1 185 0
 1884 00f4 FFF7FEBF 		b	test_println
 1885              		.cfi_endproc
 1886              	.LFE187:
 1887              		.size	bmk3_execute, .-bmk3_execute
 1888 00f8 AFF30080 		.section	.text.bmk2_execute,"ax",%progbits
 1888      AFF30080 
 1889              		.align	2
 1890              		.p2align 4,,15
 1891              		.thumb
 1892              		.thumb_func
 1893              		.type	bmk2_execute, %function
 1894              	bmk2_execute:
 1895              	.LFB186:
 1896              		.loc 1 141 0
 1897              		.cfi_startproc
 1898              		@ args = 0, pretend = 0, frame = 0
 1899              		@ frame_needed = 0, uses_anonymous_args = 0
 1900              	.LBB301:
 1901              	.LBB302:
 1902              	.LBB303:
 1903              	.LBB304:
 1904              		.loc 2 176 0
 1905 0000 40F2000C 		movw	ip, #:lower16:ch
 1906              	.LBE304:
 1907              	.LBE303:
 1908              	.LBE302:
 1909              	.LBE301:
 1910              		.loc 1 141 0
 1911 0004 10B5     		push	{r4, lr}
 1912              	.LCFI22:
ARM GAS  /tmp/cc3wakGH.s 			page 35


 1913              		.cfi_def_cfa_offset 8
 1914              		.cfi_offset 14, -4
 1915              		.cfi_offset 4, -8
 1916              	.LBB308:
 1917              	.LBB307:
 1918              	.LBB306:
 1919              	.LBB305:
 1920              		.loc 2 176 0
 1921 0006 C0F2000C 		movt	ip, #:upper16:ch
 1922              	.LBE305:
 1923              	.LBE306:
 1924              		.loc 2 189 0
 1925 000a DCF81810 		ldr	r1, [ip, #24]
 1926              	.LBE307:
 1927              	.LBE308:
 1928              		.loc 1 144 0
 1929 000e 40F20000 		movw	r0, #:lower16:wa
 1930 0012 8A68     		ldr	r2, [r1, #8]
 1931 0014 C0F20000 		movt	r0, #:upper16:wa
 1932 0018 40F20003 		movw	r3, #:lower16:thread2
 1933              		.loc 1 141 0
 1934 001c 82B0     		sub	sp, sp, #8
 1935              	.LCFI23:
 1936              		.cfi_def_cfa_offset 16
 1937              		.loc 1 144 0
 1938 001e 4FF4A471 		mov	r1, #328
 1939 0022 0132     		adds	r2, r2, #1
 1940 0024 0024     		movs	r4, #0
 1941 0026 C0F20003 		movt	r3, #:upper16:thread2
 1942 002a 0068     		ldr	r0, [r0, #0]
 1943 002c 0094     		str	r4, [sp, #0]
 1944 002e FFF7FEFF 		bl	chThdCreateStatic
 1945 0032 40F20003 		movw	r3, #:lower16:threads
 1946 0036 C0F20003 		movt	r3, #:upper16:threads
 1947 003a 1860     		str	r0, [r3, #0]
 1948              		.loc 1 145 0
 1949 003c FFF7FEFF 		bl	msg_loop_test
 1950 0040 0446     		mov	r4, r0
 1951              	.LVL60:
 1952              		.loc 1 146 0
 1953 0042 FFF7FEFF 		bl	test_wait_threads
 1954              	.LVL61:
 1955              		.loc 1 147 0
 1956 0046 40F20000 		movw	r0, #:lower16:.LC11
 1957 004a C0F20000 		movt	r0, #:upper16:.LC11
 1958 004e FFF7FEFF 		bl	test_print
 1959              		.loc 1 148 0
 1960 0052 2046     		mov	r0, r4
 1961 0054 FFF7FEFF 		bl	test_printn
 1962              		.loc 1 149 0
 1963 0058 40F20000 		movw	r0, #:lower16:.LC19
 1964 005c C0F20000 		movt	r0, #:upper16:.LC19
 1965 0060 FFF7FEFF 		bl	test_print
 1966              		.loc 1 150 0
 1967 0064 6000     		lsls	r0, r4, #1
 1968 0066 FFF7FEFF 		bl	test_printn
 1969              		.loc 1 151 0
ARM GAS  /tmp/cc3wakGH.s 			page 36


 1970 006a 40F20000 		movw	r0, #:lower16:.LC17
 1971 006e C0F20000 		movt	r0, #:upper16:.LC17
 1972              		.loc 1 152 0
 1973 0072 02B0     		add	sp, sp, #8
 1974 0074 BDE81040 		pop	{r4, lr}
 1975              		.loc 1 151 0
 1976 0078 FFF7FEBF 		b	test_println
 1977              		.cfi_endproc
 1978              	.LFE186:
 1979              		.size	bmk2_execute, .-bmk2_execute
 1980 007c AFF30080 		.section	.text.bmk1_execute,"ax",%progbits
 1981              		.align	2
 1982              		.p2align 4,,15
 1983              		.thumb
 1984              		.thumb_func
 1985              		.type	bmk1_execute, %function
 1986              	bmk1_execute:
 1987              	.LFB185:
 1988              		.loc 1 112 0
 1989              		.cfi_startproc
 1990              		@ args = 0, pretend = 0, frame = 0
 1991              		@ frame_needed = 0, uses_anonymous_args = 0
 1992              	.LBB309:
 1993              	.LBB310:
 1994              	.LBB311:
 1995              	.LBB312:
 1996              		.loc 2 176 0
 1997 0000 40F2000C 		movw	ip, #:lower16:ch
 1998              	.LBE312:
 1999              	.LBE311:
 2000              	.LBE310:
 2001              	.LBE309:
 2002              		.loc 1 112 0
 2003 0004 10B5     		push	{r4, lr}
 2004              	.LCFI24:
 2005              		.cfi_def_cfa_offset 8
 2006              		.cfi_offset 14, -4
 2007              		.cfi_offset 4, -8
 2008              	.LBB316:
 2009              	.LBB315:
 2010              	.LBB314:
 2011              	.LBB313:
 2012              		.loc 2 176 0
 2013 0006 C0F2000C 		movt	ip, #:upper16:ch
 2014              	.LBE313:
 2015              	.LBE314:
 2016              		.loc 2 189 0
 2017 000a DCF81810 		ldr	r1, [ip, #24]
 2018              	.LBE315:
 2019              	.LBE316:
 2020              		.loc 1 115 0
 2021 000e 40F20000 		movw	r0, #:lower16:wa
 2022 0012 8A68     		ldr	r2, [r1, #8]
 2023 0014 C0F20000 		movt	r0, #:upper16:wa
 2024 0018 40F20003 		movw	r3, #:lower16:thread2
 2025              		.loc 1 112 0
 2026 001c 82B0     		sub	sp, sp, #8
ARM GAS  /tmp/cc3wakGH.s 			page 37


 2027              	.LCFI25:
 2028              		.cfi_def_cfa_offset 16
 2029              		.loc 1 115 0
 2030 001e 4FF4A471 		mov	r1, #328
 2031 0022 013A     		subs	r2, r2, #1
 2032 0024 0024     		movs	r4, #0
 2033 0026 C0F20003 		movt	r3, #:upper16:thread2
 2034 002a 0068     		ldr	r0, [r0, #0]
 2035 002c 0094     		str	r4, [sp, #0]
 2036 002e FFF7FEFF 		bl	chThdCreateStatic
 2037 0032 40F20003 		movw	r3, #:lower16:threads
 2038 0036 C0F20003 		movt	r3, #:upper16:threads
 2039 003a 1860     		str	r0, [r3, #0]
 2040              		.loc 1 116 0
 2041 003c FFF7FEFF 		bl	msg_loop_test
 2042 0040 0446     		mov	r4, r0
 2043              	.LVL62:
 2044              		.loc 1 117 0
 2045 0042 FFF7FEFF 		bl	test_wait_threads
 2046              	.LVL63:
 2047              		.loc 1 118 0
 2048 0046 40F20000 		movw	r0, #:lower16:.LC11
 2049 004a C0F20000 		movt	r0, #:upper16:.LC11
 2050 004e FFF7FEFF 		bl	test_print
 2051              		.loc 1 119 0
 2052 0052 2046     		mov	r0, r4
 2053 0054 FFF7FEFF 		bl	test_printn
 2054              		.loc 1 120 0
 2055 0058 40F20000 		movw	r0, #:lower16:.LC19
 2056 005c C0F20000 		movt	r0, #:upper16:.LC19
 2057 0060 FFF7FEFF 		bl	test_print
 2058              		.loc 1 121 0
 2059 0064 6000     		lsls	r0, r4, #1
 2060 0066 FFF7FEFF 		bl	test_printn
 2061              		.loc 1 122 0
 2062 006a 40F20000 		movw	r0, #:lower16:.LC17
 2063 006e C0F20000 		movt	r0, #:upper16:.LC17
 2064              		.loc 1 123 0
 2065 0072 02B0     		add	sp, sp, #8
 2066 0074 BDE81040 		pop	{r4, lr}
 2067              		.loc 1 122 0
 2068 0078 FFF7FEBF 		b	test_println
 2069              		.cfi_endproc
 2070              	.LFE185:
 2071              		.size	bmk1_execute, .-bmk1_execute
 2072 007c AFF30080 		.section	.text.thread2,"ax",%progbits
 2073              		.align	2
 2074              		.p2align 4,,15
 2075              		.thumb
 2076              		.thumb_func
 2077              		.type	thread2, %function
 2078              	thread2:
 2079              	.LFB183:
 2080              		.loc 1 72 0
 2081              		.cfi_startproc
 2082              		@ args = 0, pretend = 0, frame = 0
 2083              		@ frame_needed = 0, uses_anonymous_args = 0
ARM GAS  /tmp/cc3wakGH.s 			page 38


 2084              	.LVL64:
 2085 0000 10B5     		push	{r4, lr}
 2086              	.LCFI26:
 2087              		.cfi_def_cfa_offset 8
 2088              		.cfi_offset 14, -4
 2089              		.cfi_offset 4, -8
 2090              	.LVL65:
 2091              	.L51:
 2092              		.loc 1 78 0 discriminator 1
 2093 0002 FFF7FEFF 		bl	chMsgWait
 2094              	.LVL66:
 2095              		.loc 1 723 0 discriminator 1
 2096 0006 046B     		ldr	r4, [r0, #48]
 2097              		.loc 1 80 0 discriminator 1
 2098 0008 2146     		mov	r1, r4
 2099 000a FFF7FEFF 		bl	chMsgRelease
 2100              	.LVL67:
 2101              		.loc 1 81 0 discriminator 1
 2102 000e 002C     		cmp	r4, #0
 2103 0010 F7D1     		bne	.L51
 2104              		.loc 1 82 0
 2105 0012 10BD     		pop	{r4, pc}
 2106              		.cfi_endproc
 2107              	.LFE183:
 2108              		.size	thread2, .-thread2
 2109              		.global	patternbmk
 2110              		.global	testbmk13
 2111              		.global	testbmk12
 2112              		.global	testbmk11
 2113              		.global	testbmk10
 2114              		.global	testbmk9
 2115              		.global	testbmk8
 2116              		.global	testbmk7
 2117              		.global	testbmk6
 2118              		.global	testbmk5
 2119              		.global	testbmk4
 2120              		.global	testbmk3
 2121              		.global	testbmk2
 2122              		.global	testbmk1
 2123 0014 AFF30080 		.section	.rodata.testbmk8,"a",%progbits
 2123      AFF30080 
 2123      AFF30080 
 2124              		.align	2
 2125              		.type	testbmk8, %object
 2126              		.size	testbmk8, 16
 2127              	testbmk8:
 2128 0000 D0010000 		.word	.LC25
 2129 0004 00000000 		.word	0
 2130 0008 00000000 		.word	0
 2131 000c 00000000 		.word	bmk8_execute
 2132              		.section	.rodata.patternbmk,"a",%progbits
 2133              		.align	2
 2134              		.type	patternbmk, %object
 2135              		.size	patternbmk, 56
 2136              	patternbmk:
 2137 0000 00000000 		.word	testbmk1
 2138 0004 00000000 		.word	testbmk2
ARM GAS  /tmp/cc3wakGH.s 			page 39


 2139 0008 00000000 		.word	testbmk3
 2140 000c 00000000 		.word	testbmk4
 2141 0010 00000000 		.word	testbmk5
 2142 0014 00000000 		.word	testbmk6
 2143 0018 00000000 		.word	testbmk7
 2144 001c 00000000 		.word	testbmk8
 2145 0020 00000000 		.word	testbmk9
 2146 0024 00000000 		.word	testbmk10
 2147 0028 00000000 		.word	testbmk11
 2148 002c 00000000 		.word	testbmk12
 2149 0030 00000000 		.word	testbmk13
 2150 0034 00000000 		.word	0
 2151              		.section	.rodata.testbmk2,"a",%progbits
 2152              		.align	2
 2153              		.type	testbmk2, %object
 2154              		.size	testbmk2, 16
 2155              	testbmk2:
 2156 0000 98020000 		.word	.LC31
 2157 0004 00000000 		.word	0
 2158 0008 00000000 		.word	0
 2159 000c 00000000 		.word	bmk2_execute
 2160              		.section	.rodata.testbmk9,"a",%progbits
 2161              		.align	2
 2162              		.type	testbmk9, %object
 2163              		.size	testbmk9, 16
 2164              	testbmk9:
 2165 0000 AC010000 		.word	.LC24
 2166 0004 00000000 		.word	0
 2167 0008 00000000 		.word	0
 2168 000c 00000000 		.word	bmk9_execute
 2169              		.section	.rodata.testbmk10,"a",%progbits
 2170              		.align	2
 2171              		.type	testbmk10, %object
 2172              		.size	testbmk10, 16
 2173              	testbmk10:
 2174 0000 88010000 		.word	.LC23
 2175 0004 00000000 		.word	0
 2176 0008 00000000 		.word	0
 2177 000c 00000000 		.word	bmk10_execute
 2178              		.section	.rodata.testbmk4,"a",%progbits
 2179              		.align	2
 2180              		.type	testbmk4, %object
 2181              		.size	testbmk4, 16
 2182              	testbmk4:
 2183 0000 64020000 		.word	.LC29
 2184 0004 00000000 		.word	0
 2185 0008 00000000 		.word	0
 2186 000c 00000000 		.word	bmk4_execute
 2187              		.section	.bss.mtx1,"aw",%nobits
 2188              		.align	2
 2189              		.set	.LANCHOR0,. + 0
 2190              		.type	mtx1, %object
 2191              		.size	mtx1, 16
 2192              	mtx1:
 2193 0000 00000000 		.space	16
 2193      00000000 
 2193      00000000 
ARM GAS  /tmp/cc3wakGH.s 			page 40


 2193      00000000 
 2194              		.section	.rodata.testbmk3,"a",%progbits
 2195              		.align	2
 2196              		.type	testbmk3, %object
 2197              		.size	testbmk3, 16
 2198              	testbmk3:
 2199 0000 80020000 		.word	.LC30
 2200 0004 00000000 		.word	0
 2201 0008 00000000 		.word	0
 2202 000c 00000000 		.word	bmk3_execute
 2203              		.section	.rodata.testbmk6,"a",%progbits
 2204              		.align	2
 2205              		.type	testbmk6, %object
 2206              		.size	testbmk6, 16
 2207              	testbmk6:
 2208 0000 24020000 		.word	.LC27
 2209 0004 00000000 		.word	0
 2210 0008 00000000 		.word	0
 2211 000c 00000000 		.word	bmk6_execute
 2212              		.section	.bss.vt2.5914,"aw",%nobits
 2213              		.align	2
 2214              		.set	.LANCHOR3,. + 0
 2215              		.type	vt2.5914, %object
 2216              		.size	vt2.5914, 20
 2217              	vt2.5914:
 2218 0000 00000000 		.space	20
 2218      00000000 
 2218      00000000 
 2218      00000000 
 2218      00000000 
 2219              		.section	.rodata.str1.4,"aMS",%progbits,1
 2220              		.align	2
 2221              	.LC0:
 2222 0000 2D2D2D20 		.ascii	"--- System: \000"
 2222      53797374 
 2222      656D3A20 
 2222      00
 2223 000d 000000   		.space	3
 2224              	.LC1:
 2225 0010 20627974 		.ascii	" bytes\000"
 2225      657300
 2226 0017 00       		.space	1
 2227              	.LC2:
 2228 0018 2D2D2D20 		.ascii	"--- Thread: \000"
 2228      54687265 
 2228      61643A20 
 2228      00
 2229 0025 000000   		.space	3
 2230              	.LC3:
 2231 0028 2D2D2D20 		.ascii	"--- Timer : \000"
 2231      54696D65 
 2231      72203A20 
 2231      00
 2232 0035 000000   		.space	3
 2233              	.LC4:
 2234 0038 2D2D2D20 		.ascii	"--- Semaph: \000"
 2234      53656D61 
ARM GAS  /tmp/cc3wakGH.s 			page 41


 2234      70683A20 
 2234      00
 2235 0045 000000   		.space	3
 2236              	.LC5:
 2237 0048 2D2D2D20 		.ascii	"--- EventS: \000"
 2237      4576656E 
 2237      74533A20 
 2237      00
 2238 0055 000000   		.space	3
 2239              	.LC6:
 2240 0058 2D2D2D20 		.ascii	"--- EventL: \000"
 2240      4576656E 
 2240      744C3A20 
 2240      00
 2241 0065 000000   		.space	3
 2242              	.LC7:
 2243 0068 2D2D2D20 		.ascii	"--- Mutex : \000"
 2243      4D757465 
 2243      78203A20 
 2243      00
 2244 0075 000000   		.space	3
 2245              	.LC8:
 2246 0078 2D2D2D20 		.ascii	"--- CondV.: \000"
 2246      436F6E64 
 2246      562E3A20 
 2246      00
 2247 0085 000000   		.space	3
 2248              	.LC9:
 2249 0088 2D2D2D20 		.ascii	"--- Queue : \000"
 2249      51756575 
 2249      65203A20 
 2249      00
 2250 0095 000000   		.space	3
 2251              	.LC10:
 2252 0098 2D2D2D20 		.ascii	"--- MailB.: \000"
 2252      4D61696C 
 2252      422E3A20 
 2252      00
 2253 00a5 000000   		.space	3
 2254              	.LC11:
 2255 00a8 2D2D2D20 		.ascii	"--- Score : \000"
 2255      53636F72 
 2255      65203A20 
 2255      00
 2256 00b5 000000   		.space	3
 2257              	.LC12:
 2258 00b8 206C6F63 		.ascii	" lock+unlock/S\000"
 2258      6B2B756E 
 2258      6C6F636B 
 2258      2F5300
 2259 00c7 00       		.space	1
 2260              	.LC13:
 2261 00c8 20776169 		.ascii	" wait+signal/S\000"
 2261      742B7369 
 2261      676E616C 
 2261      2F5300
 2262 00d7 00       		.space	1
ARM GAS  /tmp/cc3wakGH.s 			page 42


 2263              	.LC14:
 2264 00d8 2074696D 		.ascii	" timers/S\000"
 2264      6572732F 
 2264      5300
 2265 00e2 0000     		.space	2
 2266              	.LC15:
 2267 00e4 20627974 		.ascii	" bytes/S\000"
 2267      65732F53 
 2267      00
 2268 00ed 000000   		.space	3
 2269              	.LC16:
 2270 00f0 20746872 		.ascii	" threads/S\000"
 2270      65616473 
 2270      2F5300
 2271 00fb 00       		.space	1
 2272              	.LC17:
 2273 00fc 20637478 		.ascii	" ctxswc/S\000"
 2273      7377632F 
 2273      5300
 2274 0106 0000     		.space	2
 2275              	.LC18:
 2276 0108 20726573 		.ascii	" reschedules/S, \000"
 2276      63686564 
 2276      756C6573 
 2276      2F532C20 
 2276      00
 2277 0119 000000   		.space	3
 2278              	.LC19:
 2279 011c 206D7367 		.ascii	" msgs/S, \000"
 2279      732F532C 
 2279      2000
 2280 0126 0000     		.space	2
 2281              	.LC20:
 2282 0128 42656E63 		.ascii	"Benchmark, RAM footprint\000"
 2282      686D6172 
 2282      6B2C2052 
 2282      414D2066 
 2282      6F6F7470 
 2283 0141 000000   		.space	3
 2284              	.LC21:
 2285 0144 42656E63 		.ascii	"Benchmark, mutexes lock/unlock\000"
 2285      686D6172 
 2285      6B2C206D 
 2285      75746578 
 2285      6573206C 
 2286 0163 00       		.space	1
 2287              	.LC22:
 2288 0164 42656E63 		.ascii	"Benchmark, semaphores wait/signal\000"
 2288      686D6172 
 2288      6B2C2073 
 2288      656D6170 
 2288      686F7265 
 2289 0186 0000     		.space	2
 2290              	.LC23:
 2291 0188 42656E63 		.ascii	"Benchmark, virtual timers set/reset\000"
 2291      686D6172 
 2291      6B2C2076 
ARM GAS  /tmp/cc3wakGH.s 			page 43


 2291      69727475 
 2291      616C2074 
 2292              	.LC24:
 2293 01ac 42656E63 		.ascii	"Benchmark, I/O Queues throughput\000"
 2293      686D6172 
 2293      6B2C2049 
 2293      2F4F2051 
 2293      75657565 
 2294 01cd 000000   		.space	3
 2295              	.LC25:
 2296 01d0 42656E63 		.ascii	"Benchmark, round robin context switching\000"
 2296      686D6172 
 2296      6B2C2072 
 2296      6F756E64 
 2296      20726F62 
 2297 01f9 000000   		.space	3
 2298              	.LC26:
 2299 01fc 42656E63 		.ascii	"Benchmark, mass reschedule, 5 threads\000"
 2299      686D6172 
 2299      6B2C206D 
 2299      61737320 
 2299      72657363 
 2300 0222 0000     		.space	2
 2301              	.LC27:
 2302 0224 42656E63 		.ascii	"Benchmark, threads, create only\000"
 2302      686D6172 
 2302      6B2C2074 
 2302      68726561 
 2302      64732C20 
 2303              	.LC28:
 2304 0244 42656E63 		.ascii	"Benchmark, threads, full cycle\000"
 2304      686D6172 
 2304      6B2C2074 
 2304      68726561 
 2304      64732C20 
 2305 0263 00       		.space	1
 2306              	.LC29:
 2307 0264 42656E63 		.ascii	"Benchmark, context switch\000"
 2307      686D6172 
 2307      6B2C2063 
 2307      6F6E7465 
 2307      78742073 
 2308 027e 0000     		.space	2
 2309              	.LC30:
 2310 0280 42656E63 		.ascii	"Benchmark, messages #3\000"
 2310      686D6172 
 2310      6B2C206D 
 2310      65737361 
 2310      67657320 
 2311 0297 00       		.space	1
 2312              	.LC31:
 2313 0298 42656E63 		.ascii	"Benchmark, messages #2\000"
 2313      686D6172 
 2313      6B2C206D 
 2313      65737361 
 2313      67657320 
 2314 02af 00       		.space	1
ARM GAS  /tmp/cc3wakGH.s 			page 44


 2315              	.LC32:
 2316 02b0 42656E63 		.ascii	"Benchmark, messages #1\000"
 2316      686D6172 
 2316      6B2C206D 
 2316      65737361 
 2316      67657320 
 2317 02c7 00       		.section	.bss.vt1.5913,"aw",%nobits
 2318              		.align	2
 2319              		.set	.LANCHOR2,. + 0
 2320              		.type	vt1.5913, %object
 2321              		.size	vt1.5913, 20
 2322              	vt1.5913:
 2323 0000 00000000 		.space	20
 2323      00000000 
 2323      00000000 
 2323      00000000 
 2323      00000000 
 2324              		.section	.bss.sem1,"aw",%nobits
 2325              		.align	2
 2326              		.set	.LANCHOR1,. + 0
 2327              		.type	sem1, %object
 2328              		.size	sem1, 12
 2329              	sem1:
 2330 0000 00000000 		.space	12
 2330      00000000 
 2330      00000000 
 2331              		.section	.bss.ib.5902,"aw",%nobits
 2332              		.align	2
 2333              		.set	.LANCHOR5,. + 0
 2334              		.type	ib.5902, %object
 2335              		.size	ib.5902, 16
 2336              	ib.5902:
 2337 0000 00000000 		.space	16
 2337      00000000 
 2337      00000000 
 2337      00000000 
 2338              		.section	.rodata.testbmk1,"a",%progbits
 2339              		.align	2
 2340              		.type	testbmk1, %object
 2341              		.size	testbmk1, 16
 2342              	testbmk1:
 2343 0000 B0020000 		.word	.LC32
 2344 0004 00000000 		.word	0
 2345 0008 00000000 		.word	0
 2346 000c 00000000 		.word	bmk1_execute
 2347              		.section	.rodata.testbmk11,"a",%progbits
 2348              		.align	2
 2349              		.type	testbmk11, %object
 2350              		.size	testbmk11, 16
 2351              	testbmk11:
 2352 0000 64010000 		.word	.LC22
 2353 0004 00000000 		.word	bmk11_setup
 2354 0008 00000000 		.word	0
 2355 000c 00000000 		.word	bmk11_execute
 2356              		.section	.rodata.testbmk12,"a",%progbits
 2357              		.align	2
 2358              		.type	testbmk12, %object
ARM GAS  /tmp/cc3wakGH.s 			page 45


 2359              		.size	testbmk12, 16
 2360              	testbmk12:
 2361 0000 44010000 		.word	.LC21
 2362 0004 00000000 		.word	bmk12_setup
 2363 0008 00000000 		.word	0
 2364 000c 00000000 		.word	bmk12_execute
 2365              		.section	.rodata.testbmk13,"a",%progbits
 2366              		.align	2
 2367              		.type	testbmk13, %object
 2368              		.size	testbmk13, 16
 2369              	testbmk13:
 2370 0000 28010000 		.word	.LC20
 2371 0004 00000000 		.word	0
 2372 0008 00000000 		.word	0
 2373 000c 00000000 		.word	bmk13_execute
 2374              		.section	.rodata.testbmk5,"a",%progbits
 2375              		.align	2
 2376              		.type	testbmk5, %object
 2377              		.size	testbmk5, 16
 2378              	testbmk5:
 2379 0000 44020000 		.word	.LC28
 2380 0004 00000000 		.word	0
 2381 0008 00000000 		.word	0
 2382 000c 00000000 		.word	bmk5_execute
 2383              		.section	.bss.iq.5903,"aw",%nobits
 2384              		.align	2
 2385              		.set	.LANCHOR4,. + 0
 2386              		.type	iq.5903, %object
 2387              		.size	iq.5903, 36
 2388              	iq.5903:
 2389 0000 00000000 		.space	36
 2389      00000000 
 2389      00000000 
 2389      00000000 
 2389      00000000 
 2390              		.section	.rodata.testbmk7,"a",%progbits
 2391              		.align	2
 2392              		.type	testbmk7, %object
 2393              		.size	testbmk7, 16
 2394              	testbmk7:
 2395 0000 FC010000 		.word	.LC26
 2396 0004 00000000 		.word	bmk7_setup
 2397 0008 00000000 		.word	0
 2398 000c 00000000 		.word	bmk7_execute
 2399              		.text
 2400              	.Letext0:
 2401              		.file 5 "/home/madog/programs/CodeSourcery/Sourcery_CodeBench_Lite_for_ARM_EABI/bin/../lib/gcc/arm
 2402              		.file 6 "/home/madog/programs/CodeSourcery/Sourcery_CodeBench_Lite_for_ARM_EABI/bin/../lib/gcc/arm
 2403              		.file 7 "../../../resources/chibios/ChibiOS_16.1.8/os/rt/ports/ARMCMx/compilers/GCC/chtypes.h"
 2404              		.file 8 "../../../resources/chibios/ChibiOS_16.1.8/os/rt/include/chsystypes.h"
 2405              		.file 9 "../../../resources/chibios/ChibiOS_16.1.8/os/rt/include/chschd.h"
 2406              		.file 10 "../../../resources/chibios/ChibiOS_16.1.8/os/rt/ports/ARMCMx/chcore.h"
 2407              		.file 11 "../../../resources/chibios/ChibiOS_16.1.8/os/rt/ports/ARMCMx/chcore_v7m.h"
 2408              		.file 12 "../../../resources/chibios/ChibiOS_16.1.8/os/rt/include/chtm.h"
 2409              		.file 13 "../../../resources/chibios/ChibiOS_16.1.8/os/rt/include/chsem.h"
 2410              		.file 14 "../../../resources/chibios/ChibiOS_16.1.8/os/rt/include/chmtx.h"
 2411              		.file 15 "../../../resources/chibios/ChibiOS_16.1.8/test/rt/test.h"
ARM GAS  /tmp/cc3wakGH.s 			page 46


 2412              		.file 16 "../../../resources/chibios/ChibiOS_16.1.8/os/rt/include/chsys.h"
 2413              		.file 17 "../../../resources/chibios/ChibiOS_16.1.8/os/rt/include/chmsg.h"
 2414              		.file 18 "../../../resources/chibios/ChibiOS_16.1.8/os/ext/CMSIS/include/core_cm3.h"