ARM GAS  /tmp/cc5LJx8o.s 			page 1


   1              		.syntax unified
   2              		.cpu cortex-m3
   3              		.fpu softvfp
   4              		.eabi_attribute 20, 1
   5              		.eabi_attribute 21, 1
   6              		.eabi_attribute 23, 3
   7              		.eabi_attribute 24, 1
   8              		.eabi_attribute 25, 1
   9              		.eabi_attribute 26, 1
  10              		.eabi_attribute 30, 2
  11              		.eabi_attribute 34, 1
  12              		.eabi_attribute 18, 4
  13              		.thumb
  14              		.file	"testqueues.c"
  15              		.text
  16              	.Ltext0:
  17              		.cfi_sections	.debug_frame
  18              		.section	.text.notify,"ax",%progbits
  19              		.align	2
  20              		.p2align 4,,15
  21              		.thumb
  22              		.thumb_func
  23              		.type	notify, %function
  24              	notify:
  25              	.LFB182:
  26              		.file 1 "../../../resources/chibios/ChibiOS_16.1.8/test/rt/testqueues.c"
  27              		.loc 1 57 0
  28              		.cfi_startproc
  29              		@ args = 0, pretend = 0, frame = 0
  30              		@ frame_needed = 0, uses_anonymous_args = 0
  31              		@ link register save eliminated.
  32              	.LVL0:
  33              		.loc 1 59 0
  34 0000 7047     		bx	lr
  35              		.cfi_endproc
  36              	.LFE182:
  37              		.size	notify, .-notify
  38 0002 00BFAFF3 		.section	.text.thread2,"ax",%progbits
  38      0080AFF3 
  38      0080AFF3 
  38      0080
  39              		.align	2
  40              		.p2align 4,,15
  41              		.thumb
  42              		.thumb_func
  43              		.type	thread2, %function
  44              	thread2:
  45              	.LFB187:
  46              		.loc 1 169 0
  47              		.cfi_startproc
  48              		@ args = 0, pretend = 0, frame = 0
  49              		@ frame_needed = 0, uses_anonymous_args = 0
  50              		@ link register save eliminated.
  51              	.LVL1:
  52              		.loc 1 172 0
  53 0000 40F20000 		movw	r0, #:lower16:.LANCHOR0
  54              	.LVL2:
ARM GAS  /tmp/cc5LJx8o.s 			page 2


  55 0004 C0F20000 		movt	r0, #:upper16:.LANCHOR0
  56 0008 0021     		movs	r1, #0
  57 000a C822     		movs	r2, #200
  58              		.loc 1 173 0
  59              		.loc 1 172 0
  60 000c FFF7FEBF 		b	chOQPutTimeout
  61              		.cfi_endproc
  62              	.LFE187:
  63              		.size	thread2, .-thread2
  64              		.section	.text.queues2_setup,"ax",%progbits
  65              		.align	2
  66              		.p2align 4,,15
  67              		.thumb
  68              		.thumb_func
  69              		.type	queues2_setup, %function
  70              	queues2_setup:
  71              	.LFB186:
  72              		.loc 1 164 0
  73              		.cfi_startproc
  74              		@ args = 0, pretend = 0, frame = 0
  75              		@ frame_needed = 0, uses_anonymous_args = 0
  76 0000 10B5     		push	{r4, lr}
  77              	.LCFI0:
  78              		.cfi_def_cfa_offset 8
  79              		.cfi_offset 14, -4
  80              		.cfi_offset 4, -8
  81              		.loc 1 166 0
  82 0002 40F20003 		movw	r3, #:lower16:wa
  83 0006 C0F20003 		movt	r3, #:upper16:wa
  84 000a 1968     		ldr	r1, [r3, #0]
  85 000c 40F20000 		movw	r0, #:lower16:.LANCHOR0
  86 0010 40F20003 		movw	r3, #:lower16:notify
  87              		.loc 1 164 0
  88 0014 82B0     		sub	sp, sp, #8
  89              	.LCFI1:
  90              		.cfi_def_cfa_offset 16
  91              		.loc 1 166 0
  92 0016 0024     		movs	r4, #0
  93 0018 C0F20000 		movt	r0, #:upper16:.LANCHOR0
  94 001c 0422     		movs	r2, #4
  95 001e C0F20003 		movt	r3, #:upper16:notify
  96 0022 0094     		str	r4, [sp, #0]
  97 0024 FFF7FEFF 		bl	chOQObjectInit
  98              		.loc 1 167 0
  99 0028 02B0     		add	sp, sp, #8
 100 002a 10BD     		pop	{r4, pc}
 101              		.cfi_endproc
 102              	.LFE186:
 103              		.size	queues2_setup, .-queues2_setup
 104 002c AFF30080 		.section	.text.thread1,"ax",%progbits
 105              		.align	2
 106              		.p2align 4,,15
 107              		.thumb
 108              		.thumb_func
 109              		.type	thread1, %function
 110              	thread1:
 111              	.LFB184:
ARM GAS  /tmp/cc5LJx8o.s 			page 3


 112              		.loc 1 83 0
 113              		.cfi_startproc
 114              		@ args = 0, pretend = 0, frame = 0
 115              		@ frame_needed = 0, uses_anonymous_args = 0
 116              		@ link register save eliminated.
 117              	.LVL3:
 118              		.loc 1 86 0
 119 0000 40F20000 		movw	r0, #:lower16:.LANCHOR1
 120              	.LVL4:
 121 0004 C0F20000 		movt	r0, #:upper16:.LANCHOR1
 122 0008 C821     		movs	r1, #200
 123              		.loc 1 87 0
 124              		.loc 1 86 0
 125 000a FFF7FEBF 		b	chIQGetTimeout
 126              		.cfi_endproc
 127              	.LFE184:
 128              		.size	thread1, .-thread1
 129 000e 00BF     		.section	.text.queues1_setup,"ax",%progbits
 130              		.align	2
 131              		.p2align 4,,15
 132              		.thumb
 133              		.thumb_func
 134              		.type	queues1_setup, %function
 135              	queues1_setup:
 136              	.LFB183:
 137              		.loc 1 78 0
 138              		.cfi_startproc
 139              		@ args = 0, pretend = 0, frame = 0
 140              		@ frame_needed = 0, uses_anonymous_args = 0
 141 0000 10B5     		push	{r4, lr}
 142              	.LCFI2:
 143              		.cfi_def_cfa_offset 8
 144              		.cfi_offset 14, -4
 145              		.cfi_offset 4, -8
 146              		.loc 1 80 0
 147 0002 40F20003 		movw	r3, #:lower16:wa
 148 0006 C0F20003 		movt	r3, #:upper16:wa
 149 000a 1968     		ldr	r1, [r3, #0]
 150 000c 40F20000 		movw	r0, #:lower16:.LANCHOR1
 151 0010 40F20003 		movw	r3, #:lower16:notify
 152              		.loc 1 78 0
 153 0014 82B0     		sub	sp, sp, #8
 154              	.LCFI3:
 155              		.cfi_def_cfa_offset 16
 156              		.loc 1 80 0
 157 0016 0024     		movs	r4, #0
 158 0018 C0F20000 		movt	r0, #:upper16:.LANCHOR1
 159 001c 0422     		movs	r2, #4
 160 001e C0F20003 		movt	r3, #:upper16:notify
 161 0022 0094     		str	r4, [sp, #0]
 162 0024 FFF7FEFF 		bl	chIQObjectInit
 163              		.loc 1 81 0
 164 0028 02B0     		add	sp, sp, #8
 165 002a 10BD     		pop	{r4, pc}
 166              		.cfi_endproc
 167              	.LFE183:
 168              		.size	queues1_setup, .-queues1_setup
ARM GAS  /tmp/cc5LJx8o.s 			page 4


 169 002c AFF30080 		.section	.text.queues2_execute,"ax",%progbits
 170              		.align	2
 171              		.p2align 4,,15
 172              		.thumb
 173              		.thumb_func
 174              		.type	queues2_execute, %function
 175              	queues2_execute:
 176              	.LFB188:
 177              		.loc 1 175 0
 178              		.cfi_startproc
 179              		@ args = 0, pretend = 0, frame = 0
 180              		@ frame_needed = 0, uses_anonymous_args = 0
 181              	.LVL5:
 182 0000 2DE9F043 		push	{r4, r5, r6, r7, r8, r9, lr}
 183              	.LCFI4:
 184              		.cfi_def_cfa_offset 28
 185              		.cfi_offset 14, -4
 186              		.cfi_offset 9, -8
 187              		.cfi_offset 8, -12
 188              		.cfi_offset 7, -16
 189              		.cfi_offset 6, -20
 190              		.cfi_offset 5, -24
 191              		.cfi_offset 4, -28
 192              	.LBB858:
 193              	.LBB859:
 194              	.LBB860:
 195              	.LBB861:
 196              		.file 2 "../../../resources/chibios/ChibiOS_16.1.8/os/ext/CMSIS/include/core_cmFunc.h"
 197              		.loc 2 548 0
 198 0004 2020     		movs	r0, #32
 199              	.LBE861:
 200              	.LBE860:
 201              	.LBE859:
 202              	.LBE858:
 203              		.loc 1 175 0
 204 0006 83B0     		sub	sp, sp, #12
 205              	.LCFI5:
 206              		.cfi_def_cfa_offset 40
 207              	.LBB865:
 208              	.LBB864:
 209              	.LBB863:
 210              	.LBB862:
 211              		.loc 2 548 0
 212              	@ 548 "../../../resources/chibios/ChibiOS_16.1.8/os/ext/CMSIS/include/core_cmFunc.h" 1
 213 0008 80F31188 		MSR basepri, r0
 214              	@ 0 "" 2
 215              	.LVL6:
 216              		.thumb
 217              	.LBE862:
 218              	.LBE863:
 219              	.LBE864:
 220              	.LBE865:
 221              	.LBB866:
 222              	.LBB867:
 223              		.file 3 "../../../resources/chibios/ChibiOS_16.1.8/os/rt/include/chqueues.h"
 224              		.loc 3 393 0
 225 000c 40F20005 		movw	r5, #:lower16:.LANCHOR0
ARM GAS  /tmp/cc5LJx8o.s 			page 5


 226 0010 C0F20005 		movt	r5, #:upper16:.LANCHOR0
 227 0014 6A69     		ldr	r2, [r5, #20]
 228 0016 AB69     		ldr	r3, [r5, #24]
 229 0018 0021     		movs	r1, #0
 230 001a 9A42     		cmp	r2, r3
 231 001c 00F08F80 		beq	.L24
 232              	.L7:
 233              	.LBE867:
 234              	.LBE866:
 235              		.loc 1 180 0
 236 0020 0120     		movs	r0, #1
 237 0022 FFF7FEFF 		bl	_test_assert
 238 0026 0646     		mov	r6, r0
 239 0028 0028     		cmp	r0, #0
 240 002a 61D1     		bne	.L22
 241              	.LVL7:
 242              	.LBB869:
 243              	.LBB870:
 244              	.LBB871:
 245              	.LBB872:
 246              	.LBB873:
 247              		.loc 2 548 0
 248              	@ 548 "../../../resources/chibios/ChibiOS_16.1.8/os/ext/CMSIS/include/core_cmFunc.h" 1
 249 002c 80F31188 		MSR basepri, r0
 250              	@ 0 "" 2
 251              	.LVL8:
 252              		.thumb
 253              	.LBE873:
 254              	.LBE872:
 255              	.LBE871:
 256              	.LBE870:
 257              	.LBE869:
 258              	.LBB874:
 259              	.LBB875:
 260              		.loc 1 184 0
 261 0030 40F20004 		movw	r4, #:lower16:.LANCHOR0
 262 0034 C0F20004 		movt	r4, #:upper16:.LANCHOR0
 263              		.loc 3 430 0
 264 0038 4121     		movs	r1, #65
 265 003a 2046     		mov	r0, r4
 266 003c 4FF6FF72 		movw	r2, #65535
 267 0040 FFF7FEFF 		bl	chOQPutTimeout
 268              	.LVL9:
 269 0044 4221     		movs	r1, #66
 270 0046 2046     		mov	r0, r4
 271 0048 4FF6FF72 		movw	r2, #65535
 272 004c FFF7FEFF 		bl	chOQPutTimeout
 273              	.LVL10:
 274 0050 4321     		movs	r1, #67
 275 0052 2046     		mov	r0, r4
 276 0054 4FF6FF72 		movw	r2, #65535
 277 0058 FFF7FEFF 		bl	chOQPutTimeout
 278              	.LVL11:
 279 005c 2046     		mov	r0, r4
 280 005e 4421     		movs	r1, #68
 281 0060 4FF6FF72 		movw	r2, #65535
 282 0064 FFF7FEFF 		bl	chOQPutTimeout
ARM GAS  /tmp/cc5LJx8o.s 			page 6


 283              	.LVL12:
 284              	.LBE875:
 285              	.LBE874:
 286              	.LBB876:
 287              	.LBB877:
 288              	.LBB878:
 289              	.LBB879:
 290              		.loc 2 548 0
 291 0068 2027     		movs	r7, #32
 292              	@ 548 "../../../resources/chibios/ChibiOS_16.1.8/os/ext/CMSIS/include/core_cmFunc.h" 1
 293 006a 87F31188 		MSR basepri, r7
 294              	@ 0 "" 2
 295              	.LVL13:
 296              		.thumb
 297              	.LBE879:
 298              	.LBE878:
 299              	.LBE877:
 300              	.LBE876:
 301              	.LBB880:
 302              	.LBB881:
 303              		.loc 3 411 0
 304 006e AD68     		ldr	r5, [r5, #8]
 305              	.LBE881:
 306              	.LBE880:
 307              		.loc 1 185 0
 308 0070 0220     		movs	r0, #2
 309 0072 D5F10101 		rsbs	r1, r5, #1
 310 0076 38BF     		it	cc
 311 0078 0021     		movcc	r1, #0
 312 007a FFF7FEFF 		bl	_test_assert
 313 007e 0546     		mov	r5, r0
 314 0080 0028     		cmp	r0, #0
 315 0082 59D1     		bne	.L21
 316              	.LVL14:
 317              	.LBB882:
 318              	.LBB883:
 319              	.LBB884:
 320              	.LBB885:
 321              	.LBB886:
 322              	.LBB887:
 323              	.LBB888:
 324              		.loc 2 548 0
 325              	@ 548 "../../../resources/chibios/ChibiOS_16.1.8/os/ext/CMSIS/include/core_cmFunc.h" 1
 326 0084 80F31188 		MSR basepri, r0
 327              	@ 0 "" 2
 328              	.LVL15:
 329              		.thumb
 330              	.LBE888:
 331              	.LBE887:
 332              	.LBE886:
 333              	.LBE885:
 334              	.LBE884:
 335              	.LBB889:
 336              	.LBB890:
 337              	.LBB891:
 338              	.LBB892:
 339              	.LBB893:
ARM GAS  /tmp/cc5LJx8o.s 			page 7


 340              	@ 548 "../../../resources/chibios/ChibiOS_16.1.8/os/ext/CMSIS/include/core_cmFunc.h" 1
 341 0088 87F31188 		MSR basepri, r7
 342              	@ 0 "" 2
 343              		.thumb
 344              	.LBE893:
 345              	.LBE892:
 346              	.LBE891:
 347              	.LBE890:
 348              		.loc 1 192 0
 349 008c 2046     		mov	r0, r4
 350 008e FFF7FEFF 		bl	chOQGetI
 351              	.LVL16:
 352              	.LBB903:
 353              	.LBB904:
 354              	.LBB905:
 355              	.LBB906:
 356              	.LBB907:
 357              		.loc 2 548 0
 358              	@ 548 "../../../resources/chibios/ChibiOS_16.1.8/os/ext/CMSIS/include/core_cmFunc.h" 1
 359 0092 85F31188 		MSR basepri, r5
 360              	@ 0 "" 2
 361              		.thumb
 362              	.LBE907:
 363              	.LBE906:
 364              	.LBE905:
 365              	.LBE904:
 366              	.LBE903:
 367              		.loc 1 194 0
 368 0096 C0B2     		uxtb	r0, r0
 369              	.LVL17:
 370 0098 FFF7FEFF 		bl	test_emit_token
 371              	.LVL18:
 372              	.LBB920:
 373              	.LBB900:
 374              	.LBB897:
 375              	.LBB894:
 376              		.loc 2 548 0
 377              	@ 548 "../../../resources/chibios/ChibiOS_16.1.8/os/ext/CMSIS/include/core_cmFunc.h" 1
 378 009c 87F31188 		MSR basepri, r7
 379              	@ 0 "" 2
 380              		.thumb
 381              	.LBE894:
 382              	.LBE897:
 383              	.LBE900:
 384              	.LBE920:
 385              		.loc 1 192 0
 386 00a0 2046     		mov	r0, r4
 387 00a2 FFF7FEFF 		bl	chOQGetI
 388              	.LVL19:
 389              	.LBB921:
 390              	.LBB917:
 391              	.LBB914:
 392              	.LBB911:
 393              	.LBB908:
 394              		.loc 2 548 0
 395              	@ 548 "../../../resources/chibios/ChibiOS_16.1.8/os/ext/CMSIS/include/core_cmFunc.h" 1
 396 00a6 85F31188 		MSR basepri, r5
ARM GAS  /tmp/cc5LJx8o.s 			page 8


 397              	@ 0 "" 2
 398              		.thumb
 399              	.LBE908:
 400              	.LBE911:
 401              	.LBE914:
 402              	.LBE917:
 403              	.LBE921:
 404              		.loc 1 194 0
 405 00aa C0B2     		uxtb	r0, r0
 406              	.LVL20:
 407 00ac FFF7FEFF 		bl	test_emit_token
 408              	.LVL21:
 409              	.LBB922:
 410              	.LBB901:
 411              	.LBB898:
 412              	.LBB895:
 413              		.loc 2 548 0
 414              	@ 548 "../../../resources/chibios/ChibiOS_16.1.8/os/ext/CMSIS/include/core_cmFunc.h" 1
 415 00b0 87F31188 		MSR basepri, r7
 416              	@ 0 "" 2
 417              		.thumb
 418              	.LBE895:
 419              	.LBE898:
 420              	.LBE901:
 421              	.LBE922:
 422              		.loc 1 192 0
 423 00b4 2046     		mov	r0, r4
 424 00b6 FFF7FEFF 		bl	chOQGetI
 425              	.LVL22:
 426              	.LBB923:
 427              	.LBB918:
 428              	.LBB915:
 429              	.LBB912:
 430              	.LBB909:
 431              		.loc 2 548 0
 432              	@ 548 "../../../resources/chibios/ChibiOS_16.1.8/os/ext/CMSIS/include/core_cmFunc.h" 1
 433 00ba 85F31188 		MSR basepri, r5
 434              	@ 0 "" 2
 435              		.thumb
 436              	.LBE909:
 437              	.LBE912:
 438              	.LBE915:
 439              	.LBE918:
 440              	.LBE923:
 441              		.loc 1 194 0
 442 00be C0B2     		uxtb	r0, r0
 443              	.LVL23:
 444 00c0 FFF7FEFF 		bl	test_emit_token
 445              	.LVL24:
 446              	.LBB924:
 447              	.LBB902:
 448              	.LBB899:
 449              	.LBB896:
 450              		.loc 2 548 0
 451              	@ 548 "../../../resources/chibios/ChibiOS_16.1.8/os/ext/CMSIS/include/core_cmFunc.h" 1
 452 00c4 87F31188 		MSR basepri, r7
 453              	@ 0 "" 2
ARM GAS  /tmp/cc5LJx8o.s 			page 9


 454              		.thumb
 455              	.LBE896:
 456              	.LBE899:
 457              	.LBE902:
 458              	.LBE924:
 459              		.loc 1 192 0
 460 00c8 2046     		mov	r0, r4
 461 00ca FFF7FEFF 		bl	chOQGetI
 462              	.LVL25:
 463              	.LBB925:
 464              	.LBB919:
 465              	.LBB916:
 466              	.LBB913:
 467              	.LBB910:
 468              		.loc 2 548 0
 469              	@ 548 "../../../resources/chibios/ChibiOS_16.1.8/os/ext/CMSIS/include/core_cmFunc.h" 1
 470 00ce 85F31188 		MSR basepri, r5
 471              	@ 0 "" 2
 472              		.thumb
 473              	.LBE910:
 474              	.LBE913:
 475              	.LBE916:
 476              	.LBE919:
 477              	.LBE925:
 478              		.loc 1 194 0
 479 00d2 C0B2     		uxtb	r0, r0
 480              	.LVL26:
 481 00d4 FFF7FEFF 		bl	test_emit_token
 482              	.LVL27:
 483              	.LBE889:
 484              	.LBB926:
 485              	.LBB927:
 486              	.LBB928:
 487              	.LBB929:
 488              		.loc 2 548 0
 489              	@ 548 "../../../resources/chibios/ChibiOS_16.1.8/os/ext/CMSIS/include/core_cmFunc.h" 1
 490 00d8 87F31188 		MSR basepri, r7
 491              	@ 0 "" 2
 492              	.LVL28:
 493              		.thumb
 494              	.LBE929:
 495              	.LBE928:
 496              	.LBE927:
 497              	.LBE926:
 498              	.LBB930:
 499              	.LBB931:
 500              		.loc 3 393 0
 501 00dc 6269     		ldr	r2, [r4, #20]
 502 00de A369     		ldr	r3, [r4, #24]
 503 00e0 9A42     		cmp	r2, r3
 504 00e2 18BF     		it	ne
 505 00e4 2946     		movne	r1, r5
 506 00e6 2FD0     		beq	.L25
 507              	.L11:
 508              	.LBE931:
 509              	.LBE930:
 510              		.loc 1 196 0
ARM GAS  /tmp/cc5LJx8o.s 			page 10


 511 00e8 0320     		movs	r0, #3
 512 00ea FFF7FEFF 		bl	_test_assert
 513 00ee 28B1     		cbz	r0, .L12
 514              	.LVL29:
 515              	.L22:
 516              	.LBB933:
 517              	.LBB934:
 518              	.LBB935:
 519              	.LBB936:
 520              	.LBB937:
 521              		.loc 2 548 0
 522 00f0 0023     		movs	r3, #0
 523              	@ 548 "../../../resources/chibios/ChibiOS_16.1.8/os/ext/CMSIS/include/core_cmFunc.h" 1
 524 00f2 83F31188 		MSR basepri, r3
 525              	@ 0 "" 2
 526              	.LVL30:
 527              		.thumb
 528              	.L6:
 529              	.LBE937:
 530              	.LBE936:
 531              	.LBE935:
 532              	.LBE934:
 533              	.LBE933:
 534              	.LBE883:
 535              	.LBE882:
 536              		.loc 1 223 0
 537 00f6 03B0     		add	sp, sp, #12
 538 00f8 BDE8F083 		pop	{r4, r5, r6, r7, r8, r9, pc}
 539              	.LVL31:
 540              	.L12:
 541              	.LBB1028:
 542              	.LBB1025:
 543              	.LBB938:
 544              	.LBB939:
 545              	.LBB940:
 546              	.LBB941:
 547              	.LBB942:
 548              		.loc 2 548 0
 549              	@ 548 "../../../resources/chibios/ChibiOS_16.1.8/os/ext/CMSIS/include/core_cmFunc.h" 1
 550 00fc 80F31188 		MSR basepri, r0
 551              	@ 0 "" 2
 552              		.thumb
 553              	.LBE942:
 554              	.LBE941:
 555              	.LBE940:
 556              	.LBE939:
 557              	.LBE938:
 558              		.loc 1 197 0
 559 0100 40F20001 		movw	r1, #:lower16:.LC0
 560 0104 0420     		movs	r0, #4
 561 0106 C0F20001 		movt	r1, #:upper16:.LC0
 562 010a FFF7FEFF 		bl	_test_assert_sequence
 563 010e 0646     		mov	r6, r0
 564 0110 0028     		cmp	r0, #0
 565 0112 F0D1     		bne	.L6
 566              	.LVL32:
 567              	.LBB943:
ARM GAS  /tmp/cc5LJx8o.s 			page 11


 568              	.LBB944:
 569              	.LBB945:
 570              	.LBB946:
 571              		.loc 2 548 0
 572 0114 2025     		movs	r5, #32
 573              	@ 548 "../../../resources/chibios/ChibiOS_16.1.8/os/ext/CMSIS/include/core_cmFunc.h" 1
 574 0116 85F31188 		MSR basepri, r5
 575              	@ 0 "" 2
 576              		.thumb
 577              	.LBE946:
 578              	.LBE945:
 579              	.LBE944:
 580              	.LBE943:
 581              		.loc 1 198 0
 582 011a 40F20004 		movw	r4, #:lower16:.LANCHOR0
 583 011e C0F20004 		movt	r4, #:upper16:.LANCHOR0
 584 0122 2046     		mov	r0, r4
 585 0124 FFF7FEFF 		bl	chOQGetI
 586 0128 0330     		adds	r0, r0, #3
 587 012a 14BF     		ite	ne
 588 012c 0021     		movne	r1, #0
 589 012e 0121     		moveq	r1, #1
 590 0130 0520     		movs	r0, #5
 591 0132 FFF7FEFF 		bl	_test_assert
 592 0136 60B1     		cbz	r0, .L13
 593              	.LVL33:
 594              	.L21:
 595              	.LBB947:
 596              	.LBB948:
 597              	.LBB949:
 598              	.LBB950:
 599              	.LBB951:
 600              		.loc 2 548 0
 601              	@ 548 "../../../resources/chibios/ChibiOS_16.1.8/os/ext/CMSIS/include/core_cmFunc.h" 1
 602 0138 86F31188 		MSR basepri, r6
 603              	@ 0 "" 2
 604              		.thumb
 605 013c DBE7     		b	.L6
 606              	.LVL34:
 607              	.L24:
 608              	.LBE951:
 609              	.LBE950:
 610              	.LBE949:
 611              	.LBE948:
 612              	.LBE947:
 613              	.LBE1025:
 614              	.LBE1028:
 615              	.LBB1029:
 616              	.LBB868:
 617              		.loc 3 393 0
 618 013e A968     		ldr	r1, [r5, #8]
 619              		.loc 1 175 0
 620 0140 0031     		adds	r1, r1, #0
 621 0142 18BF     		it	ne
 622 0144 0121     		movne	r1, #1
 623 0146 6BE7     		b	.L7
 624              	.LVL35:
ARM GAS  /tmp/cc5LJx8o.s 			page 12


 625              	.L25:
 626              	.LBE868:
 627              	.LBE1029:
 628              	.LBB1030:
 629              	.LBB1026:
 630              	.LBB952:
 631              	.LBB932:
 632              		.loc 3 393 0
 633 0148 A068     		ldr	r0, [r4, #8]
 634              		.loc 1 175 0
 635 014a 011C     		adds	r1, r0, #0
 636 014c 18BF     		it	ne
 637 014e 0121     		movne	r1, #1
 638 0150 CAE7     		b	.L11
 639              	.LVL36:
 640              	.L13:
 641              	.LBE932:
 642              	.LBE952:
 643              	.LBB953:
 644              	.LBB954:
 645              	.LBB955:
 646              	.LBB956:
 647              	.LBB957:
 648              		.loc 2 548 0
 649              	@ 548 "../../../resources/chibios/ChibiOS_16.1.8/os/ext/CMSIS/include/core_cmFunc.h" 1
 650 0152 80F31188 		MSR basepri, r0
 651              	@ 0 "" 2
 652              		.thumb
 653              	.LBE957:
 654              	.LBE956:
 655              	.LBE955:
 656              	.LBE954:
 657              	.LBE953:
 658              		.loc 1 201 0
 659 0156 40F20006 		movw	r6, #:lower16:wa
 660 015a C0F20006 		movt	r6, #:upper16:wa
 661 015e 7768     		ldr	r7, [r6, #4]
 662 0160 0822     		movs	r2, #8
 663 0162 0346     		mov	r3, r0
 664 0164 3946     		mov	r1, r7
 665 0166 2046     		mov	r0, r4
 666 0168 FFF7FEFF 		bl	chOQWriteTimeout
 667              	.LVL37:
 668              		.loc 1 202 0
 669 016c A0F10401 		sub	r1, r0, #4
 670 0170 D1F1000C 		rsbs	ip, r1, #0
 671 0174 4CEB0101 		adc	r1, ip, r1
 672 0178 0620     		movs	r0, #6
 673              	.LVL38:
 674 017a FFF7FEFF 		bl	_test_assert
 675 017e 8146     		mov	r9, r0
 676 0180 0028     		cmp	r0, #0
 677 0182 B8D1     		bne	.L6
 678              	.LVL39:
 679              	.LBB958:
 680              	.LBB959:
 681              	.LBB960:
ARM GAS  /tmp/cc5LJx8o.s 			page 13


 682              	.LBB961:
 683              		.loc 2 548 0
 684              	@ 548 "../../../resources/chibios/ChibiOS_16.1.8/os/ext/CMSIS/include/core_cmFunc.h" 1
 685 0184 85F31188 		MSR basepri, r5
 686              	@ 0 "" 2
 687              	.LVL40:
 688              		.thumb
 689              	.LBE961:
 690              	.LBE960:
 691              	.LBE959:
 692              	.LBE958:
 693              	.LBB962:
 694              	.LBB963:
 695              		.loc 3 411 0
 696 0188 A268     		ldr	r2, [r4, #8]
 697              	.LBE963:
 698              	.LBE962:
 699              		.loc 1 203 0
 700 018a 0720     		movs	r0, #7
 701 018c D2F10101 		rsbs	r1, r2, #1
 702 0190 38BF     		it	cc
 703 0192 0021     		movcc	r1, #0
 704 0194 FFF7FEFF 		bl	_test_assert
 705 0198 8046     		mov	r8, r0
 706 019a 10B1     		cbz	r0, .L14
 707              	.LVL41:
 708              	.LBB964:
 709              	.LBB965:
 710              	.LBB966:
 711              	.LBB967:
 712              	.LBB968:
 713              		.loc 2 548 0
 714              	@ 548 "../../../resources/chibios/ChibiOS_16.1.8/os/ext/CMSIS/include/core_cmFunc.h" 1
 715 019c 89F31188 		MSR basepri, r9
 716              	@ 0 "" 2
 717              		.thumb
 718 01a0 A9E7     		b	.L6
 719              	.LVL42:
 720              	.L14:
 721              	.LBE968:
 722              	.LBE967:
 723              	.LBE966:
 724              	.LBE965:
 725              	.LBE964:
 726              	.LBB969:
 727              	.LBB970:
 728              	.LBB971:
 729              	.LBB972:
 730              	.LBB973:
 731              	@ 548 "../../../resources/chibios/ChibiOS_16.1.8/os/ext/CMSIS/include/core_cmFunc.h" 1
 732 01a2 80F31188 		MSR basepri, r0
 733              	@ 0 "" 2
 734              		.thumb
 735              	.LBE973:
 736              	.LBE972:
 737              	.LBE971:
 738              	.LBE970:
ARM GAS  /tmp/cc5LJx8o.s 			page 14


 739              	.LBE969:
 740              	.LBB974:
 741              	.LBB975:
 742              	.LBB976:
 743              	.LBB977:
 744              		.file 4 "../../../resources/chibios/ChibiOS_16.1.8/os/rt/include/chthreads.h"
 745              		.loc 4 176 0
 746 01a6 40F2000E 		movw	lr, #:lower16:ch
 747 01aa C0F2000E 		movt	lr, #:upper16:ch
 748              	.LBE977:
 749              	.LBE976:
 750              		.loc 4 189 0
 751 01ae DEF81810 		ldr	r1, [lr, #24]
 752              	.LBE975:
 753              	.LBE974:
 754              		.loc 1 204 0
 755 01b2 3068     		ldr	r0, [r6, #0]
 756 01b4 8E68     		ldr	r6, [r1, #8]
 757 01b6 40F20003 		movw	r3, #:lower16:thread2
 758 01ba 4FF4A471 		mov	r1, #328
 759 01be 721C     		adds	r2, r6, #1
 760 01c0 C0F20003 		movt	r3, #:upper16:thread2
 761 01c4 CDF80080 		str	r8, [sp, #0]
 762 01c8 FFF7FEFF 		bl	chThdCreateStatic
 763 01cc 40F20003 		movw	r3, #:lower16:threads
 764 01d0 C0F20003 		movt	r3, #:upper16:threads
 765 01d4 1860     		str	r0, [r3, #0]
 766              	.LVL43:
 767              	.LBB978:
 768              	.LBB979:
 769              	.LBB980:
 770              	.LBB981:
 771              		.loc 2 548 0
 772              	@ 548 "../../../resources/chibios/ChibiOS_16.1.8/os/ext/CMSIS/include/core_cmFunc.h" 1
 773 01d6 85F31188 		MSR basepri, r5
 774              	@ 0 "" 2
 775              	.LVL44:
 776              		.thumb
 777              	.LBE981:
 778              	.LBE980:
 779              	.LBE979:
 780              	.LBE978:
 781              	.LBB982:
 782              	.LBB983:
 783              		.loc 3 359 0
 784 01da 2169     		ldr	r1, [r4, #16]
 785 01dc E268     		ldr	r2, [r4, #12]
 786 01de A668     		ldr	r6, [r4, #8]
 787 01e0 881A     		subs	r0, r1, r2
 788 01e2 C6EB000C 		rsb	ip, r6, r0
 789              	.LBE983:
 790              	.LBE982:
 791              		.loc 1 205 0
 792 01e6 ACF10403 		sub	r3, ip, #4
 793 01ea 0820     		movs	r0, #8
 794 01ec 5E42     		rsbs	r6, r3, #0
 795 01ee 46EB0301 		adc	r1, r6, r3
ARM GAS  /tmp/cc5LJx8o.s 			page 15


 796 01f2 FFF7FEFF 		bl	_test_assert
 797 01f6 0646     		mov	r6, r0
 798 01f8 10B1     		cbz	r0, .L15
 799              	.LVL45:
 800              	.LBB984:
 801              	.LBB985:
 802              	.LBB986:
 803              	.LBB987:
 804              	.LBB988:
 805              		.loc 2 548 0
 806              	@ 548 "../../../resources/chibios/ChibiOS_16.1.8/os/ext/CMSIS/include/core_cmFunc.h" 1
 807 01fa 88F31188 		MSR basepri, r8
 808              	@ 0 "" 2
 809              		.thumb
 810 01fe 7AE7     		b	.L6
 811              	.LVL46:
 812              	.L15:
 813              	.LBE988:
 814              	.LBE987:
 815              	.LBE986:
 816              	.LBE985:
 817              	.LBE984:
 818              	.LBB989:
 819              	.LBB990:
 820              	.LBB991:
 821              	.LBB992:
 822              	.LBB993:
 823              	@ 548 "../../../resources/chibios/ChibiOS_16.1.8/os/ext/CMSIS/include/core_cmFunc.h" 1
 824 0200 80F31188 		MSR basepri, r0
 825              	@ 0 "" 2
 826              		.thumb
 827              	.LBE993:
 828              	.LBE992:
 829              	.LBE991:
 830              	.LBE990:
 831              	.LBE989:
 832              		.loc 1 206 0
 833 0204 FFF7FEFF 		bl	test_wait_threads
 834              	.LVL47:
 835              	.LBB994:
 836              	.LBB995:
 837              	.LBB996:
 838              	.LBB997:
 839              		.loc 2 548 0
 840              	@ 548 "../../../resources/chibios/ChibiOS_16.1.8/os/ext/CMSIS/include/core_cmFunc.h" 1
 841 0208 85F31188 		MSR basepri, r5
 842              	@ 0 "" 2
 843              		.thumb
 844              	.LBE997:
 845              	.LBE996:
 846              	.LBE995:
 847              	.LBE994:
 848              		.loc 1 210 0
 849 020c 2046     		mov	r0, r4
 850 020e FFF7FEFF 		bl	chOQResetI
 851              	.LVL48:
 852              	.LBB998:
ARM GAS  /tmp/cc5LJx8o.s 			page 16


 853              	.LBB999:
 854              	.LBB1000:
 855              	.LBB1001:
 856              	.LBB1002:
 857              		.loc 2 548 0
 858              	@ 548 "../../../resources/chibios/ChibiOS_16.1.8/os/ext/CMSIS/include/core_cmFunc.h" 1
 859 0212 86F31188 		MSR basepri, r6
 860              	@ 0 "" 2
 861              	.LVL49:
 862              		.thumb
 863              	.LBE1002:
 864              	.LBE1001:
 865              	.LBE1000:
 866              	.LBE999:
 867              	.LBE998:
 868              	.LBB1003:
 869              	.LBB1004:
 870              	.LBB1005:
 871              	.LBB1006:
 872              	@ 548 "../../../resources/chibios/ChibiOS_16.1.8/os/ext/CMSIS/include/core_cmFunc.h" 1
 873 0216 85F31188 		MSR basepri, r5
 874              	@ 0 "" 2
 875              	.LVL50:
 876              		.thumb
 877              	.LBE1006:
 878              	.LBE1005:
 879              	.LBE1004:
 880              	.LBE1003:
 881              	.LBB1007:
 882              	.LBB1008:
 883              		.loc 3 359 0
 884 021a 2069     		ldr	r0, [r4, #16]
 885 021c E168     		ldr	r1, [r4, #12]
 886 021e A368     		ldr	r3, [r4, #8]
 887 0220 C1EB000C 		rsb	ip, r1, r0
 888              	.LBE1008:
 889              	.LBE1007:
 890              		.loc 1 212 0
 891 0224 C3EB0C03 		rsb	r3, r3, ip
 892 0228 0920     		movs	r0, #9
 893 022a 5A42     		rsbs	r2, r3, #0
 894 022c 42EB0301 		adc	r1, r2, r3
 895 0230 FFF7FEFF 		bl	_test_assert
 896 0234 0346     		mov	r3, r0
 897 0236 0028     		cmp	r0, #0
 898 0238 7FF47EAF 		bne	.L21
 899              	.LVL51:
 900              	.LBB1009:
 901              	.LBB1010:
 902              	.LBB1011:
 903              	.LBB1012:
 904              	.LBB1013:
 905              		.loc 2 548 0
 906              	@ 548 "../../../resources/chibios/ChibiOS_16.1.8/os/ext/CMSIS/include/core_cmFunc.h" 1
 907 023c 80F31188 		MSR basepri, r0
 908              	@ 0 "" 2
 909              		.thumb
ARM GAS  /tmp/cc5LJx8o.s 			page 17


 910              	.LBE1013:
 911              	.LBE1012:
 912              	.LBE1011:
 913              	.LBE1010:
 914              	.LBE1009:
 915              		.loc 1 215 0
 916 0240 0222     		movs	r2, #2
 917 0242 3946     		mov	r1, r7
 918 0244 2046     		mov	r0, r4
 919 0246 FFF7FEFF 		bl	chOQWriteTimeout
 920              	.LVL52:
 921              		.loc 1 216 0
 922 024a A0F10203 		sub	r3, r0, #2
 923 024e 5A42     		rsbs	r2, r3, #0
 924 0250 42EB0301 		adc	r1, r2, r3
 925 0254 0A20     		movs	r0, #10
 926              	.LVL53:
 927 0256 FFF7FEFF 		bl	_test_assert
 928              	.LVL54:
 929 025a 0346     		mov	r3, r0
 930 025c 0028     		cmp	r0, #0
 931 025e 7FF44AAF 		bne	.L6
 932              		.loc 1 217 0
 933 0262 3946     		mov	r1, r7
 934 0264 0222     		movs	r2, #2
 935 0266 2046     		mov	r0, r4
 936 0268 FFF7FEFF 		bl	chOQWriteTimeout
 937              	.LVL55:
 938              		.loc 1 218 0
 939 026c A0F10201 		sub	r1, r0, #2
 940 0270 4842     		rsbs	r0, r1, #0
 941              	.LVL56:
 942 0272 40EB0101 		adc	r1, r0, r1
 943              	.LVL57:
 944 0276 0B20     		movs	r0, #11
 945 0278 FFF7FEFF 		bl	_test_assert
 946 027c 0028     		cmp	r0, #0
 947 027e 7FF43AAF 		bne	.L6
 948              	.LVL58:
 949              	.LBB1014:
 950              	.LBB1015:
 951              	.LBB1016:
 952              	.LBB1017:
 953              		.loc 2 548 0
 954              	@ 548 "../../../resources/chibios/ChibiOS_16.1.8/os/ext/CMSIS/include/core_cmFunc.h" 1
 955 0282 85F31188 		MSR basepri, r5
 956              	@ 0 "" 2
 957              	.LVL59:
 958              		.thumb
 959              	.LBE1017:
 960              	.LBE1016:
 961              	.LBE1015:
 962              	.LBE1014:
 963              	.LBB1018:
 964              	.LBB1019:
 965              		.loc 3 411 0
 966 0286 A268     		ldr	r2, [r4, #8]
ARM GAS  /tmp/cc5LJx8o.s 			page 18


 967              	.LBE1019:
 968              	.LBE1018:
 969              		.loc 1 219 0
 970 0288 0C20     		movs	r0, #12
 971 028a D2F10101 		rsbs	r1, r2, #1
 972 028e 38BF     		it	cc
 973 0290 0021     		movcc	r1, #0
 974 0292 FFF7FEFF 		bl	_test_assert
 975 0296 0028     		cmp	r0, #0
 976 0298 7FF42AAF 		bne	.L22
 977              	.LVL60:
 978              	.LBB1020:
 979              	.LBB1021:
 980              	.LBB1022:
 981              	.LBB1023:
 982              	.LBB1024:
 983              		.loc 2 548 0
 984 029c 0021     		movs	r1, #0
 985              	@ 548 "../../../resources/chibios/ChibiOS_16.1.8/os/ext/CMSIS/include/core_cmFunc.h" 1
 986 029e 81F31188 		MSR basepri, r1
 987              	@ 0 "" 2
 988              		.thumb
 989              	.LBE1024:
 990              	.LBE1023:
 991              	.LBE1022:
 992              	.LBE1021:
 993              	.LBE1020:
 994              		.loc 1 222 0
 995 02a2 40F20000 		movw	r0, #:lower16:.LANCHOR0
 996 02a6 0A22     		movs	r2, #10
 997 02a8 C0F20000 		movt	r0, #:upper16:.LANCHOR0
 998 02ac FFF7FEFF 		bl	chOQPutTimeout
 999 02b0 A0F1FF31 		sub	r1, r0, #-1
 1000 02b4 4842     		rsbs	r0, r1, #0
 1001 02b6 40EB0101 		adc	r1, r0, r1
 1002 02ba 0D20     		movs	r0, #13
 1003              	.LBE1026:
 1004              	.LBE1030:
 1005              		.loc 1 223 0
 1006 02bc 03B0     		add	sp, sp, #12
 1007 02be BDE8F043 		pop	{r4, r5, r6, r7, r8, r9, lr}
 1008              	.LBB1031:
 1009              	.LBB1027:
 1010              		.loc 1 222 0
 1011 02c2 FFF7FEBF 		b	_test_assert
 1012              	.LBE1027:
 1013              	.LBE1031:
 1014              		.cfi_endproc
 1015              	.LFE188:
 1016              		.size	queues2_execute, .-queues2_execute
 1017 02c6 00BFAFF3 		.section	.text.queues1_execute,"ax",%progbits
 1017      0080AFF3 
 1017      0080
 1018              		.align	2
 1019              		.p2align 4,,15
 1020              		.thumb
 1021              		.thumb_func
ARM GAS  /tmp/cc5LJx8o.s 			page 19


 1022              		.type	queues1_execute, %function
 1023              	queues1_execute:
 1024              	.LFB185:
 1025              		.loc 1 89 0
 1026              		.cfi_startproc
 1027              		@ args = 0, pretend = 0, frame = 0
 1028              		@ frame_needed = 0, uses_anonymous_args = 0
 1029              	.LVL61:
 1030 0000 2DE9F047 		push	{r4, r5, r6, r7, r8, r9, sl, lr}
 1031              	.LCFI6:
 1032              		.cfi_def_cfa_offset 32
 1033              		.cfi_offset 14, -4
 1034              		.cfi_offset 10, -8
 1035              		.cfi_offset 9, -12
 1036              		.cfi_offset 8, -16
 1037              		.cfi_offset 7, -20
 1038              		.cfi_offset 6, -24
 1039              		.cfi_offset 5, -28
 1040              		.cfi_offset 4, -32
 1041              	.LBB1238:
 1042              	.LBB1239:
 1043              	.LBB1240:
 1044              	.LBB1241:
 1045              		.loc 2 548 0
 1046 0004 2026     		movs	r6, #32
 1047              	.LBE1241:
 1048              	.LBE1240:
 1049              	.LBE1239:
 1050              	.LBE1238:
 1051              		.loc 1 89 0
 1052 0006 82B0     		sub	sp, sp, #8
 1053              	.LCFI7:
 1054              		.cfi_def_cfa_offset 40
 1055              	.LBB1245:
 1056              	.LBB1244:
 1057              	.LBB1243:
 1058              	.LBB1242:
 1059              		.loc 2 548 0
 1060              	@ 548 "../../../resources/chibios/ChibiOS_16.1.8/os/ext/CMSIS/include/core_cmFunc.h" 1
 1061 0008 86F31188 		MSR basepri, r6
 1062              	@ 0 "" 2
 1063              	.LVL62:
 1064              		.thumb
 1065              	.LBE1242:
 1066              	.LBE1243:
 1067              	.LBE1244:
 1068              	.LBE1245:
 1069              	.LBB1246:
 1070              	.LBB1247:
 1071              		.loc 3 307 0
 1072 000c 40F20004 		movw	r4, #:lower16:.LANCHOR1
 1073 0010 C0F20004 		movt	r4, #:upper16:.LANCHOR1
 1074 0014 A168     		ldr	r1, [r4, #8]
 1075              	.LBE1247:
 1076              	.LBE1246:
 1077              		.loc 1 94 0
 1078 0016 0120     		movs	r0, #1
ARM GAS  /tmp/cc5LJx8o.s 			page 20


 1079 0018 D1F10101 		rsbs	r1, r1, #1
 1080 001c 38BF     		it	cc
 1081 001e 0021     		movcc	r1, #0
 1082 0020 FFF7FEFF 		bl	_test_assert
 1083 0024 0546     		mov	r5, r0
 1084 0026 10BB     		cbnz	r0, .L38
 1085              	.LVL63:
 1086              	.LBB1248:
 1087              	.LBB1249:
 1088              	.LBB1250:
 1089              	.LBB1251:
 1090              	.LBB1252:
 1091              		.loc 2 548 0
 1092              	@ 548 "../../../resources/chibios/ChibiOS_16.1.8/os/ext/CMSIS/include/core_cmFunc.h" 1
 1093 0028 80F31188 		MSR basepri, r0
 1094              	@ 0 "" 2
 1095              	.LVL64:
 1096              		.thumb
 1097              	.LBE1252:
 1098              	.LBE1251:
 1099              	.LBE1250:
 1100              	.LBE1249:
 1101              	.LBE1248:
 1102              	.LBB1253:
 1103              	.LBB1254:
 1104              	.LBB1255:
 1105              	.LBB1256:
 1106              	@ 548 "../../../resources/chibios/ChibiOS_16.1.8/os/ext/CMSIS/include/core_cmFunc.h" 1
 1107 002c 86F31188 		MSR basepri, r6
 1108              	@ 0 "" 2
 1109              	.LVL65:
 1110              		.thumb
 1111              	.LBE1256:
 1112              	.LBE1255:
 1113              	.LBE1254:
 1114              	.LBE1253:
 1115              		.loc 1 99 0
 1116 0030 4121     		movs	r1, #65
 1117 0032 2046     		mov	r0, r4
 1118 0034 FFF7FEFF 		bl	chIQPutI
 1119              	.LVL66:
 1120 0038 4221     		movs	r1, #66
 1121 003a 2046     		mov	r0, r4
 1122 003c FFF7FEFF 		bl	chIQPutI
 1123              	.LVL67:
 1124 0040 4321     		movs	r1, #67
 1125 0042 2046     		mov	r0, r4
 1126 0044 FFF7FEFF 		bl	chIQPutI
 1127              	.LVL68:
 1128 0048 2046     		mov	r0, r4
 1129 004a 4421     		movs	r1, #68
 1130 004c FFF7FEFF 		bl	chIQPutI
 1131              	.LVL69:
 1132              	.LBB1257:
 1133              	.LBB1258:
 1134              	.LBB1259:
 1135              	.LBB1260:
ARM GAS  /tmp/cc5LJx8o.s 			page 21


 1136              	.LBB1261:
 1137              		.loc 2 548 0
 1138              	@ 548 "../../../resources/chibios/ChibiOS_16.1.8/os/ext/CMSIS/include/core_cmFunc.h" 1
 1139 0050 85F31188 		MSR basepri, r5
 1140              	@ 0 "" 2
 1141              	.LVL70:
 1142              		.thumb
 1143              	.LBE1261:
 1144              	.LBE1260:
 1145              	.LBE1259:
 1146              	.LBE1258:
 1147              	.LBE1257:
 1148              	.LBB1262:
 1149              	.LBB1263:
 1150              	.LBB1264:
 1151              	.LBB1265:
 1152              	@ 548 "../../../resources/chibios/ChibiOS_16.1.8/os/ext/CMSIS/include/core_cmFunc.h" 1
 1153 0054 86F31188 		MSR basepri, r6
 1154              	@ 0 "" 2
 1155              	.LVL71:
 1156              		.thumb
 1157              	.LBE1265:
 1158              	.LBE1264:
 1159              	.LBE1263:
 1160              	.LBE1262:
 1161              	.LBB1266:
 1162              	.LBB1267:
 1163              		.loc 3 325 0
 1164 0058 6269     		ldr	r2, [r4, #20]
 1165 005a A369     		ldr	r3, [r4, #24]
 1166 005c 9A42     		cmp	r2, r3
 1167 005e 18BF     		it	ne
 1168 0060 2946     		movne	r1, r5
 1169 0062 53D0     		beq	.L39
 1170              	.L29:
 1171              	.LBE1267:
 1172              	.LBE1266:
 1173              		.loc 1 101 0
 1174 0064 0220     		movs	r0, #2
 1175 0066 FFF7FEFF 		bl	_test_assert
 1176 006a 0746     		mov	r7, r0
 1177 006c 28B1     		cbz	r0, .L30
 1178              	.LVL72:
 1179              	.L38:
 1180              	.LBB1269:
 1181              	.LBB1270:
 1182              	.LBB1271:
 1183              	.LBB1272:
 1184              	.LBB1273:
 1185              	.LBB1274:
 1186              	.LBB1275:
 1187              		.loc 2 548 0
 1188 006e 0020     		movs	r0, #0
 1189              	@ 548 "../../../resources/chibios/ChibiOS_16.1.8/os/ext/CMSIS/include/core_cmFunc.h" 1
 1190 0070 80F31188 		MSR basepri, r0
 1191              	@ 0 "" 2
 1192              	.LVL73:
ARM GAS  /tmp/cc5LJx8o.s 			page 22


 1193              		.thumb
 1194              	.L26:
 1195              	.LBE1275:
 1196              	.LBE1274:
 1197              	.LBE1273:
 1198              	.LBE1272:
 1199              	.LBE1271:
 1200              	.LBE1270:
 1201              	.LBE1269:
 1202              		.loc 1 146 0
 1203 0074 02B0     		add	sp, sp, #8
 1204 0076 BDE8F087 		pop	{r4, r5, r6, r7, r8, r9, sl, pc}
 1205              	.LVL74:
 1206              	.L30:
 1207              	.LBB1412:
 1208              	.LBB1409:
 1209              	.LBB1276:
 1210              	.LBB1277:
 1211              	.LBB1278:
 1212              	.LBB1279:
 1213              	.LBB1280:
 1214              		.loc 2 548 0
 1215              	@ 548 "../../../resources/chibios/ChibiOS_16.1.8/os/ext/CMSIS/include/core_cmFunc.h" 1
 1216 007a 80F31188 		MSR basepri, r0
 1217              	@ 0 "" 2
 1218              	.LVL75:
 1219              		.thumb
 1220              	.LBE1280:
 1221              	.LBE1279:
 1222              	.LBE1278:
 1223              	.LBE1277:
 1224              	.LBE1276:
 1225              	.LBB1281:
 1226              	.LBB1282:
 1227              	.LBB1283:
 1228              	.LBB1284:
 1229 007e 2026     		movs	r6, #32
 1230              	@ 548 "../../../resources/chibios/ChibiOS_16.1.8/os/ext/CMSIS/include/core_cmFunc.h" 1
 1231 0080 86F31188 		MSR basepri, r6
 1232              	@ 0 "" 2
 1233              		.thumb
 1234              	.LBE1284:
 1235              	.LBE1283:
 1236              	.LBE1282:
 1237              	.LBE1281:
 1238              		.loc 1 102 0
 1239 0084 40F20005 		movw	r5, #:lower16:.LANCHOR1
 1240 0088 C0F20005 		movt	r5, #:upper16:.LANCHOR1
 1241 008c 0146     		mov	r1, r0
 1242 008e 2846     		mov	r0, r5
 1243 0090 FFF7FEFF 		bl	chIQPutI
 1244 0094 0430     		adds	r0, r0, #4
 1245 0096 14BF     		ite	ne
 1246 0098 0021     		movne	r1, #0
 1247 009a 0121     		moveq	r1, #1
 1248 009c 0320     		movs	r0, #3
 1249 009e FFF7FEFF 		bl	_test_assert
ARM GAS  /tmp/cc5LJx8o.s 			page 23


 1250 00a2 8046     		mov	r8, r0
 1251 00a4 78BB     		cbnz	r0, .L40
 1252              	.LVL76:
 1253              	.LBB1285:
 1254              	.LBB1286:
 1255              	.LBB1287:
 1256              	.LBB1288:
 1257              	.LBB1289:
 1258              		.loc 2 548 0
 1259              	@ 548 "../../../resources/chibios/ChibiOS_16.1.8/os/ext/CMSIS/include/core_cmFunc.h" 1
 1260 00a6 80F31188 		MSR basepri, r0
 1261              	@ 0 "" 2
 1262              	.LVL77:
 1263              		.thumb
 1264              	.LBE1289:
 1265              	.LBE1288:
 1266              	.LBE1287:
 1267              	.LBE1286:
 1268              	.LBE1285:
 1269              	.LBB1290:
 1270              	.LBB1291:
 1271              		.loc 3 343 0
 1272 00aa 4FF6FF71 		movw	r1, #65535
 1273 00ae 2846     		mov	r0, r5
 1274 00b0 FFF7FEFF 		bl	chIQGetTimeout
 1275              	.LBE1291:
 1276              	.LBE1290:
 1277              		.loc 1 106 0
 1278 00b4 C0B2     		uxtb	r0, r0
 1279 00b6 FFF7FEFF 		bl	test_emit_token
 1280              	.LVL78:
 1281              	.LBB1295:
 1282              	.LBB1292:
 1283              		.loc 3 343 0
 1284 00ba 4FF6FF71 		movw	r1, #65535
 1285 00be 2846     		mov	r0, r5
 1286 00c0 FFF7FEFF 		bl	chIQGetTimeout
 1287              	.LBE1292:
 1288              	.LBE1295:
 1289              		.loc 1 106 0
 1290 00c4 C0B2     		uxtb	r0, r0
 1291 00c6 FFF7FEFF 		bl	test_emit_token
 1292              	.LVL79:
 1293              	.LBB1296:
 1294              	.LBB1293:
 1295              		.loc 3 343 0
 1296 00ca 4FF6FF71 		movw	r1, #65535
 1297 00ce 2846     		mov	r0, r5
 1298 00d0 FFF7FEFF 		bl	chIQGetTimeout
 1299              	.LBE1293:
 1300              	.LBE1296:
 1301              		.loc 1 106 0
 1302 00d4 C0B2     		uxtb	r0, r0
 1303 00d6 FFF7FEFF 		bl	test_emit_token
 1304              	.LVL80:
 1305              	.LBB1297:
 1306              	.LBB1294:
ARM GAS  /tmp/cc5LJx8o.s 			page 24


 1307              		.loc 3 343 0
 1308 00da 4FF6FF71 		movw	r1, #65535
 1309 00de 2846     		mov	r0, r5
 1310 00e0 FFF7FEFF 		bl	chIQGetTimeout
 1311              	.LBE1294:
 1312              	.LBE1297:
 1313              		.loc 1 106 0
 1314 00e4 C0B2     		uxtb	r0, r0
 1315 00e6 FFF7FEFF 		bl	test_emit_token
 1316              	.LVL81:
 1317              	.LBB1298:
 1318              	.LBB1299:
 1319              	.LBB1300:
 1320              	.LBB1301:
 1321              		.loc 2 548 0
 1322              	@ 548 "../../../resources/chibios/ChibiOS_16.1.8/os/ext/CMSIS/include/core_cmFunc.h" 1
 1323 00ea 86F31188 		MSR basepri, r6
 1324              	@ 0 "" 2
 1325              	.LVL82:
 1326              		.thumb
 1327              	.LBE1301:
 1328              	.LBE1300:
 1329              	.LBE1299:
 1330              	.LBE1298:
 1331              	.LBB1302:
 1332              	.LBB1303:
 1333              		.loc 3 307 0
 1334 00ee A968     		ldr	r1, [r5, #8]
 1335              	.LBE1303:
 1336              	.LBE1302:
 1337              		.loc 1 107 0
 1338 00f0 0420     		movs	r0, #4
 1339 00f2 D1F10101 		rsbs	r1, r1, #1
 1340 00f6 38BF     		it	cc
 1341 00f8 0021     		movcc	r1, #0
 1342 00fa FFF7FEFF 		bl	_test_assert
 1343 00fe 50B1     		cbz	r0, .L32
 1344              	.LVL83:
 1345              	.LBB1304:
 1346              	.LBB1305:
 1347              	.LBB1306:
 1348              	.LBB1307:
 1349              	.LBB1308:
 1350              		.loc 2 548 0
 1351              	@ 548 "../../../resources/chibios/ChibiOS_16.1.8/os/ext/CMSIS/include/core_cmFunc.h" 1
 1352 0100 88F31188 		MSR basepri, r8
 1353              	@ 0 "" 2
 1354              		.thumb
 1355 0104 B6E7     		b	.L26
 1356              	.LVL84:
 1357              	.L40:
 1358              	.LBE1308:
 1359              	.LBE1307:
 1360              	.LBE1306:
 1361              	.LBE1305:
 1362              	.LBE1304:
 1363              	.LBB1309:
ARM GAS  /tmp/cc5LJx8o.s 			page 25


 1364              	.LBB1310:
 1365              	.LBB1311:
 1366              	.LBB1312:
 1367              	.LBB1313:
 1368              	@ 548 "../../../resources/chibios/ChibiOS_16.1.8/os/ext/CMSIS/include/core_cmFunc.h" 1
 1369 0106 87F31188 		MSR basepri, r7
 1370              	@ 0 "" 2
 1371              		.thumb
 1372 010a B3E7     		b	.L26
 1373              	.LVL85:
 1374              	.L39:
 1375              	.LBE1313:
 1376              	.LBE1312:
 1377              	.LBE1311:
 1378              	.LBE1310:
 1379              	.LBE1309:
 1380              	.LBE1409:
 1381              	.LBE1412:
 1382              	.LBB1413:
 1383              	.LBB1268:
 1384              		.loc 3 325 0
 1385 010c A068     		ldr	r0, [r4, #8]
 1386              		.loc 1 89 0
 1387 010e 011C     		adds	r1, r0, #0
 1388 0110 18BF     		it	ne
 1389 0112 0121     		movne	r1, #1
 1390 0114 A6E7     		b	.L29
 1391              	.LVL86:
 1392              	.L32:
 1393              	.LBE1268:
 1394              	.LBE1413:
 1395              	.LBB1414:
 1396              	.LBB1410:
 1397              	.LBB1314:
 1398              	.LBB1315:
 1399              	.LBB1316:
 1400              	.LBB1317:
 1401              	.LBB1318:
 1402              		.loc 2 548 0
 1403              	@ 548 "../../../resources/chibios/ChibiOS_16.1.8/os/ext/CMSIS/include/core_cmFunc.h" 1
 1404 0116 80F31188 		MSR basepri, r0
 1405              	@ 0 "" 2
 1406              		.thumb
 1407              	.LBE1318:
 1408              	.LBE1317:
 1409              	.LBE1316:
 1410              	.LBE1315:
 1411              	.LBE1314:
 1412              		.loc 1 108 0
 1413 011a 40F20001 		movw	r1, #:lower16:.LC0
 1414 011e 0520     		movs	r0, #5
 1415 0120 C0F20001 		movt	r1, #:upper16:.LC0
 1416 0124 FFF7FEFF 		bl	_test_assert_sequence
 1417 0128 8146     		mov	r9, r0
 1418 012a 0028     		cmp	r0, #0
 1419 012c A2D1     		bne	.L26
 1420              	.LVL87:
ARM GAS  /tmp/cc5LJx8o.s 			page 26


 1421              	.LBB1319:
 1422              	.LBB1320:
 1423              	.LBB1321:
 1424              	.LBB1322:
 1425              		.loc 2 548 0
 1426              	@ 548 "../../../resources/chibios/ChibiOS_16.1.8/os/ext/CMSIS/include/core_cmFunc.h" 1
 1427 012e 86F31188 		MSR basepri, r6
 1428              	@ 0 "" 2
 1429              	.LVL88:
 1430              		.thumb
 1431              	.LBE1322:
 1432              	.LBE1321:
 1433              	.LBE1320:
 1434              	.LBE1319:
 1435              		.loc 1 113 0
 1436 0132 4121     		movs	r1, #65
 1437 0134 2846     		mov	r0, r5
 1438 0136 FFF7FEFF 		bl	chIQPutI
 1439              	.LVL89:
 1440 013a 4221     		movs	r1, #66
 1441 013c 2846     		mov	r0, r5
 1442 013e FFF7FEFF 		bl	chIQPutI
 1443              	.LVL90:
 1444 0142 4321     		movs	r1, #67
 1445 0144 2846     		mov	r0, r5
 1446 0146 FFF7FEFF 		bl	chIQPutI
 1447              	.LVL91:
 1448 014a 2846     		mov	r0, r5
 1449 014c 4421     		movs	r1, #68
 1450 014e FFF7FEFF 		bl	chIQPutI
 1451              	.LVL92:
 1452              	.LBB1323:
 1453              	.LBB1324:
 1454              	.LBB1325:
 1455              	.LBB1326:
 1456              	.LBB1327:
 1457              		.loc 2 548 0
 1458              	@ 548 "../../../resources/chibios/ChibiOS_16.1.8/os/ext/CMSIS/include/core_cmFunc.h" 1
 1459 0152 89F31188 		MSR basepri, r9
 1460              	@ 0 "" 2
 1461              		.thumb
 1462              	.LBE1327:
 1463              	.LBE1326:
 1464              	.LBE1325:
 1465              	.LBE1324:
 1466              	.LBE1323:
 1467              		.loc 1 117 0
 1468 0156 40F20007 		movw	r7, #:lower16:wa
 1469 015a C0F20007 		movt	r7, #:upper16:wa
 1470 015e D7F80480 		ldr	r8, [r7, #4]
 1471 0162 0822     		movs	r2, #8
 1472 0164 4146     		mov	r1, r8
 1473 0166 4B46     		mov	r3, r9
 1474 0168 2846     		mov	r0, r5
 1475 016a FFF7FEFF 		bl	chIQReadTimeout
 1476              	.LVL93:
 1477              		.loc 1 118 0
ARM GAS  /tmp/cc5LJx8o.s 			page 27


 1478 016e A0F10403 		sub	r3, r0, #4
 1479 0172 5A42     		rsbs	r2, r3, #0
 1480 0174 42EB0301 		adc	r1, r2, r3
 1481 0178 0620     		movs	r0, #6
 1482              	.LVL94:
 1483 017a FFF7FEFF 		bl	_test_assert
 1484              	.LVL95:
 1485 017e 8246     		mov	sl, r0
 1486 0180 0028     		cmp	r0, #0
 1487 0182 7FF477AF 		bne	.L26
 1488              	.LVL96:
 1489              	.LBB1328:
 1490              	.LBB1329:
 1491              	.LBB1330:
 1492              	.LBB1331:
 1493              		.loc 2 548 0
 1494              	@ 548 "../../../resources/chibios/ChibiOS_16.1.8/os/ext/CMSIS/include/core_cmFunc.h" 1
 1495 0186 86F31188 		MSR basepri, r6
 1496              	@ 0 "" 2
 1497              	.LVL97:
 1498              		.thumb
 1499              	.LBE1331:
 1500              	.LBE1330:
 1501              	.LBE1329:
 1502              	.LBE1328:
 1503              	.LBB1332:
 1504              	.LBB1333:
 1505              		.loc 3 307 0
 1506 018a A968     		ldr	r1, [r5, #8]
 1507              	.LBE1333:
 1508              	.LBE1332:
 1509              		.loc 1 119 0
 1510 018c 0720     		movs	r0, #7
 1511 018e D1F10101 		rsbs	r1, r1, #1
 1512 0192 38BF     		it	cc
 1513 0194 0021     		movcc	r1, #0
 1514 0196 FFF7FEFF 		bl	_test_assert
 1515 019a 8146     		mov	r9, r0
 1516 019c 0028     		cmp	r0, #0
 1517 019e 47D1     		bne	.L41
 1518              	.LVL98:
 1519              	.LBB1334:
 1520              	.LBB1335:
 1521              	.LBB1336:
 1522              	.LBB1337:
 1523              	.LBB1338:
 1524              		.loc 2 548 0
 1525              	@ 548 "../../../resources/chibios/ChibiOS_16.1.8/os/ext/CMSIS/include/core_cmFunc.h" 1
 1526 01a0 80F31188 		MSR basepri, r0
 1527              	@ 0 "" 2
 1528              	.LVL99:
 1529              		.thumb
 1530              	.LBE1338:
 1531              	.LBE1337:
 1532              	.LBE1336:
 1533              	.LBE1335:
 1534              	.LBE1334:
ARM GAS  /tmp/cc5LJx8o.s 			page 28


 1535              	.LBB1339:
 1536              	.LBB1340:
 1537              	.LBB1341:
 1538              	.LBB1342:
 1539              	@ 548 "../../../resources/chibios/ChibiOS_16.1.8/os/ext/CMSIS/include/core_cmFunc.h" 1
 1540 01a4 86F31188 		MSR basepri, r6
 1541              	@ 0 "" 2
 1542              	.LVL100:
 1543              		.thumb
 1544              	.LBE1342:
 1545              	.LBE1341:
 1546              	.LBE1340:
 1547              	.LBE1339:
 1548              		.loc 1 124 0
 1549 01a8 4121     		movs	r1, #65
 1550 01aa 2846     		mov	r0, r5
 1551 01ac FFF7FEFF 		bl	chIQPutI
 1552              	.LVL101:
 1553 01b0 4221     		movs	r1, #66
 1554 01b2 2846     		mov	r0, r5
 1555 01b4 FFF7FEFF 		bl	chIQPutI
 1556              	.LVL102:
 1557 01b8 4321     		movs	r1, #67
 1558 01ba 2846     		mov	r0, r5
 1559 01bc FFF7FEFF 		bl	chIQPutI
 1560              	.LVL103:
 1561 01c0 2846     		mov	r0, r5
 1562 01c2 4421     		movs	r1, #68
 1563 01c4 FFF7FEFF 		bl	chIQPutI
 1564              	.LVL104:
 1565              	.LBB1343:
 1566              	.LBB1344:
 1567              	.LBB1345:
 1568              	.LBB1346:
 1569              	.LBB1347:
 1570              		.loc 2 548 0
 1571              	@ 548 "../../../resources/chibios/ChibiOS_16.1.8/os/ext/CMSIS/include/core_cmFunc.h" 1
 1572 01c8 89F31188 		MSR basepri, r9
 1573              	@ 0 "" 2
 1574              		.thumb
 1575              	.LBE1347:
 1576              	.LBE1346:
 1577              	.LBE1345:
 1578              	.LBE1344:
 1579              	.LBE1343:
 1580              		.loc 1 128 0
 1581 01cc 0222     		movs	r2, #2
 1582 01ce 4146     		mov	r1, r8
 1583 01d0 4B46     		mov	r3, r9
 1584 01d2 2846     		mov	r0, r5
 1585 01d4 FFF7FEFF 		bl	chIQReadTimeout
 1586              	.LVL105:
 1587              		.loc 1 129 0
 1588 01d8 A0F10202 		sub	r2, r0, #2
 1589 01dc 5042     		rsbs	r0, r2, #0
 1590              	.LVL106:
 1591 01de 40EB0201 		adc	r1, r0, r2
ARM GAS  /tmp/cc5LJx8o.s 			page 29


 1592 01e2 0820     		movs	r0, #8
 1593 01e4 FFF7FEFF 		bl	_test_assert
 1594              	.LVL107:
 1595 01e8 0028     		cmp	r0, #0
 1596 01ea 7FF443AF 		bne	.L26
 1597              		.loc 1 130 0
 1598 01ee 0222     		movs	r2, #2
 1599 01f0 0346     		mov	r3, r0
 1600 01f2 4146     		mov	r1, r8
 1601 01f4 2846     		mov	r0, r5
 1602 01f6 FFF7FEFF 		bl	chIQReadTimeout
 1603              	.LVL108:
 1604              		.loc 1 131 0
 1605 01fa A0F10201 		sub	r1, r0, #2
 1606 01fe 4B42     		rsbs	r3, r1, #0
 1607 0200 43EB0101 		adc	r1, r3, r1
 1608 0204 0920     		movs	r0, #9
 1609              	.LVL109:
 1610 0206 FFF7FEFF 		bl	_test_assert
 1611 020a 8146     		mov	r9, r0
 1612 020c 0028     		cmp	r0, #0
 1613 020e 7FF431AF 		bne	.L26
 1614              	.LVL110:
 1615              	.LBB1348:
 1616              	.LBB1349:
 1617              	.LBB1350:
 1618              	.LBB1351:
 1619              		.loc 2 548 0
 1620              	@ 548 "../../../resources/chibios/ChibiOS_16.1.8/os/ext/CMSIS/include/core_cmFunc.h" 1
 1621 0212 86F31188 		MSR basepri, r6
 1622              	@ 0 "" 2
 1623              	.LVL111:
 1624              		.thumb
 1625              	.LBE1351:
 1626              	.LBE1350:
 1627              	.LBE1349:
 1628              	.LBE1348:
 1629              	.LBB1352:
 1630              	.LBB1353:
 1631              		.loc 3 307 0
 1632 0216 AA68     		ldr	r2, [r5, #8]
 1633              	.LBE1353:
 1634              	.LBE1352:
 1635              		.loc 1 132 0
 1636 0218 0A20     		movs	r0, #10
 1637 021a D2F10101 		rsbs	r1, r2, #1
 1638 021e 38BF     		it	cc
 1639 0220 0021     		movcc	r1, #0
 1640 0222 FFF7FEFF 		bl	_test_assert
 1641 0226 8046     		mov	r8, r0
 1642 0228 28B1     		cbz	r0, .L34
 1643              	.LVL112:
 1644              	.LBB1354:
 1645              	.LBB1355:
 1646              	.LBB1356:
 1647              	.LBB1357:
 1648              	.LBB1358:
ARM GAS  /tmp/cc5LJx8o.s 			page 30


 1649              		.loc 2 548 0
 1650              	@ 548 "../../../resources/chibios/ChibiOS_16.1.8/os/ext/CMSIS/include/core_cmFunc.h" 1
 1651 022a 89F31188 		MSR basepri, r9
 1652              	@ 0 "" 2
 1653              		.thumb
 1654 022e 21E7     		b	.L26
 1655              	.LVL113:
 1656              	.L41:
 1657              	.LBE1358:
 1658              	.LBE1357:
 1659              	.LBE1356:
 1660              	.LBE1355:
 1661              	.LBE1354:
 1662              	.LBB1359:
 1663              	.LBB1360:
 1664              	.LBB1361:
 1665              	.LBB1362:
 1666              	.LBB1363:
 1667              	@ 548 "../../../resources/chibios/ChibiOS_16.1.8/os/ext/CMSIS/include/core_cmFunc.h" 1
 1668 0230 8AF31188 		MSR basepri, sl
 1669              	@ 0 "" 2
 1670              		.thumb
 1671 0234 1EE7     		b	.L26
 1672              	.LVL114:
 1673              	.L34:
 1674              	.LBE1363:
 1675              	.LBE1362:
 1676              	.LBE1361:
 1677              	.LBE1360:
 1678              	.LBE1359:
 1679              	.LBB1364:
 1680              	.LBB1365:
 1681              	.LBB1366:
 1682              	.LBB1367:
 1683              	.LBB1368:
 1684              	@ 548 "../../../resources/chibios/ChibiOS_16.1.8/os/ext/CMSIS/include/core_cmFunc.h" 1
 1685 0236 80F31188 		MSR basepri, r0
 1686              	@ 0 "" 2
 1687              	.LVL115:
 1688              		.thumb
 1689              	.LBE1368:
 1690              	.LBE1367:
 1691              	.LBE1366:
 1692              	.LBE1365:
 1693              	.LBE1364:
 1694              	.LBB1369:
 1695              	.LBB1370:
 1696              	.LBB1371:
 1697              	.LBB1372:
 1698              	@ 548 "../../../resources/chibios/ChibiOS_16.1.8/os/ext/CMSIS/include/core_cmFunc.h" 1
 1699 023a 86F31188 		MSR basepri, r6
 1700              	@ 0 "" 2
 1701              		.thumb
 1702              	.LBE1372:
 1703              	.LBE1371:
 1704              	.LBE1370:
 1705              	.LBE1369:
ARM GAS  /tmp/cc5LJx8o.s 			page 31


 1706              		.loc 1 136 0
 1707 023e 0146     		mov	r1, r0
 1708 0240 2846     		mov	r0, r5
 1709 0242 FFF7FEFF 		bl	chIQPutI
 1710              		.loc 1 137 0
 1711 0246 2846     		mov	r0, r5
 1712 0248 FFF7FEFF 		bl	chIQResetI
 1713              	.LVL116:
 1714              	.LBB1373:
 1715              	.LBB1374:
 1716              	.LBB1375:
 1717              	.LBB1376:
 1718              	.LBB1377:
 1719              		.loc 2 548 0
 1720              	@ 548 "../../../resources/chibios/ChibiOS_16.1.8/os/ext/CMSIS/include/core_cmFunc.h" 1
 1721 024c 88F31188 		MSR basepri, r8
 1722              	@ 0 "" 2
 1723              	.LVL117:
 1724              		.thumb
 1725              	.LBE1377:
 1726              	.LBE1376:
 1727              	.LBE1375:
 1728              	.LBE1374:
 1729              	.LBE1373:
 1730              	.LBB1378:
 1731              	.LBB1379:
 1732              	.LBB1380:
 1733              	.LBB1381:
 1734              	@ 548 "../../../resources/chibios/ChibiOS_16.1.8/os/ext/CMSIS/include/core_cmFunc.h" 1
 1735 0250 86F31188 		MSR basepri, r6
 1736              	@ 0 "" 2
 1737              	.LVL118:
 1738              		.thumb
 1739              	.LBE1381:
 1740              	.LBE1380:
 1741              	.LBE1379:
 1742              	.LBE1378:
 1743              	.LBB1382:
 1744              	.LBB1383:
 1745              		.loc 3 274 0
 1746 0254 AB68     		ldr	r3, [r5, #8]
 1747              	.LBE1383:
 1748              	.LBE1382:
 1749              		.loc 1 139 0
 1750 0256 0B20     		movs	r0, #11
 1751 0258 D3F10101 		rsbs	r1, r3, #1
 1752 025c 38BF     		it	cc
 1753 025e 0021     		movcc	r1, #0
 1754 0260 FFF7FEFF 		bl	_test_assert
 1755 0264 0028     		cmp	r0, #0
 1756 0266 7FF402AF 		bne	.L38
 1757              	.LVL119:
 1758              	.LBB1384:
 1759              	.LBB1385:
 1760              	.LBB1386:
 1761              	.LBB1387:
 1762              	.LBB1388:
ARM GAS  /tmp/cc5LJx8o.s 			page 32


 1763              		.loc 2 548 0
 1764 026a 0025     		movs	r5, #0
 1765              	@ 548 "../../../resources/chibios/ChibiOS_16.1.8/os/ext/CMSIS/include/core_cmFunc.h" 1
 1766 026c 85F31188 		MSR basepri, r5
 1767              	@ 0 "" 2
 1768              		.thumb
 1769              	.LBE1388:
 1770              	.LBE1387:
 1771              	.LBE1386:
 1772              	.LBE1385:
 1773              	.LBE1384:
 1774              	.LBB1389:
 1775              	.LBB1390:
 1776              	.LBB1391:
 1777              	.LBB1392:
 1778              		.loc 4 176 0
 1779 0270 40F2000E 		movw	lr, #:lower16:ch
 1780 0274 C0F2000E 		movt	lr, #:upper16:ch
 1781              	.LBE1392:
 1782              	.LBE1391:
 1783              		.loc 4 189 0
 1784 0278 DEF81800 		ldr	r0, [lr, #24]
 1785              	.LBE1390:
 1786              	.LBE1389:
 1787              		.loc 1 140 0
 1788 027c 40F20003 		movw	r3, #:lower16:thread1
 1789 0280 8268     		ldr	r2, [r0, #8]
 1790 0282 4FF4A471 		mov	r1, #328
 1791 0286 3868     		ldr	r0, [r7, #0]
 1792 0288 0132     		adds	r2, r2, #1
 1793 028a C0F20003 		movt	r3, #:upper16:thread1
 1794 028e 0095     		str	r5, [sp, #0]
 1795 0290 FFF7FEFF 		bl	chThdCreateStatic
 1796 0294 40F2000C 		movw	ip, #:lower16:threads
 1797 0298 C0F2000C 		movt	ip, #:upper16:threads
 1798 029c CCF80000 		str	r0, [ip, #0]
 1799              	.LVL120:
 1800              	.LBB1393:
 1801              	.LBB1394:
 1802              	.LBB1395:
 1803              	.LBB1396:
 1804              		.loc 2 548 0
 1805 02a0 2023     		movs	r3, #32
 1806              	@ 548 "../../../resources/chibios/ChibiOS_16.1.8/os/ext/CMSIS/include/core_cmFunc.h" 1
 1807 02a2 83F31188 		MSR basepri, r3
 1808              	@ 0 "" 2
 1809              	.LVL121:
 1810              		.thumb
 1811              	.LBE1396:
 1812              	.LBE1395:
 1813              	.LBE1394:
 1814              	.LBE1393:
 1815              	.LBB1397:
 1816              	.LBB1398:
 1817              		.loc 3 274 0
 1818 02a6 A268     		ldr	r2, [r4, #8]
 1819              	.LBE1398:
ARM GAS  /tmp/cc5LJx8o.s 			page 33


 1820              	.LBE1397:
 1821              		.loc 1 141 0
 1822 02a8 0C20     		movs	r0, #12
 1823 02aa 511B     		subs	r1, r2, r5
 1824 02ac D1F1000C 		rsbs	ip, r1, #0
 1825 02b0 4CEB0101 		adc	r1, ip, r1
 1826 02b4 FFF7FEFF 		bl	_test_assert
 1827 02b8 10B1     		cbz	r0, .L36
 1828              	.LVL122:
 1829              	.LBB1399:
 1830              	.LBB1400:
 1831              	.LBB1401:
 1832              	.LBB1402:
 1833              	.LBB1403:
 1834              		.loc 2 548 0
 1835              	@ 548 "../../../resources/chibios/ChibiOS_16.1.8/os/ext/CMSIS/include/core_cmFunc.h" 1
 1836 02ba 85F31188 		MSR basepri, r5
 1837              	@ 0 "" 2
 1838              		.thumb
 1839 02be D9E6     		b	.L26
 1840              	.LVL123:
 1841              	.L36:
 1842              	.LBE1403:
 1843              	.LBE1402:
 1844              	.LBE1401:
 1845              	.LBE1400:
 1846              	.LBE1399:
 1847              	.LBB1404:
 1848              	.LBB1405:
 1849              	.LBB1406:
 1850              	.LBB1407:
 1851              	.LBB1408:
 1852              	@ 548 "../../../resources/chibios/ChibiOS_16.1.8/os/ext/CMSIS/include/core_cmFunc.h" 1
 1853 02c0 80F31188 		MSR basepri, r0
 1854              	@ 0 "" 2
 1855              		.thumb
 1856              	.LBE1408:
 1857              	.LBE1407:
 1858              	.LBE1406:
 1859              	.LBE1405:
 1860              	.LBE1404:
 1861              		.loc 1 142 0
 1862 02c4 FFF7FEFF 		bl	test_wait_threads
 1863              		.loc 1 145 0
 1864 02c8 40F20000 		movw	r0, #:lower16:.LANCHOR1
 1865 02cc 0A21     		movs	r1, #10
 1866 02ce C0F20000 		movt	r0, #:upper16:.LANCHOR1
 1867 02d2 FFF7FEFF 		bl	chIQGetTimeout
 1868 02d6 A0F1FF33 		sub	r3, r0, #-1
 1869 02da 5942     		rsbs	r1, r3, #0
 1870 02dc 41EB0301 		adc	r1, r1, r3
 1871 02e0 0D20     		movs	r0, #13
 1872              	.LBE1410:
 1873              	.LBE1414:
 1874              		.loc 1 146 0
 1875 02e2 02B0     		add	sp, sp, #8
 1876 02e4 BDE8F047 		pop	{r4, r5, r6, r7, r8, r9, sl, lr}
ARM GAS  /tmp/cc5LJx8o.s 			page 34


 1877              	.LBB1415:
 1878              	.LBB1411:
 1879              		.loc 1 145 0
 1880 02e8 FFF7FEBF 		b	_test_assert
 1881              	.LBE1411:
 1882              	.LBE1415:
 1883              		.cfi_endproc
 1884              	.LFE185:
 1885              		.size	queues1_execute, .-queues1_execute
 1886              		.global	patternqueues
 1887              		.global	testqueues2
 1888              		.global	testqueues1
 1889 02ec AFF30080 		.section	.rodata.testqueues1,"a",%progbits
 1890              		.align	2
 1891              		.type	testqueues1, %object
 1892              		.size	testqueues1, 16
 1893              	testqueues1:
 1894 0000 20000000 		.word	.LC2
 1895 0004 00000000 		.word	queues1_setup
 1896 0008 00000000 		.word	0
 1897 000c 00000000 		.word	queues1_execute
 1898              		.section	.rodata.testqueues2,"a",%progbits
 1899              		.align	2
 1900              		.type	testqueues2, %object
 1901              		.size	testqueues2, 16
 1902              	testqueues2:
 1903 0000 08000000 		.word	.LC1
 1904 0004 00000000 		.word	queues2_setup
 1905 0008 00000000 		.word	0
 1906 000c 00000000 		.word	queues2_execute
 1907              		.section	.rodata.str1.4,"aMS",%progbits,1
 1908              		.align	2
 1909              	.LC0:
 1910 0000 41424344 		.ascii	"ABCD\000"
 1910      00
 1911 0005 000000   		.space	3
 1912              	.LC1:
 1913 0008 51756575 		.ascii	"Queues, output queues\000"
 1913      65732C20 
 1913      6F757470 
 1913      75742071 
 1913      75657565 
 1914 001e 0000     		.space	2
 1915              	.LC2:
 1916 0020 51756575 		.ascii	"Queues, input queues\000"
 1916      65732C20 
 1916      696E7075 
 1916      74207175 
 1916      65756573 
 1917 0035 000000   		.section	.rodata.patternqueues,"a",%progbits
 1918              		.align	2
 1919              		.type	patternqueues, %object
 1920              		.size	patternqueues, 12
 1921              	patternqueues:
 1922 0000 00000000 		.word	testqueues1
 1923 0004 00000000 		.word	testqueues2
 1924 0008 00000000 		.word	0
ARM GAS  /tmp/cc5LJx8o.s 			page 35


 1925              		.section	.data.oq,"aw",%progbits
 1926              		.align	2
 1927              		.set	.LANCHOR0,. + 0
 1928              		.type	oq, %object
 1929              		.size	oq, 36
 1930              	oq:
 1931 0000 00000000 		.word	oq
 1932 0004 00000000 		.word	oq
 1933 0008 04000000 		.word	4
 1934 000c 48010000 		.word	test+328
 1935 0010 4C010000 		.word	test+332
 1936 0014 48010000 		.word	test+328
 1937 0018 48010000 		.word	test+328
 1938 001c 00000000 		.word	notify
 1939 0020 00000000 		.word	0
 1940              		.section	.data.iq,"aw",%progbits
 1941              		.align	2
 1942              		.set	.LANCHOR1,. + 0
 1943              		.type	iq, %object
 1944              		.size	iq, 36
 1945              	iq:
 1946 0000 00000000 		.word	iq
 1947 0004 00000000 		.word	iq
 1948 0008 00000000 		.word	0
 1949 000c 00000000 		.word	test
 1950 0010 04000000 		.word	test+4
 1951 0014 00000000 		.word	test
 1952 0018 00000000 		.word	test
 1953 001c 00000000 		.word	notify
 1954 0020 00000000 		.word	0
 1955              		.text
 1956              	.Letext0:
 1957              		.file 5 "/home/madog/programs/CodeSourcery/Sourcery_CodeBench_Lite_for_ARM_EABI/bin/../lib/gcc/arm
 1958              		.file 6 "/home/madog/programs/CodeSourcery/Sourcery_CodeBench_Lite_for_ARM_EABI/bin/../lib/gcc/arm
 1959              		.file 7 "../../../resources/chibios/ChibiOS_16.1.8/os/rt/ports/ARMCMx/compilers/GCC/chtypes.h"
 1960              		.file 8 "../../../resources/chibios/ChibiOS_16.1.8/os/rt/include/chsystypes.h"
 1961              		.file 9 "../../../resources/chibios/ChibiOS_16.1.8/os/rt/include/chschd.h"
 1962              		.file 10 "../../../resources/chibios/ChibiOS_16.1.8/os/rt/ports/ARMCMx/chcore.h"
 1963              		.file 11 "../../../resources/chibios/ChibiOS_16.1.8/os/rt/ports/ARMCMx/chcore_v7m.h"
 1964              		.file 12 "../../../resources/chibios/ChibiOS_16.1.8/os/rt/include/chtm.h"
 1965              		.file 13 "../../../resources/chibios/ChibiOS_16.1.8/os/rt/include/chsem.h"
 1966              		.file 14 "../../../resources/chibios/ChibiOS_16.1.8/os/rt/include/chmtx.h"
 1967              		.file 15 "../../../resources/chibios/ChibiOS_16.1.8/test/rt/test.h"
 1968              		.file 16 "../../../resources/chibios/ChibiOS_16.1.8/os/rt/include/chsys.h"
 1969              		.file 17 "../../../resources/chibios/ChibiOS_16.1.8/os/ext/CMSIS/include/core_cm3.h"