ARM GAS  /tmp/ccqcQtYM.s 			page 1


   1              		.syntax unified
   2              		.cpu cortex-m3
   3              		.fpu softvfp
   4              		.eabi_attribute 20, 1
   5              		.eabi_attribute 21, 1
   6              		.eabi_attribute 23, 3
   7              		.eabi_attribute 24, 1
   8              		.eabi_attribute 25, 1
   9              		.eabi_attribute 26, 1
  10              		.eabi_attribute 30, 2
  11              		.eabi_attribute 34, 1
  12              		.eabi_attribute 18, 4
  13              		.thumb
  14              		.file	"testmsg.c"
  15              		.text
  16              	.Ltext0:
  17              		.cfi_sections	.debug_frame
  18              		.section	.text.msg1_execute,"ax",%progbits
  19              		.align	2
  20              		.p2align 4,,15
  21              		.thumb
  22              		.thumb_func
  23              		.type	msg1_execute, %function
  24              	msg1_execute:
  25              	.LFB183:
  26              		.file 1 "../../../resources/chibios/ChibiOS_16.1.8/test/rt/testmsg.c"
  27              		.loc 1 66 0
  28              		.cfi_startproc
  29              		@ args = 0, pretend = 0, frame = 0
  30              		@ frame_needed = 0, uses_anonymous_args = 0
  31              	.LBB16:
  32              	.LBB17:
  33              	.LBB18:
  34              	.LBB19:
  35              		.file 2 "../../../resources/chibios/ChibiOS_16.1.8/os/rt/include/chthreads.h"
  36              		.loc 2 176 0
  37 0000 40F20001 		movw	r1, #:lower16:ch
  38              	.LBE19:
  39              	.LBE18:
  40              	.LBE17:
  41              	.LBE16:
  42              		.loc 1 66 0
  43 0004 10B5     		push	{r4, lr}
  44              	.LCFI0:
  45              		.cfi_def_cfa_offset 8
  46              		.cfi_offset 14, -4
  47              		.cfi_offset 4, -8
  48              	.LBB23:
  49              	.LBB22:
  50              	.LBB21:
  51              	.LBB20:
  52              		.loc 2 176 0
  53 0006 C0F20001 		movt	r1, #:upper16:ch
  54 000a 8C69     		ldr	r4, [r1, #24]
  55              	.LBE20:
  56              	.LBE21:
  57              	.LBE22:
ARM GAS  /tmp/ccqcQtYM.s 			page 2


  58              	.LBE23:
  59              		.loc 1 73 0
  60 000c 40F20000 		movw	r0, #:lower16:wa
  61 0010 A268     		ldr	r2, [r4, #8]
  62 0012 C0F20000 		movt	r0, #:upper16:wa
  63 0016 40F20003 		movw	r3, #:lower16:thread
  64              		.loc 1 66 0
  65 001a 82B0     		sub	sp, sp, #8
  66              	.LCFI1:
  67              		.cfi_def_cfa_offset 16
  68              		.loc 1 73 0
  69 001c 0132     		adds	r2, r2, #1
  70 001e 4FF4A471 		mov	r1, #328
  71 0022 C0F20003 		movt	r3, #:upper16:thread
  72 0026 0068     		ldr	r0, [r0, #0]
  73 0028 0094     		str	r4, [sp, #0]
  74 002a FFF7FEFF 		bl	chThdCreateStatic
  75 002e 40F20003 		movw	r3, #:lower16:threads
  76 0032 C0F20003 		movt	r3, #:upper16:threads
  77 0036 1860     		str	r0, [r3, #0]
  78              		.loc 1 75 0
  79 0038 FFF7FEFF 		bl	chMsgWait
  80              	.LVL0:
  81              		.loc 1 107 0
  82 003c 046B     		ldr	r4, [r0, #48]
  83              		.loc 1 77 0
  84 003e 2146     		mov	r1, r4
  85 0040 FFF7FEFF 		bl	chMsgRelease
  86              	.LVL1:
  87              		.loc 1 78 0
  88 0044 E0B2     		uxtb	r0, r4
  89 0046 FFF7FEFF 		bl	test_emit_token
  90              		.loc 1 79 0
  91 004a FFF7FEFF 		bl	chMsgWait
  92              	.LVL2:
  93              		.loc 1 107 0
  94 004e 046B     		ldr	r4, [r0, #48]
  95              		.loc 1 81 0
  96 0050 2146     		mov	r1, r4
  97 0052 FFF7FEFF 		bl	chMsgRelease
  98              	.LVL3:
  99              		.loc 1 82 0
 100 0056 E0B2     		uxtb	r0, r4
 101 0058 FFF7FEFF 		bl	test_emit_token
 102              		.loc 1 83 0
 103 005c FFF7FEFF 		bl	chMsgWait
 104              	.LVL4:
 105              		.loc 1 107 0
 106 0060 046B     		ldr	r4, [r0, #48]
 107              		.loc 1 85 0
 108 0062 2146     		mov	r1, r4
 109 0064 FFF7FEFF 		bl	chMsgRelease
 110              	.LVL5:
 111              		.loc 1 86 0
 112 0068 E0B2     		uxtb	r0, r4
 113 006a FFF7FEFF 		bl	test_emit_token
 114              		.loc 1 87 0
ARM GAS  /tmp/ccqcQtYM.s 			page 3


 115 006e 40F20001 		movw	r1, #:lower16:.LC0
 116 0072 0120     		movs	r0, #1
 117 0074 C0F20001 		movt	r1, #:upper16:.LC0
 118              		.loc 1 88 0
 119 0078 02B0     		add	sp, sp, #8
 120 007a BDE81040 		pop	{r4, lr}
 121              		.loc 1 87 0
 122 007e FFF7FEBF 		b	_test_assert_sequence
 123              		.cfi_endproc
 124              	.LFE183:
 125              		.size	msg1_execute, .-msg1_execute
 126 0082 00BFAFF3 		.section	.text.thread,"ax",%progbits
 126      0080AFF3 
 126      0080AFF3 
 126      0080
 127              		.align	2
 128              		.p2align 4,,15
 129              		.thumb
 130              		.thumb_func
 131              		.type	thread, %function
 132              	thread:
 133              	.LFB182:
 134              		.loc 1 59 0
 135              		.cfi_startproc
 136              		@ args = 0, pretend = 0, frame = 0
 137              		@ frame_needed = 0, uses_anonymous_args = 0
 138              	.LVL6:
 139 0000 10B5     		push	{r4, lr}
 140              	.LCFI2:
 141              		.cfi_def_cfa_offset 8
 142              		.cfi_offset 14, -4
 143              		.cfi_offset 4, -8
 144              		.loc 1 61 0
 145 0002 4121     		movs	r1, #65
 146              		.loc 1 59 0
 147 0004 0446     		mov	r4, r0
 148              		.loc 1 61 0
 149 0006 FFF7FEFF 		bl	chMsgSend
 150              	.LVL7:
 151              		.loc 1 62 0
 152 000a 4221     		movs	r1, #66
 153 000c 2046     		mov	r0, r4
 154 000e FFF7FEFF 		bl	chMsgSend
 155              		.loc 1 63 0
 156 0012 2046     		mov	r0, r4
 157 0014 4321     		movs	r1, #67
 158              		.loc 1 64 0
 159 0016 BDE81040 		pop	{r4, lr}
 160              		.loc 1 63 0
 161 001a FFF7FEBF 		b	chMsgSend
 162              		.cfi_endproc
 163              	.LFE182:
 164              		.size	thread, .-thread
 165              		.global	patternmsg
 166              		.global	testmsg1
 167 001e 00BF     		.section	.rodata.testmsg1,"a",%progbits
 168              		.align	2
ARM GAS  /tmp/ccqcQtYM.s 			page 4


 169              		.type	testmsg1, %object
 170              		.size	testmsg1, 16
 171              	testmsg1:
 172 0000 04000000 		.word	.LC1
 173 0004 00000000 		.word	0
 174 0008 00000000 		.word	0
 175 000c 00000000 		.word	msg1_execute
 176              		.section	.rodata.str1.4,"aMS",%progbits,1
 177              		.align	2
 178              	.LC0:
 179 0000 41424300 		.ascii	"ABC\000"
 180              	.LC1:
 181 0004 4D657373 		.ascii	"Messages, loop\000"
 181      61676573 
 181      2C206C6F 
 181      6F7000
 182 0013 00       		.section	.rodata.patternmsg,"a",%progbits
 183              		.align	2
 184              		.type	patternmsg, %object
 185              		.size	patternmsg, 8
 186              	patternmsg:
 187 0000 00000000 		.word	testmsg1
 188 0004 00000000 		.word	0
 189              		.text
 190              	.Letext0:
 191              		.file 3 "/home/madog/programs/CodeSourcery/Sourcery_CodeBench_Lite_for_ARM_EABI/bin/../lib/gcc/arm
 192              		.file 4 "/home/madog/programs/CodeSourcery/Sourcery_CodeBench_Lite_for_ARM_EABI/bin/../lib/gcc/arm
 193              		.file 5 "../../../resources/chibios/ChibiOS_16.1.8/os/rt/ports/ARMCMx/compilers/GCC/chtypes.h"
 194              		.file 6 "../../../resources/chibios/ChibiOS_16.1.8/os/rt/include/chsystypes.h"
 195              		.file 7 "../../../resources/chibios/ChibiOS_16.1.8/os/rt/include/chschd.h"
 196              		.file 8 "../../../resources/chibios/ChibiOS_16.1.8/os/rt/ports/ARMCMx/chcore.h"
 197              		.file 9 "../../../resources/chibios/ChibiOS_16.1.8/os/rt/ports/ARMCMx/chcore_v7m.h"
 198              		.file 10 "../../../resources/chibios/ChibiOS_16.1.8/os/rt/include/chtm.h"
 199              		.file 11 "../../../resources/chibios/ChibiOS_16.1.8/os/rt/include/chsem.h"
 200              		.file 12 "../../../resources/chibios/ChibiOS_16.1.8/os/rt/include/chmtx.h"
 201              		.file 13 "../../../resources/chibios/ChibiOS_16.1.8/test/rt/test.h"
 202              		.file 14 "../../../resources/chibios/ChibiOS_16.1.8/os/ext/CMSIS/include/core_cm3.h"
 203              		.file 15 "../../../resources/chibios/ChibiOS_16.1.8/os/rt/include/chmsg.h"