ARM GAS  /tmp/ccwBw4Cy.s 			page 1


   1              		.syntax unified
   2              		.cpu cortex-m3
   3              		.fpu softvfp
   4              		.eabi_attribute 20, 1
   5              		.eabi_attribute 21, 1
   6              		.eabi_attribute 23, 3
   7              		.eabi_attribute 24, 1
   8              		.eabi_attribute 25, 1
   9              		.eabi_attribute 26, 1
  10              		.eabi_attribute 30, 2
  11              		.eabi_attribute 34, 1
  12              		.eabi_attribute 18, 4
  13              		.thumb
  14              		.file	"testmtx.c"
  15              		.text
  16              	.Ltext0:
  17              		.cfi_sections	.debug_frame
  18              		.section	.text.mtx8_execute,"ax",%progbits
  19              		.align	2
  20              		.p2align 4,,15
  21              		.thumb
  22              		.thumb_func
  23              		.type	mtx8_execute, %function
  24              	mtx8_execute:
  25              	.LFB199:
  26              		.file 1 "../../../resources/chibios/ChibiOS_16.1.8/test/rt/testmtx.c"
  27              		.loc 1 583 0
  28              		.cfi_startproc
  29              		@ args = 0, pretend = 0, frame = 0
  30              		@ frame_needed = 0, uses_anonymous_args = 0
  31              	.LBB138:
  32              	.LBB139:
  33              	.LBB140:
  34              	.LBB141:
  35              		.file 2 "../../../resources/chibios/ChibiOS_16.1.8/os/rt/include/chthreads.h"
  36              		.loc 2 176 0
  37 0000 40F20000 		movw	r0, #:lower16:ch
  38              	.LBE141:
  39              	.LBE140:
  40              	.LBE139:
  41              	.LBE138:
  42              		.loc 1 583 0
  43 0004 F0B5     		push	{r4, r5, r6, r7, lr}
  44              	.LCFI0:
  45              		.cfi_def_cfa_offset 20
  46              		.cfi_offset 14, -4
  47              		.cfi_offset 7, -8
  48              		.cfi_offset 6, -12
  49              		.cfi_offset 5, -16
  50              		.cfi_offset 4, -20
  51              	.LBB146:
  52              	.LBB144:
  53              	.LBB143:
  54              	.LBB142:
  55              		.loc 2 176 0
  56 0006 C0F20000 		movt	r0, #:upper16:ch
  57              	.LBE142:
ARM GAS  /tmp/ccwBw4Cy.s 			page 2


  58              	.LBE143:
  59              		.loc 2 189 0
  60 000a 8369     		ldr	r3, [r0, #24]
  61              	.LBE144:
  62              	.LBE146:
  63              		.loc 1 586 0
  64 000c 40F20005 		movw	r5, #:lower16:wa
  65              	.LBB147:
  66              	.LBB145:
  67              		.loc 2 189 0
  68 0010 9E68     		ldr	r6, [r3, #8]
  69              	.LBE145:
  70              	.LBE147:
  71              		.loc 1 586 0
  72 0012 C0F20005 		movt	r5, #:upper16:wa
  73 0016 40F20004 		movw	r4, #:lower16:.LC0
  74 001a 40F20003 		movw	r3, #:lower16:thread11
  75              		.loc 1 583 0
  76 001e 83B0     		sub	sp, sp, #12
  77              	.LCFI1:
  78              		.cfi_def_cfa_offset 32
  79              		.loc 1 586 0
  80 0020 721C     		adds	r2, r6, #1
  81 0022 2868     		ldr	r0, [r5, #0]
  82 0024 C0F20004 		movt	r4, #:upper16:.LC0
  83 0028 4FF4A471 		mov	r1, #328
  84 002c C0F20003 		movt	r3, #:upper16:thread11
  85 0030 0094     		str	r4, [sp, #0]
  86 0032 FFF7FEFF 		bl	chThdCreateStatic
  87 0036 40F20004 		movw	r4, #:lower16:threads
  88              		.loc 1 587 0
  89 003a D5F804E0 		ldr	lr, [r5, #4]
  90              		.loc 1 586 0
  91 003e C0F20004 		movt	r4, #:upper16:threads
  92              		.loc 1 587 0
  93 0042 40F20007 		movw	r7, #:lower16:.LC1
  94 0046 40F20003 		movw	r3, #:lower16:thread10
  95              		.loc 1 586 0
  96 004a 2060     		str	r0, [r4, #0]
  97              		.loc 1 587 0
  98 004c B21C     		adds	r2, r6, #2
  99 004e 7046     		mov	r0, lr
 100 0050 C0F20007 		movt	r7, #:upper16:.LC1
 101 0054 4FF4A471 		mov	r1, #328
 102 0058 C0F20003 		movt	r3, #:upper16:thread10
 103 005c 0097     		str	r7, [sp, #0]
 104 005e FFF7FEFF 		bl	chThdCreateStatic
 105              		.loc 1 588 0
 106 0062 AF68     		ldr	r7, [r5, #8]
 107 0064 40F20003 		movw	r3, #:lower16:thread12
 108 0068 40F20005 		movw	r5, #:lower16:.LC2
 109 006c 4FF4A471 		mov	r1, #328
 110 0070 F21C     		adds	r2, r6, #3
 111 0072 C0F20003 		movt	r3, #:upper16:thread12
 112              		.loc 1 587 0
 113 0076 6060     		str	r0, [r4, #4]
 114              		.loc 1 588 0
ARM GAS  /tmp/ccwBw4Cy.s 			page 3


 115 0078 C0F20005 		movt	r5, #:upper16:.LC2
 116 007c 3846     		mov	r0, r7
 117 007e 0095     		str	r5, [sp, #0]
 118 0080 FFF7FEFF 		bl	chThdCreateStatic
 119              		.loc 1 589 0
 120 0084 40F20005 		movw	r5, #:lower16:.LANCHOR0
 121 0088 C0F20005 		movt	r5, #:upper16:.LANCHOR0
 122              		.loc 1 588 0
 123 008c A060     		str	r0, [r4, #8]
 124              		.loc 1 589 0
 125 008e 2846     		mov	r0, r5
 126 0090 FFF7FEFF 		bl	chCondSignal
 127              		.loc 1 590 0
 128 0094 2846     		mov	r0, r5
 129 0096 FFF7FEFF 		bl	chCondSignal
 130              		.loc 1 591 0
 131 009a FFF7FEFF 		bl	test_wait_threads
 132              		.loc 1 592 0
 133 009e 40F20001 		movw	r1, #:lower16:.LC3
 134 00a2 0120     		movs	r0, #1
 135 00a4 C0F20001 		movt	r1, #:upper16:.LC3
 136              		.loc 1 593 0
 137 00a8 03B0     		add	sp, sp, #12
 138 00aa BDE8F040 		pop	{r4, r5, r6, r7, lr}
 139              		.loc 1 592 0
 140 00ae FFF7FEBF 		b	_test_assert_sequence
 141              		.cfi_endproc
 142              	.LFE199:
 143              		.size	mtx8_execute, .-mtx8_execute
 144 00b2 00BFAFF3 		.section	.text.thread12,"ax",%progbits
 144      0080AFF3 
 144      0080AFF3 
 144      0080
 145              		.align	2
 146              		.p2align 4,,15
 147              		.thumb
 148              		.thumb_func
 149              		.type	thread12, %function
 150              	thread12:
 151              	.LFB198:
 152              		.loc 1 576 0
 153              		.cfi_startproc
 154              		@ args = 0, pretend = 0, frame = 0
 155              		@ frame_needed = 0, uses_anonymous_args = 0
 156              	.LVL0:
 157 0000 38B5     		push	{r3, r4, r5, lr}
 158              	.LCFI2:
 159              		.cfi_def_cfa_offset 16
 160              		.cfi_offset 14, -4
 161              		.cfi_offset 5, -8
 162              		.cfi_offset 4, -12
 163              		.cfi_offset 3, -16
 164              		.loc 1 578 0
 165 0002 40F20004 		movw	r4, #:lower16:.LANCHOR1
 166 0006 C0F20004 		movt	r4, #:upper16:.LANCHOR1
 167              		.loc 1 576 0
 168 000a 0546     		mov	r5, r0
ARM GAS  /tmp/ccwBw4Cy.s 			page 4


 169              		.loc 1 578 0
 170 000c 2046     		mov	r0, r4
 171              	.LVL1:
 172 000e FFF7FEFF 		bl	chMtxLock
 173              		.loc 1 579 0
 174 0012 2878     		ldrb	r0, [r5, #0]	@ zero_extendqisi2
 175 0014 FFF7FEFF 		bl	test_emit_token
 176              		.loc 1 580 0
 177 0018 2046     		mov	r0, r4
 178              		.loc 1 581 0
 179 001a BDE83840 		pop	{r3, r4, r5, lr}
 180              		.loc 1 580 0
 181 001e FFF7FEBF 		b	chMtxUnlock
 182              		.cfi_endproc
 183              	.LFE198:
 184              		.size	thread12, .-thread12
 185 0022 00BFAFF3 		.section	.text.thread1,"ax",%progbits
 185      0080AFF3 
 185      0080AFF3 
 185      0080
 186              		.align	2
 187              		.p2align 4,,15
 188              		.thumb
 189              		.thumb_func
 190              		.type	thread1, %function
 191              	thread1:
 192              	.LFB183:
 193              		.loc 1 89 0
 194              		.cfi_startproc
 195              		@ args = 0, pretend = 0, frame = 0
 196              		@ frame_needed = 0, uses_anonymous_args = 0
 197              	.LVL2:
 198 0000 38B5     		push	{r3, r4, r5, lr}
 199              	.LCFI3:
 200              		.cfi_def_cfa_offset 16
 201              		.cfi_offset 14, -4
 202              		.cfi_offset 5, -8
 203              		.cfi_offset 4, -12
 204              		.cfi_offset 3, -16
 205              		.loc 1 91 0
 206 0002 40F20004 		movw	r4, #:lower16:.LANCHOR2
 207 0006 C0F20004 		movt	r4, #:upper16:.LANCHOR2
 208              		.loc 1 89 0
 209 000a 0546     		mov	r5, r0
 210              		.loc 1 91 0
 211 000c 2046     		mov	r0, r4
 212              	.LVL3:
 213 000e FFF7FEFF 		bl	chMtxLock
 214              		.loc 1 92 0
 215 0012 2878     		ldrb	r0, [r5, #0]	@ zero_extendqisi2
 216 0014 FFF7FEFF 		bl	test_emit_token
 217              		.loc 1 93 0
 218 0018 2046     		mov	r0, r4
 219              		.loc 1 94 0
 220 001a BDE83840 		pop	{r3, r4, r5, lr}
 221              		.loc 1 93 0
 222 001e FFF7FEBF 		b	chMtxUnlock
ARM GAS  /tmp/ccwBw4Cy.s 			page 5


 223              		.cfi_endproc
 224              	.LFE183:
 225              		.size	thread1, .-thread1
 226 0022 00BFAFF3 		.section	.text.thread10,"ax",%progbits
 226      0080AFF3 
 226      0080AFF3 
 226      0080
 227              		.align	2
 228              		.p2align 4,,15
 229              		.thumb
 230              		.thumb_func
 231              		.type	thread10, %function
 232              	thread10:
 233              	.LFB192:
 234              		.loc 1 475 0
 235              		.cfi_startproc
 236              		@ args = 0, pretend = 0, frame = 0
 237              		@ frame_needed = 0, uses_anonymous_args = 0
 238              	.LVL4:
 239 0000 38B5     		push	{r3, r4, r5, lr}
 240              	.LCFI4:
 241              		.cfi_def_cfa_offset 16
 242              		.cfi_offset 14, -4
 243              		.cfi_offset 5, -8
 244              		.cfi_offset 4, -12
 245              		.cfi_offset 3, -16
 246              		.loc 1 477 0
 247 0002 40F20004 		movw	r4, #:lower16:.LANCHOR2
 248 0006 C0F20004 		movt	r4, #:upper16:.LANCHOR2
 249              		.loc 1 475 0
 250 000a 0546     		mov	r5, r0
 251              		.loc 1 477 0
 252 000c 2046     		mov	r0, r4
 253              	.LVL5:
 254 000e FFF7FEFF 		bl	chMtxLock
 255              		.loc 1 478 0
 256 0012 40F20000 		movw	r0, #:lower16:.LANCHOR0
 257 0016 C0F20000 		movt	r0, #:upper16:.LANCHOR0
 258 001a FFF7FEFF 		bl	chCondWait
 259              		.loc 1 479 0
 260 001e 2878     		ldrb	r0, [r5, #0]	@ zero_extendqisi2
 261 0020 FFF7FEFF 		bl	test_emit_token
 262              		.loc 1 480 0
 263 0024 2046     		mov	r0, r4
 264              		.loc 1 481 0
 265 0026 BDE83840 		pop	{r3, r4, r5, lr}
 266              		.loc 1 480 0
 267 002a FFF7FEBF 		b	chMtxUnlock
 268              		.cfi_endproc
 269              	.LFE192:
 270              		.size	thread10, .-thread10
 271 002e 00BF     		.section	.text.thread11,"ax",%progbits
 272              		.align	2
 273              		.p2align 4,,15
 274              		.thumb
 275              		.thumb_func
 276              		.type	thread11, %function
ARM GAS  /tmp/ccwBw4Cy.s 			page 6


 277              	thread11:
 278              	.LFB197:
 279              		.loc 1 562 0
 280              		.cfi_startproc
 281              		@ args = 0, pretend = 0, frame = 0
 282              		@ frame_needed = 0, uses_anonymous_args = 0
 283              	.LVL6:
 284 0000 70B5     		push	{r4, r5, r6, lr}
 285              	.LCFI5:
 286              		.cfi_def_cfa_offset 16
 287              		.cfi_offset 14, -4
 288              		.cfi_offset 6, -8
 289              		.cfi_offset 5, -12
 290              		.cfi_offset 4, -16
 291              		.loc 1 564 0
 292 0002 40F20004 		movw	r4, #:lower16:.LANCHOR1
 293 0006 C0F20004 		movt	r4, #:upper16:.LANCHOR1
 294              		.loc 1 565 0
 295 000a 40F20005 		movw	r5, #:lower16:.LANCHOR2
 296              		.loc 1 562 0
 297 000e 0646     		mov	r6, r0
 298              		.loc 1 565 0
 299 0010 C0F20005 		movt	r5, #:upper16:.LANCHOR2
 300              		.loc 1 564 0
 301 0014 2046     		mov	r0, r4
 302              	.LVL7:
 303 0016 FFF7FEFF 		bl	chMtxLock
 304              		.loc 1 565 0
 305 001a 2846     		mov	r0, r5
 306 001c FFF7FEFF 		bl	chMtxLock
 307              		.loc 1 567 0
 308 0020 40F20000 		movw	r0, #:lower16:.LANCHOR0
 309 0024 4FF6FF71 		movw	r1, #65535
 310 0028 C0F20000 		movt	r0, #:upper16:.LANCHOR0
 311 002c FFF7FEFF 		bl	chCondWaitTimeout
 312              		.loc 1 571 0
 313 0030 3078     		ldrb	r0, [r6, #0]	@ zero_extendqisi2
 314 0032 FFF7FEFF 		bl	test_emit_token
 315              		.loc 1 572 0
 316 0036 2846     		mov	r0, r5
 317 0038 FFF7FEFF 		bl	chMtxUnlock
 318              		.loc 1 573 0
 319 003c 2046     		mov	r0, r4
 320              		.loc 1 574 0
 321 003e BDE87040 		pop	{r4, r5, r6, lr}
 322              		.loc 1 573 0
 323 0042 FFF7FEBF 		b	chMtxUnlock
 324              		.cfi_endproc
 325              	.LFE197:
 326              		.size	thread11, .-thread11
 327 0046 00BFAFF3 		.section	.text.mtx8_setup,"ax",%progbits
 327      0080AFF3 
 327      0080
 328              		.align	2
 329              		.p2align 4,,15
 330              		.thumb
 331              		.thumb_func
ARM GAS  /tmp/ccwBw4Cy.s 			page 7


 332              		.type	mtx8_setup, %function
 333              	mtx8_setup:
 334              	.LFB196:
 335              		.loc 1 555 0
 336              		.cfi_startproc
 337              		@ args = 0, pretend = 0, frame = 0
 338              		@ frame_needed = 0, uses_anonymous_args = 0
 339              		.loc 1 557 0
 340 0000 40F20000 		movw	r0, #:lower16:.LANCHOR0
 341              		.loc 1 555 0
 342 0004 08B5     		push	{r3, lr}
 343              	.LCFI6:
 344              		.cfi_def_cfa_offset 8
 345              		.cfi_offset 14, -4
 346              		.cfi_offset 3, -8
 347              		.loc 1 557 0
 348 0006 C0F20000 		movt	r0, #:upper16:.LANCHOR0
 349 000a FFF7FEFF 		bl	chCondObjectInit
 350              		.loc 1 558 0
 351 000e 40F20000 		movw	r0, #:lower16:.LANCHOR2
 352 0012 C0F20000 		movt	r0, #:upper16:.LANCHOR2
 353 0016 FFF7FEFF 		bl	chMtxObjectInit
 354              		.loc 1 559 0
 355 001a 40F20000 		movw	r0, #:lower16:.LANCHOR1
 356 001e C0F20000 		movt	r0, #:upper16:.LANCHOR1
 357              		.loc 1 560 0
 358 0022 BDE80840 		pop	{r3, lr}
 359              		.loc 1 559 0
 360 0026 FFF7FEBF 		b	chMtxObjectInit
 361              		.cfi_endproc
 362              	.LFE196:
 363              		.size	mtx8_setup, .-mtx8_setup
 364 002a 00BFAFF3 		.section	.text.mtx7_setup,"ax",%progbits
 364      0080
 365              		.align	2
 366              		.p2align 4,,15
 367              		.thumb
 368              		.thumb_func
 369              		.type	mtx7_setup, %function
 370              	mtx7_setup:
 371              	.LFB194:
 372              		.loc 1 520 0
 373              		.cfi_startproc
 374              		@ args = 0, pretend = 0, frame = 0
 375              		@ frame_needed = 0, uses_anonymous_args = 0
 376              		.loc 1 522 0
 377 0000 40F20000 		movw	r0, #:lower16:.LANCHOR0
 378              		.loc 1 520 0
 379 0004 08B5     		push	{r3, lr}
 380              	.LCFI7:
 381              		.cfi_def_cfa_offset 8
 382              		.cfi_offset 14, -4
 383              		.cfi_offset 3, -8
 384              		.loc 1 522 0
 385 0006 C0F20000 		movt	r0, #:upper16:.LANCHOR0
 386 000a FFF7FEFF 		bl	chCondObjectInit
 387              		.loc 1 523 0
ARM GAS  /tmp/ccwBw4Cy.s 			page 8


 388 000e 40F20000 		movw	r0, #:lower16:.LANCHOR2
 389 0012 C0F20000 		movt	r0, #:upper16:.LANCHOR2
 390              		.loc 1 524 0
 391 0016 BDE80840 		pop	{r3, lr}
 392              		.loc 1 523 0
 393 001a FFF7FEBF 		b	chMtxObjectInit
 394              		.cfi_endproc
 395              	.LFE194:
 396              		.size	mtx7_setup, .-mtx7_setup
 397 001e 00BF     		.section	.text.mtx6_setup,"ax",%progbits
 398              		.align	2
 399              		.p2align 4,,15
 400              		.thumb
 401              		.thumb_func
 402              		.type	mtx6_setup, %function
 403              	mtx6_setup:
 404              	.LFB191:
 405              		.loc 1 469 0
 406              		.cfi_startproc
 407              		@ args = 0, pretend = 0, frame = 0
 408              		@ frame_needed = 0, uses_anonymous_args = 0
 409              		.loc 1 471 0
 410 0000 40F20000 		movw	r0, #:lower16:.LANCHOR0
 411              		.loc 1 469 0
 412 0004 08B5     		push	{r3, lr}
 413              	.LCFI8:
 414              		.cfi_def_cfa_offset 8
 415              		.cfi_offset 14, -4
 416              		.cfi_offset 3, -8
 417              		.loc 1 471 0
 418 0006 C0F20000 		movt	r0, #:upper16:.LANCHOR0
 419 000a FFF7FEFF 		bl	chCondObjectInit
 420              		.loc 1 472 0
 421 000e 40F20000 		movw	r0, #:lower16:.LANCHOR2
 422 0012 C0F20000 		movt	r0, #:upper16:.LANCHOR2
 423              		.loc 1 473 0
 424 0016 BDE80840 		pop	{r3, lr}
 425              		.loc 1 472 0
 426 001a FFF7FEBF 		b	chMtxObjectInit
 427              		.cfi_endproc
 428              	.LFE191:
 429              		.size	mtx6_setup, .-mtx6_setup
 430 001e 00BF     		.section	.text.mtx5_setup,"ax",%progbits
 431              		.align	2
 432              		.p2align 4,,15
 433              		.thumb
 434              		.thumb_func
 435              		.type	mtx5_setup, %function
 436              	mtx5_setup:
 437              	.LFB189:
 438              		.loc 1 418 0
 439              		.cfi_startproc
 440              		@ args = 0, pretend = 0, frame = 0
 441              		@ frame_needed = 0, uses_anonymous_args = 0
 442              		@ link register save eliminated.
 443              		.loc 1 420 0
 444 0000 40F20000 		movw	r0, #:lower16:.LANCHOR2
ARM GAS  /tmp/ccwBw4Cy.s 			page 9


 445 0004 C0F20000 		movt	r0, #:upper16:.LANCHOR2
 446              		.loc 1 421 0
 447              		.loc 1 420 0
 448 0008 FFF7FEBF 		b	chMtxObjectInit
 449              		.cfi_endproc
 450              	.LFE189:
 451              		.size	mtx5_setup, .-mtx5_setup
 452 000c AFF30080 		.section	.text.mtx4_setup,"ax",%progbits
 453              		.align	2
 454              		.p2align 4,,15
 455              		.thumb
 456              		.thumb_func
 457              		.type	mtx4_setup, %function
 458              	mtx4_setup:
 459              	.LFB185:
 460              		.loc 1 332 0
 461              		.cfi_startproc
 462              		@ args = 0, pretend = 0, frame = 0
 463              		@ frame_needed = 0, uses_anonymous_args = 0
 464              		.loc 1 334 0
 465 0000 40F20000 		movw	r0, #:lower16:.LANCHOR2
 466              		.loc 1 332 0
 467 0004 08B5     		push	{r3, lr}
 468              	.LCFI9:
 469              		.cfi_def_cfa_offset 8
 470              		.cfi_offset 14, -4
 471              		.cfi_offset 3, -8
 472              		.loc 1 334 0
 473 0006 C0F20000 		movt	r0, #:upper16:.LANCHOR2
 474 000a FFF7FEFF 		bl	chMtxObjectInit
 475              		.loc 1 335 0
 476 000e 40F20000 		movw	r0, #:lower16:.LANCHOR1
 477 0012 C0F20000 		movt	r0, #:upper16:.LANCHOR1
 478              		.loc 1 336 0
 479 0016 BDE80840 		pop	{r3, lr}
 480              		.loc 1 335 0
 481 001a FFF7FEBF 		b	chMtxObjectInit
 482              		.cfi_endproc
 483              	.LFE185:
 484              		.size	mtx4_setup, .-mtx4_setup
 485 001e 00BF     		.section	.text.mtx1_setup,"ax",%progbits
 486              		.align	2
 487              		.p2align 4,,15
 488              		.thumb
 489              		.thumb_func
 490              		.type	mtx1_setup, %function
 491              	mtx1_setup:
 492              	.LFB182:
 493              		.loc 1 84 0
 494              		.cfi_startproc
 495              		@ args = 0, pretend = 0, frame = 0
 496              		@ frame_needed = 0, uses_anonymous_args = 0
 497              		@ link register save eliminated.
 498              		.loc 1 86 0
 499 0000 40F20000 		movw	r0, #:lower16:.LANCHOR2
 500 0004 C0F20000 		movt	r0, #:upper16:.LANCHOR2
 501              		.loc 1 87 0
ARM GAS  /tmp/ccwBw4Cy.s 			page 10


 502              		.loc 1 86 0
 503 0008 FFF7FEBF 		b	chMtxObjectInit
 504              		.cfi_endproc
 505              	.LFE182:
 506              		.size	mtx1_setup, .-mtx1_setup
 507 000c AFF30080 		.section	.text.mtx7_execute,"ax",%progbits
 508              		.align	2
 509              		.p2align 4,,15
 510              		.thumb
 511              		.thumb_func
 512              		.type	mtx7_execute, %function
 513              	mtx7_execute:
 514              	.LFB195:
 515              		.loc 1 526 0
 516              		.cfi_startproc
 517              		@ args = 0, pretend = 0, frame = 0
 518              		@ frame_needed = 0, uses_anonymous_args = 0
 519              	.LBB148:
 520              	.LBB149:
 521              	.LBB150:
 522              	.LBB151:
 523              		.loc 2 176 0
 524 0000 40F20000 		movw	r0, #:lower16:ch
 525              	.LBE151:
 526              	.LBE150:
 527              	.LBE149:
 528              	.LBE148:
 529              		.loc 1 526 0
 530 0004 F0B5     		push	{r4, r5, r6, r7, lr}
 531              	.LCFI10:
 532              		.cfi_def_cfa_offset 20
 533              		.cfi_offset 14, -4
 534              		.cfi_offset 7, -8
 535              		.cfi_offset 6, -12
 536              		.cfi_offset 5, -16
 537              		.cfi_offset 4, -20
 538              	.LBB156:
 539              	.LBB154:
 540              	.LBB153:
 541              	.LBB152:
 542              		.loc 2 176 0
 543 0006 C0F20000 		movt	r0, #:upper16:ch
 544              	.LBE152:
 545              	.LBE153:
 546              		.loc 2 189 0
 547 000a 8369     		ldr	r3, [r0, #24]
 548              	.LBE154:
 549              	.LBE156:
 550              		.loc 1 529 0
 551 000c 40F20006 		movw	r6, #:lower16:wa
 552              	.LBB157:
 553              	.LBB155:
 554              		.loc 2 189 0
 555 0010 9F68     		ldr	r7, [r3, #8]
 556              	.LBE155:
 557              	.LBE157:
 558              		.loc 1 529 0
ARM GAS  /tmp/ccwBw4Cy.s 			page 11


 559 0012 40F20005 		movw	r5, #:lower16:thread10
 560 0016 C0F20006 		movt	r6, #:upper16:wa
 561 001a C0F20005 		movt	r5, #:upper16:thread10
 562 001e 40F20004 		movw	r4, #:lower16:.LC4
 563              		.loc 1 526 0
 564 0022 83B0     		sub	sp, sp, #12
 565              	.LCFI11:
 566              		.cfi_def_cfa_offset 32
 567              		.loc 1 529 0
 568 0024 7A1C     		adds	r2, r7, #1
 569 0026 2B46     		mov	r3, r5
 570 0028 3068     		ldr	r0, [r6, #0]
 571 002a C0F20004 		movt	r4, #:upper16:.LC4
 572 002e 4FF4A471 		mov	r1, #328
 573 0032 0094     		str	r4, [sp, #0]
 574 0034 FFF7FEFF 		bl	chThdCreateStatic
 575 0038 40F20004 		movw	r4, #:lower16:threads
 576              		.loc 1 530 0
 577 003c D6F804C0 		ldr	ip, [r6, #4]
 578              		.loc 1 529 0
 579 0040 C0F20004 		movt	r4, #:upper16:threads
 580              		.loc 1 530 0
 581 0044 40F2000E 		movw	lr, #:lower16:.LC5
 582              		.loc 1 529 0
 583 0048 2060     		str	r0, [r4, #0]
 584              		.loc 1 530 0
 585 004a C0F2000E 		movt	lr, #:upper16:.LC5
 586 004e BA1C     		adds	r2, r7, #2
 587 0050 2B46     		mov	r3, r5
 588 0052 4FF4A471 		mov	r1, #328
 589 0056 6046     		mov	r0, ip
 590 0058 CDF800E0 		str	lr, [sp, #0]
 591 005c FFF7FEFF 		bl	chThdCreateStatic
 592              		.loc 1 531 0
 593 0060 D6F808C0 		ldr	ip, [r6, #8]
 594 0064 40F2000E 		movw	lr, #:lower16:.LC1
 595              		.loc 1 530 0
 596 0068 6060     		str	r0, [r4, #4]
 597              		.loc 1 531 0
 598 006a C0F2000E 		movt	lr, #:upper16:.LC1
 599 006e FA1C     		adds	r2, r7, #3
 600 0070 2B46     		mov	r3, r5
 601 0072 4FF4A471 		mov	r1, #328
 602 0076 6046     		mov	r0, ip
 603 0078 CDF800E0 		str	lr, [sp, #0]
 604 007c FFF7FEFF 		bl	chThdCreateStatic
 605              		.loc 1 532 0
 606 0080 D6F80CC0 		ldr	ip, [r6, #12]
 607 0084 40F2000E 		movw	lr, #:lower16:.LC2
 608              		.loc 1 531 0
 609 0088 A060     		str	r0, [r4, #8]
 610              		.loc 1 532 0
 611 008a C0F2000E 		movt	lr, #:upper16:.LC2
 612 008e 6046     		mov	r0, ip
 613 0090 3A1D     		adds	r2, r7, #4
 614 0092 2B46     		mov	r3, r5
 615 0094 4FF4A471 		mov	r1, #328
ARM GAS  /tmp/ccwBw4Cy.s 			page 12


 616 0098 CDF800E0 		str	lr, [sp, #0]
 617 009c FFF7FEFF 		bl	chThdCreateStatic
 618              		.loc 1 533 0
 619 00a0 D6F810E0 		ldr	lr, [r6, #16]
 620 00a4 40F20006 		movw	r6, #:lower16:.LC0
 621 00a8 4FF4A471 		mov	r1, #328
 622 00ac 7A1D     		adds	r2, r7, #5
 623 00ae 2B46     		mov	r3, r5
 624              		.loc 1 532 0
 625 00b0 E060     		str	r0, [r4, #12]
 626              		.loc 1 533 0
 627 00b2 C0F20006 		movt	r6, #:upper16:.LC0
 628 00b6 7046     		mov	r0, lr
 629 00b8 0096     		str	r6, [sp, #0]
 630 00ba FFF7FEFF 		bl	chThdCreateStatic
 631 00be 2061     		str	r0, [r4, #16]
 632              		.loc 1 534 0
 633 00c0 40F20000 		movw	r0, #:lower16:.LANCHOR0
 634 00c4 C0F20000 		movt	r0, #:upper16:.LANCHOR0
 635 00c8 FFF7FEFF 		bl	chCondBroadcast
 636              		.loc 1 535 0
 637 00cc FFF7FEFF 		bl	test_wait_threads
 638              		.loc 1 536 0
 639 00d0 40F20001 		movw	r1, #:lower16:.LC6
 640 00d4 0120     		movs	r0, #1
 641 00d6 C0F20001 		movt	r1, #:upper16:.LC6
 642              		.loc 1 537 0
 643 00da 03B0     		add	sp, sp, #12
 644 00dc BDE8F040 		pop	{r4, r5, r6, r7, lr}
 645              		.loc 1 536 0
 646 00e0 FFF7FEBF 		b	_test_assert_sequence
 647              		.cfi_endproc
 648              	.LFE195:
 649              		.size	mtx7_execute, .-mtx7_execute
 650 00e4 AFF30080 		.section	.text.mtx6_execute,"ax",%progbits
 650      AFF30080 
 650      AFF30080 
 651              		.align	2
 652              		.p2align 4,,15
 653              		.thumb
 654              		.thumb_func
 655              		.type	mtx6_execute, %function
 656              	mtx6_execute:
 657              	.LFB193:
 658              		.loc 1 483 0
 659              		.cfi_startproc
 660              		@ args = 0, pretend = 0, frame = 0
 661              		@ frame_needed = 0, uses_anonymous_args = 0
 662 0000 F0B5     		push	{r4, r5, r6, r7, lr}
 663              	.LCFI12:
 664              		.cfi_def_cfa_offset 20
 665              		.cfi_offset 14, -4
 666              		.cfi_offset 7, -8
 667              		.cfi_offset 6, -12
 668              		.cfi_offset 5, -16
 669              		.cfi_offset 4, -20
 670              	.LBB158:
ARM GAS  /tmp/ccwBw4Cy.s 			page 13


 671              	.LBB159:
 672              	.LBB160:
 673              	.LBB161:
 674              		.loc 2 176 0
 675 0002 40F20005 		movw	r5, #:lower16:ch
 676 0006 C0F20005 		movt	r5, #:upper16:ch
 677              	.LBE161:
 678              	.LBE160:
 679              		.loc 2 189 0
 680 000a AA69     		ldr	r2, [r5, #24]
 681              	.LBE159:
 682              	.LBE158:
 683              		.loc 1 486 0
 684 000c 40F20006 		movw	r6, #:lower16:wa
 685              	.LBB163:
 686              	.LBB162:
 687              		.loc 2 189 0
 688 0010 9768     		ldr	r7, [r2, #8]
 689              	.LBE162:
 690              	.LBE163:
 691              		.loc 1 486 0
 692 0012 40F20005 		movw	r5, #:lower16:thread10
 693 0016 C0F20006 		movt	r6, #:upper16:wa
 694 001a C0F20005 		movt	r5, #:upper16:thread10
 695 001e 40F20004 		movw	r4, #:lower16:.LC4
 696              		.loc 1 483 0
 697 0022 83B0     		sub	sp, sp, #12
 698              	.LCFI13:
 699              		.cfi_def_cfa_offset 32
 700              		.loc 1 486 0
 701 0024 7A1C     		adds	r2, r7, #1
 702 0026 2B46     		mov	r3, r5
 703 0028 3068     		ldr	r0, [r6, #0]
 704 002a C0F20004 		movt	r4, #:upper16:.LC4
 705 002e 4FF4A471 		mov	r1, #328
 706 0032 0094     		str	r4, [sp, #0]
 707 0034 FFF7FEFF 		bl	chThdCreateStatic
 708 0038 40F20004 		movw	r4, #:lower16:threads
 709              		.loc 1 487 0
 710 003c 7168     		ldr	r1, [r6, #4]
 711              		.loc 1 486 0
 712 003e C0F20004 		movt	r4, #:upper16:threads
 713              		.loc 1 487 0
 714 0042 40F2000E 		movw	lr, #:lower16:.LC5
 715              		.loc 1 486 0
 716 0046 2060     		str	r0, [r4, #0]
 717              		.loc 1 487 0
 718 0048 C0F2000E 		movt	lr, #:upper16:.LC5
 719 004c BA1C     		adds	r2, r7, #2
 720 004e 2B46     		mov	r3, r5
 721 0050 0846     		mov	r0, r1
 722 0052 4FF4A471 		mov	r1, #328
 723 0056 CDF800E0 		str	lr, [sp, #0]
 724 005a FFF7FEFF 		bl	chThdCreateStatic
 725              		.loc 1 488 0
 726 005e B168     		ldr	r1, [r6, #8]
 727 0060 40F2000C 		movw	ip, #:lower16:.LC1
ARM GAS  /tmp/ccwBw4Cy.s 			page 14


 728 0064 C0F2000C 		movt	ip, #:upper16:.LC1
 729              		.loc 1 487 0
 730 0068 6060     		str	r0, [r4, #4]
 731              		.loc 1 488 0
 732 006a FA1C     		adds	r2, r7, #3
 733 006c 2B46     		mov	r3, r5
 734 006e 0846     		mov	r0, r1
 735 0070 4FF4A471 		mov	r1, #328
 736 0074 CDF800C0 		str	ip, [sp, #0]
 737 0078 FFF7FEFF 		bl	chThdCreateStatic
 738              		.loc 1 489 0
 739 007c F168     		ldr	r1, [r6, #12]
 740 007e 40F2000E 		movw	lr, #:lower16:.LC2
 741              		.loc 1 488 0
 742 0082 A060     		str	r0, [r4, #8]
 743              		.loc 1 489 0
 744 0084 C0F2000E 		movt	lr, #:upper16:.LC2
 745 0088 3A1D     		adds	r2, r7, #4
 746 008a 2B46     		mov	r3, r5
 747 008c 0846     		mov	r0, r1
 748 008e 4FF4A471 		mov	r1, #328
 749 0092 CDF800E0 		str	lr, [sp, #0]
 750 0096 FFF7FEFF 		bl	chThdCreateStatic
 751              		.loc 1 490 0
 752 009a 3169     		ldr	r1, [r6, #16]
 753 009c 40F20006 		movw	r6, #:lower16:.LC0
 754              		.loc 1 489 0
 755 00a0 E060     		str	r0, [r4, #12]
 756              		.loc 1 490 0
 757 00a2 C0F20006 		movt	r6, #:upper16:.LC0
 758 00a6 0846     		mov	r0, r1
 759 00a8 7A1D     		adds	r2, r7, #5
 760 00aa 4FF4A471 		mov	r1, #328
 761 00ae 2B46     		mov	r3, r5
 762 00b0 0096     		str	r6, [sp, #0]
 763 00b2 FFF7FEFF 		bl	chThdCreateStatic
 764 00b6 2061     		str	r0, [r4, #16]
 765              	.LVL8:
 766              	.LBB164:
 767              	.LBB165:
 768              	.LBB166:
 769              	.LBB167:
 770              		.file 3 "../../../resources/chibios/ChibiOS_16.1.8/os/ext/CMSIS/include/core_cmFunc.h"
 771              		.loc 3 548 0
 772 00b8 2020     		movs	r0, #32
 773              	@ 548 "../../../resources/chibios/ChibiOS_16.1.8/os/ext/CMSIS/include/core_cmFunc.h" 1
 774 00ba 80F31188 		MSR basepri, r0
 775              	@ 0 "" 2
 776              		.thumb
 777              	.LBE167:
 778              	.LBE166:
 779              	.LBE165:
 780              	.LBE164:
 781              		.loc 1 492 0
 782 00be 40F20004 		movw	r4, #:lower16:.LANCHOR0
 783 00c2 C0F20004 		movt	r4, #:upper16:.LANCHOR0
 784 00c6 2046     		mov	r0, r4
ARM GAS  /tmp/ccwBw4Cy.s 			page 15


 785 00c8 FFF7FEFF 		bl	chCondSignalI
 786              		.loc 1 493 0
 787 00cc 2046     		mov	r0, r4
 788 00ce FFF7FEFF 		bl	chCondSignalI
 789              		.loc 1 494 0
 790 00d2 2046     		mov	r0, r4
 791 00d4 FFF7FEFF 		bl	chCondSignalI
 792              		.loc 1 495 0
 793 00d8 2046     		mov	r0, r4
 794 00da FFF7FEFF 		bl	chCondSignalI
 795              		.loc 1 496 0
 796 00de 2046     		mov	r0, r4
 797 00e0 FFF7FEFF 		bl	chCondSignalI
 798              		.loc 1 497 0
 799 00e4 FFF7FEFF 		bl	chSchRescheduleS
 800              	.LVL9:
 801              	.LBB168:
 802              	.LBB169:
 803              	.LBB170:
 804              	.LBB171:
 805              	.LBB172:
 806              		.loc 3 548 0
 807 00e8 0023     		movs	r3, #0
 808              	@ 548 "../../../resources/chibios/ChibiOS_16.1.8/os/ext/CMSIS/include/core_cmFunc.h" 1
 809 00ea 83F31188 		MSR basepri, r3
 810              	@ 0 "" 2
 811              		.thumb
 812              	.LBE172:
 813              	.LBE171:
 814              	.LBE170:
 815              	.LBE169:
 816              	.LBE168:
 817              		.loc 1 499 0
 818 00ee FFF7FEFF 		bl	test_wait_threads
 819              		.loc 1 500 0
 820 00f2 40F20001 		movw	r1, #:lower16:.LC6
 821 00f6 0120     		movs	r0, #1
 822 00f8 C0F20001 		movt	r1, #:upper16:.LC6
 823              		.loc 1 501 0
 824 00fc 03B0     		add	sp, sp, #12
 825 00fe BDE8F040 		pop	{r4, r5, r6, r7, lr}
 826              		.loc 1 500 0
 827 0102 FFF7FEBF 		b	_test_assert_sequence
 828              		.cfi_endproc
 829              	.LFE193:
 830              		.size	mtx6_execute, .-mtx6_execute
 831 0106 00BFAFF3 		.section	.text.mtx1_execute,"ax",%progbits
 831      0080AFF3 
 831      0080
 832              		.align	2
 833              		.p2align 4,,15
 834              		.thumb
 835              		.thumb_func
 836              		.type	mtx1_execute, %function
 837              	mtx1_execute:
 838              	.LFB184:
 839              		.loc 1 96 0
ARM GAS  /tmp/ccwBw4Cy.s 			page 16


 840              		.cfi_startproc
 841              		@ args = 0, pretend = 0, frame = 0
 842              		@ frame_needed = 0, uses_anonymous_args = 0
 843 0000 F0B5     		push	{r4, r5, r6, r7, lr}
 844              	.LCFI14:
 845              		.cfi_def_cfa_offset 20
 846              		.cfi_offset 14, -4
 847              		.cfi_offset 7, -8
 848              		.cfi_offset 6, -12
 849              		.cfi_offset 5, -16
 850              		.cfi_offset 4, -20
 851              	.LBB173:
 852              	.LBB174:
 853              	.LBB175:
 854              	.LBB176:
 855              		.loc 2 176 0
 856 0002 40F20007 		movw	r7, #:lower16:ch
 857 0006 C0F20007 		movt	r7, #:upper16:ch
 858              	.LBE176:
 859              	.LBE175:
 860              		.loc 2 189 0
 861 000a BE69     		ldr	r6, [r7, #24]
 862              	.LBE174:
 863              	.LBE173:
 864              		.loc 1 99 0
 865 000c 40F20000 		movw	r0, #:lower16:.LANCHOR2
 866              		.loc 1 96 0
 867 0010 83B0     		sub	sp, sp, #12
 868              	.LCFI15:
 869              		.cfi_def_cfa_offset 32
 870              	.LBB178:
 871              	.LBB177:
 872              		.loc 2 189 0
 873 0012 B668     		ldr	r6, [r6, #8]
 874              	.LBE177:
 875              	.LBE178:
 876              		.loc 1 99 0
 877 0014 C0F20000 		movt	r0, #:upper16:.LANCHOR2
 878              		.loc 1 100 0
 879 0018 40F20005 		movw	r5, #:lower16:wa
 880              		.loc 1 99 0
 881 001c FFF7FEFF 		bl	chMtxLock
 882              		.loc 1 100 0
 883 0020 C0F20005 		movt	r5, #:upper16:wa
 884 0024 40F20004 		movw	r4, #:lower16:.LC4
 885 0028 40F20003 		movw	r3, #:lower16:thread1
 886 002c 721C     		adds	r2, r6, #1
 887 002e 2868     		ldr	r0, [r5, #0]
 888 0030 C0F20004 		movt	r4, #:upper16:.LC4
 889 0034 4FF4A471 		mov	r1, #328
 890 0038 C0F20003 		movt	r3, #:upper16:thread1
 891 003c 0094     		str	r4, [sp, #0]
 892 003e FFF7FEFF 		bl	chThdCreateStatic
 893 0042 40F20004 		movw	r4, #:lower16:threads
 894              		.loc 1 101 0
 895 0046 D5F804C0 		ldr	ip, [r5, #4]
 896              		.loc 1 100 0
ARM GAS  /tmp/ccwBw4Cy.s 			page 17


 897 004a C0F20004 		movt	r4, #:upper16:threads
 898              		.loc 1 101 0
 899 004e 40F2000E 		movw	lr, #:lower16:.LC5
 900 0052 40F20003 		movw	r3, #:lower16:thread1
 901              		.loc 1 100 0
 902 0056 2060     		str	r0, [r4, #0]
 903              		.loc 1 101 0
 904 0058 C0F2000E 		movt	lr, #:upper16:.LC5
 905 005c B21C     		adds	r2, r6, #2
 906 005e 4FF4A471 		mov	r1, #328
 907 0062 C0F20003 		movt	r3, #:upper16:thread1
 908 0066 6046     		mov	r0, ip
 909 0068 CDF800E0 		str	lr, [sp, #0]
 910 006c FFF7FEFF 		bl	chThdCreateStatic
 911              		.loc 1 102 0
 912 0070 D5F808C0 		ldr	ip, [r5, #8]
 913 0074 40F2000E 		movw	lr, #:lower16:.LC1
 914 0078 40F20003 		movw	r3, #:lower16:thread1
 915              		.loc 1 101 0
 916 007c 6060     		str	r0, [r4, #4]
 917              		.loc 1 102 0
 918 007e C0F2000E 		movt	lr, #:upper16:.LC1
 919 0082 F21C     		adds	r2, r6, #3
 920 0084 4FF4A471 		mov	r1, #328
 921 0088 C0F20003 		movt	r3, #:upper16:thread1
 922 008c 6046     		mov	r0, ip
 923 008e CDF800E0 		str	lr, [sp, #0]
 924 0092 FFF7FEFF 		bl	chThdCreateStatic
 925              		.loc 1 103 0
 926 0096 D5F80CC0 		ldr	ip, [r5, #12]
 927 009a 40F2000E 		movw	lr, #:lower16:.LC2
 928 009e 40F20003 		movw	r3, #:lower16:thread1
 929              		.loc 1 102 0
 930 00a2 A060     		str	r0, [r4, #8]
 931              		.loc 1 103 0
 932 00a4 C0F2000E 		movt	lr, #:upper16:.LC2
 933 00a8 6046     		mov	r0, ip
 934 00aa 321D     		adds	r2, r6, #4
 935 00ac 4FF4A471 		mov	r1, #328
 936 00b0 C0F20003 		movt	r3, #:upper16:thread1
 937 00b4 CDF800E0 		str	lr, [sp, #0]
 938 00b8 FFF7FEFF 		bl	chThdCreateStatic
 939              		.loc 1 104 0
 940 00bc D5F810E0 		ldr	lr, [r5, #16]
 941 00c0 40F20003 		movw	r3, #:lower16:thread1
 942 00c4 40F20005 		movw	r5, #:lower16:.LC0
 943 00c8 721D     		adds	r2, r6, #5
 944 00ca 4FF4A471 		mov	r1, #328
 945 00ce C0F20003 		movt	r3, #:upper16:thread1
 946              		.loc 1 103 0
 947 00d2 E060     		str	r0, [r4, #12]
 948              		.loc 1 104 0
 949 00d4 C0F20005 		movt	r5, #:upper16:.LC0
 950 00d8 7046     		mov	r0, lr
 951 00da 0095     		str	r5, [sp, #0]
 952 00dc FFF7FEFF 		bl	chThdCreateStatic
 953 00e0 2061     		str	r0, [r4, #16]
ARM GAS  /tmp/ccwBw4Cy.s 			page 18


 954              		.loc 1 105 0
 955 00e2 40F20000 		movw	r0, #:lower16:.LANCHOR2
 956 00e6 C0F20000 		movt	r0, #:upper16:.LANCHOR2
 957 00ea FFF7FEFF 		bl	chMtxUnlock
 958              		.loc 1 106 0
 959 00ee FFF7FEFF 		bl	test_wait_threads
 960              	.LBB179:
 961              	.LBB180:
 962              		.loc 2 189 0
 963 00f2 B969     		ldr	r1, [r7, #24]
 964              	.LBE180:
 965              	.LBE179:
 966              		.loc 1 107 0
 967 00f4 0120     		movs	r0, #1
 968 00f6 8A68     		ldr	r2, [r1, #8]
 969 00f8 B31A     		subs	r3, r6, r2
 970 00fa 5942     		rsbs	r1, r3, #0
 971 00fc 41EB0301 		adc	r1, r1, r3
 972 0100 FFF7FEFF 		bl	_test_assert
 973 0104 08B1     		cbz	r0, .L17
 974              		.loc 1 109 0
 975 0106 03B0     		add	sp, sp, #12
 976 0108 F0BD     		pop	{r4, r5, r6, r7, pc}
 977              	.L17:
 978              		.loc 1 108 0
 979 010a 40F20001 		movw	r1, #:lower16:.LC6
 980 010e 0220     		movs	r0, #2
 981 0110 C0F20001 		movt	r1, #:upper16:.LC6
 982              		.loc 1 109 0
 983 0114 03B0     		add	sp, sp, #12
 984 0116 BDE8F040 		pop	{r4, r5, r6, r7, lr}
 985              		.loc 1 108 0
 986 011a FFF7FEBF 		b	_test_assert_sequence
 987              		.cfi_endproc
 988              	.LFE184:
 989              		.size	mtx1_execute, .-mtx1_execute
 990 011e 00BF     		.section	.text.mtx5_execute,"ax",%progbits
 991              		.align	2
 992              		.p2align 4,,15
 993              		.thumb
 994              		.thumb_func
 995              		.type	mtx5_execute, %function
 996              	mtx5_execute:
 997              	.LFB190:
 998              		.loc 1 423 0
 999              		.cfi_startproc
 1000              		@ args = 0, pretend = 0, frame = 0
 1001              		@ frame_needed = 0, uses_anonymous_args = 0
 1002 0000 F8B5     		push	{r3, r4, r5, r6, r7, lr}
 1003              	.LCFI16:
 1004              		.cfi_def_cfa_offset 24
 1005              		.cfi_offset 14, -4
 1006              		.cfi_offset 7, -8
 1007              		.cfi_offset 6, -12
 1008              		.cfi_offset 5, -16
 1009              		.cfi_offset 4, -20
 1010              		.cfi_offset 3, -24
ARM GAS  /tmp/ccwBw4Cy.s 			page 19


 1011              	.LBB181:
 1012              	.LBB182:
 1013              	.LBB183:
 1014              	.LBB184:
 1015              		.loc 2 176 0
 1016 0002 40F20005 		movw	r5, #:lower16:ch
 1017 0006 C0F20005 		movt	r5, #:upper16:ch
 1018              	.LBE184:
 1019              	.LBE183:
 1020              	.LBE182:
 1021              	.LBE181:
 1022              		.loc 1 429 0
 1023 000a 40F20004 		movw	r4, #:lower16:.LANCHOR2
 1024              	.LBB187:
 1025              	.LBB185:
 1026              		.loc 2 189 0
 1027 000e AB69     		ldr	r3, [r5, #24]
 1028              	.LBE185:
 1029              	.LBE187:
 1030              		.loc 1 429 0
 1031 0010 C0F20004 		movt	r4, #:upper16:.LANCHOR2
 1032 0014 2046     		mov	r0, r4
 1033              	.LBB188:
 1034              	.LBB186:
 1035              		.loc 2 189 0
 1036 0016 9E68     		ldr	r6, [r3, #8]
 1037              	.LBE186:
 1038              	.LBE188:
 1039              		.loc 1 429 0
 1040 0018 FFF7FEFF 		bl	chMtxTryLock
 1041 001c 0146     		mov	r1, r0
 1042              	.LVL10:
 1043              		.loc 1 430 0
 1044 001e 0120     		movs	r0, #1
 1045              	.LVL11:
 1046 0020 FFF7FEFF 		bl	_test_assert
 1047              	.LVL12:
 1048 0024 00B1     		cbz	r0, .L20
 1049              	.L18:
 1050 0026 F8BD     		pop	{r3, r4, r5, r6, r7, pc}
 1051              	.L20:
 1052              		.loc 1 432 0
 1053 0028 2046     		mov	r0, r4
 1054 002a FFF7FEFF 		bl	chMtxTryLock
 1055              	.LVL13:
 1056              		.loc 1 433 0
 1057 002e 80F00101 		eor	r1, r0, #1
 1058 0032 C9B2     		uxtb	r1, r1
 1059 0034 0220     		movs	r0, #2
 1060              	.LVL14:
 1061 0036 FFF7FEFF 		bl	_test_assert
 1062 003a 0746     		mov	r7, r0
 1063 003c 0028     		cmp	r0, #0
 1064 003e F2D1     		bne	.L18
 1065              	.LVL15:
 1066              	.LBB189:
 1067              	.LBB190:
ARM GAS  /tmp/ccwBw4Cy.s 			page 20


 1068              	.LBB191:
 1069              	.LBB192:
 1070              		.loc 3 548 0
 1071 0040 2020     		movs	r0, #32
 1072              	@ 548 "../../../resources/chibios/ChibiOS_16.1.8/os/ext/CMSIS/include/core_cmFunc.h" 1
 1073 0042 80F31188 		MSR basepri, r0
 1074              	@ 0 "" 2
 1075              		.thumb
 1076              	.LBE192:
 1077              	.LBE191:
 1078              	.LBE190:
 1079              	.LBE189:
 1080              		.loc 1 436 0
 1081 0046 2046     		mov	r0, r4
 1082 0048 FFF7FEFF 		bl	chMtxUnlockS
 1083              	.LVL16:
 1084              	.LBB193:
 1085              	.LBB194:
 1086              	.LBB195:
 1087              	.LBB196:
 1088              	.LBB197:
 1089              		.loc 3 548 0
 1090              	@ 548 "../../../resources/chibios/ChibiOS_16.1.8/os/ext/CMSIS/include/core_cmFunc.h" 1
 1091 004c 87F31188 		MSR basepri, r7
 1092              	@ 0 "" 2
 1093              	.LVL17:
 1094              		.thumb
 1095              	.LBE197:
 1096              	.LBE196:
 1097              	.LBE195:
 1098              	.LBE194:
 1099              	.LBE193:
 1100              	.LBB198:
 1101              	.LBB199:
 1102              		.file 4 "../../../resources/chibios/ChibiOS_16.1.8/os/rt/include/chschd.h"
 1103              		.loc 4 618 0
 1104 0050 2168     		ldr	r1, [r4, #0]
 1105              	.LBE199:
 1106              	.LBE198:
 1107              		.loc 1 439 0
 1108 0052 0320     		movs	r0, #3
 1109 0054 0B1B     		subs	r3, r1, r4
 1110 0056 5A42     		rsbs	r2, r3, #0
 1111 0058 42EB0301 		adc	r1, r2, r3
 1112 005c FFF7FEFF 		bl	_test_assert
 1113 0060 0028     		cmp	r0, #0
 1114 0062 E0D1     		bne	.L18
 1115              		.loc 1 440 0
 1116 0064 A268     		ldr	r2, [r4, #8]
 1117 0066 0420     		movs	r0, #4
 1118 0068 D2F10101 		rsbs	r1, r2, #1
 1119 006c 38BF     		it	cc
 1120 006e 0021     		movcc	r1, #0
 1121 0070 FFF7FEFF 		bl	_test_assert
 1122 0074 0028     		cmp	r0, #0
 1123 0076 D6D1     		bne	.L18
 1124              	.LBB200:
ARM GAS  /tmp/ccwBw4Cy.s 			page 21


 1125              	.LBB201:
 1126              		.loc 2 189 0
 1127 0078 AB69     		ldr	r3, [r5, #24]
 1128              	.LBE201:
 1129              	.LBE200:
 1130              		.loc 1 441 0
 1131 007a 0520     		movs	r0, #5
 1132 007c 9A68     		ldr	r2, [r3, #8]
 1133 007e B11A     		subs	r1, r6, r2
 1134 0080 4B42     		rsbs	r3, r1, #0
 1135 0082 43EB0101 		adc	r1, r3, r1
 1136 0086 FFF7FEFF 		bl	_test_assert
 1137 008a 0028     		cmp	r0, #0
 1138 008c CBD1     		bne	.L18
 1139              		.loc 1 444 0
 1140 008e 2046     		mov	r0, r4
 1141 0090 FFF7FEFF 		bl	chMtxLock
 1142              		.loc 1 445 0
 1143 0094 FFF7FEFF 		bl	chMtxUnlockAll
 1144              	.LVL18:
 1145              	.LBB202:
 1146              	.LBB203:
 1147              		.loc 4 618 0
 1148 0098 2268     		ldr	r2, [r4, #0]
 1149              	.LBE203:
 1150              	.LBE202:
 1151              		.loc 1 446 0
 1152 009a 0620     		movs	r0, #6
 1153 009c 111B     		subs	r1, r2, r4
 1154 009e D1F1000C 		rsbs	ip, r1, #0
 1155 00a2 4CEB0101 		adc	r1, ip, r1
 1156 00a6 FFF7FEFF 		bl	_test_assert
 1157 00aa 0028     		cmp	r0, #0
 1158 00ac BBD1     		bne	.L18
 1159              		.loc 1 447 0
 1160 00ae A368     		ldr	r3, [r4, #8]
 1161 00b0 0720     		movs	r0, #7
 1162 00b2 D3F10101 		rsbs	r1, r3, #1
 1163 00b6 38BF     		it	cc
 1164 00b8 0021     		movcc	r1, #0
 1165              		.loc 1 448 0
 1166 00ba BDE8F840 		pop	{r3, r4, r5, r6, r7, lr}
 1167              		.loc 1 447 0
 1168 00be FFF7FEBF 		b	_test_assert
 1169              		.cfi_endproc
 1170              	.LFE190:
 1171              		.size	mtx5_execute, .-mtx5_execute
 1172 00c2 00BFAFF3 		.section	.text.mtx4_execute,"ax",%progbits
 1172      0080AFF3 
 1172      0080AFF3 
 1172      0080
 1173              		.align	2
 1174              		.p2align 4,,15
 1175              		.thumb
 1176              		.thumb_func
 1177              		.type	mtx4_execute, %function
 1178              	mtx4_execute:
ARM GAS  /tmp/ccwBw4Cy.s 			page 22


 1179              	.LFB188:
 1180              		.loc 1 354 0
 1181              		.cfi_startproc
 1182              		@ args = 0, pretend = 0, frame = 0
 1183              		@ frame_needed = 0, uses_anonymous_args = 0
 1184 0000 2DE9F047 		push	{r4, r5, r6, r7, r8, r9, sl, lr}
 1185              	.LCFI17:
 1186              		.cfi_def_cfa_offset 32
 1187              		.cfi_offset 14, -4
 1188              		.cfi_offset 10, -8
 1189              		.cfi_offset 9, -12
 1190              		.cfi_offset 8, -16
 1191              		.cfi_offset 7, -20
 1192              		.cfi_offset 6, -24
 1193              		.cfi_offset 5, -28
 1194              		.cfi_offset 4, -32
 1195              	.LBB204:
 1196              	.LBB205:
 1197              	.LBB206:
 1198              	.LBB207:
 1199              		.loc 2 176 0
 1200 0004 40F20004 		movw	r4, #:lower16:ch
 1201 0008 C0F20004 		movt	r4, #:upper16:ch
 1202              	.LBE207:
 1203              	.LBE206:
 1204              		.loc 2 189 0
 1205 000c A069     		ldr	r0, [r4, #24]
 1206              	.LBE205:
 1207              	.LBE204:
 1208              		.loc 1 360 0
 1209 000e 40F20006 		movw	r6, #:lower16:wa
 1210              	.LBB209:
 1211              	.LBB208:
 1212              		.loc 2 189 0
 1213 0012 8768     		ldr	r7, [r0, #8]
 1214              	.LBE208:
 1215              	.LBE209:
 1216              		.loc 1 360 0
 1217 0014 C0F20006 		movt	r6, #:upper16:wa
 1218 0018 D6F80090 		ldr	r9, [r6, #0]
 1219              		.loc 1 358 0
 1220 001c 07F10108 		add	r8, r7, #1
 1221              	.LVL19:
 1222              		.loc 1 360 0
 1223 0020 40F20005 		movw	r5, #:lower16:.LC2
 1224 0024 40F20003 		movw	r3, #:lower16:thread4a
 1225              		.loc 1 354 0
 1226 0028 82B0     		sub	sp, sp, #8
 1227              	.LCFI18:
 1228              		.cfi_def_cfa_offset 40
 1229              		.loc 1 360 0
 1230 002a C0F20005 		movt	r5, #:upper16:.LC2
 1231 002e 4FF4A471 		mov	r1, #328
 1232 0032 4246     		mov	r2, r8
 1233 0034 C0F20003 		movt	r3, #:upper16:thread4a
 1234 0038 4846     		mov	r0, r9
 1235 003a 0095     		str	r5, [sp, #0]
ARM GAS  /tmp/ccwBw4Cy.s 			page 23


 1236 003c FFF7FEFF 		bl	chThdCreateStatic
 1237 0040 40F20005 		movw	r5, #:lower16:threads
 1238              		.loc 1 361 0
 1239 0044 D6F804A0 		ldr	sl, [r6, #4]
 1240              		.loc 1 360 0
 1241 0048 C0F20005 		movt	r5, #:upper16:threads
 1242              		.loc 1 359 0
 1243 004c BE1C     		adds	r6, r7, #2
 1244              	.LVL20:
 1245              		.loc 1 361 0
 1246 004e 40F2000E 		movw	lr, #:lower16:.LC0
 1247 0052 40F20003 		movw	r3, #:lower16:thread4b
 1248 0056 4FF4A471 		mov	r1, #328
 1249              		.loc 1 360 0
 1250 005a 2860     		str	r0, [r5, #0]
 1251              		.loc 1 361 0
 1252 005c C0F2000E 		movt	lr, #:upper16:.LC0
 1253 0060 3246     		mov	r2, r6
 1254 0062 C0F20003 		movt	r3, #:upper16:thread4b
 1255 0066 5046     		mov	r0, sl
 1256 0068 CDF800E0 		str	lr, [sp, #0]
 1257 006c FFF7FEFF 		bl	chThdCreateStatic
 1258 0070 6860     		str	r0, [r5, #4]
 1259              		.loc 1 362 0
 1260 0072 40F20000 		movw	r0, #:lower16:.LANCHOR1
 1261 0076 C0F20000 		movt	r0, #:upper16:.LANCHOR1
 1262 007a FFF7FEFF 		bl	chMtxLock
 1263              	.LBB210:
 1264              	.LBB211:
 1265              		.loc 2 189 0
 1266 007e A169     		ldr	r1, [r4, #24]
 1267              	.LBE211:
 1268              	.LBE210:
 1269              		.loc 1 363 0
 1270 0080 0120     		movs	r0, #1
 1271 0082 8B68     		ldr	r3, [r1, #8]
 1272 0084 FA1A     		subs	r2, r7, r3
 1273 0086 5142     		rsbs	r1, r2, #0
 1274 0088 41EB0201 		adc	r1, r1, r2
 1275 008c FFF7FEFF 		bl	_test_assert
 1276 0090 10B1     		cbz	r0, .L23
 1277              	.L21:
 1278              		.loc 1 399 0
 1279 0092 02B0     		add	sp, sp, #8
 1280 0094 BDE8F087 		pop	{r4, r5, r6, r7, r8, r9, sl, pc}
 1281              	.L23:
 1282              		.loc 1 364 0
 1283 0098 6420     		movs	r0, #100
 1284 009a FFF7FEFF 		bl	chThdSleep
 1285              	.LBB212:
 1286              	.LBB213:
 1287              		.loc 2 189 0
 1288 009e A169     		ldr	r1, [r4, #24]
 1289              	.LBE213:
 1290              	.LBE212:
 1291              		.loc 1 365 0
 1292 00a0 0220     		movs	r0, #2
ARM GAS  /tmp/ccwBw4Cy.s 			page 24


 1293 00a2 8B68     		ldr	r3, [r1, #8]
 1294 00a4 C3EB080C 		rsb	ip, r3, r8
 1295 00a8 DCF10002 		rsbs	r2, ip, #0
 1296 00ac 42EB0C01 		adc	r1, r2, ip
 1297 00b0 FFF7FEFF 		bl	_test_assert
 1298 00b4 0028     		cmp	r0, #0
 1299 00b6 ECD1     		bne	.L21
 1300              		.loc 1 366 0
 1301 00b8 40F20000 		movw	r0, #:lower16:.LANCHOR2
 1302 00bc C0F20000 		movt	r0, #:upper16:.LANCHOR2
 1303 00c0 FFF7FEFF 		bl	chMtxLock
 1304              	.LBB214:
 1305              	.LBB215:
 1306              		.loc 2 189 0
 1307 00c4 A269     		ldr	r2, [r4, #24]
 1308              	.LBE215:
 1309              	.LBE214:
 1310              		.loc 1 367 0
 1311 00c6 0320     		movs	r0, #3
 1312 00c8 9168     		ldr	r1, [r2, #8]
 1313 00ca C1EB0803 		rsb	r3, r1, r8
 1314 00ce 5A42     		rsbs	r2, r3, #0
 1315 00d0 42EB0301 		adc	r1, r2, r3
 1316 00d4 FFF7FEFF 		bl	_test_assert
 1317 00d8 0028     		cmp	r0, #0
 1318 00da DAD1     		bne	.L21
 1319              		.loc 1 368 0
 1320 00dc 6420     		movs	r0, #100
 1321 00de FFF7FEFF 		bl	chThdSleep
 1322              	.LBB216:
 1323              	.LBB217:
 1324              		.loc 2 189 0
 1325 00e2 A369     		ldr	r3, [r4, #24]
 1326              	.LBE217:
 1327              	.LBE216:
 1328              		.loc 1 369 0
 1329 00e4 0420     		movs	r0, #4
 1330 00e6 9A68     		ldr	r2, [r3, #8]
 1331 00e8 B11A     		subs	r1, r6, r2
 1332 00ea 4B42     		rsbs	r3, r1, #0
 1333 00ec 43EB0101 		adc	r1, r3, r1
 1334 00f0 FFF7FEFF 		bl	_test_assert
 1335 00f4 0028     		cmp	r0, #0
 1336 00f6 CCD1     		bne	.L21
 1337              		.loc 1 370 0
 1338 00f8 40F20000 		movw	r0, #:lower16:.LANCHOR2
 1339 00fc C0F20000 		movt	r0, #:upper16:.LANCHOR2
 1340 0100 FFF7FEFF 		bl	chMtxUnlock
 1341              	.LBB218:
 1342              	.LBB219:
 1343              		.loc 2 189 0
 1344 0104 A369     		ldr	r3, [r4, #24]
 1345              	.LBE219:
 1346              	.LBE218:
 1347              		.loc 1 371 0
 1348 0106 0520     		movs	r0, #5
 1349 0108 9A68     		ldr	r2, [r3, #8]
ARM GAS  /tmp/ccwBw4Cy.s 			page 25


 1350 010a C2EB0801 		rsb	r1, r2, r8
 1351 010e D1F1000C 		rsbs	ip, r1, #0
 1352 0112 4CEB0101 		adc	r1, ip, r1
 1353 0116 FFF7FEFF 		bl	_test_assert
 1354 011a 0028     		cmp	r0, #0
 1355 011c B9D1     		bne	.L21
 1356              		.loc 1 372 0
 1357 011e 6420     		movs	r0, #100
 1358 0120 FFF7FEFF 		bl	chThdSleep
 1359              	.LBB220:
 1360              	.LBB221:
 1361              		.loc 2 189 0
 1362 0124 A369     		ldr	r3, [r4, #24]
 1363              	.LBE221:
 1364              	.LBE220:
 1365              		.loc 1 373 0
 1366 0126 0620     		movs	r0, #6
 1367 0128 9A68     		ldr	r2, [r3, #8]
 1368 012a C2EB0801 		rsb	r1, r2, r8
 1369 012e D1F1000C 		rsbs	ip, r1, #0
 1370 0132 4CEB0101 		adc	r1, ip, r1
 1371 0136 FFF7FEFF 		bl	_test_assert
 1372 013a 0028     		cmp	r0, #0
 1373 013c A9D1     		bne	.L21
 1374              		.loc 1 374 0
 1375 013e FFF7FEFF 		bl	chMtxUnlockAll
 1376              	.LBB222:
 1377              	.LBB223:
 1378              		.loc 2 189 0
 1379 0142 A169     		ldr	r1, [r4, #24]
 1380              	.LBE223:
 1381              	.LBE222:
 1382              		.loc 1 375 0
 1383 0144 0720     		movs	r0, #7
 1384 0146 8B68     		ldr	r3, [r1, #8]
 1385 0148 FA1A     		subs	r2, r7, r3
 1386 014a 5142     		rsbs	r1, r2, #0
 1387 014c 41EB0201 		adc	r1, r1, r2
 1388 0150 FFF7FEFF 		bl	_test_assert
 1389 0154 0028     		cmp	r0, #0
 1390 0156 9CD1     		bne	.L21
 1391              		.loc 1 376 0
 1392 0158 FFF7FEFF 		bl	test_wait_threads
 1393              		.loc 1 379 0
 1394 015c 40F2000C 		movw	ip, #:lower16:.LC5
 1395 0160 40F20003 		movw	r3, #:lower16:thread4a
 1396 0164 C0F2000C 		movt	ip, #:upper16:.LC5
 1397 0168 4FF4A471 		mov	r1, #328
 1398 016c 4246     		mov	r2, r8
 1399 016e C0F20003 		movt	r3, #:upper16:thread4a
 1400 0172 4846     		mov	r0, r9
 1401 0174 CDF800C0 		str	ip, [sp, #0]
 1402 0178 FFF7FEFF 		bl	chThdCreateStatic
 1403              		.loc 1 380 0
 1404 017c 40F2000E 		movw	lr, #:lower16:.LC1
 1405 0180 40F20003 		movw	r3, #:lower16:thread4b
 1406 0184 4FF4A471 		mov	r1, #328
ARM GAS  /tmp/ccwBw4Cy.s 			page 26


 1407              		.loc 1 379 0
 1408 0188 2860     		str	r0, [r5, #0]
 1409              		.loc 1 380 0
 1410 018a C0F2000E 		movt	lr, #:upper16:.LC1
 1411 018e 3246     		mov	r2, r6
 1412 0190 C0F20003 		movt	r3, #:upper16:thread4b
 1413 0194 5046     		mov	r0, sl
 1414 0196 CDF800E0 		str	lr, [sp, #0]
 1415 019a FFF7FEFF 		bl	chThdCreateStatic
 1416 019e 6860     		str	r0, [r5, #4]
 1417              		.loc 1 381 0
 1418 01a0 40F20000 		movw	r0, #:lower16:.LANCHOR1
 1419 01a4 C0F20000 		movt	r0, #:upper16:.LANCHOR1
 1420 01a8 FFF7FEFF 		bl	chMtxLock
 1421              	.LBB224:
 1422              	.LBB225:
 1423              		.loc 2 189 0
 1424 01ac A269     		ldr	r2, [r4, #24]
 1425              	.LBE225:
 1426              	.LBE224:
 1427              		.loc 1 382 0
 1428 01ae 0820     		movs	r0, #8
 1429 01b0 9168     		ldr	r1, [r2, #8]
 1430 01b2 7B1A     		subs	r3, r7, r1
 1431 01b4 5A42     		rsbs	r2, r3, #0
 1432 01b6 42EB0301 		adc	r1, r2, r3
 1433 01ba FFF7FEFF 		bl	_test_assert
 1434 01be 0028     		cmp	r0, #0
 1435 01c0 7FF467AF 		bne	.L21
 1436              		.loc 1 383 0
 1437 01c4 6420     		movs	r0, #100
 1438 01c6 FFF7FEFF 		bl	chThdSleep
 1439              	.LBB226:
 1440              	.LBB227:
 1441              		.loc 2 189 0
 1442 01ca A369     		ldr	r3, [r4, #24]
 1443              	.LBE227:
 1444              	.LBE226:
 1445              		.loc 1 384 0
 1446 01cc 0920     		movs	r0, #9
 1447 01ce 9A68     		ldr	r2, [r3, #8]
 1448 01d0 C2EB0801 		rsb	r1, r2, r8
 1449 01d4 4B42     		rsbs	r3, r1, #0
 1450 01d6 43EB0101 		adc	r1, r3, r1
 1451 01da FFF7FEFF 		bl	_test_assert
 1452 01de 0028     		cmp	r0, #0
 1453 01e0 7FF457AF 		bne	.L21
 1454              		.loc 1 385 0
 1455 01e4 40F20000 		movw	r0, #:lower16:.LANCHOR2
 1456 01e8 C0F20000 		movt	r0, #:upper16:.LANCHOR2
 1457 01ec FFF7FEFF 		bl	chMtxLock
 1458              	.LBB228:
 1459              	.LBB229:
 1460              		.loc 2 189 0
 1461 01f0 A369     		ldr	r3, [r4, #24]
 1462              	.LBE229:
 1463              	.LBE228:
ARM GAS  /tmp/ccwBw4Cy.s 			page 27


 1464              		.loc 1 386 0
 1465 01f2 0A20     		movs	r0, #10
 1466 01f4 9A68     		ldr	r2, [r3, #8]
 1467 01f6 C2EB0801 		rsb	r1, r2, r8
 1468 01fa D1F1000C 		rsbs	ip, r1, #0
 1469 01fe 4CEB0101 		adc	r1, ip, r1
 1470 0202 FFF7FEFF 		bl	_test_assert
 1471 0206 0028     		cmp	r0, #0
 1472 0208 7FF443AF 		bne	.L21
 1473              		.loc 1 387 0
 1474 020c 6420     		movs	r0, #100
 1475 020e FFF7FEFF 		bl	chThdSleep
 1476              	.LBB230:
 1477              	.LBB231:
 1478              		.loc 2 189 0
 1479 0212 A469     		ldr	r4, [r4, #24]
 1480              	.LBE231:
 1481              	.LBE230:
 1482              		.loc 1 388 0
 1483 0214 0B20     		movs	r0, #11
 1484 0216 A268     		ldr	r2, [r4, #8]
 1485              	.LBB238:
 1486              	.LBB236:
 1487              	.LBB232:
 1488              	.LBB233:
 1489              		.loc 2 176 0
 1490 0218 40F20004 		movw	r4, #:lower16:ch
 1491              	.LBE233:
 1492              	.LBE232:
 1493              	.LBE236:
 1494              	.LBE238:
 1495              		.loc 1 388 0
 1496 021c B11A     		subs	r1, r6, r2
 1497 021e 4D42     		rsbs	r5, r1, #0
 1498 0220 45EB0101 		adc	r1, r5, r1
 1499 0224 FFF7FEFF 		bl	_test_assert
 1500              	.LBB239:
 1501              	.LBB237:
 1502              	.LBB235:
 1503              	.LBB234:
 1504              		.loc 2 176 0
 1505 0228 C0F20004 		movt	r4, #:upper16:ch
 1506              	.LBE234:
 1507              	.LBE235:
 1508              	.LBE237:
 1509              	.LBE239:
 1510              		.loc 1 388 0
 1511 022c 0546     		mov	r5, r0
 1512 022e 0028     		cmp	r0, #0
 1513 0230 7FF42FAF 		bne	.L21
 1514              	.LVL21:
 1515              	.LBB240:
 1516              	.LBB241:
 1517              	.LBB242:
 1518              	.LBB243:
 1519              		.loc 3 548 0
 1520 0234 2020     		movs	r0, #32
ARM GAS  /tmp/ccwBw4Cy.s 			page 28


 1521              	@ 548 "../../../resources/chibios/ChibiOS_16.1.8/os/ext/CMSIS/include/core_cmFunc.h" 1
 1522 0236 80F31188 		MSR basepri, r0
 1523              	@ 0 "" 2
 1524              		.thumb
 1525              	.LBE243:
 1526              	.LBE242:
 1527              	.LBE241:
 1528              	.LBE240:
 1529              		.loc 1 390 0
 1530 023a 40F20000 		movw	r0, #:lower16:.LANCHOR2
 1531 023e C0F20000 		movt	r0, #:upper16:.LANCHOR2
 1532 0242 FFF7FEFF 		bl	chMtxUnlockS
 1533              		.loc 1 391 0
 1534 0246 FFF7FEFF 		bl	chSchRescheduleS
 1535              	.LVL22:
 1536              	.LBB244:
 1537              	.LBB245:
 1538              	.LBB246:
 1539              	.LBB247:
 1540              	.LBB248:
 1541              		.loc 3 548 0
 1542              	@ 548 "../../../resources/chibios/ChibiOS_16.1.8/os/ext/CMSIS/include/core_cmFunc.h" 1
 1543 024a 85F31188 		MSR basepri, r5
 1544              	@ 0 "" 2
 1545              		.thumb
 1546              	.LBE248:
 1547              	.LBE247:
 1548              	.LBE246:
 1549              	.LBE245:
 1550              	.LBE244:
 1551              	.LBB249:
 1552              	.LBB250:
 1553              		.loc 2 189 0
 1554 024e A369     		ldr	r3, [r4, #24]
 1555              	.LBE250:
 1556              	.LBE249:
 1557              		.loc 1 393 0
 1558 0250 0C20     		movs	r0, #12
 1559 0252 9A68     		ldr	r2, [r3, #8]
 1560 0254 C2EB0801 		rsb	r1, r2, r8
 1561 0258 4B42     		rsbs	r3, r1, #0
 1562 025a 43EB0101 		adc	r1, r3, r1
 1563 025e FFF7FEFF 		bl	_test_assert
 1564 0262 0028     		cmp	r0, #0
 1565 0264 7FF415AF 		bne	.L21
 1566              		.loc 1 394 0
 1567 0268 6420     		movs	r0, #100
 1568 026a FFF7FEFF 		bl	chThdSleep
 1569              	.LBB251:
 1570              	.LBB252:
 1571              		.loc 2 189 0
 1572 026e A369     		ldr	r3, [r4, #24]
 1573              	.LBE252:
 1574              	.LBE251:
 1575              		.loc 1 395 0
 1576 0270 0D20     		movs	r0, #13
 1577 0272 9A68     		ldr	r2, [r3, #8]
ARM GAS  /tmp/ccwBw4Cy.s 			page 29


 1578 0274 C2EB0801 		rsb	r1, r2, r8
 1579 0278 D1F1000C 		rsbs	ip, r1, #0
 1580 027c 4CEB0101 		adc	r1, ip, r1
 1581 0280 FFF7FEFF 		bl	_test_assert
 1582 0284 0028     		cmp	r0, #0
 1583 0286 7FF404AF 		bne	.L21
 1584              		.loc 1 396 0
 1585 028a FFF7FEFF 		bl	chMtxUnlockAll
 1586              	.LBB253:
 1587              	.LBB254:
 1588              		.loc 2 189 0
 1589 028e A369     		ldr	r3, [r4, #24]
 1590              	.LBE254:
 1591              	.LBE253:
 1592              		.loc 1 397 0
 1593 0290 0E20     		movs	r0, #14
 1594 0292 9A68     		ldr	r2, [r3, #8]
 1595 0294 B91A     		subs	r1, r7, r2
 1596 0296 D1F1000C 		rsbs	ip, r1, #0
 1597 029a 4CEB0101 		adc	r1, ip, r1
 1598 029e FFF7FEFF 		bl	_test_assert
 1599 02a2 0028     		cmp	r0, #0
 1600 02a4 7FF4F5AE 		bne	.L21
 1601              		.loc 1 399 0
 1602 02a8 02B0     		add	sp, sp, #8
 1603 02aa BDE8F047 		pop	{r4, r5, r6, r7, r8, r9, sl, lr}
 1604              		.loc 1 398 0
 1605 02ae FFF7FEBF 		b	test_wait_threads
 1606              		.cfi_endproc
 1607              	.LFE188:
 1608              		.size	mtx4_execute, .-mtx4_execute
 1609 02b2 00BFAFF3 		.section	.text.thread4b,"ax",%progbits
 1609      0080AFF3 
 1609      0080AFF3 
 1609      0080
 1610              		.align	2
 1611              		.p2align 4,,15
 1612              		.thumb
 1613              		.thumb_func
 1614              		.type	thread4b, %function
 1615              	thread4b:
 1616              	.LFB187:
 1617              		.loc 1 346 0
 1618              		.cfi_startproc
 1619              		@ args = 0, pretend = 0, frame = 0
 1620              		@ frame_needed = 0, uses_anonymous_args = 0
 1621              	.LVL23:
 1622 0000 10B5     		push	{r4, lr}
 1623              	.LCFI19:
 1624              		.cfi_def_cfa_offset 8
 1625              		.cfi_offset 14, -4
 1626              		.cfi_offset 4, -8
 1627              		.loc 1 350 0
 1628 0002 40F20004 		movw	r4, #:lower16:.LANCHOR2
 1629              		.loc 1 349 0
 1630 0006 9620     		movs	r0, #150
 1631              	.LVL24:
ARM GAS  /tmp/ccwBw4Cy.s 			page 30


 1632              		.loc 1 350 0
 1633 0008 C0F20004 		movt	r4, #:upper16:.LANCHOR2
 1634              		.loc 1 349 0
 1635 000c FFF7FEFF 		bl	chThdSleep
 1636              		.loc 1 350 0
 1637 0010 2046     		mov	r0, r4
 1638 0012 FFF7FEFF 		bl	chMtxLock
 1639              		.loc 1 351 0
 1640 0016 2046     		mov	r0, r4
 1641              		.loc 1 352 0
 1642 0018 BDE81040 		pop	{r4, lr}
 1643              		.loc 1 351 0
 1644 001c FFF7FEBF 		b	chMtxUnlock
 1645              		.cfi_endproc
 1646              	.LFE187:
 1647              		.size	thread4b, .-thread4b
 1648              		.section	.text.thread4a,"ax",%progbits
 1649              		.align	2
 1650              		.p2align 4,,15
 1651              		.thumb
 1652              		.thumb_func
 1653              		.type	thread4a, %function
 1654              	thread4a:
 1655              	.LFB186:
 1656              		.loc 1 338 0
 1657              		.cfi_startproc
 1658              		@ args = 0, pretend = 0, frame = 0
 1659              		@ frame_needed = 0, uses_anonymous_args = 0
 1660              	.LVL25:
 1661 0000 10B5     		push	{r4, lr}
 1662              	.LCFI20:
 1663              		.cfi_def_cfa_offset 8
 1664              		.cfi_offset 14, -4
 1665              		.cfi_offset 4, -8
 1666              		.loc 1 342 0
 1667 0002 40F20004 		movw	r4, #:lower16:.LANCHOR1
 1668              		.loc 1 341 0
 1669 0006 3220     		movs	r0, #50
 1670              	.LVL26:
 1671              		.loc 1 342 0
 1672 0008 C0F20004 		movt	r4, #:upper16:.LANCHOR1
 1673              		.loc 1 341 0
 1674 000c FFF7FEFF 		bl	chThdSleep
 1675              		.loc 1 342 0
 1676 0010 2046     		mov	r0, r4
 1677 0012 FFF7FEFF 		bl	chMtxLock
 1678              		.loc 1 343 0
 1679 0016 2046     		mov	r0, r4
 1680              		.loc 1 344 0
 1681 0018 BDE81040 		pop	{r4, lr}
 1682              		.loc 1 343 0
 1683 001c FFF7FEBF 		b	chMtxUnlock
 1684              		.cfi_endproc
 1685              	.LFE186:
 1686              		.size	thread4a, .-thread4a
 1687              		.global	patternmtx
 1688              		.global	testmtx8
ARM GAS  /tmp/ccwBw4Cy.s 			page 31


 1689              		.global	testmtx7
 1690              		.global	testmtx6
 1691              		.global	testmtx5
 1692              		.global	testmtx4
 1693              		.global	testmtx1
 1694              		.section	.rodata.testmtx5,"a",%progbits
 1695              		.align	2
 1696              		.type	testmtx5, %object
 1697              		.size	testmtx5, 16
 1698              	testmtx5:
 1699 0000 64000000 		.word	.LC10
 1700 0004 00000000 		.word	mtx5_setup
 1701 0008 00000000 		.word	0
 1702 000c 00000000 		.word	mtx5_execute
 1703              		.section	.rodata.testmtx6,"a",%progbits
 1704              		.align	2
 1705              		.type	testmtx6, %object
 1706              		.size	testmtx6, 16
 1707              	testmtx6:
 1708 0000 4C000000 		.word	.LC9
 1709 0004 00000000 		.word	mtx6_setup
 1710 0008 00000000 		.word	0
 1711 000c 00000000 		.word	mtx6_execute
 1712              		.section	.rodata.testmtx7,"a",%progbits
 1713              		.align	2
 1714              		.type	testmtx7, %object
 1715              		.size	testmtx7, 16
 1716              	testmtx7:
 1717 0000 34000000 		.word	.LC8
 1718 0004 00000000 		.word	mtx7_setup
 1719 0008 00000000 		.word	0
 1720 000c 00000000 		.word	mtx7_execute
 1721              		.section	.rodata.testmtx8,"a",%progbits
 1722              		.align	2
 1723              		.type	testmtx8, %object
 1724              		.size	testmtx8, 16
 1725              	testmtx8:
 1726 0000 20000000 		.word	.LC7
 1727 0004 00000000 		.word	mtx8_setup
 1728 0008 00000000 		.word	0
 1729 000c 00000000 		.word	mtx8_execute
 1730              		.section	.data.m1,"aw",%progbits
 1731              		.align	2
 1732              		.set	.LANCHOR2,. + 0
 1733              		.type	m1, %object
 1734              		.size	m1, 16
 1735              	m1:
 1736 0000 00000000 		.word	m1
 1737 0004 00000000 		.word	m1
 1738 0008 00000000 		.word	0
 1739 000c 00000000 		.word	0
 1740              		.section	.data.m2,"aw",%progbits
 1741              		.align	2
 1742              		.set	.LANCHOR1,. + 0
 1743              		.type	m2, %object
 1744              		.size	m2, 16
 1745              	m2:
ARM GAS  /tmp/ccwBw4Cy.s 			page 32


 1746 0000 00000000 		.word	m2
 1747 0004 00000000 		.word	m2
 1748 0008 00000000 		.word	0
 1749 000c 00000000 		.word	0
 1750              		.section	.rodata.str1.4,"aMS",%progbits,1
 1751              		.align	2
 1752              	.LC0:
 1753 0000 4100     		.ascii	"A\000"
 1754 0002 0000     		.space	2
 1755              	.LC1:
 1756 0004 4300     		.ascii	"C\000"
 1757 0006 0000     		.space	2
 1758              	.LC2:
 1759 0008 4200     		.ascii	"B\000"
 1760 000a 0000     		.space	2
 1761              	.LC3:
 1762 000c 41424300 		.ascii	"ABC\000"
 1763              	.LC4:
 1764 0010 4500     		.ascii	"E\000"
 1765 0012 0000     		.space	2
 1766              	.LC5:
 1767 0014 4400     		.ascii	"D\000"
 1768 0016 0000     		.space	2
 1769              	.LC6:
 1770 0018 41424344 		.ascii	"ABCDE\000"
 1770      4500
 1771 001e 0000     		.space	2
 1772              	.LC7:
 1773 0020 436F6E64 		.ascii	"CondVar, boost test\000"
 1773      5661722C 
 1773      20626F6F 
 1773      73742074 
 1773      65737400 
 1774              	.LC8:
 1775 0034 436F6E64 		.ascii	"CondVar, broadcast test\000"
 1775      5661722C 
 1775      2062726F 
 1775      61646361 
 1775      73742074 
 1776              	.LC9:
 1777 004c 436F6E64 		.ascii	"CondVar, signal test\000"
 1777      5661722C 
 1777      20736967 
 1777      6E616C20 
 1777      74657374 
 1778 0061 000000   		.space	3
 1779              	.LC10:
 1780 0064 4D757465 		.ascii	"Mutexes, status\000"
 1780      7865732C 
 1780      20737461 
 1780      74757300 
 1781              	.LC11:
 1782 0074 4D757465 		.ascii	"Mutexes, priority return\000"
 1782      7865732C 
 1782      20707269 
 1782      6F726974 
 1782      79207265 
ARM GAS  /tmp/ccwBw4Cy.s 			page 33


 1783 008d 000000   		.space	3
 1784              	.LC12:
 1785 0090 4D757465 		.ascii	"Mutexes, priority enqueuing test\000"
 1785      7865732C 
 1785      20707269 
 1785      6F726974 
 1785      7920656E 
 1786 00b1 000000   		.section	.rodata.patternmtx,"a",%progbits
 1787              		.align	2
 1788              		.type	patternmtx, %object
 1789              		.size	patternmtx, 28
 1790              	patternmtx:
 1791 0000 00000000 		.word	testmtx1
 1792 0004 00000000 		.word	testmtx4
 1793 0008 00000000 		.word	testmtx5
 1794 000c 00000000 		.word	testmtx6
 1795 0010 00000000 		.word	testmtx7
 1796 0014 00000000 		.word	testmtx8
 1797 0018 00000000 		.word	0
 1798              		.section	.data.c1,"aw",%progbits
 1799              		.align	2
 1800              		.set	.LANCHOR0,. + 0
 1801              		.type	c1, %object
 1802              		.size	c1, 8
 1803              	c1:
 1804 0000 00000000 		.word	c1
 1805 0004 00000000 		.word	c1
 1806              		.section	.rodata.testmtx1,"a",%progbits
 1807              		.align	2
 1808              		.type	testmtx1, %object
 1809              		.size	testmtx1, 16
 1810              	testmtx1:
 1811 0000 90000000 		.word	.LC12
 1812 0004 00000000 		.word	mtx1_setup
 1813 0008 00000000 		.word	0
 1814 000c 00000000 		.word	mtx1_execute
 1815              		.section	.rodata.testmtx4,"a",%progbits
 1816              		.align	2
 1817              		.type	testmtx4, %object
 1818              		.size	testmtx4, 16
 1819              	testmtx4:
 1820 0000 74000000 		.word	.LC11
 1821 0004 00000000 		.word	mtx4_setup
 1822 0008 00000000 		.word	0
 1823 000c 00000000 		.word	mtx4_execute
 1824              		.text
 1825              	.Letext0:
 1826              		.file 5 "/home/madog/programs/CodeSourcery/Sourcery_CodeBench_Lite_for_ARM_EABI/bin/../lib/gcc/arm
 1827              		.file 6 "/home/madog/programs/CodeSourcery/Sourcery_CodeBench_Lite_for_ARM_EABI/bin/../lib/gcc/arm
 1828              		.file 7 "../../../resources/chibios/ChibiOS_16.1.8/os/rt/ports/ARMCMx/compilers/GCC/chtypes.h"
 1829              		.file 8 "../../../resources/chibios/ChibiOS_16.1.8/os/rt/include/chsystypes.h"
 1830              		.file 9 "../../../resources/chibios/ChibiOS_16.1.8/os/rt/ports/ARMCMx/chcore.h"
 1831              		.file 10 "../../../resources/chibios/ChibiOS_16.1.8/os/rt/ports/ARMCMx/chcore_v7m.h"
 1832              		.file 11 "../../../resources/chibios/ChibiOS_16.1.8/os/rt/include/chtm.h"
 1833              		.file 12 "../../../resources/chibios/ChibiOS_16.1.8/os/rt/include/chsem.h"
 1834              		.file 13 "../../../resources/chibios/ChibiOS_16.1.8/os/rt/include/chmtx.h"
 1835              		.file 14 "../../../resources/chibios/ChibiOS_16.1.8/os/rt/include/chcond.h"
ARM GAS  /tmp/ccwBw4Cy.s 			page 34


 1836              		.file 15 "../../../resources/chibios/ChibiOS_16.1.8/test/rt/test.h"
 1837              		.file 16 "../../../resources/chibios/ChibiOS_16.1.8/os/rt/include/chsys.h"
 1838              		.file 17 "../../../resources/chibios/ChibiOS_16.1.8/os/ext/CMSIS/include/core_cm3.h"