ARM GAS  /tmp/cciiiJxS.s 			page 1


   1              		.syntax unified
   2              		.cpu cortex-m3
   3              		.fpu softvfp
   4              		.eabi_attribute 20, 1
   5              		.eabi_attribute 21, 1
   6              		.eabi_attribute 23, 3
   7              		.eabi_attribute 24, 1
   8              		.eabi_attribute 25, 1
   9              		.eabi_attribute 26, 1
  10              		.eabi_attribute 30, 2
  11              		.eabi_attribute 34, 1
  12              		.eabi_attribute 18, 4
  13              		.thumb
  14              		.file	"testmbox.c"
  15              		.text
  16              	.Ltext0:
  17              		.cfi_sections	.debug_frame
  18              		.section	.text.mbox1_setup,"ax",%progbits
  19              		.align	2
  20              		.p2align 4,,15
  21              		.thumb
  22              		.thumb_func
  23              		.type	mbox1_setup, %function
  24              	mbox1_setup:
  25              	.LFB182:
  26              		.file 1 "../../../resources/chibios/ChibiOS_16.1.8/test/rt/testmbox.c"
  27              		.loc 1 71 0
  28              		.cfi_startproc
  29              		@ args = 0, pretend = 0, frame = 0
  30              		@ frame_needed = 0, uses_anonymous_args = 0
  31              		@ link register save eliminated.
  32              		.loc 1 73 0
  33 0000 40F20000 		movw	r0, #:lower16:.LANCHOR0
  34 0004 40F20001 		movw	r1, #:lower16:test
  35 0008 C0F20000 		movt	r0, #:upper16:.LANCHOR0
  36 000c C0F20001 		movt	r1, #:upper16:test
  37 0010 0522     		movs	r2, #5
  38              		.loc 1 74 0
  39              		.loc 1 73 0
  40 0012 FFF7FEBF 		b	chMBObjectInit
  41              		.cfi_endproc
  42              	.LFE182:
  43              		.size	mbox1_setup, .-mbox1_setup
  44 0016 00BFAFF3 		.section	.text.mbox1_execute,"ax",%progbits
  44      0080AFF3 
  44      0080
  45              		.align	2
  46              		.p2align 4,,15
  47              		.thumb
  48              		.thumb_func
  49              		.type	mbox1_execute, %function
  50              	mbox1_execute:
  51              	.LFB183:
  52              		.loc 1 76 0
  53              		.cfi_startproc
  54              		@ args = 0, pretend = 0, frame = 8
  55              		@ frame_needed = 0, uses_anonymous_args = 0
ARM GAS  /tmp/cciiiJxS.s 			page 2


  56              	.LVL0:
  57 0000 2DE9F041 		push	{r4, r5, r6, r7, r8, lr}
  58              	.LCFI0:
  59              		.cfi_def_cfa_offset 24
  60              		.cfi_offset 14, -4
  61              		.cfi_offset 8, -8
  62              		.cfi_offset 7, -12
  63              		.cfi_offset 6, -16
  64              		.cfi_offset 5, -20
  65              		.cfi_offset 4, -24
  66              	.LBB973:
  67              	.LBB974:
  68              	.LBB975:
  69              	.LBB976:
  70              		.file 2 "../../../resources/chibios/ChibiOS_16.1.8/os/ext/CMSIS/include/core_cmFunc.h"
  71              		.loc 2 548 0
  72 0004 2025     		movs	r5, #32
  73              	.LBE976:
  74              	.LBE975:
  75              	.LBE974:
  76              	.LBE973:
  77              		.loc 1 76 0
  78 0006 82B0     		sub	sp, sp, #8
  79              	.LCFI1:
  80              		.cfi_def_cfa_offset 32
  81              	.LBB980:
  82              	.LBB979:
  83              	.LBB978:
  84              	.LBB977:
  85              		.loc 2 548 0
  86              	@ 548 "../../../resources/chibios/ChibiOS_16.1.8/os/ext/CMSIS/include/core_cmFunc.h" 1
  87 0008 85F31188 		MSR basepri, r5
  88              	@ 0 "" 2
  89              	.LVL1:
  90              		.thumb
  91              	.LBE977:
  92              	.LBE978:
  93              	.LBE979:
  94              	.LBE980:
  95              	.LBB981:
  96              		.loc 1 83 0
  97 000c 40F20004 		movw	r4, #:lower16:.LANCHOR0
  98 0010 C0F20004 		movt	r4, #:upper16:.LANCHOR0
  99              	.LBB982:
 100              	.LBB983:
 101              	.LBB984:
 102              		.file 3 "../../../resources/chibios/ChibiOS_16.1.8/os/rt/include/chmboxes.h"
 103              		.loc 3 140 0
 104 0014 6168     		ldr	r1, [r4, #4]
 105 0016 2268     		ldr	r2, [r4, #0]
 106              	.LBE984:
 107              	.LBE983:
 108              		.loc 3 172 0
 109 0018 2369     		ldr	r3, [r4, #16]
 110              	.LBB986:
 111              	.LBB985:
 112              		.loc 3 140 0
ARM GAS  /tmp/cciiiJxS.s 			page 3


 113 001a 881A     		subs	r0, r1, r2
 114              	.LBE985:
 115              	.LBE986:
 116              		.loc 3 172 0
 117 001c C3EBA003 		rsb	r3, r3, r0, asr #2
 118              	.LBE982:
 119              	.LBE981:
 120              		.loc 1 83 0
 121 0020 A3F10502 		sub	r2, r3, #5
 122 0024 0120     		movs	r0, #1
 123 0026 5142     		rsbs	r1, r2, #0
 124 0028 41EB0201 		adc	r1, r1, r2
 125 002c FFF7FEFF 		bl	_test_assert
 126 0030 0028     		cmp	r0, #0
 127 0032 40F09B82 		bne	.L26
 128              	.LVL2:
 129              	.LBB987:
 130              	.LBB988:
 131              	.LBB989:
 132              	.LBB990:
 133              	.LBB991:
 134              		.loc 2 548 0
 135              	@ 548 "../../../resources/chibios/ChibiOS_16.1.8/os/ext/CMSIS/include/core_cmFunc.h" 1
 136 0036 80F31188 		MSR basepri, r0
 137              	@ 0 "" 2
 138              	.LVL3:
 139              		.thumb
 140              	.LBE991:
 141              	.LBE990:
 142              	.LBE989:
 143              	.LBE988:
 144              	.LBE987:
 145              		.loc 1 89 0
 146 003a 4221     		movs	r1, #66
 147 003c 2046     		mov	r0, r4
 148 003e 4FF6FF72 		movw	r2, #65535
 149 0042 FFF7FEFF 		bl	chMBPost
 150              	.LVL4:
 151              		.loc 1 90 0
 152 0046 D0F10101 		rsbs	r1, r0, #1
 153 004a 38BF     		it	cc
 154 004c 0021     		movcc	r1, #0
 155 004e 0220     		movs	r0, #2
 156              	.LVL5:
 157 0050 FFF7FEFF 		bl	_test_assert
 158 0054 B8BB     		cbnz	r0, .L2
 159              	.LVL6:
 160              		.loc 1 89 0
 161 0056 4321     		movs	r1, #67
 162 0058 2046     		mov	r0, r4
 163 005a 4FF6FF72 		movw	r2, #65535
 164 005e FFF7FEFF 		bl	chMBPost
 165              	.LVL7:
 166              		.loc 1 90 0
 167 0062 D0F10101 		rsbs	r1, r0, #1
 168 0066 38BF     		it	cc
 169 0068 0021     		movcc	r1, #0
ARM GAS  /tmp/cciiiJxS.s 			page 4


 170 006a 0220     		movs	r0, #2
 171              	.LVL8:
 172 006c FFF7FEFF 		bl	_test_assert
 173 0070 48BB     		cbnz	r0, .L2
 174              	.LVL9:
 175              		.loc 1 89 0
 176 0072 4421     		movs	r1, #68
 177 0074 2046     		mov	r0, r4
 178 0076 4FF6FF72 		movw	r2, #65535
 179 007a FFF7FEFF 		bl	chMBPost
 180              	.LVL10:
 181              		.loc 1 90 0
 182 007e D0F10101 		rsbs	r1, r0, #1
 183 0082 38BF     		it	cc
 184 0084 0021     		movcc	r1, #0
 185 0086 0220     		movs	r0, #2
 186              	.LVL11:
 187 0088 FFF7FEFF 		bl	_test_assert
 188 008c D8B9     		cbnz	r0, .L2
 189              	.LVL12:
 190              		.loc 1 89 0
 191 008e 4521     		movs	r1, #69
 192 0090 2046     		mov	r0, r4
 193 0092 4FF6FF72 		movw	r2, #65535
 194 0096 FFF7FEFF 		bl	chMBPost
 195              	.LVL13:
 196              		.loc 1 90 0
 197 009a D0F10101 		rsbs	r1, r0, #1
 198 009e 38BF     		it	cc
 199 00a0 0021     		movcc	r1, #0
 200 00a2 0220     		movs	r0, #2
 201              	.LVL14:
 202 00a4 FFF7FEFF 		bl	_test_assert
 203 00a8 68B9     		cbnz	r0, .L2
 204              	.LVL15:
 205              	.LBB992:
 206              	.LBB993:
 207              		.loc 1 92 0
 208 00aa 4121     		movs	r1, #65
 209 00ac 2046     		mov	r0, r4
 210 00ae 4FF6FF72 		movw	r2, #65535
 211 00b2 FFF7FEFF 		bl	chMBPostAhead
 212              	.LVL16:
 213              		.loc 1 93 0
 214 00b6 D0F10101 		rsbs	r1, r0, #1
 215 00ba 38BF     		it	cc
 216 00bc 0021     		movcc	r1, #0
 217 00be 0320     		movs	r0, #3
 218              	.LVL17:
 219 00c0 FFF7FEFF 		bl	_test_assert
 220 00c4 10B1     		cbz	r0, .L28
 221              	.LVL18:
 222              	.L2:
 223              	.LBE993:
 224              	.LBE992:
 225              		.loc 1 220 0
 226 00c6 02B0     		add	sp, sp, #8
ARM GAS  /tmp/cciiiJxS.s 			page 5


 227 00c8 BDE8F081 		pop	{r4, r5, r6, r7, r8, pc}
 228              	.LVL19:
 229              	.L28:
 230              	.LBB1254:
 231              	.LBB1253:
 232              		.loc 1 98 0
 233 00cc 5821     		movs	r1, #88
 234 00ce 0122     		movs	r2, #1
 235 00d0 2046     		mov	r0, r4
 236 00d2 FFF7FEFF 		bl	chMBPost
 237              	.LVL20:
 238              		.loc 1 99 0
 239 00d6 A0F1FF30 		sub	r0, r0, #-1
 240              	.LVL21:
 241 00da 4642     		rsbs	r6, r0, #0
 242 00dc 46EB0001 		adc	r1, r6, r0
 243 00e0 0420     		movs	r0, #4
 244              	.LVL22:
 245 00e2 FFF7FEFF 		bl	_test_assert
 246 00e6 0646     		mov	r6, r0
 247 00e8 0028     		cmp	r0, #0
 248 00ea ECD1     		bne	.L2
 249              	.LVL23:
 250              	.LBB994:
 251              	.LBB995:
 252              	.LBB996:
 253              	.LBB997:
 254              		.loc 2 548 0
 255              	@ 548 "../../../resources/chibios/ChibiOS_16.1.8/os/ext/CMSIS/include/core_cmFunc.h" 1
 256 00ec 85F31188 		MSR basepri, r5
 257              	@ 0 "" 2
 258              		.thumb
 259              	.LBE997:
 260              	.LBE996:
 261              	.LBE995:
 262              	.LBE994:
 263              		.loc 1 101 0
 264 00f0 5821     		movs	r1, #88
 265 00f2 2046     		mov	r0, r4
 266 00f4 FFF7FEFF 		bl	chMBPostI
 267 00f8 0146     		mov	r1, r0
 268              	.LVL24:
 269              	.LBB998:
 270              	.LBB999:
 271              	.LBB1000:
 272              	.LBB1001:
 273              	.LBB1002:
 274              		.loc 2 548 0
 275              	@ 548 "../../../resources/chibios/ChibiOS_16.1.8/os/ext/CMSIS/include/core_cmFunc.h" 1
 276 00fa 86F31188 		MSR basepri, r6
 277              	@ 0 "" 2
 278              		.thumb
 279              	.LBE1002:
 280              	.LBE1001:
 281              	.LBE1000:
 282              	.LBE999:
 283              	.LBE998:
ARM GAS  /tmp/cciiiJxS.s 			page 6


 284              		.loc 1 103 0
 285 00fe A1F1FF33 		sub	r3, r1, #-1
 286 0102 0520     		movs	r0, #5
 287              	.LVL25:
 288 0104 D3F1000C 		rsbs	ip, r3, #0
 289 0108 4CEB0301 		adc	r1, ip, r3
 290              	.LVL26:
 291 010c FFF7FEFF 		bl	_test_assert
 292              	.LVL27:
 293 0110 0028     		cmp	r0, #0
 294 0112 D8D1     		bne	.L2
 295              		.loc 1 104 0
 296 0114 5821     		movs	r1, #88
 297 0116 0122     		movs	r2, #1
 298 0118 2046     		mov	r0, r4
 299 011a FFF7FEFF 		bl	chMBPostAhead
 300              	.LVL28:
 301              		.loc 1 105 0
 302 011e A0F1FF36 		sub	r6, r0, #-1
 303 0122 7242     		rsbs	r2, r6, #0
 304 0124 42EB0601 		adc	r1, r2, r6
 305 0128 0620     		movs	r0, #6
 306              	.LVL29:
 307 012a FFF7FEFF 		bl	_test_assert
 308 012e 0646     		mov	r6, r0
 309              	.LVL30:
 310 0130 0028     		cmp	r0, #0
 311 0132 C8D1     		bne	.L2
 312              	.LVL31:
 313              	.LBB1003:
 314              	.LBB1004:
 315              	.LBB1005:
 316              	.LBB1006:
 317              		.loc 2 548 0
 318              	@ 548 "../../../resources/chibios/ChibiOS_16.1.8/os/ext/CMSIS/include/core_cmFunc.h" 1
 319 0134 85F31188 		MSR basepri, r5
 320              	@ 0 "" 2
 321              		.thumb
 322              	.LBE1006:
 323              	.LBE1005:
 324              	.LBE1004:
 325              	.LBE1003:
 326              		.loc 1 107 0
 327 0138 5821     		movs	r1, #88
 328 013a 2046     		mov	r0, r4
 329 013c FFF7FEFF 		bl	chMBPostAheadI
 330 0140 8446     		mov	ip, r0
 331              	.LVL32:
 332              	.LBB1007:
 333              	.LBB1008:
 334              	.LBB1009:
 335              	.LBB1010:
 336              	.LBB1011:
 337              		.loc 2 548 0
 338              	@ 548 "../../../resources/chibios/ChibiOS_16.1.8/os/ext/CMSIS/include/core_cmFunc.h" 1
 339 0142 86F31188 		MSR basepri, r6
 340              	@ 0 "" 2
ARM GAS  /tmp/cciiiJxS.s 			page 7


 341              		.thumb
 342              	.LBE1011:
 343              	.LBE1010:
 344              	.LBE1009:
 345              	.LBE1008:
 346              	.LBE1007:
 347              		.loc 1 109 0
 348 0146 ACF1FF31 		sub	r1, ip, #-1
 349 014a 0720     		movs	r0, #7
 350              	.LVL33:
 351 014c 4B42     		rsbs	r3, r1, #0
 352 014e 43EB0101 		adc	r1, r3, r1
 353 0152 FFF7FEFF 		bl	_test_assert
 354              	.LVL34:
 355 0156 0028     		cmp	r0, #0
 356 0158 B5D1     		bne	.L2
 357              	.LVL35:
 358              	.LBB1012:
 359              	.LBB1013:
 360              	.LBB1014:
 361              	.LBB1015:
 362              		.loc 2 548 0
 363 015a 2026     		movs	r6, #32
 364              	@ 548 "../../../resources/chibios/ChibiOS_16.1.8/os/ext/CMSIS/include/core_cmFunc.h" 1
 365 015c 86F31188 		MSR basepri, r6
 366              	@ 0 "" 2
 367              	.LVL36:
 368              		.thumb
 369              	.LBE1015:
 370              	.LBE1014:
 371              	.LBE1013:
 372              	.LBE1012:
 373              	.LBB1016:
 374              	.LBB1017:
 375              	.LBB1018:
 376              	.LBB1019:
 377              		.loc 3 140 0
 378 0160 2068     		ldr	r0, [r4, #0]
 379 0162 6268     		ldr	r2, [r4, #4]
 380              	.LBE1019:
 381              	.LBE1018:
 382              		.loc 3 172 0
 383 0164 2769     		ldr	r7, [r4, #16]
 384              	.LBB1021:
 385              	.LBB1020:
 386              		.loc 3 140 0
 387 0166 141A     		subs	r4, r2, r0
 388              	.LBE1020:
 389              	.LBE1021:
 390              	.LBE1017:
 391              	.LBE1016:
 392              		.loc 1 114 0
 393 0168 B7EBA40F 		cmp	r7, r4, asr #2
 394 016c 4FF00800 		mov	r0, #8
 395 0170 14BF     		ite	ne
 396 0172 0021     		movne	r1, #0
 397 0174 0121     		moveq	r1, #1
ARM GAS  /tmp/cciiiJxS.s 			page 8


 398 0176 FFF7FEFF 		bl	_test_assert
 399              	.LBB1022:
 400 017a 40F20004 		movw	r4, #:lower16:.LANCHOR0
 401              	.LBE1022:
 402 017e 0746     		mov	r7, r0
 403              	.LBB1023:
 404 0180 C0F20004 		movt	r4, #:upper16:.LANCHOR0
 405              	.LBE1023:
 406 0184 0028     		cmp	r0, #0
 407 0186 40F0F181 		bne	.L26
 408              	.LVL37:
 409              	.LBB1024:
 410              	.LBB1025:
 411              	.LBB1026:
 412              	.LBB1027:
 413              	.LBB1028:
 414              		.loc 2 548 0
 415              	@ 548 "../../../resources/chibios/ChibiOS_16.1.8/os/ext/CMSIS/include/core_cmFunc.h" 1
 416 018a 80F31188 		MSR basepri, r0
 417              	@ 0 "" 2
 418              	.LVL38:
 419              		.thumb
 420              	.LBE1028:
 421              	.LBE1027:
 422              	.LBE1026:
 423              	.LBE1025:
 424              	.LBE1024:
 425              	.LBB1029:
 426              	.LBB1030:
 427              	.LBB1031:
 428              	.LBB1032:
 429              	@ 548 "../../../resources/chibios/ChibiOS_16.1.8/os/ext/CMSIS/include/core_cmFunc.h" 1
 430 018e 86F31188 		MSR basepri, r6
 431              	@ 0 "" 2
 432              		.thumb
 433              	.LBE1032:
 434              	.LBE1031:
 435              	.LBE1030:
 436              	.LBE1029:
 437              		.loc 1 115 0
 438 0192 2169     		ldr	r1, [r4, #16]
 439 0194 0920     		movs	r0, #9
 440 0196 A1F10503 		sub	r3, r1, #5
 441 019a 5D42     		rsbs	r5, r3, #0
 442 019c 45EB0301 		adc	r1, r5, r3
 443 01a0 FFF7FEFF 		bl	_test_assert
 444 01a4 0546     		mov	r5, r0
 445 01a6 0028     		cmp	r0, #0
 446 01a8 00F0E481 		beq	.L6
 447              	.L24:
 448              	.LVL39:
 449              	.LBB1033:
 450              	.LBB1034:
 451              	.LBB1035:
 452              	.LBB1036:
 453              	.LBB1037:
 454              		.loc 2 548 0
ARM GAS  /tmp/cciiiJxS.s 			page 9


 455              	@ 548 "../../../resources/chibios/ChibiOS_16.1.8/os/ext/CMSIS/include/core_cmFunc.h" 1
 456 01ac 87F31188 		MSR basepri, r7
 457              	@ 0 "" 2
 458              		.thumb
 459 01b0 89E7     		b	.L2
 460              	.LVL40:
 461              	.L8:
 462              	.LBE1037:
 463              	.LBE1036:
 464              	.LBE1035:
 465              	.LBE1034:
 466              	.LBE1033:
 467              	.LBB1038:
 468              	.LBB1039:
 469              	.LBB1040:
 470              	.LBB1041:
 471              	.LBB1042:
 472              	@ 548 "../../../resources/chibios/ChibiOS_16.1.8/os/ext/CMSIS/include/core_cmFunc.h" 1
 473 01b2 80F31188 		MSR basepri, r0
 474              	@ 0 "" 2
 475              	.LVL41:
 476              		.thumb
 477              	.LBE1042:
 478              	.LBE1041:
 479              	.LBE1040:
 480              	.LBE1039:
 481              	.LBE1038:
 482              	.LBB1043:
 483              	.LBB1044:
 484              	.LBB1045:
 485              	.LBB1046:
 486              	@ 548 "../../../resources/chibios/ChibiOS_16.1.8/os/ext/CMSIS/include/core_cmFunc.h" 1
 487 01b6 85F31188 		MSR basepri, r5
 488              	@ 0 "" 2
 489              		.thumb
 490              	.LBE1046:
 491              	.LBE1045:
 492              	.LBE1044:
 493              	.LBE1043:
 494              		.loc 1 152 0
 495 01ba 2669     		ldr	r6, [r4, #16]
 496 01bc 1420     		movs	r0, #20
 497 01be D6F10101 		rsbs	r1, r6, #1
 498 01c2 38BF     		it	cc
 499 01c4 0021     		movcc	r1, #0
 500 01c6 FFF7FEFF 		bl	_test_assert
 501 01ca 0646     		mov	r6, r0
 502 01cc 0028     		cmp	r0, #0
 503 01ce EDD1     		bne	.L24
 504              	.LVL42:
 505              	.LBB1047:
 506              	.LBB1048:
 507              	.LBB1049:
 508              	.LBB1050:
 509              	.LBB1051:
 510              		.loc 2 548 0
 511              	@ 548 "../../../resources/chibios/ChibiOS_16.1.8/os/ext/CMSIS/include/core_cmFunc.h" 1
ARM GAS  /tmp/cciiiJxS.s 			page 10


 512 01d0 80F31188 		MSR basepri, r0
 513              	@ 0 "" 2
 514              	.LVL43:
 515              		.thumb
 516              	.LBE1051:
 517              	.LBE1050:
 518              	.LBE1049:
 519              	.LBE1048:
 520              	.LBE1047:
 521              	.LBB1052:
 522              	.LBB1053:
 523              	.LBB1054:
 524              	.LBB1055:
 525              	@ 548 "../../../resources/chibios/ChibiOS_16.1.8/os/ext/CMSIS/include/core_cmFunc.h" 1
 526 01d4 85F31188 		MSR basepri, r5
 527              	@ 0 "" 2
 528              		.thumb
 529              	.LBE1055:
 530              	.LBE1054:
 531              	.LBE1053:
 532              	.LBE1052:
 533              		.loc 1 153 0
 534 01d8 A368     		ldr	r3, [r4, #8]
 535 01da E268     		ldr	r2, [r4, #12]
 536 01dc 1520     		movs	r0, #21
 537 01de D11A     		subs	r1, r2, r3
 538 01e0 4B42     		rsbs	r3, r1, #0
 539 01e2 43EB0101 		adc	r1, r3, r1
 540 01e6 FFF7FEFF 		bl	_test_assert
 541 01ea 0028     		cmp	r0, #0
 542 01ec 40F0BC82 		bne	.L25
 543              	.LVL44:
 544              	.LBB1056:
 545              	.LBB1057:
 546              	.LBB1058:
 547              	.LBB1059:
 548              	.LBB1060:
 549              		.loc 2 548 0
 550              	@ 548 "../../../resources/chibios/ChibiOS_16.1.8/os/ext/CMSIS/include/core_cmFunc.h" 1
 551 01f0 80F31188 		MSR basepri, r0
 552              	@ 0 "" 2
 553              	.LVL45:
 554              		.thumb
 555              	.LBE1060:
 556              	.LBE1059:
 557              	.LBE1058:
 558              	.LBE1057:
 559              	.LBE1056:
 560              	.LBB1061:
 561              	.LBB1062:
 562              	.LBB1063:
 563              	.LBB1064:
 564              	@ 548 "../../../resources/chibios/ChibiOS_16.1.8/os/ext/CMSIS/include/core_cmFunc.h" 1
 565 01f4 85F31188 		MSR basepri, r5
 566              	@ 0 "" 2
 567              		.thumb
 568              	.LBE1064:
ARM GAS  /tmp/cciiiJxS.s 			page 11


 569              	.LBE1063:
 570              	.LBE1062:
 571              	.LBE1061:
 572              		.loc 1 159 0
 573 01f8 4121     		movs	r1, #65
 574 01fa 2046     		mov	r0, r4
 575 01fc FFF7FEFF 		bl	chMBPostI
 576              	.LVL46:
 577              		.loc 1 160 0
 578 0200 D0F10101 		rsbs	r1, r0, #1
 579 0204 38BF     		it	cc
 580 0206 0021     		movcc	r1, #0
 581 0208 1620     		movs	r0, #22
 582              	.LVL47:
 583 020a FFF7FEFF 		bl	_test_assert
 584 020e 0028     		cmp	r0, #0
 585 0210 7FF459AF 		bne	.L2
 586              		.loc 1 161 0
 587 0214 4221     		movs	r1, #66
 588 0216 2046     		mov	r0, r4
 589 0218 FFF7FEFF 		bl	chMBPostI
 590              	.LVL48:
 591              		.loc 1 162 0
 592 021c D0F10101 		rsbs	r1, r0, #1
 593 0220 38BF     		it	cc
 594 0222 0021     		movcc	r1, #0
 595 0224 1720     		movs	r0, #23
 596              	.LVL49:
 597 0226 FFF7FEFF 		bl	_test_assert
 598 022a 0028     		cmp	r0, #0
 599 022c 7FF44BAF 		bne	.L2
 600              		.loc 1 163 0
 601 0230 40F20004 		movw	r4, #:lower16:.LANCHOR0
 602 0234 C0F20004 		movt	r4, #:upper16:.LANCHOR0
 603 0238 4321     		movs	r1, #67
 604 023a 2046     		mov	r0, r4
 605 023c FFF7FEFF 		bl	chMBPostI
 606              	.LVL50:
 607              		.loc 1 164 0
 608 0240 D0F10101 		rsbs	r1, r0, #1
 609 0244 38BF     		it	cc
 610 0246 0021     		movcc	r1, #0
 611 0248 1820     		movs	r0, #24
 612              	.LVL51:
 613 024a FFF7FEFF 		bl	_test_assert
 614 024e 0028     		cmp	r0, #0
 615 0250 7FF439AF 		bne	.L2
 616              		.loc 1 165 0
 617 0254 4421     		movs	r1, #68
 618 0256 2046     		mov	r0, r4
 619 0258 FFF7FEFF 		bl	chMBPostI
 620              	.LVL52:
 621              		.loc 1 166 0
 622 025c D0F10101 		rsbs	r1, r0, #1
 623 0260 38BF     		it	cc
 624 0262 0021     		movcc	r1, #0
 625 0264 1920     		movs	r0, #25
ARM GAS  /tmp/cciiiJxS.s 			page 12


 626              	.LVL53:
 627 0266 FFF7FEFF 		bl	_test_assert
 628 026a 0546     		mov	r5, r0
 629 026c 0028     		cmp	r0, #0
 630 026e 7FF42AAF 		bne	.L2
 631              		.loc 1 167 0
 632 0272 2046     		mov	r0, r4
 633 0274 4521     		movs	r1, #69
 634 0276 FFF7FEFF 		bl	chMBPostI
 635 027a 8446     		mov	ip, r0
 636              	.LVL54:
 637              	.LBB1065:
 638              	.LBB1066:
 639              	.LBB1067:
 640              	.LBB1068:
 641              	.LBB1069:
 642              		.loc 2 548 0
 643              	@ 548 "../../../resources/chibios/ChibiOS_16.1.8/os/ext/CMSIS/include/core_cmFunc.h" 1
 644 027c 85F31188 		MSR basepri, r5
 645              	@ 0 "" 2
 646              		.thumb
 647              	.LBE1069:
 648              	.LBE1068:
 649              	.LBE1067:
 650              	.LBE1066:
 651              	.LBE1065:
 652              		.loc 1 169 0
 653 0280 1A20     		movs	r0, #26
 654              	.LVL55:
 655 0282 DCF10101 		rsbs	r1, ip, #1
 656 0286 38BF     		it	cc
 657 0288 0021     		movcc	r1, #0
 658 028a FFF7FEFF 		bl	_test_assert
 659              	.LVL56:
 660 028e 0028     		cmp	r0, #0
 661 0290 7FF419AF 		bne	.L2
 662              		.loc 1 170 0
 663 0294 E268     		ldr	r2, [r4, #12]
 664 0296 A368     		ldr	r3, [r4, #8]
 665 0298 1B20     		movs	r0, #27
 666 029a D11A     		subs	r1, r2, r3
 667 029c D1F1000E 		rsbs	lr, r1, #0
 668 02a0 4EEB0101 		adc	r1, lr, r1
 669 02a4 FFF7FEFF 		bl	_test_assert
 670 02a8 0028     		cmp	r0, #0
 671 02aa 7FF40CAF 		bne	.L2
 672 02ae 0525     		movs	r5, #5
 673              	.LBB1070:
 674              	.LBB1071:
 675              	.LBB1072:
 676              	.LBB1073:
 677              		.loc 2 548 0
 678 02b0 4FF02008 		mov	r8, #32
 679              	.LBE1073:
 680              	.LBE1072:
 681              	.LBE1071:
 682              	.LBE1070:
ARM GAS  /tmp/cciiiJxS.s 			page 13


 683              	.LBB1077:
 684              	.LBB1078:
 685              	.LBB1079:
 686              	.LBB1080:
 687              	.LBB1081:
 688 02b4 0746     		mov	r7, r0
 689              	.LVL57:
 690              	.L11:
 691              	.LBE1081:
 692              	.LBE1080:
 693              	.LBE1079:
 694              	.LBE1078:
 695              	.LBE1077:
 696              	.LBB1086:
 697              	.LBB1076:
 698              	.LBB1075:
 699              	.LBB1074:
 700 02b6 2026     		movs	r6, #32
 701              	@ 548 "../../../resources/chibios/ChibiOS_16.1.8/os/ext/CMSIS/include/core_cmFunc.h" 1
 702 02b8 88F31188 		MSR basepri, r8
 703              	@ 0 "" 2
 704              		.thumb
 705              	.LBE1074:
 706              	.LBE1075:
 707              	.LBE1076:
 708              	.LBE1086:
 709              		.loc 1 173 0
 710 02bc 40F20004 		movw	r4, #:lower16:.LANCHOR0
 711 02c0 C0F20004 		movt	r4, #:upper16:.LANCHOR0
 712 02c4 2046     		mov	r0, r4
 713 02c6 01A9     		add	r1, sp, #4
 714 02c8 FFF7FEFF 		bl	chMBFetchI
 715 02cc 8446     		mov	ip, r0
 716              	.LVL58:
 717              	.LBB1087:
 718              	.LBB1085:
 719              	.LBB1084:
 720              	.LBB1083:
 721              	.LBB1082:
 722              		.loc 2 548 0
 723              	@ 548 "../../../resources/chibios/ChibiOS_16.1.8/os/ext/CMSIS/include/core_cmFunc.h" 1
 724 02ce 87F31188 		MSR basepri, r7
 725              	@ 0 "" 2
 726              		.thumb
 727              	.LBE1082:
 728              	.LBE1083:
 729              	.LBE1084:
 730              	.LBE1085:
 731              	.LBE1087:
 732              		.loc 1 175 0
 733 02d2 1C20     		movs	r0, #28
 734              	.LVL59:
 735 02d4 DCF10101 		rsbs	r1, ip, #1
 736 02d8 38BF     		it	cc
 737 02da 0021     		movcc	r1, #0
 738 02dc FFF7FEFF 		bl	_test_assert
 739              	.LVL60:
ARM GAS  /tmp/cciiiJxS.s 			page 14


 740 02e0 0028     		cmp	r0, #0
 741 02e2 7FF4F0AE 		bne	.L2
 742              		.loc 1 176 0
 743 02e6 9DF80400 		ldrb	r0, [sp, #4]	@ zero_extendqisi2
 744 02ea FFF7FEFF 		bl	test_emit_token
 745              		.loc 1 171 0
 746 02ee 013D     		subs	r5, r5, #1
 747 02f0 E1D1     		bne	.L11
 748              		.loc 1 178 0
 749 02f2 40F20001 		movw	r1, #:lower16:.LC0
 750 02f6 1D20     		movs	r0, #29
 751 02f8 C0F20001 		movt	r1, #:upper16:.LC0
 752 02fc FFF7FEFF 		bl	_test_assert_sequence
 753 0300 0028     		cmp	r0, #0
 754 0302 7FF4E0AE 		bne	.L2
 755              	.LVL61:
 756              	.LBB1088:
 757              	.LBB1089:
 758              	.LBB1090:
 759              	.LBB1091:
 760              		.loc 2 548 0
 761              	@ 548 "../../../resources/chibios/ChibiOS_16.1.8/os/ext/CMSIS/include/core_cmFunc.h" 1
 762 0306 86F31188 		MSR basepri, r6
 763              	@ 0 "" 2
 764              	.LVL62:
 765              		.thumb
 766              	.LBE1091:
 767              	.LBE1090:
 768              	.LBE1089:
 769              	.LBE1088:
 770              	.LBB1092:
 771              	.LBB1093:
 772              	.LBB1094:
 773              	.LBB1095:
 774              		.loc 3 140 0
 775 030a 6168     		ldr	r1, [r4, #4]
 776 030c 2268     		ldr	r2, [r4, #0]
 777              	.LBE1095:
 778              	.LBE1094:
 779              		.loc 3 172 0
 780 030e 2369     		ldr	r3, [r4, #16]
 781              	.LBB1097:
 782              	.LBB1096:
 783              		.loc 3 140 0
 784 0310 881A     		subs	r0, r1, r2
 785              	.LBE1096:
 786              	.LBE1097:
 787              		.loc 3 172 0
 788 0312 C3EBA002 		rsb	r2, r3, r0, asr #2
 789              	.LBE1093:
 790              	.LBE1092:
 791              		.loc 1 179 0
 792 0316 A2F10501 		sub	r1, r2, #5
 793 031a 1E20     		movs	r0, #30
 794 031c D1F1000E 		rsbs	lr, r1, #0
 795 0320 4EEB0101 		adc	r1, lr, r1
 796 0324 FFF7FEFF 		bl	_test_assert
ARM GAS  /tmp/cciiiJxS.s 			page 15


 797              	.LBB1098:
 798              	.LBB1099:
 799              	.LBB1100:
 800              	.LBB1101:
 801              	.LBB1102:
 802              		.loc 2 548 0
 803              	@ 548 "../../../resources/chibios/ChibiOS_16.1.8/os/ext/CMSIS/include/core_cmFunc.h" 1
 804 0328 85F31188 		MSR basepri, r5
 805              	@ 0 "" 2
 806              		.thumb
 807              	.LBE1102:
 808              	.LBE1101:
 809              	.LBE1100:
 810              	.LBE1099:
 811              	.LBE1098:
 812              		.loc 1 179 0
 813 032c 0028     		cmp	r0, #0
 814 032e 7FF4CAAE 		bne	.L2
 815              	.LVL63:
 816              	.LBB1103:
 817              	.LBB1104:
 818              	.LBB1105:
 819              	.LBB1106:
 820              		.loc 2 548 0
 821              	@ 548 "../../../resources/chibios/ChibiOS_16.1.8/os/ext/CMSIS/include/core_cmFunc.h" 1
 822 0332 86F31188 		MSR basepri, r6
 823              	@ 0 "" 2
 824              		.thumb
 825              	.LBE1106:
 826              	.LBE1105:
 827              	.LBE1104:
 828              	.LBE1103:
 829              		.loc 1 180 0
 830 0336 2369     		ldr	r3, [r4, #16]
 831 0338 1F20     		movs	r0, #31
 832 033a D3F10101 		rsbs	r1, r3, #1
 833 033e 38BF     		it	cc
 834 0340 0021     		movcc	r1, #0
 835 0342 FFF7FEFF 		bl	_test_assert
 836              	.LBB1107:
 837              	.LBB1108:
 838              	.LBB1109:
 839              	.LBB1110:
 840              	.LBB1111:
 841              		.loc 2 548 0
 842              	@ 548 "../../../resources/chibios/ChibiOS_16.1.8/os/ext/CMSIS/include/core_cmFunc.h" 1
 843 0346 85F31188 		MSR basepri, r5
 844              	@ 0 "" 2
 845              		.thumb
 846              	.LBE1111:
 847              	.LBE1110:
 848              	.LBE1109:
 849              	.LBE1108:
 850              	.LBE1107:
 851              		.loc 1 180 0
 852 034a 0028     		cmp	r0, #0
 853 034c 7FF4BBAE 		bne	.L2
ARM GAS  /tmp/cciiiJxS.s 			page 16


 854              	.LVL64:
 855              		.loc 1 181 0
 856 0350 E268     		ldr	r2, [r4, #12]
 857 0352 A368     		ldr	r3, [r4, #8]
 858 0354 3046     		mov	r0, r6
 859 0356 D11A     		subs	r1, r2, r3
 860 0358 D1F1000E 		rsbs	lr, r1, #0
 861 035c 4EEB0101 		adc	r1, lr, r1
 862 0360 FFF7FEFF 		bl	_test_assert
 863 0364 0028     		cmp	r0, #0
 864 0366 7FF4AEAE 		bne	.L2
 865              	.LVL65:
 866              	.LBB1112:
 867              	.LBB1113:
 868              	.LBB1114:
 869              	.LBB1115:
 870              		.loc 2 548 0
 871              	@ 548 "../../../resources/chibios/ChibiOS_16.1.8/os/ext/CMSIS/include/core_cmFunc.h" 1
 872 036a 86F31188 		MSR basepri, r6
 873              	@ 0 "" 2
 874              		.thumb
 875              	.LBE1115:
 876              	.LBE1114:
 877              	.LBE1113:
 878              	.LBE1112:
 879              		.loc 1 184 0
 880 036e 4521     		movs	r1, #69
 881 0370 2046     		mov	r0, r4
 882 0372 FFF7FEFF 		bl	chMBPostAheadI
 883              	.LVL66:
 884              		.loc 1 185 0
 885 0376 D0F10101 		rsbs	r1, r0, #1
 886 037a 38BF     		it	cc
 887 037c 0021     		movcc	r1, #0
 888 037e 2120     		movs	r0, #33
 889              	.LVL67:
 890 0380 FFF7FEFF 		bl	_test_assert
 891 0384 0028     		cmp	r0, #0
 892 0386 7FF49EAE 		bne	.L2
 893              		.loc 1 186 0
 894 038a 4421     		movs	r1, #68
 895 038c 2046     		mov	r0, r4
 896 038e FFF7FEFF 		bl	chMBPostAheadI
 897              	.LVL68:
 898              		.loc 1 187 0
 899 0392 D0F10101 		rsbs	r1, r0, #1
 900 0396 38BF     		it	cc
 901 0398 0021     		movcc	r1, #0
 902 039a 2220     		movs	r0, #34
 903              	.LVL69:
 904 039c FFF7FEFF 		bl	_test_assert
 905 03a0 0028     		cmp	r0, #0
 906 03a2 7FF490AE 		bne	.L2
 907              		.loc 1 188 0
 908 03a6 4321     		movs	r1, #67
 909 03a8 2046     		mov	r0, r4
 910 03aa FFF7FEFF 		bl	chMBPostAheadI
ARM GAS  /tmp/cciiiJxS.s 			page 17


 911              	.LVL70:
 912              		.loc 1 189 0
 913 03ae D0F10101 		rsbs	r1, r0, #1
 914 03b2 38BF     		it	cc
 915 03b4 0021     		movcc	r1, #0
 916 03b6 2320     		movs	r0, #35
 917              	.LVL71:
 918 03b8 FFF7FEFF 		bl	_test_assert
 919 03bc 0028     		cmp	r0, #0
 920 03be 7FF482AE 		bne	.L2
 921              		.loc 1 190 0
 922 03c2 4221     		movs	r1, #66
 923 03c4 2046     		mov	r0, r4
 924 03c6 FFF7FEFF 		bl	chMBPostAheadI
 925              	.LVL72:
 926              		.loc 1 191 0
 927 03ca D0F10101 		rsbs	r1, r0, #1
 928 03ce 38BF     		it	cc
 929 03d0 0021     		movcc	r1, #0
 930 03d2 2420     		movs	r0, #36
 931              	.LVL73:
 932 03d4 FFF7FEFF 		bl	_test_assert
 933 03d8 0028     		cmp	r0, #0
 934 03da 7FF474AE 		bne	.L2
 935              		.loc 1 192 0
 936 03de 40F20004 		movw	r4, #:lower16:.LANCHOR0
 937 03e2 C0F20004 		movt	r4, #:upper16:.LANCHOR0
 938 03e6 2046     		mov	r0, r4
 939 03e8 4121     		movs	r1, #65
 940 03ea FFF7FEFF 		bl	chMBPostAheadI
 941              	.LBB1116:
 942              	.LBB1117:
 943              	.LBB1118:
 944              	.LBB1119:
 945              	.LBB1120:
 946              		.loc 2 548 0
 947 03ee 0023     		movs	r3, #0
 948              	.LBE1120:
 949              	.LBE1119:
 950              	.LBE1118:
 951              	.LBE1117:
 952              	.LBE1116:
 953              		.loc 1 192 0
 954 03f0 0246     		mov	r2, r0
 955              	.LVL74:
 956              	.LBB1125:
 957              	.LBB1124:
 958              	.LBB1123:
 959              	.LBB1122:
 960              	.LBB1121:
 961              		.loc 2 548 0
 962              	@ 548 "../../../resources/chibios/ChibiOS_16.1.8/os/ext/CMSIS/include/core_cmFunc.h" 1
 963 03f2 83F31188 		MSR basepri, r3
 964              	@ 0 "" 2
 965              		.thumb
 966              	.LBE1121:
 967              	.LBE1122:
ARM GAS  /tmp/cciiiJxS.s 			page 18


 968              	.LBE1123:
 969              	.LBE1124:
 970              	.LBE1125:
 971              		.loc 1 194 0
 972 03f6 D11A     		subs	r1, r2, r3
 973 03f8 2520     		movs	r0, #37
 974              	.LVL75:
 975 03fa D1F1000C 		rsbs	ip, r1, #0
 976 03fe 4CEB0101 		adc	r1, ip, r1
 977 0402 FFF7FEFF 		bl	_test_assert
 978              	.LVL76:
 979 0406 0028     		cmp	r0, #0
 980 0408 7FF45DAE 		bne	.L2
 981              		.loc 1 195 0
 982 040c E268     		ldr	r2, [r4, #12]
 983 040e A368     		ldr	r3, [r4, #8]
 984 0410 2620     		movs	r0, #38
 985 0412 D11A     		subs	r1, r2, r3
 986 0414 D1F1000E 		rsbs	lr, r1, #0
 987 0418 4EEB0101 		adc	r1, lr, r1
 988 041c FFF7FEFF 		bl	_test_assert
 989 0420 0028     		cmp	r0, #0
 990 0422 7FF450AE 		bne	.L2
 991 0426 0525     		movs	r5, #5
 992              	.LBB1126:
 993              	.LBB1127:
 994              	.LBB1128:
 995              	.LBB1129:
 996              		.loc 2 548 0
 997 0428 4FF02008 		mov	r8, #32
 998              	.LBE1129:
 999              	.LBE1128:
 1000              	.LBE1127:
 1001              	.LBE1126:
 1002              	.LBB1133:
 1003              	.LBB1134:
 1004              	.LBB1135:
 1005              	.LBB1136:
 1006              	.LBB1137:
 1007 042c 0746     		mov	r7, r0
 1008              	.L14:
 1009              	.LVL77:
 1010              	.LBE1137:
 1011              	.LBE1136:
 1012              	.LBE1135:
 1013              	.LBE1134:
 1014              	.LBE1133:
 1015              	.LBB1142:
 1016              	.LBB1132:
 1017              	.LBB1131:
 1018              	.LBB1130:
 1019 042e 2026     		movs	r6, #32
 1020              	@ 548 "../../../resources/chibios/ChibiOS_16.1.8/os/ext/CMSIS/include/core_cmFunc.h" 1
 1021 0430 88F31188 		MSR basepri, r8
 1022              	@ 0 "" 2
 1023              		.thumb
 1024              	.LBE1130:
ARM GAS  /tmp/cciiiJxS.s 			page 19


 1025              	.LBE1131:
 1026              	.LBE1132:
 1027              	.LBE1142:
 1028              		.loc 1 198 0
 1029 0434 40F20004 		movw	r4, #:lower16:.LANCHOR0
 1030 0438 C0F20004 		movt	r4, #:upper16:.LANCHOR0
 1031 043c 2046     		mov	r0, r4
 1032 043e 01A9     		add	r1, sp, #4
 1033 0440 FFF7FEFF 		bl	chMBFetchI
 1034 0444 8446     		mov	ip, r0
 1035              	.LVL78:
 1036              	.LBB1143:
 1037              	.LBB1141:
 1038              	.LBB1140:
 1039              	.LBB1139:
 1040              	.LBB1138:
 1041              		.loc 2 548 0
 1042              	@ 548 "../../../resources/chibios/ChibiOS_16.1.8/os/ext/CMSIS/include/core_cmFunc.h" 1
 1043 0446 87F31188 		MSR basepri, r7
 1044              	@ 0 "" 2
 1045              		.thumb
 1046              	.LBE1138:
 1047              	.LBE1139:
 1048              	.LBE1140:
 1049              	.LBE1141:
 1050              	.LBE1143:
 1051              		.loc 1 200 0
 1052 044a 2720     		movs	r0, #39
 1053              	.LVL79:
 1054 044c DCF10101 		rsbs	r1, ip, #1
 1055 0450 38BF     		it	cc
 1056 0452 0021     		movcc	r1, #0
 1057 0454 FFF7FEFF 		bl	_test_assert
 1058              	.LVL80:
 1059 0458 0028     		cmp	r0, #0
 1060 045a 7FF434AE 		bne	.L2
 1061              		.loc 1 201 0
 1062 045e 9DF80400 		ldrb	r0, [sp, #4]	@ zero_extendqisi2
 1063 0462 FFF7FEFF 		bl	test_emit_token
 1064              		.loc 1 196 0
 1065 0466 013D     		subs	r5, r5, #1
 1066 0468 E1D1     		bne	.L14
 1067              		.loc 1 203 0
 1068 046a 40F20001 		movw	r1, #:lower16:.LC0
 1069 046e 2820     		movs	r0, #40
 1070 0470 C0F20001 		movt	r1, #:upper16:.LC0
 1071 0474 FFF7FEFF 		bl	_test_assert_sequence
 1072 0478 0028     		cmp	r0, #0
 1073 047a 7FF424AE 		bne	.L2
 1074              	.LVL81:
 1075              	.LBB1144:
 1076              	.LBB1145:
 1077              	.LBB1146:
 1078              	.LBB1147:
 1079              		.loc 2 548 0
 1080              	@ 548 "../../../resources/chibios/ChibiOS_16.1.8/os/ext/CMSIS/include/core_cmFunc.h" 1
 1081 047e 86F31188 		MSR basepri, r6
ARM GAS  /tmp/cciiiJxS.s 			page 20


 1082              	@ 0 "" 2
 1083              	.LVL82:
 1084              		.thumb
 1085              	.LBE1147:
 1086              	.LBE1146:
 1087              	.LBE1145:
 1088              	.LBE1144:
 1089              	.LBB1148:
 1090              	.LBB1149:
 1091              	.LBB1150:
 1092              	.LBB1151:
 1093              		.loc 3 140 0
 1094 0482 6168     		ldr	r1, [r4, #4]
 1095 0484 2268     		ldr	r2, [r4, #0]
 1096              	.LBE1151:
 1097              	.LBE1150:
 1098              		.loc 3 172 0
 1099 0486 2369     		ldr	r3, [r4, #16]
 1100              	.LBB1153:
 1101              	.LBB1152:
 1102              		.loc 3 140 0
 1103 0488 881A     		subs	r0, r1, r2
 1104              	.LBE1152:
 1105              	.LBE1153:
 1106              		.loc 3 172 0
 1107 048a C3EBA002 		rsb	r2, r3, r0, asr #2
 1108              	.LBE1149:
 1109              	.LBE1148:
 1110              		.loc 1 204 0
 1111 048e A2F10501 		sub	r1, r2, #5
 1112 0492 2920     		movs	r0, #41
 1113 0494 D1F1000E 		rsbs	lr, r1, #0
 1114 0498 4EEB0101 		adc	r1, lr, r1
 1115 049c FFF7FEFF 		bl	_test_assert
 1116              	.LBB1154:
 1117              	.LBB1155:
 1118              	.LBB1156:
 1119              	.LBB1157:
 1120              	.LBB1158:
 1121              		.loc 2 548 0
 1122              	@ 548 "../../../resources/chibios/ChibiOS_16.1.8/os/ext/CMSIS/include/core_cmFunc.h" 1
 1123 04a0 85F31188 		MSR basepri, r5
 1124              	@ 0 "" 2
 1125              		.thumb
 1126              	.LBE1158:
 1127              	.LBE1157:
 1128              	.LBE1156:
 1129              	.LBE1155:
 1130              	.LBE1154:
 1131              		.loc 1 204 0
 1132 04a4 0028     		cmp	r0, #0
 1133 04a6 7FF40EAE 		bne	.L2
 1134              	.LVL83:
 1135              	.LBB1159:
 1136              	.LBB1160:
 1137              	.LBB1161:
 1138              	.LBB1162:
ARM GAS  /tmp/cciiiJxS.s 			page 21


 1139              		.loc 2 548 0
 1140              	@ 548 "../../../resources/chibios/ChibiOS_16.1.8/os/ext/CMSIS/include/core_cmFunc.h" 1
 1141 04aa 86F31188 		MSR basepri, r6
 1142              	@ 0 "" 2
 1143              		.thumb
 1144              	.LBE1162:
 1145              	.LBE1161:
 1146              	.LBE1160:
 1147              	.LBE1159:
 1148              		.loc 1 205 0
 1149 04ae 2369     		ldr	r3, [r4, #16]
 1150 04b0 2A20     		movs	r0, #42
 1151 04b2 D3F10101 		rsbs	r1, r3, #1
 1152 04b6 38BF     		it	cc
 1153 04b8 0021     		movcc	r1, #0
 1154 04ba FFF7FEFF 		bl	_test_assert
 1155              	.LBB1163:
 1156              	.LBB1164:
 1157              	.LBB1165:
 1158              	.LBB1166:
 1159              	.LBB1167:
 1160              		.loc 2 548 0
 1161              	@ 548 "../../../resources/chibios/ChibiOS_16.1.8/os/ext/CMSIS/include/core_cmFunc.h" 1
 1162 04be 85F31188 		MSR basepri, r5
 1163              	@ 0 "" 2
 1164              		.thumb
 1165              	.LBE1167:
 1166              	.LBE1166:
 1167              	.LBE1165:
 1168              	.LBE1164:
 1169              	.LBE1163:
 1170              		.loc 1 205 0
 1171 04c2 0028     		cmp	r0, #0
 1172 04c4 7FF4FFAD 		bne	.L2
 1173              	.LVL84:
 1174              		.loc 1 206 0
 1175 04c8 E268     		ldr	r2, [r4, #12]
 1176 04ca A368     		ldr	r3, [r4, #8]
 1177 04cc 2B20     		movs	r0, #43
 1178 04ce D11A     		subs	r1, r2, r3
 1179 04d0 D1F1000E 		rsbs	lr, r1, #0
 1180 04d4 4EEB0101 		adc	r1, lr, r1
 1181 04d8 FFF7FEFF 		bl	_test_assert
 1182 04dc 0028     		cmp	r0, #0
 1183 04de 7FF4F2AD 		bne	.L2
 1184              		.loc 1 211 0
 1185 04e2 2046     		mov	r0, r4
 1186 04e4 FFF7FEFF 		bl	chMBReset
 1187              	.LVL85:
 1188              	.LBB1168:
 1189              	.LBB1169:
 1190              	.LBB1170:
 1191              	.LBB1171:
 1192              		.loc 2 548 0
 1193              	@ 548 "../../../resources/chibios/ChibiOS_16.1.8/os/ext/CMSIS/include/core_cmFunc.h" 1
 1194 04e8 86F31188 		MSR basepri, r6
 1195              	@ 0 "" 2
ARM GAS  /tmp/cciiiJxS.s 			page 22


 1196              	.LVL86:
 1197              		.thumb
 1198              	.LBE1171:
 1199              	.LBE1170:
 1200              	.LBE1169:
 1201              	.LBE1168:
 1202              	.LBB1172:
 1203              	.LBB1173:
 1204              	.LBB1174:
 1205              	.LBB1175:
 1206              		.loc 3 140 0
 1207 04ec 6168     		ldr	r1, [r4, #4]
 1208 04ee 2268     		ldr	r2, [r4, #0]
 1209              	.LBE1175:
 1210              	.LBE1174:
 1211              		.loc 3 172 0
 1212 04f0 2369     		ldr	r3, [r4, #16]
 1213              	.LBB1177:
 1214              	.LBB1176:
 1215              		.loc 3 140 0
 1216 04f2 881A     		subs	r0, r1, r2
 1217              	.LBE1176:
 1218              	.LBE1177:
 1219              		.loc 3 172 0
 1220 04f4 C3EBA002 		rsb	r2, r3, r0, asr #2
 1221              	.LBE1173:
 1222              	.LBE1172:
 1223              		.loc 1 216 0
 1224 04f8 A2F10501 		sub	r1, r2, #5
 1225 04fc 2C20     		movs	r0, #44
 1226 04fe D1F1000C 		rsbs	ip, r1, #0
 1227 0502 4CEB0101 		adc	r1, ip, r1
 1228 0506 FFF7FEFF 		bl	_test_assert
 1229              	.LBB1178:
 1230              	.LBB1179:
 1231              	.LBB1180:
 1232              	.LBB1181:
 1233              	.LBB1182:
 1234              		.loc 2 548 0
 1235              	@ 548 "../../../resources/chibios/ChibiOS_16.1.8/os/ext/CMSIS/include/core_cmFunc.h" 1
 1236 050a 85F31188 		MSR basepri, r5
 1237              	@ 0 "" 2
 1238              		.thumb
 1239              	.LBE1182:
 1240              	.LBE1181:
 1241              	.LBE1180:
 1242              	.LBE1179:
 1243              	.LBE1178:
 1244              		.loc 1 216 0
 1245 050e 0028     		cmp	r0, #0
 1246 0510 7FF4D9AD 		bne	.L2
 1247              	.LVL87:
 1248              	.LBB1183:
 1249              	.LBB1184:
 1250              	.LBB1185:
 1251              	.LBB1186:
 1252              		.loc 2 548 0
ARM GAS  /tmp/cciiiJxS.s 			page 23


 1253              	@ 548 "../../../resources/chibios/ChibiOS_16.1.8/os/ext/CMSIS/include/core_cmFunc.h" 1
 1254 0514 86F31188 		MSR basepri, r6
 1255              	@ 0 "" 2
 1256              		.thumb
 1257              	.LBE1186:
 1258              	.LBE1185:
 1259              	.LBE1184:
 1260              	.LBE1183:
 1261              		.loc 1 217 0
 1262 0518 2369     		ldr	r3, [r4, #16]
 1263 051a 2D20     		movs	r0, #45
 1264 051c D3F10101 		rsbs	r1, r3, #1
 1265 0520 38BF     		it	cc
 1266 0522 0021     		movcc	r1, #0
 1267 0524 FFF7FEFF 		bl	_test_assert
 1268              	.LBB1187:
 1269              	.LBB1188:
 1270              	.LBB1189:
 1271              	.LBB1190:
 1272              	.LBB1191:
 1273              		.loc 2 548 0
 1274              	@ 548 "../../../resources/chibios/ChibiOS_16.1.8/os/ext/CMSIS/include/core_cmFunc.h" 1
 1275 0528 85F31188 		MSR basepri, r5
 1276              	@ 0 "" 2
 1277              		.thumb
 1278              	.LBE1191:
 1279              	.LBE1190:
 1280              	.LBE1189:
 1281              	.LBE1188:
 1282              	.LBE1187:
 1283              		.loc 1 217 0
 1284 052c 0028     		cmp	r0, #0
 1285 052e 7FF4CAAD 		bne	.L2
 1286              	.LVL88:
 1287              	.LBB1192:
 1288              	.LBB1193:
 1289              	.LBB1194:
 1290              	.LBB1195:
 1291              		.loc 2 548 0
 1292              	@ 548 "../../../resources/chibios/ChibiOS_16.1.8/os/ext/CMSIS/include/core_cmFunc.h" 1
 1293 0532 86F31188 		MSR basepri, r6
 1294              	@ 0 "" 2
 1295              		.thumb
 1296              	.LBE1195:
 1297              	.LBE1194:
 1298              	.LBE1193:
 1299              	.LBE1192:
 1300              		.loc 1 218 0
 1301 0536 2268     		ldr	r2, [r4, #0]
 1302 0538 A368     		ldr	r3, [r4, #8]
 1303 053a 2E20     		movs	r0, #46
 1304 053c D11A     		subs	r1, r2, r3
 1305 053e D1F1000E 		rsbs	lr, r1, #0
 1306 0542 4EEB0101 		adc	r1, lr, r1
 1307 0546 FFF7FEFF 		bl	_test_assert
 1308              	.LBB1196:
 1309              	.LBB1197:
ARM GAS  /tmp/cciiiJxS.s 			page 24


 1310              	.LBB1198:
 1311              	.LBB1199:
 1312              	.LBB1200:
 1313              		.loc 2 548 0
 1314              	@ 548 "../../../resources/chibios/ChibiOS_16.1.8/os/ext/CMSIS/include/core_cmFunc.h" 1
 1315 054a 85F31188 		MSR basepri, r5
 1316              	@ 0 "" 2
 1317              		.thumb
 1318              	.LBE1200:
 1319              	.LBE1199:
 1320              	.LBE1198:
 1321              	.LBE1197:
 1322              	.LBE1196:
 1323              		.loc 1 218 0
 1324 054e 0028     		cmp	r0, #0
 1325 0550 7FF4B9AD 		bne	.L2
 1326              	.LVL89:
 1327              	.LBB1201:
 1328              	.LBB1202:
 1329              	.LBB1203:
 1330              	.LBB1204:
 1331              		.loc 2 548 0
 1332              	@ 548 "../../../resources/chibios/ChibiOS_16.1.8/os/ext/CMSIS/include/core_cmFunc.h" 1
 1333 0554 86F31188 		MSR basepri, r6
 1334              	@ 0 "" 2
 1335              		.thumb
 1336              	.LBE1204:
 1337              	.LBE1203:
 1338              	.LBE1202:
 1339              	.LBE1201:
 1340              		.loc 1 219 0
 1341 0558 2368     		ldr	r3, [r4, #0]
 1342 055a E268     		ldr	r2, [r4, #12]
 1343 055c 2F20     		movs	r0, #47
 1344 055e 991A     		subs	r1, r3, r2
 1345 0560 D1F1000C 		rsbs	ip, r1, #0
 1346 0564 4CEB0101 		adc	r1, ip, r1
 1347 0568 FFF7FEFF 		bl	_test_assert
 1348              	.LVL90:
 1349              	.L26:
 1350              	.LBB1205:
 1351              	.LBB1206:
 1352              	.LBB1207:
 1353              	.LBB1208:
 1354              	.LBB1209:
 1355              		.loc 2 548 0
 1356 056c 0020     		movs	r0, #0
 1357              	@ 548 "../../../resources/chibios/ChibiOS_16.1.8/os/ext/CMSIS/include/core_cmFunc.h" 1
 1358 056e 80F31188 		MSR basepri, r0
 1359              	@ 0 "" 2
 1360              		.thumb
 1361 0572 A8E5     		b	.L2
 1362              	.LVL91:
 1363              	.L6:
 1364              	.LBE1209:
 1365              	.LBE1208:
 1366              	.LBE1207:
ARM GAS  /tmp/cciiiJxS.s 			page 25


 1367              	.LBE1206:
 1368              	.LBE1205:
 1369              	.LBB1210:
 1370              	.LBB1211:
 1371              	.LBB1212:
 1372              	.LBB1213:
 1373              	.LBB1214:
 1374              	@ 548 "../../../resources/chibios/ChibiOS_16.1.8/os/ext/CMSIS/include/core_cmFunc.h" 1
 1375 0574 80F31188 		MSR basepri, r0
 1376              	@ 0 "" 2
 1377              	.LVL92:
 1378              		.thumb
 1379              	.LBE1214:
 1380              	.LBE1213:
 1381              	.LBE1212:
 1382              	.LBE1211:
 1383              	.LBE1210:
 1384              	.LBB1215:
 1385              	.LBB1216:
 1386              	.LBB1217:
 1387              	.LBB1218:
 1388              	@ 548 "../../../resources/chibios/ChibiOS_16.1.8/os/ext/CMSIS/include/core_cmFunc.h" 1
 1389 0578 86F31188 		MSR basepri, r6
 1390              	@ 0 "" 2
 1391              		.thumb
 1392              	.LBE1218:
 1393              	.LBE1217:
 1394              	.LBE1216:
 1395              	.LBE1215:
 1396              		.loc 1 116 0
 1397 057c E168     		ldr	r1, [r4, #12]
 1398 057e A368     		ldr	r3, [r4, #8]
 1399 0580 0A20     		movs	r0, #10
 1400 0582 C3EB010E 		rsb	lr, r3, r1
 1401 0586 DEF10002 		rsbs	r2, lr, #0
 1402 058a 42EB0E01 		adc	r1, r2, lr
 1403 058e FFF7FEFF 		bl	_test_assert
 1404 0592 0028     		cmp	r0, #0
 1405 0594 40F0EB80 		bne	.L29
 1406              	.LVL93:
 1407              	.LBB1219:
 1408              	.LBB1220:
 1409              	.LBB1221:
 1410              	.LBB1222:
 1411              	.LBB1223:
 1412              		.loc 2 548 0
 1413              	@ 548 "../../../resources/chibios/ChibiOS_16.1.8/os/ext/CMSIS/include/core_cmFunc.h" 1
 1414 0598 80F31188 		MSR basepri, r0
 1415              	@ 0 "" 2
 1416              	.LVL94:
 1417              		.thumb
 1418              	.LBE1223:
 1419              	.LBE1222:
 1420              	.LBE1221:
 1421              	.LBE1220:
 1422              	.LBE1219:
 1423              		.loc 1 122 0
ARM GAS  /tmp/cciiiJxS.s 			page 26


 1424 059c 4FF6FF72 		movw	r2, #65535
 1425 05a0 01A9     		add	r1, sp, #4
 1426 05a2 2046     		mov	r0, r4
 1427 05a4 FFF7FEFF 		bl	chMBFetch
 1428              	.LVL95:
 1429              		.loc 1 123 0
 1430 05a8 D0F10101 		rsbs	r1, r0, #1
 1431 05ac 38BF     		it	cc
 1432 05ae 0021     		movcc	r1, #0
 1433 05b0 0B20     		movs	r0, #11
 1434              	.LVL96:
 1435 05b2 FFF7FEFF 		bl	_test_assert
 1436 05b6 0028     		cmp	r0, #0
 1437 05b8 7FF485AD 		bne	.L2
 1438              		.loc 1 124 0
 1439 05bc 9DF80400 		ldrb	r0, [sp, #4]	@ zero_extendqisi2
 1440 05c0 FFF7FEFF 		bl	test_emit_token
 1441              	.LVL97:
 1442              		.loc 1 122 0
 1443 05c4 01A9     		add	r1, sp, #4
 1444 05c6 2046     		mov	r0, r4
 1445 05c8 4FF6FF72 		movw	r2, #65535
 1446 05cc FFF7FEFF 		bl	chMBFetch
 1447              	.LVL98:
 1448              		.loc 1 123 0
 1449 05d0 D0F10101 		rsbs	r1, r0, #1
 1450 05d4 38BF     		it	cc
 1451 05d6 0021     		movcc	r1, #0
 1452 05d8 0B20     		movs	r0, #11
 1453              	.LVL99:
 1454 05da FFF7FEFF 		bl	_test_assert
 1455 05de 0028     		cmp	r0, #0
 1456 05e0 7FF471AD 		bne	.L2
 1457              		.loc 1 124 0
 1458 05e4 9DF80400 		ldrb	r0, [sp, #4]	@ zero_extendqisi2
 1459 05e8 FFF7FEFF 		bl	test_emit_token
 1460              	.LVL100:
 1461              		.loc 1 122 0
 1462 05ec 01A9     		add	r1, sp, #4
 1463 05ee 2046     		mov	r0, r4
 1464 05f0 4FF6FF72 		movw	r2, #65535
 1465 05f4 FFF7FEFF 		bl	chMBFetch
 1466              	.LVL101:
 1467              		.loc 1 123 0
 1468 05f8 D0F10101 		rsbs	r1, r0, #1
 1469 05fc 38BF     		it	cc
 1470 05fe 0021     		movcc	r1, #0
 1471 0600 0B20     		movs	r0, #11
 1472              	.LVL102:
 1473 0602 FFF7FEFF 		bl	_test_assert
 1474 0606 0028     		cmp	r0, #0
 1475 0608 7FF45DAD 		bne	.L2
 1476              		.loc 1 124 0
 1477 060c 9DF80400 		ldrb	r0, [sp, #4]	@ zero_extendqisi2
 1478 0610 FFF7FEFF 		bl	test_emit_token
 1479              	.LVL103:
 1480              		.loc 1 122 0
ARM GAS  /tmp/cciiiJxS.s 			page 27


 1481 0614 01A9     		add	r1, sp, #4
 1482 0616 2046     		mov	r0, r4
 1483 0618 4FF6FF72 		movw	r2, #65535
 1484 061c FFF7FEFF 		bl	chMBFetch
 1485              	.LVL104:
 1486              		.loc 1 123 0
 1487 0620 D0F10101 		rsbs	r1, r0, #1
 1488 0624 38BF     		it	cc
 1489 0626 0021     		movcc	r1, #0
 1490 0628 0B20     		movs	r0, #11
 1491              	.LVL105:
 1492 062a FFF7FEFF 		bl	_test_assert
 1493 062e 0028     		cmp	r0, #0
 1494 0630 7FF449AD 		bne	.L2
 1495              		.loc 1 124 0
 1496 0634 9DF80400 		ldrb	r0, [sp, #4]	@ zero_extendqisi2
 1497 0638 FFF7FEFF 		bl	test_emit_token
 1498              	.LVL106:
 1499              		.loc 1 122 0
 1500 063c 01A9     		add	r1, sp, #4
 1501 063e 2046     		mov	r0, r4
 1502 0640 4FF6FF72 		movw	r2, #65535
 1503 0644 FFF7FEFF 		bl	chMBFetch
 1504              	.LVL107:
 1505              		.loc 1 123 0
 1506 0648 D0F10101 		rsbs	r1, r0, #1
 1507 064c 38BF     		it	cc
 1508 064e 0021     		movcc	r1, #0
 1509 0650 0B20     		movs	r0, #11
 1510              	.LVL108:
 1511 0652 FFF7FEFF 		bl	_test_assert
 1512 0656 0028     		cmp	r0, #0
 1513 0658 7FF435AD 		bne	.L2
 1514              		.loc 1 124 0
 1515 065c 9DF80400 		ldrb	r0, [sp, #4]	@ zero_extendqisi2
 1516 0660 FFF7FEFF 		bl	test_emit_token
 1517              	.LVL109:
 1518              		.loc 1 126 0
 1519 0664 40F20001 		movw	r1, #:lower16:.LC0
 1520 0668 0C20     		movs	r0, #12
 1521 066a C0F20001 		movt	r1, #:upper16:.LC0
 1522 066e FFF7FEFF 		bl	_test_assert_sequence
 1523 0672 0028     		cmp	r0, #0
 1524 0674 7FF427AD 		bne	.L2
 1525              		.loc 1 131 0
 1526 0678 4721     		movs	r1, #71
 1527 067a 2046     		mov	r0, r4
 1528 067c 4FF6FF72 		movw	r2, #65535
 1529 0680 FFF7FEFF 		bl	chMBPost
 1530              	.LVL110:
 1531              		.loc 1 132 0
 1532 0684 D0F10101 		rsbs	r1, r0, #1
 1533 0688 38BF     		it	cc
 1534 068a 0021     		movcc	r1, #0
 1535 068c 0D20     		movs	r0, #13
 1536              	.LVL111:
 1537 068e FFF7FEFF 		bl	_test_assert
ARM GAS  /tmp/cciiiJxS.s 			page 28


 1538 0692 0028     		cmp	r0, #0
 1539 0694 7FF417AD 		bne	.L2
 1540              		.loc 1 133 0
 1541 0698 40F20004 		movw	r4, #:lower16:.LANCHOR0
 1542 069c C0F20004 		movt	r4, #:upper16:.LANCHOR0
 1543 06a0 01A9     		add	r1, sp, #4
 1544 06a2 2046     		mov	r0, r4
 1545 06a4 4FF6FF72 		movw	r2, #65535
 1546 06a8 FFF7FEFF 		bl	chMBFetch
 1547              	.LVL112:
 1548              		.loc 1 134 0
 1549 06ac D0F10101 		rsbs	r1, r0, #1
 1550 06b0 38BF     		it	cc
 1551 06b2 0021     		movcc	r1, #0
 1552 06b4 0E20     		movs	r0, #14
 1553              	.LVL113:
 1554 06b6 FFF7FEFF 		bl	_test_assert
 1555 06ba 0028     		cmp	r0, #0
 1556 06bc 7FF403AD 		bne	.L2
 1557              		.loc 1 135 0
 1558 06c0 2168     		ldr	r1, [r4, #0]
 1559 06c2 A268     		ldr	r2, [r4, #8]
 1560 06c4 0F20     		movs	r0, #15
 1561 06c6 8B1A     		subs	r3, r1, r2
 1562 06c8 5A42     		rsbs	r2, r3, #0
 1563 06ca 42EB0301 		adc	r1, r2, r3
 1564 06ce FFF7FEFF 		bl	_test_assert
 1565 06d2 0028     		cmp	r0, #0
 1566 06d4 7FF4F7AC 		bne	.L2
 1567              		.loc 1 136 0
 1568 06d8 E368     		ldr	r3, [r4, #12]
 1569 06da 2268     		ldr	r2, [r4, #0]
 1570 06dc 1020     		movs	r0, #16
 1571 06de D11A     		subs	r1, r2, r3
 1572 06e0 4B42     		rsbs	r3, r1, #0
 1573 06e2 43EB0101 		adc	r1, r3, r1
 1574 06e6 FFF7FEFF 		bl	_test_assert
 1575 06ea 0028     		cmp	r0, #0
 1576 06ec 7FF4EBAC 		bne	.L2
 1577              		.loc 1 141 0
 1578 06f0 0122     		movs	r2, #1
 1579 06f2 01A9     		add	r1, sp, #4
 1580 06f4 2046     		mov	r0, r4
 1581 06f6 FFF7FEFF 		bl	chMBFetch
 1582              	.LVL114:
 1583              		.loc 1 142 0
 1584 06fa A0F1FF30 		sub	r0, r0, #-1
 1585              	.LVL115:
 1586 06fe 4642     		rsbs	r6, r0, #0
 1587 0700 46EB0001 		adc	r1, r6, r0
 1588 0704 1120     		movs	r0, #17
 1589              	.LVL116:
 1590 0706 FFF7FEFF 		bl	_test_assert
 1591 070a 0646     		mov	r6, r0
 1592 070c 0028     		cmp	r0, #0
 1593 070e 7FF4DAAC 		bne	.L2
 1594              	.LVL117:
ARM GAS  /tmp/cciiiJxS.s 			page 29


 1595              	.LBB1224:
 1596              	.LBB1225:
 1597              	.LBB1226:
 1598              	.LBB1227:
 1599              		.loc 2 548 0
 1600 0712 2025     		movs	r5, #32
 1601              	@ 548 "../../../resources/chibios/ChibiOS_16.1.8/os/ext/CMSIS/include/core_cmFunc.h" 1
 1602 0714 85F31188 		MSR basepri, r5
 1603              	@ 0 "" 2
 1604              		.thumb
 1605              	.LBE1227:
 1606              	.LBE1226:
 1607              	.LBE1225:
 1608              	.LBE1224:
 1609              		.loc 1 144 0
 1610 0718 2046     		mov	r0, r4
 1611 071a 01A9     		add	r1, sp, #4
 1612 071c FFF7FEFF 		bl	chMBFetchI
 1613 0720 0246     		mov	r2, r0
 1614              	.LVL118:
 1615              	.LBB1228:
 1616              	.LBB1229:
 1617              	.LBB1230:
 1618              	.LBB1231:
 1619              	.LBB1232:
 1620              		.loc 2 548 0
 1621              	@ 548 "../../../resources/chibios/ChibiOS_16.1.8/os/ext/CMSIS/include/core_cmFunc.h" 1
 1622 0722 86F31188 		MSR basepri, r6
 1623              	@ 0 "" 2
 1624              		.thumb
 1625              	.LBE1232:
 1626              	.LBE1231:
 1627              	.LBE1230:
 1628              	.LBE1229:
 1629              	.LBE1228:
 1630              		.loc 1 146 0
 1631 0726 A2F1FF31 		sub	r1, r2, #-1
 1632 072a 1220     		movs	r0, #18
 1633              	.LVL119:
 1634 072c D1F1000C 		rsbs	ip, r1, #0
 1635 0730 4CEB0101 		adc	r1, ip, r1
 1636 0734 FFF7FEFF 		bl	_test_assert
 1637              	.LVL120:
 1638 0738 0646     		mov	r6, r0
 1639 073a 0028     		cmp	r0, #0
 1640 073c 7FF4C3AC 		bne	.L2
 1641              	.LVL121:
 1642              	.LBB1233:
 1643              	.LBB1234:
 1644              	.LBB1235:
 1645              	.LBB1236:
 1646              		.loc 2 548 0
 1647              	@ 548 "../../../resources/chibios/ChibiOS_16.1.8/os/ext/CMSIS/include/core_cmFunc.h" 1
 1648 0740 85F31188 		MSR basepri, r5
 1649              	@ 0 "" 2
 1650              	.LVL122:
 1651              		.thumb
ARM GAS  /tmp/cciiiJxS.s 			page 30


 1652              	.LBE1236:
 1653              	.LBE1235:
 1654              	.LBE1234:
 1655              	.LBE1233:
 1656              	.LBB1237:
 1657              	.LBB1238:
 1658              	.LBB1239:
 1659              	.LBB1240:
 1660              		.loc 3 140 0
 1661 0744 6168     		ldr	r1, [r4, #4]
 1662 0746 2268     		ldr	r2, [r4, #0]
 1663              	.LBE1240:
 1664              	.LBE1239:
 1665              		.loc 3 172 0
 1666 0748 2769     		ldr	r7, [r4, #16]
 1667              	.LBB1242:
 1668              	.LBB1241:
 1669              		.loc 3 140 0
 1670 074a 881A     		subs	r0, r1, r2
 1671              	.LBE1241:
 1672              	.LBE1242:
 1673              		.loc 3 172 0
 1674 074c C7EBA00E 		rsb	lr, r7, r0, asr #2
 1675              	.LBE1238:
 1676              	.LBE1237:
 1677              		.loc 1 151 0
 1678 0750 AEF10503 		sub	r3, lr, #5
 1679 0754 1320     		movs	r0, #19
 1680 0756 5F42     		rsbs	r7, r3, #0
 1681 0758 47EB0301 		adc	r1, r7, r3
 1682 075c FFF7FEFF 		bl	_test_assert
 1683 0760 0746     		mov	r7, r0
 1684 0762 0028     		cmp	r0, #0
 1685 0764 3FF425AD 		beq	.L8
 1686              	.L25:
 1687              	.LVL123:
 1688              	.LBB1243:
 1689              	.LBB1244:
 1690              	.LBB1245:
 1691              	.LBB1246:
 1692              	.LBB1247:
 1693              		.loc 2 548 0
 1694              	@ 548 "../../../resources/chibios/ChibiOS_16.1.8/os/ext/CMSIS/include/core_cmFunc.h" 1
 1695 0768 86F31188 		MSR basepri, r6
 1696              	@ 0 "" 2
 1697              		.thumb
 1698 076c ABE4     		b	.L2
 1699              	.LVL124:
 1700              	.L29:
 1701              	.LBE1247:
 1702              	.LBE1246:
 1703              	.LBE1245:
 1704              	.LBE1244:
 1705              	.LBE1243:
 1706              	.LBB1248:
 1707              	.LBB1249:
 1708              	.LBB1250:
ARM GAS  /tmp/cciiiJxS.s 			page 31


 1709              	.LBB1251:
 1710              	.LBB1252:
 1711              	@ 548 "../../../resources/chibios/ChibiOS_16.1.8/os/ext/CMSIS/include/core_cmFunc.h" 1
 1712 076e 85F31188 		MSR basepri, r5
 1713              	@ 0 "" 2
 1714              		.thumb
 1715 0772 A8E4     		b	.L2
 1716              	.LBE1252:
 1717              	.LBE1251:
 1718              	.LBE1250:
 1719              	.LBE1249:
 1720              	.LBE1248:
 1721              	.LBE1253:
 1722              	.LBE1254:
 1723              		.cfi_endproc
 1724              	.LFE183:
 1725              		.size	mbox1_execute, .-mbox1_execute
 1726              		.global	patternmbox
 1727              		.global	testmbox1
 1728 0774 AFF30080 		.section	.data.mb1,"aw",%progbits
 1728      AFF30080 
 1728      AFF30080 
 1729              		.align	2
 1730              		.set	.LANCHOR0,. + 0
 1731              		.type	mb1, %object
 1732              		.size	mb1, 40
 1733              	mb1:
 1734 0000 00000000 		.word	test
 1735 0004 14000000 		.word	test+20
 1736 0008 00000000 		.word	test
 1737 000c 00000000 		.word	test
 1738 0010 00000000 		.word	0
 1739 0014 00       		.byte	0
 1740 0015 000000   		.space	3
 1741 0018 18000000 		.word	mb1+24
 1742 001c 18000000 		.word	mb1+24
 1743 0020 20000000 		.word	mb1+32
 1744 0024 20000000 		.word	mb1+32
 1745              		.section	.rodata.patternmbox,"a",%progbits
 1746              		.align	2
 1747              		.type	patternmbox, %object
 1748              		.size	patternmbox, 8
 1749              	patternmbox:
 1750 0000 00000000 		.word	testmbox1
 1751 0004 00000000 		.word	0
 1752              		.section	.rodata.str1.4,"aMS",%progbits,1
 1753              		.align	2
 1754              	.LC0:
 1755 0000 41424344 		.ascii	"ABCDE\000"
 1755      4500
 1756 0006 0000     		.space	2
 1757              	.LC1:
 1758 0008 4D61696C 		.ascii	"Mailboxes, queuing and timeouts\000"
 1758      626F7865 
 1758      732C2071 
 1758      75657569 
 1758      6E672061 
ARM GAS  /tmp/cciiiJxS.s 			page 32


 1759              		.section	.rodata.testmbox1,"a",%progbits
 1760              		.align	2
 1761              		.type	testmbox1, %object
 1762              		.size	testmbox1, 16
 1763              	testmbox1:
 1764 0000 08000000 		.word	.LC1
 1765 0004 00000000 		.word	mbox1_setup
 1766 0008 00000000 		.word	0
 1767 000c 00000000 		.word	mbox1_execute
 1768              		.text
 1769              	.Letext0:
 1770              		.file 4 "/home/madog/programs/CodeSourcery/Sourcery_CodeBench_Lite_for_ARM_EABI/bin/../lib/gcc/arm
 1771              		.file 5 "/home/madog/programs/CodeSourcery/Sourcery_CodeBench_Lite_for_ARM_EABI/bin/../lib/gcc/arm
 1772              		.file 6 "../../../resources/chibios/ChibiOS_16.1.8/os/rt/ports/ARMCMx/compilers/GCC/chtypes.h"
 1773              		.file 7 "../../../resources/chibios/ChibiOS_16.1.8/os/rt/include/chsystypes.h"
 1774              		.file 8 "../../../resources/chibios/ChibiOS_16.1.8/os/rt/include/chschd.h"
 1775              		.file 9 "../../../resources/chibios/ChibiOS_16.1.8/os/rt/ports/ARMCMx/chcore.h"
 1776              		.file 10 "../../../resources/chibios/ChibiOS_16.1.8/os/rt/ports/ARMCMx/chcore_v7m.h"
 1777              		.file 11 "../../../resources/chibios/ChibiOS_16.1.8/os/rt/include/chtm.h"
 1778              		.file 12 "../../../resources/chibios/ChibiOS_16.1.8/os/rt/include/chsem.h"
 1779              		.file 13 "../../../resources/chibios/ChibiOS_16.1.8/os/rt/include/chmtx.h"
 1780              		.file 14 "../../../resources/chibios/ChibiOS_16.1.8/test/rt/test.h"
 1781              		.file 15 "../../../resources/chibios/ChibiOS_16.1.8/os/rt/include/chsys.h"
 1782              		.file 16 "../../../resources/chibios/ChibiOS_16.1.8/os/ext/CMSIS/include/core_cm3.h"