ARM GAS  /tmp/ccox8edg.s 			page 1


   1              		.syntax unified
   2              		.cpu cortex-m3
   3              		.fpu softvfp
   4              		.eabi_attribute 20, 1
   5              		.eabi_attribute 21, 1
   6              		.eabi_attribute 23, 3
   7              		.eabi_attribute 24, 1
   8              		.eabi_attribute 25, 1
   9              		.eabi_attribute 26, 1
  10              		.eabi_attribute 30, 2
  11              		.eabi_attribute 34, 1
  12              		.eabi_attribute 18, 4
  13              		.thumb
  14              		.file	"testthd.c"
  15              		.text
  16              	.Ltext0:
  17              		.cfi_sections	.debug_frame
  18              		.section	.text.thd3_execute,"ax",%progbits
  19              		.align	2
  20              		.p2align 4,,15
  21              		.thumb
  22              		.thumb_func
  23              		.type	thd3_execute, %function
  24              	thd3_execute:
  25              	.LFB185:
  26              		.file 1 "../../../resources/chibios/ChibiOS_16.1.8/test/rt/testthd.c"
  27              		.loc 1 125 0
  28              		.cfi_startproc
  29              		@ args = 0, pretend = 0, frame = 0
  30              		@ frame_needed = 0, uses_anonymous_args = 0
  31 0000 F8B5     		push	{r3, r4, r5, r6, r7, lr}
  32              	.LCFI0:
  33              		.cfi_def_cfa_offset 24
  34              		.cfi_offset 14, -4
  35              		.cfi_offset 7, -8
  36              		.cfi_offset 6, -12
  37              		.cfi_offset 5, -16
  38              		.cfi_offset 4, -20
  39              		.cfi_offset 3, -24
  40              	.LBB257:
  41              	.LBB258:
  42              	.LBB259:
  43              	.LBB260:
  44              		.file 2 "../../../resources/chibios/ChibiOS_16.1.8/os/rt/include/chthreads.h"
  45              		.loc 2 176 0
  46 0002 40F20004 		movw	r4, #:lower16:ch
  47 0006 C0F20004 		movt	r4, #:upper16:ch
  48              	.LBE260:
  49              	.LBE259:
  50              		.loc 2 189 0
  51 000a A369     		ldr	r3, [r4, #24]
  52 000c 9D68     		ldr	r5, [r3, #8]
  53              	.LBE258:
  54              	.LBE257:
  55              		.loc 1 129 0
  56 000e 6E1C     		adds	r6, r5, #1
  57 0010 3046     		mov	r0, r6
ARM GAS  /tmp/ccox8edg.s 			page 2


  58 0012 FFF7FEFF 		bl	chThdSetPriority
  59              		.loc 1 130 0
  60 0016 421B     		subs	r2, r0, r5
  61 0018 5142     		rsbs	r1, r2, #0
  62 001a 41EB0201 		adc	r1, r1, r2
  63              		.loc 1 129 0
  64 001e 0746     		mov	r7, r0
  65              	.LVL0:
  66              		.loc 1 130 0
  67 0020 0120     		movs	r0, #1
  68              	.LVL1:
  69 0022 FFF7FEFF 		bl	_test_assert
  70 0026 00B1     		cbz	r0, .L4
  71              	.LVL2:
  72              	.L1:
  73 0028 F8BD     		pop	{r3, r4, r5, r6, r7, pc}
  74              	.LVL3:
  75              	.L4:
  76              	.LBB261:
  77              	.LBB262:
  78              		.loc 2 189 0
  79 002a A369     		ldr	r3, [r4, #24]
  80              	.LBE262:
  81              	.LBE261:
  82              		.loc 1 132 0
  83 002c 0220     		movs	r0, #2
  84 002e 9A68     		ldr	r2, [r3, #8]
  85 0030 B11A     		subs	r1, r6, r2
  86 0032 D1F1000C 		rsbs	ip, r1, #0
  87 0036 4CEB0101 		adc	r1, ip, r1
  88 003a FFF7FEFF 		bl	_test_assert
  89 003e 0028     		cmp	r0, #0
  90 0040 F2D1     		bne	.L1
  91              		.loc 1 134 0
  92 0042 3846     		mov	r0, r7
  93 0044 FFF7FEFF 		bl	chThdSetPriority
  94              	.LVL4:
  95              		.loc 1 135 0
  96 0048 311A     		subs	r1, r6, r0
  97 004a 4842     		rsbs	r0, r1, #0
  98              	.LVL5:
  99 004c 40EB0101 		adc	r1, r0, r1
 100 0050 0320     		movs	r0, #3
 101 0052 FFF7FEFF 		bl	_test_assert
 102 0056 0028     		cmp	r0, #0
 103 0058 E6D1     		bne	.L1
 104              	.LBB263:
 105              	.LBB264:
 106              		.loc 2 189 0
 107 005a A269     		ldr	r2, [r4, #24]
 108              	.LBE264:
 109              	.LBE263:
 110              		.loc 1 137 0
 111 005c 0420     		movs	r0, #4
 112 005e 9168     		ldr	r1, [r2, #8]
 113 0060 6B1A     		subs	r3, r5, r1
 114 0062 5A42     		rsbs	r2, r3, #0
ARM GAS  /tmp/ccox8edg.s 			page 3


 115 0064 42EB0301 		adc	r1, r2, r3
 116 0068 FFF7FEFF 		bl	_test_assert
 117 006c 0028     		cmp	r0, #0
 118 006e DBD1     		bne	.L1
 119              	.LVL6:
 120              	.LBB265:
 121              	.LBB266:
 122              	.LBB267:
 123              	.LBB268:
 124              		.file 3 "../../../resources/chibios/ChibiOS_16.1.8/os/ext/CMSIS/include/core_cmFunc.h"
 125              		.loc 3 548 0
 126 0070 2022     		movs	r2, #32
 127              	@ 548 "../../../resources/chibios/ChibiOS_16.1.8/os/ext/CMSIS/include/core_cmFunc.h" 1
 128 0072 82F31188 		MSR basepri, r2
 129              	@ 0 "" 2
 130              		.thumb
 131              	.LBE268:
 132              	.LBE267:
 133              	.LBE266:
 134              	.LBE265:
 135              	.LBB269:
 136              	.LBB270:
 137              		.loc 2 176 0
 138 0076 A369     		ldr	r3, [r4, #24]
 139              	.LBE270:
 140              	.LBE269:
 141              		.loc 1 143 0
 142 0078 9968     		ldr	r1, [r3, #8]
 143 007a 8F1C     		adds	r7, r1, #2
 144 007c 9F60     		str	r7, [r3, #8]
 145              	.LVL7:
 146              	.LBB271:
 147              	.LBB272:
 148              	.LBB273:
 149              	.LBB274:
 150              	.LBB275:
 151              		.loc 3 548 0
 152              	@ 548 "../../../resources/chibios/ChibiOS_16.1.8/os/ext/CMSIS/include/core_cmFunc.h" 1
 153 007e 80F31188 		MSR basepri, r0
 154              	@ 0 "" 2
 155              		.thumb
 156              	.LBE275:
 157              	.LBE274:
 158              	.LBE273:
 159              	.LBE272:
 160              	.LBE271:
 161              	.LBB276:
 162              	.LBB277:
 163              		.loc 2 189 0
 164 0082 A069     		ldr	r0, [r4, #24]
 165              	.LBE277:
 166              	.LBE276:
 167              		.loc 1 145 0
 168 0084 AF1C     		adds	r7, r5, #2
 169 0086 8268     		ldr	r2, [r0, #8]
 170 0088 0520     		movs	r0, #5
 171 008a B91A     		subs	r1, r7, r2
ARM GAS  /tmp/ccox8edg.s 			page 4


 172 008c 4B42     		rsbs	r3, r1, #0
 173 008e 43EB0101 		adc	r1, r3, r1
 174 0092 FFF7FEFF 		bl	_test_assert
 175 0096 0028     		cmp	r0, #0
 176 0098 C6D1     		bne	.L1
 177              		.loc 1 149 0
 178 009a 3046     		mov	r0, r6
 179 009c FFF7FEFF 		bl	chThdSetPriority
 180              	.LVL8:
 181              		.loc 1 150 0
 182 00a0 C5EB000C 		rsb	ip, r5, r0
 183 00a4 DCF10000 		rsbs	r0, ip, #0
 184              	.LVL9:
 185 00a8 40EB0C01 		adc	r1, r0, ip
 186 00ac 0620     		movs	r0, #6
 187 00ae FFF7FEFF 		bl	_test_assert
 188 00b2 0028     		cmp	r0, #0
 189 00b4 B8D1     		bne	.L1
 190              		.loc 1 152 0
 191 00b6 A369     		ldr	r3, [r4, #24]
 192 00b8 0720     		movs	r0, #7
 193 00ba 9A68     		ldr	r2, [r3, #8]
 194 00bc B91A     		subs	r1, r7, r2
 195 00be 4B42     		rsbs	r3, r1, #0
 196 00c0 43EB0101 		adc	r1, r3, r1
 197 00c4 FFF7FEFF 		bl	_test_assert
 198 00c8 0028     		cmp	r0, #0
 199 00ca ADD1     		bne	.L1
 200              		.loc 1 154 0
 201 00cc A369     		ldr	r3, [r4, #24]
 202 00ce 0820     		movs	r0, #8
 203 00d0 DA6B     		ldr	r2, [r3, #60]
 204 00d2 B11A     		subs	r1, r6, r2
 205 00d4 D1F1000C 		rsbs	ip, r1, #0
 206 00d8 4CEB0101 		adc	r1, ip, r1
 207 00dc FFF7FEFF 		bl	_test_assert
 208 00e0 0028     		cmp	r0, #0
 209 00e2 A1D1     		bne	.L1
 210              		.loc 1 158 0
 211 00e4 EF1C     		adds	r7, r5, #3
 212 00e6 3846     		mov	r0, r7
 213 00e8 FFF7FEFF 		bl	chThdSetPriority
 214              	.LVL10:
 215              		.loc 1 159 0
 216 00ec 301A     		subs	r0, r6, r0
 217              	.LVL11:
 218 00ee D0F1000C 		rsbs	ip, r0, #0
 219 00f2 4CEB0001 		adc	r1, ip, r0
 220 00f6 0920     		movs	r0, #9
 221 00f8 FFF7FEFF 		bl	_test_assert
 222 00fc 0028     		cmp	r0, #0
 223 00fe 93D1     		bne	.L1
 224              		.loc 1 161 0
 225 0100 A369     		ldr	r3, [r4, #24]
 226 0102 0A20     		movs	r0, #10
 227 0104 9A68     		ldr	r2, [r3, #8]
 228 0106 B91A     		subs	r1, r7, r2
ARM GAS  /tmp/ccox8edg.s 			page 5


 229 0108 D1F1000E 		rsbs	lr, r1, #0
 230 010c 4EEB0101 		adc	r1, lr, r1
 231 0110 FFF7FEFF 		bl	_test_assert
 232 0114 0028     		cmp	r0, #0
 233 0116 87D1     		bne	.L1
 234              		.loc 1 163 0
 235 0118 A469     		ldr	r4, [r4, #24]
 236 011a 0B20     		movs	r0, #11
 237 011c E26B     		ldr	r2, [r4, #60]
 238              	.LBB278:
 239              	.LBB279:
 240              		.loc 2 176 0
 241 011e 40F20004 		movw	r4, #:lower16:ch
 242              	.LBE279:
 243              	.LBE278:
 244              		.loc 1 163 0
 245 0122 B91A     		subs	r1, r7, r2
 246 0124 D1F1000C 		rsbs	ip, r1, #0
 247 0128 4CEB0101 		adc	r1, ip, r1
 248 012c FFF7FEFF 		bl	_test_assert
 249              	.LBB281:
 250              	.LBB280:
 251              		.loc 2 176 0
 252 0130 C0F20004 		movt	r4, #:upper16:ch
 253              	.LBE280:
 254              	.LBE281:
 255              		.loc 1 163 0
 256 0134 0028     		cmp	r0, #0
 257 0136 7FF477AF 		bne	.L1
 258              	.LVL12:
 259              	.LBB282:
 260              	.LBB283:
 261              	.LBB284:
 262              	.LBB285:
 263              		.loc 3 548 0
 264 013a 2021     		movs	r1, #32
 265              	@ 548 "../../../resources/chibios/ChibiOS_16.1.8/os/ext/CMSIS/include/core_cmFunc.h" 1
 266 013c 81F31188 		MSR basepri, r1
 267              	@ 0 "" 2
 268              		.thumb
 269              	.LBE285:
 270              	.LBE284:
 271              	.LBE283:
 272              	.LBE282:
 273              	.LBB286:
 274              	.LBB287:
 275              		.loc 2 176 0
 276 0140 A369     		ldr	r3, [r4, #24]
 277              	.LBE287:
 278              	.LBE286:
 279              		.loc 1 167 0
 280 0142 9D60     		str	r5, [r3, #8]
 281              		.loc 1 168 0
 282 0144 DD63     		str	r5, [r3, #60]
 283              	.LVL13:
 284              	.LBB288:
 285              	.LBB289:
ARM GAS  /tmp/ccox8edg.s 			page 6


 286              	.LBB290:
 287              	.LBB291:
 288              	.LBB292:
 289              		.loc 3 548 0
 290              	@ 548 "../../../resources/chibios/ChibiOS_16.1.8/os/ext/CMSIS/include/core_cmFunc.h" 1
 291 0146 80F31188 		MSR basepri, r0
 292              	@ 0 "" 2
 293              		.thumb
 294 014a 6DE7     		b	.L1
 295              	.LBE292:
 296              	.LBE291:
 297              	.LBE290:
 298              	.LBE289:
 299              	.LBE288:
 300              		.cfi_endproc
 301              	.LFE185:
 302              		.size	thd3_execute, .-thd3_execute
 303 014c AFF30080 		.section	.text.thd2_execute,"ax",%progbits
 304              		.align	2
 305              		.p2align 4,,15
 306              		.thumb
 307              		.thumb_func
 308              		.type	thd2_execute, %function
 309              	thd2_execute:
 310              	.LFB184:
 311              		.loc 1 93 0
 312              		.cfi_startproc
 313              		@ args = 0, pretend = 0, frame = 0
 314              		@ frame_needed = 0, uses_anonymous_args = 0
 315 0000 F0B5     		push	{r4, r5, r6, r7, lr}
 316              	.LCFI1:
 317              		.cfi_def_cfa_offset 20
 318              		.cfi_offset 14, -4
 319              		.cfi_offset 7, -8
 320              		.cfi_offset 6, -12
 321              		.cfi_offset 5, -16
 322              		.cfi_offset 4, -20
 323              	.LBB293:
 324              	.LBB294:
 325              	.LBB295:
 326              	.LBB296:
 327              		.loc 2 176 0
 328 0002 40F20007 		movw	r7, #:lower16:ch
 329 0006 C0F20007 		movt	r7, #:upper16:ch
 330              	.LBE296:
 331              	.LBE295:
 332              		.loc 2 189 0
 333 000a BD69     		ldr	r5, [r7, #24]
 334              	.LBE294:
 335              	.LBE293:
 336              		.loc 1 95 0
 337 000c 40F20006 		movw	r6, #:lower16:wa
 338 0010 AB68     		ldr	r3, [r5, #8]
 339 0012 40F20005 		movw	r5, #:lower16:thread
 340 0016 C0F20006 		movt	r6, #:upper16:wa
 341 001a C0F20005 		movt	r5, #:upper16:thread
 342 001e 40F20004 		movw	r4, #:lower16:.LC0
ARM GAS  /tmp/ccox8edg.s 			page 7


 343              		.loc 1 93 0
 344 0022 83B0     		sub	sp, sp, #12
 345              	.LCFI2:
 346              		.cfi_def_cfa_offset 32
 347              		.loc 1 95 0
 348 0024 1A1F     		subs	r2, r3, #4
 349 0026 7068     		ldr	r0, [r6, #4]
 350 0028 2B46     		mov	r3, r5
 351 002a C0F20004 		movt	r4, #:upper16:.LC0
 352 002e 4FF4A471 		mov	r1, #328
 353 0032 0094     		str	r4, [sp, #0]
 354 0034 FFF7FEFF 		bl	chThdCreateStatic
 355              	.LBB297:
 356              	.LBB298:
 357              		.loc 2 189 0
 358 0038 BC69     		ldr	r4, [r7, #24]
 359              	.LBE298:
 360              	.LBE297:
 361              		.loc 1 96 0
 362 003a 3168     		ldr	r1, [r6, #0]
 363 003c A268     		ldr	r2, [r4, #8]
 364              		.loc 1 95 0
 365 003e 40F20004 		movw	r4, #:lower16:threads
 366 0042 C0F20004 		movt	r4, #:upper16:threads
 367              		.loc 1 96 0
 368 0046 40F2000E 		movw	lr, #:lower16:.LC1
 369              		.loc 1 95 0
 370 004a 6060     		str	r0, [r4, #4]
 371              		.loc 1 96 0
 372 004c C0F2000E 		movt	lr, #:upper16:.LC1
 373 0050 053A     		subs	r2, r2, #5
 374 0052 2B46     		mov	r3, r5
 375 0054 0846     		mov	r0, r1
 376 0056 4FF4A471 		mov	r1, #328
 377 005a CDF800E0 		str	lr, [sp, #0]
 378 005e FFF7FEFF 		bl	chThdCreateStatic
 379              	.LBB299:
 380              	.LBB300:
 381              		.loc 2 189 0
 382 0062 BB69     		ldr	r3, [r7, #24]
 383              	.LBE300:
 384              	.LBE299:
 385              		.loc 1 97 0
 386 0064 3169     		ldr	r1, [r6, #16]
 387 0066 9A68     		ldr	r2, [r3, #8]
 388 0068 40F2000C 		movw	ip, #:lower16:.LC2
 389              		.loc 1 96 0
 390 006c 2060     		str	r0, [r4, #0]
 391              		.loc 1 97 0
 392 006e C0F2000C 		movt	ip, #:upper16:.LC2
 393 0072 013A     		subs	r2, r2, #1
 394 0074 2B46     		mov	r3, r5
 395 0076 0846     		mov	r0, r1
 396 0078 4FF4A471 		mov	r1, #328
 397 007c CDF800C0 		str	ip, [sp, #0]
 398 0080 FFF7FEFF 		bl	chThdCreateStatic
 399              	.LBB301:
ARM GAS  /tmp/ccox8edg.s 			page 8


 400              	.LBB302:
 401              		.loc 2 189 0
 402 0084 B969     		ldr	r1, [r7, #24]
 403              	.LBE302:
 404              	.LBE301:
 405              		.loc 1 98 0
 406 0086 F368     		ldr	r3, [r6, #12]
 407 0088 8A68     		ldr	r2, [r1, #8]
 408 008a 40F2000E 		movw	lr, #:lower16:.LC3
 409              		.loc 1 97 0
 410 008e 2061     		str	r0, [r4, #16]
 411              		.loc 1 98 0
 412 0090 C0F2000E 		movt	lr, #:upper16:.LC3
 413 0094 1846     		mov	r0, r3
 414 0096 4FF4A471 		mov	r1, #328
 415 009a 023A     		subs	r2, r2, #2
 416 009c 2B46     		mov	r3, r5
 417 009e CDF800E0 		str	lr, [sp, #0]
 418 00a2 FFF7FEFF 		bl	chThdCreateStatic
 419 00a6 E060     		str	r0, [r4, #12]
 420              	.LVL14:
 421              	.LBB303:
 422              	.LBB304:
 423              	.LBB305:
 424              	.LBB306:
 425              		.loc 3 548 0
 426 00a8 2020     		movs	r0, #32
 427              	@ 548 "../../../resources/chibios/ChibiOS_16.1.8/os/ext/CMSIS/include/core_cmFunc.h" 1
 428 00aa 80F31188 		MSR basepri, r0
 429              	@ 0 "" 2
 430              		.thumb
 431              	.LBE306:
 432              	.LBE305:
 433              	.LBE304:
 434              	.LBE303:
 435              	.LBB307:
 436              	.LBB308:
 437              		.loc 2 189 0
 438 00ae B969     		ldr	r1, [r7, #24]
 439              	.LBE308:
 440              	.LBE307:
 441              		.loc 1 101 0
 442 00b0 B068     		ldr	r0, [r6, #8]
 443 00b2 8A68     		ldr	r2, [r1, #8]
 444 00b4 40F20006 		movw	r6, #:lower16:.LC4
 445 00b8 2B46     		mov	r3, r5
 446 00ba C0F20006 		movt	r6, #:upper16:.LC4
 447 00be 4FF4A471 		mov	r1, #328
 448 00c2 033A     		subs	r2, r2, #3
 449 00c4 0096     		str	r6, [sp, #0]
 450 00c6 FFF7FEFF 		bl	chThdCreateI
 451 00ca A060     		str	r0, [r4, #8]
 452              	.LVL15:
 453              	.LBB309:
 454              	.LBB310:
 455              	.LBB311:
 456              	.LBB312:
ARM GAS  /tmp/ccox8edg.s 			page 9


 457              	.LBB313:
 458              		.loc 3 548 0
 459 00cc 0023     		movs	r3, #0
 460              	@ 548 "../../../resources/chibios/ChibiOS_16.1.8/os/ext/CMSIS/include/core_cmFunc.h" 1
 461 00ce 83F31188 		MSR basepri, r3
 462              	@ 0 "" 2
 463              		.thumb
 464              	.LBE313:
 465              	.LBE312:
 466              	.LBE311:
 467              	.LBE310:
 468              	.LBE309:
 469              		.loc 1 103 0
 470 00d2 A068     		ldr	r0, [r4, #8]
 471 00d4 FFF7FEFF 		bl	chThdStart
 472              		.loc 1 104 0
 473 00d8 FFF7FEFF 		bl	test_wait_threads
 474              		.loc 1 105 0
 475 00dc 40F20001 		movw	r1, #:lower16:.LC5
 476 00e0 0120     		movs	r0, #1
 477 00e2 C0F20001 		movt	r1, #:upper16:.LC5
 478              		.loc 1 106 0
 479 00e6 03B0     		add	sp, sp, #12
 480 00e8 BDE8F040 		pop	{r4, r5, r6, r7, lr}
 481              		.loc 1 105 0
 482 00ec FFF7FEBF 		b	_test_assert_sequence
 483              		.cfi_endproc
 484              	.LFE184:
 485              		.size	thd2_execute, .-thd2_execute
 486              		.section	.text.thd1_execute,"ax",%progbits
 487              		.align	2
 488              		.p2align 4,,15
 489              		.thumb
 490              		.thumb_func
 491              		.type	thd1_execute, %function
 492              	thd1_execute:
 493              	.LFB183:
 494              		.loc 1 65 0
 495              		.cfi_startproc
 496              		@ args = 0, pretend = 0, frame = 0
 497              		@ frame_needed = 0, uses_anonymous_args = 0
 498 0000 F0B5     		push	{r4, r5, r6, r7, lr}
 499              	.LCFI3:
 500              		.cfi_def_cfa_offset 20
 501              		.cfi_offset 14, -4
 502              		.cfi_offset 7, -8
 503              		.cfi_offset 6, -12
 504              		.cfi_offset 5, -16
 505              		.cfi_offset 4, -20
 506              	.LBB314:
 507              	.LBB315:
 508              	.LBB316:
 509              	.LBB317:
 510              		.loc 2 176 0
 511 0002 40F20007 		movw	r7, #:lower16:ch
 512 0006 C0F20007 		movt	r7, #:upper16:ch
 513              	.LBE317:
ARM GAS  /tmp/ccox8edg.s 			page 10


 514              	.LBE316:
 515              		.loc 2 189 0
 516 000a B869     		ldr	r0, [r7, #24]
 517              	.LBE315:
 518              	.LBE314:
 519              		.loc 1 67 0
 520 000c 40F20006 		movw	r6, #:lower16:wa
 521 0010 8268     		ldr	r2, [r0, #8]
 522 0012 40F20005 		movw	r5, #:lower16:thread
 523 0016 C0F20006 		movt	r6, #:upper16:wa
 524 001a C0F20005 		movt	r5, #:upper16:thread
 525 001e 40F20004 		movw	r4, #:lower16:.LC1
 526              		.loc 1 65 0
 527 0022 83B0     		sub	sp, sp, #12
 528              	.LCFI4:
 529              		.cfi_def_cfa_offset 32
 530              		.loc 1 67 0
 531 0024 053A     		subs	r2, r2, #5
 532 0026 2B46     		mov	r3, r5
 533 0028 3068     		ldr	r0, [r6, #0]
 534 002a C0F20004 		movt	r4, #:upper16:.LC1
 535 002e 4FF4A471 		mov	r1, #328
 536 0032 0094     		str	r4, [sp, #0]
 537 0034 FFF7FEFF 		bl	chThdCreateStatic
 538              	.LBB318:
 539              	.LBB319:
 540              		.loc 2 189 0
 541 0038 BC69     		ldr	r4, [r7, #24]
 542              	.LBE319:
 543              	.LBE318:
 544              		.loc 1 68 0
 545 003a D6F804C0 		ldr	ip, [r6, #4]
 546 003e A368     		ldr	r3, [r4, #8]
 547              		.loc 1 67 0
 548 0040 40F20004 		movw	r4, #:lower16:threads
 549 0044 C0F20004 		movt	r4, #:upper16:threads
 550              		.loc 1 68 0
 551 0048 40F2000E 		movw	lr, #:lower16:.LC0
 552              		.loc 1 67 0
 553 004c 2060     		str	r0, [r4, #0]
 554              		.loc 1 68 0
 555 004e 1A1F     		subs	r2, r3, #4
 556 0050 C0F2000E 		movt	lr, #:upper16:.LC0
 557 0054 2B46     		mov	r3, r5
 558 0056 4FF4A471 		mov	r1, #328
 559 005a 6046     		mov	r0, ip
 560 005c CDF800E0 		str	lr, [sp, #0]
 561 0060 FFF7FEFF 		bl	chThdCreateStatic
 562              	.LBB320:
 563              	.LBB321:
 564              		.loc 2 189 0
 565 0064 BA69     		ldr	r2, [r7, #24]
 566              	.LBE321:
 567              	.LBE320:
 568              		.loc 1 69 0
 569 0066 D6F808C0 		ldr	ip, [r6, #8]
 570 006a 9368     		ldr	r3, [r2, #8]
ARM GAS  /tmp/ccox8edg.s 			page 11


 571 006c 40F2000E 		movw	lr, #:lower16:.LC4
 572              		.loc 1 68 0
 573 0070 6060     		str	r0, [r4, #4]
 574              		.loc 1 69 0
 575 0072 DA1E     		subs	r2, r3, #3
 576 0074 C0F2000E 		movt	lr, #:upper16:.LC4
 577 0078 2B46     		mov	r3, r5
 578 007a 4FF4A471 		mov	r1, #328
 579 007e 6046     		mov	r0, ip
 580 0080 CDF800E0 		str	lr, [sp, #0]
 581 0084 FFF7FEFF 		bl	chThdCreateStatic
 582              	.LBB322:
 583              	.LBB323:
 584              		.loc 2 189 0
 585 0088 B969     		ldr	r1, [r7, #24]
 586              	.LBE323:
 587              	.LBE322:
 588              		.loc 1 70 0
 589 008a D6F80CC0 		ldr	ip, [r6, #12]
 590 008e 8A68     		ldr	r2, [r1, #8]
 591 0090 40F2000E 		movw	lr, #:lower16:.LC3
 592 0094 C0F2000E 		movt	lr, #:upper16:.LC3
 593              		.loc 1 69 0
 594 0098 A060     		str	r0, [r4, #8]
 595              		.loc 1 70 0
 596 009a 023A     		subs	r2, r2, #2
 597 009c 6046     		mov	r0, ip
 598 009e 2B46     		mov	r3, r5
 599 00a0 4FF4A471 		mov	r1, #328
 600 00a4 CDF800E0 		str	lr, [sp, #0]
 601 00a8 FFF7FEFF 		bl	chThdCreateStatic
 602              	.LBB324:
 603              	.LBB325:
 604              		.loc 2 189 0
 605 00ac BB69     		ldr	r3, [r7, #24]
 606              	.LBE325:
 607              	.LBE324:
 608              		.loc 1 71 0
 609 00ae 3769     		ldr	r7, [r6, #16]
 610 00b0 9A68     		ldr	r2, [r3, #8]
 611 00b2 40F20006 		movw	r6, #:lower16:.LC2
 612              		.loc 1 70 0
 613 00b6 E060     		str	r0, [r4, #12]
 614              		.loc 1 71 0
 615 00b8 4FF4A471 		mov	r1, #328
 616 00bc 013A     		subs	r2, r2, #1
 617 00be 2B46     		mov	r3, r5
 618 00c0 C0F20006 		movt	r6, #:upper16:.LC2
 619 00c4 3846     		mov	r0, r7
 620 00c6 0096     		str	r6, [sp, #0]
 621 00c8 FFF7FEFF 		bl	chThdCreateStatic
 622 00cc 2061     		str	r0, [r4, #16]
 623              		.loc 1 72 0
 624 00ce FFF7FEFF 		bl	test_wait_threads
 625              		.loc 1 73 0
 626 00d2 40F20001 		movw	r1, #:lower16:.LC5
 627 00d6 0120     		movs	r0, #1
ARM GAS  /tmp/ccox8edg.s 			page 12


 628 00d8 C0F20001 		movt	r1, #:upper16:.LC5
 629              		.loc 1 74 0
 630 00dc 03B0     		add	sp, sp, #12
 631 00de BDE8F040 		pop	{r4, r5, r6, r7, lr}
 632              		.loc 1 73 0
 633 00e2 FFF7FEBF 		b	_test_assert_sequence
 634              		.cfi_endproc
 635              	.LFE183:
 636              		.size	thd1_execute, .-thd1_execute
 637 00e6 00BFAFF3 		.section	.text.thread,"ax",%progbits
 637      0080AFF3 
 637      0080
 638              		.align	2
 639              		.p2align 4,,15
 640              		.thumb
 641              		.thumb_func
 642              		.type	thread, %function
 643              	thread:
 644              	.LFB182:
 645              		.loc 1 60 0
 646              		.cfi_startproc
 647              		@ args = 0, pretend = 0, frame = 0
 648              		@ frame_needed = 0, uses_anonymous_args = 0
 649              		@ link register save eliminated.
 650              	.LVL16:
 651              		.loc 1 62 0
 652 0000 0078     		ldrb	r0, [r0, #0]	@ zero_extendqisi2
 653              	.LVL17:
 654              		.loc 1 63 0
 655              		.loc 1 62 0
 656 0002 FFF7FEBF 		b	test_emit_token
 657              		.cfi_endproc
 658              	.LFE182:
 659              		.size	thread, .-thread
 660 0006 00BFAFF3 		.section	.text.thd4_execute,"ax",%progbits
 660      0080AFF3 
 660      0080
 661              		.align	2
 662              		.p2align 4,,15
 663              		.thumb
 664              		.thumb_func
 665              		.type	thd4_execute, %function
 666              	thd4_execute:
 667              	.LFB186:
 668              		.loc 1 188 0
 669              		.cfi_startproc
 670              		@ args = 0, pretend = 0, frame = 0
 671              		@ frame_needed = 0, uses_anonymous_args = 0
 672 0000 70B5     		push	{r4, r5, r6, lr}
 673              	.LCFI5:
 674              		.cfi_def_cfa_offset 16
 675              		.cfi_offset 14, -4
 676              		.cfi_offset 6, -8
 677              		.cfi_offset 5, -12
 678              		.cfi_offset 4, -16
 679              		.loc 1 191 0
 680 0002 FFF7FEFF 		bl	test_wait_tick
ARM GAS  /tmp/ccox8edg.s 			page 13


 681              	.LVL18:
 682              	.LBB418:
 683              	.LBB419:
 684              	.LBB420:
 685              	.LBB421:
 686              	.LBB422:
 687              	.LBB423:
 688              		.loc 3 548 0
 689 0006 2025     		movs	r5, #32
 690              	@ 548 "../../../resources/chibios/ChibiOS_16.1.8/os/ext/CMSIS/include/core_cmFunc.h" 1
 691 0008 85F31188 		MSR basepri, r5
 692              	@ 0 "" 2
 693              		.thumb
 694              	.LBE423:
 695              	.LBE422:
 696              	.LBE421:
 697              	.LBE420:
 698              	.LBB424:
 699              	.LBB425:
 700              	.LBB426:
 701              	.LBB427:
 702              		.file 4 "../../../resources/chibios/ChibiOS_16.1.8/os/hal/ports/STM32/LLD/TIMv1/st_lld.h"
 703              		.loc 4 141 0
 704 000c 4FF08044 		mov	r4, #1073741824
 705 0010 666A     		ldr	r6, [r4, #36]
 706              	.LBE427:
 707              	.LBE426:
 708              	.LBE425:
 709              	.LBE424:
 710              	.LBB431:
 711              	.LBB432:
 712              	.LBB433:
 713              	.LBB434:
 714              	.LBB435:
 715              		.loc 3 548 0
 716 0012 0023     		movs	r3, #0
 717              	.LBE435:
 718              	.LBE434:
 719              	.LBE433:
 720              	.LBE432:
 721              	.LBE431:
 722              	.LBB440:
 723              	.LBB430:
 724              	.LBB429:
 725              	.LBB428:
 726              		.loc 4 141 0
 727 0014 B6B2     		uxth	r6, r6
 728              	.LVL19:
 729              	.LBE428:
 730              	.LBE429:
 731              	.LBE430:
 732              	.LBE440:
 733              	.LBB441:
 734              	.LBB439:
 735              	.LBB438:
 736              	.LBB437:
 737              	.LBB436:
ARM GAS  /tmp/ccox8edg.s 			page 14


 738              		.loc 3 548 0
 739              	@ 548 "../../../resources/chibios/ChibiOS_16.1.8/os/ext/CMSIS/include/core_cmFunc.h" 1
 740 0016 83F31188 		MSR basepri, r3
 741              	@ 0 "" 2
 742              		.thumb
 743              	.LBE436:
 744              	.LBE437:
 745              	.LBE438:
 746              	.LBE439:
 747              	.LBE441:
 748              	.LBE419:
 749              	.LBE418:
 750              		.loc 1 195 0
 751 001a 6420     		movs	r0, #100
 752 001c FFF7FEFF 		bl	chThdSleep
 753              		.loc 1 196 0
 754 0020 06F16401 		add	r1, r6, #100
 755 0024 06F16702 		add	r2, r6, #103
 756 0028 0120     		movs	r0, #1
 757 002a 89B2     		uxth	r1, r1
 758 002c 92B2     		uxth	r2, r2
 759 002e FFF7FEFF 		bl	_test_assert_time_window
 760 0032 00B1     		cbz	r0, .L10
 761              	.L8:
 762 0034 70BD     		pop	{r4, r5, r6, pc}
 763              	.L10:
 764              	.LBB442:
 765              	.LBB443:
 766              	.LBB444:
 767              	.LBB445:
 768              	.LBB446:
 769              	.LBB447:
 770              		.loc 3 548 0
 771              	@ 548 "../../../resources/chibios/ChibiOS_16.1.8/os/ext/CMSIS/include/core_cmFunc.h" 1
 772 0036 85F31188 		MSR basepri, r5
 773              	@ 0 "" 2
 774              		.thumb
 775              	.LBE447:
 776              	.LBE446:
 777              	.LBE445:
 778              	.LBE444:
 779              	.LBB448:
 780              	.LBB449:
 781              	.LBB450:
 782              	.LBB451:
 783              		.loc 4 141 0
 784 003a 616A     		ldr	r1, [r4, #36]
 785 003c 8EB2     		uxth	r6, r1
 786              	.LVL20:
 787              	.LBE451:
 788              	.LBE450:
 789              	.LBE449:
 790              	.LBE448:
 791              	.LBB452:
 792              	.LBB453:
 793              	.LBB454:
 794              	.LBB455:
ARM GAS  /tmp/ccox8edg.s 			page 15


 795              	.LBB456:
 796              		.loc 3 548 0
 797              	@ 548 "../../../resources/chibios/ChibiOS_16.1.8/os/ext/CMSIS/include/core_cmFunc.h" 1
 798 003e 80F31188 		MSR basepri, r0
 799              	@ 0 "" 2
 800              		.thumb
 801              	.LBE456:
 802              	.LBE455:
 803              	.LBE454:
 804              	.LBE453:
 805              	.LBE452:
 806              	.LBE443:
 807              	.LBE442:
 808              		.loc 1 202 0
 809 0042 6420     		movs	r0, #100
 810 0044 FFF7FEFF 		bl	chThdSleep
 811              		.loc 1 203 0
 812 0048 06F16402 		add	r2, r6, #100
 813 004c 06F1670C 		add	ip, r6, #103
 814 0050 91B2     		uxth	r1, r2
 815 0052 0220     		movs	r0, #2
 816 0054 1FFA8CF2 		uxth	r2, ip
 817 0058 FFF7FEFF 		bl	_test_assert_time_window
 818 005c 0028     		cmp	r0, #0
 819 005e E9D1     		bne	.L8
 820              	.LBB457:
 821              	.LBB458:
 822              	.LBB459:
 823              	.LBB460:
 824              	.LBB461:
 825              	.LBB462:
 826              	.LBB463:
 827              	.LBB464:
 828              		.loc 3 548 0
 829              	@ 548 "../../../resources/chibios/ChibiOS_16.1.8/os/ext/CMSIS/include/core_cmFunc.h" 1
 830 0060 85F31188 		MSR basepri, r5
 831              	@ 0 "" 2
 832              		.thumb
 833              	.LBE464:
 834              	.LBE463:
 835              	.LBE462:
 836              	.LBE461:
 837              	.LBB465:
 838              	.LBB466:
 839              	.LBB467:
 840              	.LBB468:
 841              		.loc 4 141 0
 842 0064 666A     		ldr	r6, [r4, #36]
 843 0066 B6B2     		uxth	r6, r6
 844              	.LVL21:
 845              	.LBE468:
 846              	.LBE467:
 847              	.LBE466:
 848              	.LBE465:
 849              	.LBB469:
 850              	.LBB470:
 851              	.LBB471:
ARM GAS  /tmp/ccox8edg.s 			page 16


 852              	.LBB472:
 853              	.LBB473:
 854              		.loc 3 548 0
 855              	@ 548 "../../../resources/chibios/ChibiOS_16.1.8/os/ext/CMSIS/include/core_cmFunc.h" 1
 856 0068 80F31188 		MSR basepri, r0
 857              	@ 0 "" 2
 858              		.thumb
 859              	.LBE473:
 860              	.LBE472:
 861              	.LBE471:
 862              	.LBE470:
 863              	.LBE469:
 864              	.LBE460:
 865              	.LBE459:
 866              		.loc 1 209 0
 867 006c 4FF47A70 		mov	r0, #1000
 868 0070 FFF7FEFF 		bl	chThdSleep
 869              		.loc 1 210 0
 870 0074 06F57A72 		add	r2, r6, #1000
 871 0078 D31C     		adds	r3, r2, #3
 872 007a 91B2     		uxth	r1, r2
 873 007c 0320     		movs	r0, #3
 874 007e 9AB2     		uxth	r2, r3
 875 0080 FFF7FEFF 		bl	_test_assert_time_window
 876 0084 0028     		cmp	r0, #0
 877 0086 D5D1     		bne	.L8
 878              	.LBB474:
 879              	.LBB475:
 880              	.LBB476:
 881              	.LBB477:
 882              	.LBB478:
 883              	.LBB479:
 884              		.loc 3 548 0
 885              	@ 548 "../../../resources/chibios/ChibiOS_16.1.8/os/ext/CMSIS/include/core_cmFunc.h" 1
 886 0088 85F31188 		MSR basepri, r5
 887              	@ 0 "" 2
 888              		.thumb
 889              	.LBE479:
 890              	.LBE478:
 891              	.LBE477:
 892              	.LBE476:
 893              	.LBB480:
 894              	.LBB481:
 895              	.LBB482:
 896              	.LBB483:
 897              		.loc 4 141 0
 898 008c 656A     		ldr	r5, [r4, #36]
 899 008e ADB2     		uxth	r5, r5
 900              	.LVL22:
 901              	.LBE483:
 902              	.LBE482:
 903              	.LBE481:
 904              	.LBE480:
 905              	.LBB484:
 906              	.LBB485:
 907              	.LBB486:
 908              	.LBB487:
ARM GAS  /tmp/ccox8edg.s 			page 17


 909              	.LBB488:
 910              		.loc 3 548 0
 911              	@ 548 "../../../resources/chibios/ChibiOS_16.1.8/os/ext/CMSIS/include/core_cmFunc.h" 1
 912 0090 80F31188 		MSR basepri, r0
 913              	@ 0 "" 2
 914              		.thumb
 915              	.LBE488:
 916              	.LBE487:
 917              	.LBE486:
 918              	.LBE485:
 919              	.LBE484:
 920              	.LBE475:
 921              	.LBE474:
 922              		.loc 1 215 0
 923 0094 05F16404 		add	r4, r5, #100
 924 0098 A4B2     		uxth	r4, r4
 925              	.LVL23:
 926              		.loc 1 216 0
 927 009a 2046     		mov	r0, r4
 928 009c FFF7FEFF 		bl	chThdSleepUntil
 929              		.loc 1 217 0
 930 00a0 05F16703 		add	r3, r5, #103
 931 00a4 0420     		movs	r0, #4
 932 00a6 2146     		mov	r1, r4
 933 00a8 9AB2     		uxth	r2, r3
 934              	.LBE458:
 935              	.LBE457:
 936              		.loc 1 220 0
 937 00aa BDE87040 		pop	{r4, r5, r6, lr}
 938              	.LBB490:
 939              	.LBB489:
 940              		.loc 1 217 0
 941 00ae FFF7FEBF 		b	_test_assert_time_window
 942              	.LBE489:
 943              	.LBE490:
 944              		.cfi_endproc
 945              	.LFE186:
 946              		.size	thd4_execute, .-thd4_execute
 947              		.global	patternthd
 948              		.global	testthd4
 949              		.global	testthd3
 950              		.global	testthd2
 951              		.global	testthd1
 952 00b2 00BFAFF3 		.section	.rodata.testthd1,"a",%progbits
 952      0080AFF3 
 952      0080AFF3 
 952      0080
 953              		.align	2
 954              		.type	testthd1, %object
 955              		.size	testthd1, 16
 956              	testthd1:
 957 0000 64000000 		.word	.LC9
 958 0004 00000000 		.word	0
 959 0008 00000000 		.word	0
 960 000c 00000000 		.word	thd1_execute
 961              		.section	.rodata.testthd2,"a",%progbits
 962              		.align	2
ARM GAS  /tmp/ccox8edg.s 			page 18


 963              		.type	testthd2, %object
 964              		.size	testthd2, 16
 965              	testthd2:
 966 0000 48000000 		.word	.LC8
 967 0004 00000000 		.word	0
 968 0008 00000000 		.word	0
 969 000c 00000000 		.word	thd2_execute
 970              		.section	.rodata.testthd3,"a",%progbits
 971              		.align	2
 972              		.type	testthd3, %object
 973              		.size	testthd3, 16
 974              	testthd3:
 975 0000 2C000000 		.word	.LC7
 976 0004 00000000 		.word	0
 977 0008 00000000 		.word	0
 978 000c 00000000 		.word	thd3_execute
 979              		.section	.rodata.testthd4,"a",%progbits
 980              		.align	2
 981              		.type	testthd4, %object
 982              		.size	testthd4, 16
 983              	testthd4:
 984 0000 1C000000 		.word	.LC6
 985 0004 00000000 		.word	0
 986 0008 00000000 		.word	0
 987 000c 00000000 		.word	thd4_execute
 988              		.section	.rodata.patternthd,"a",%progbits
 989              		.align	2
 990              		.type	patternthd, %object
 991              		.size	patternthd, 20
 992              	patternthd:
 993 0000 00000000 		.word	testthd1
 994 0004 00000000 		.word	testthd2
 995 0008 00000000 		.word	testthd3
 996 000c 00000000 		.word	testthd4
 997 0010 00000000 		.word	0
 998              		.section	.rodata.str1.4,"aMS",%progbits,1
 999              		.align	2
 1000              	.LC0:
 1001 0000 4400     		.ascii	"D\000"
 1002 0002 0000     		.space	2
 1003              	.LC1:
 1004 0004 4500     		.ascii	"E\000"
 1005 0006 0000     		.space	2
 1006              	.LC2:
 1007 0008 4100     		.ascii	"A\000"
 1008 000a 0000     		.space	2
 1009              	.LC3:
 1010 000c 4200     		.ascii	"B\000"
 1011 000e 0000     		.space	2
 1012              	.LC4:
 1013 0010 4300     		.ascii	"C\000"
 1014 0012 0000     		.space	2
 1015              	.LC5:
 1016 0014 41424344 		.ascii	"ABCDE\000"
 1016      4500
 1017 001a 0000     		.space	2
 1018              	.LC6:
ARM GAS  /tmp/ccox8edg.s 			page 19


 1019 001c 54687265 		.ascii	"Threads, delays\000"
 1019      6164732C 
 1019      2064656C 
 1019      61797300 
 1020              	.LC7:
 1021 002c 54687265 		.ascii	"Threads, priority change\000"
 1021      6164732C 
 1021      20707269 
 1021      6F726974 
 1021      79206368 
 1022 0045 000000   		.space	3
 1023              	.LC8:
 1024 0048 54687265 		.ascii	"Threads, enqueuing test #2\000"
 1024      6164732C 
 1024      20656E71 
 1024      75657569 
 1024      6E672074 
 1025 0063 00       		.space	1
 1026              	.LC9:
 1027 0064 54687265 		.ascii	"Threads, enqueuing test #1\000"
 1027      6164732C 
 1027      20656E71 
 1027      75657569 
 1027      6E672074 
 1028 007f 00       		.text
 1029              	.Letext0:
 1030              		.file 5 "/home/madog/programs/CodeSourcery/Sourcery_CodeBench_Lite_for_ARM_EABI/bin/../lib/gcc/arm
 1031              		.file 6 "/home/madog/programs/CodeSourcery/Sourcery_CodeBench_Lite_for_ARM_EABI/bin/../lib/gcc/arm
 1032              		.file 7 "../../../resources/chibios/ChibiOS_16.1.8/os/rt/ports/ARMCMx/compilers/GCC/chtypes.h"
 1033              		.file 8 "../../../resources/chibios/ChibiOS_16.1.8/os/rt/include/chsystypes.h"
 1034              		.file 9 "../../../resources/chibios/ChibiOS_16.1.8/os/rt/include/chschd.h"
 1035              		.file 10 "../../../resources/chibios/ChibiOS_16.1.8/os/rt/ports/ARMCMx/chcore.h"
 1036              		.file 11 "../../../resources/chibios/ChibiOS_16.1.8/os/rt/ports/ARMCMx/chcore_v7m.h"
 1037              		.file 12 "../../../resources/chibios/ChibiOS_16.1.8/os/hal/ports/STM32/LLD/TIMv1/stm32_tim.h"
 1038              		.file 13 "../../../resources/chibios/ChibiOS_16.1.8/os/rt/include/chtm.h"
 1039              		.file 14 "../../../resources/chibios/ChibiOS_16.1.8/os/rt/include/chsem.h"
 1040              		.file 15 "../../../resources/chibios/ChibiOS_16.1.8/os/rt/include/chmtx.h"
 1041              		.file 16 "../../../resources/chibios/ChibiOS_16.1.8/test/rt/test.h"
 1042              		.file 17 "../../../resources/chibios/ChibiOS_16.1.8/os/rt/ports/ARMCMx/chcore_timer.h"
 1043              		.file 18 "../../../resources/chibios/ChibiOS_16.1.8/os/rt/include/chsys.h"
 1044              		.file 19 "../../../resources/chibios/ChibiOS_16.1.8/os/rt/include/chvt.h"
 1045              		.file 20 "../../../resources/chibios/ChibiOS_16.1.8/os/ext/CMSIS/include/core_cm3.h"